(dp1
S'output'
p2
S''
sS'layer'
p3
S'/home/ian/web2py/applications/grades/controllers/default.py'
p4
sS'code'
p5
S"# -*- coding: utf-8 -*-\nfrom gluon import * \nimport datetime\n\n### required - do no delete\ndef user(): return dict(form=auth())\ndef download(): return response.download(request,db)\ndef call(): return service()\n### end requires\ndef index():\n    courses = db(db.courses.id > 0).select()\n    return dict(courses = courses)\n\ndef error():\n    return dict()\n\n@auth.requires_membership(role='administrators')\ndef grades_manage():\n    form = SQLFORM.smartgrid(db.grades,onupdate=auth.archive)\n    return locals()\n\n@auth.requires_membership(role='administrators')\ndef classes_manage():\n    form = SQLFORM.smartgrid(db.courses,onupdate=auth.archive)\n    return locals()\n\n@auth.requires_login()\ndef create_grade():\n    form = crud.create(db.grades)\n    return dict(form = form)\n\n@auth.requires_membership(role='administrators')\ndef grades_report():\n    student_list = db(db.auth_user.id > 0).select()\n    students = {}\n    for s in student_list:\n        sindex = s.id\n        slast = s.last_name\n        sfirst = s.first_name\n        students[sindex] = slast + ', ' + sfirst\n    u = request.args[0]\n    n = db.auth_user[u]\n    student = n.last_name + ', ' + n.first_name\n    gradelist = db(db.grades.name == u).select()\n    session.debug = request.args[0]\n    g = {}\n    for r in gradelist:\n        the_date = r.class_date\n        c = db(db.courses.id == r.course).select().first()\n        the_course = c.course_name\n        if the_course in g:\n            dates = g[the_course]\n            if the_date in dates:\n                dates[the_date].append(r.grade)\n            else:\n                dates[the_date] = [r.grade]                \n        else:\n            l = [r.grade]\n            the_date = r.class_date\n            g[r.course] = dict(the_date = l)\n    return dict(grades = g, students = students, student = student)                \nresponse._vars=response._caller(grades_report)\n"
p6
sS'snapshot'
p7
(dp8
S'exception'
p9
(dp10
S'__hash__'
p11
S"<method-wrapper '__hash__' of exceptions.IndexError object>"
p12
sS'__setattr__'
p13
S"<method-wrapper '__setattr__' of exceptions.IndexError object>"
p14
sS'__reduce_ex__'
p15
S'<built-in method __reduce_ex__ of exceptions.IndexError object>'
p16
sS'__getslice__'
p17
S"<method-wrapper '__getslice__' of exceptions.IndexError object>"
p18
sS'__getitem__'
p19
S"<method-wrapper '__getitem__' of exceptions.IndexError object>"
p20
sS'__setstate__'
p21
S'<built-in method __setstate__ of exceptions.IndexError object>'
p22
sS'args'
p23
S"('list index out of range',)"
p24
sS'__reduce__'
p25
S'<built-in method __reduce__ of exceptions.IndexError object>'
p26
sS'__str__'
p27
S"<method-wrapper '__str__' of exceptions.IndexError object>"
p28
sS'__format__'
p29
S'<built-in method __format__ of exceptions.IndexError object>'
p30
sS'__getattribute__'
p31
S"<method-wrapper '__getattribute__' of exceptions.IndexError object>"
p32
sS'__class__'
p33
S"<type 'exceptions.IndexError'>"
p34
sS'__unicode__'
p35
S'<built-in method __unicode__ of exceptions.IndexError object>'
p36
sS'__delattr__'
p37
S"<method-wrapper '__delattr__' of exceptions.IndexError object>"
p38
sS'__subclasshook__'
p39
S'<built-in method __subclasshook__ of type object>'
p40
sS'__repr__'
p41
S"<method-wrapper '__repr__' of exceptions.IndexError object>"
p42
sS'__dict__'
p43
S'{}'
p44
sS'__sizeof__'
p45
S'<built-in method __sizeof__ of exceptions.IndexError object>'
p46
sS'__doc__'
p47
S"'Sequence index out of range.'"
p48
sS'__init__'
p49
S"<method-wrapper '__init__' of exceptions.IndexError object>"
p50
sS'__new__'
p51
S'<built-in method __new__ of type object>'
p52
ssS'evalue'
p53
S'list index out of range'
p54
sS'request'
p55
ccopy_reg
_reconstructor
p56
(cgluon.html
BEAUTIFY
p57
c__builtin__
object
p58
NtRp59
(dp60
S'attributes'
p61
(dp62
sS'components'
p63
(lp64
g56
(cgluon.html
TABLE
p65
g58
NtRp66
(dp67
g61
(dp68
S'level'
p69
I5
ssS'parent'
p70
Nsg63
(lp71
g56
(cgluon.html
TR
p72
g58
NtRp73
(dp74
g61
(dp75
sg70
g66
sg63
(lp76
g56
(cgluon.html
TD
p77
g58
NtRp78
(dp79
g61
(dp80
S'_style'
p81
S'font-weight:bold;'
p82
ssg70
g73
sg63
(lp83
S'ajax'
p84
asbag56
(g77
g58
NtRp85
(dp86
g61
(dp87
S'_valign'
p88
S'top'
p89
ssg70
g73
sg63
(lp90
S':'
asbag56
(g77
g58
NtRp91
(dp92
g61
(dp93
sg70
g73
sg63
(lp94
g56
(g57
g58
NtRp95
(dp96
g61
(dp97
g69
I5
ssg70
g91
sg63
(lp98
S'True'
p99
asbasbasbag56
(g72
g58
NtRp100
(dp101
g61
(dp102
sg70
g66
sg63
(lp103
g56
(g77
g58
NtRp104
(dp105
g61
(dp106
g81
g82
ssg70
g100
sg63
(lp107
S'application'
p108
asbag56
(g77
g58
NtRp109
(dp110
g61
(dp111
g88
g89
ssg70
g100
sg63
(lp112
S':'
asbag56
(g77
g58
NtRp113
(dp114
g61
(dp115
sg70
g100
sg63
(lp116
g56
(g57
g58
NtRp117
(dp118
g61
(dp119
g69
I5
ssg70
g113
sg63
(lp120
S'grades'
p121
asbasbasbag56
(g72
g58
NtRp122
(dp123
g61
(dp124
sg70
g66
sg63
(lp125
g56
(g77
g58
NtRp126
(dp127
g61
(dp128
g81
g82
ssg70
g122
sg63
(lp129
g23
asbag56
(g77
g58
NtRp130
(dp131
g61
(dp132
g88
g89
ssg70
g122
sg63
(lp133
S':'
asbag56
(g77
g58
NtRp134
(dp135
g61
(dp136
sg70
g122
sg63
(lp137
g56
(g57
g58
NtRp138
(dp139
g61
(dp140
g69
I5
ssg70
g134
sg63
(lp141
g56
(g65
g58
NtRp142
(dp143
g61
(dp144
g69
I4
ssg70
Nsg63
(lp145
sbasbasbasbag56
(g72
g58
NtRp146
(dp147
g61
(dp148
sg70
g66
sg63
(lp149
g56
(g77
g58
NtRp150
(dp151
g61
(dp152
g81
g82
ssg70
g146
sg63
(lp153
S'body'
p154
asbag56
(g77
g58
NtRp155
(dp156
g61
(dp157
g88
g89
ssg70
g146
sg63
(lp158
S':'
asbag56
(g77
g58
NtRp159
(dp160
g61
(dp161
sg70
g146
sg63
(lp162
g56
(g57
g58
NtRp163
(dp164
g61
(dp165
g69
I5
ssg70
g159
sg63
(lp166
S'<cStringIO.StringO object at 0x7764848>'
p167
asbasbasbag56
(g72
g58
NtRp168
(dp169
g61
(dp170
sg70
g66
sg63
(lp171
g56
(g77
g58
NtRp172
(dp173
g61
(dp174
g81
g82
ssg70
g168
sg63
(lp175
S'cid'
p176
asbag56
(g77
g58
NtRp177
(dp178
g61
(dp179
g88
g89
ssg70
g168
sg63
(lp180
S':'
asbag56
(g77
g58
NtRp181
(dp182
g61
(dp183
sg70
g168
sg63
(lp184
g56
(g57
g58
NtRp185
(dp186
g61
(dp187
g69
I5
ssg70
g181
sg63
(lp188
S'viewpane'
p189
asbasbasbag56
(g72
g58
NtRp190
(dp191
g61
(dp192
sg70
g66
sg63
(lp193
g56
(g77
g58
NtRp194
(dp195
g61
(dp196
g81
g82
ssg70
g190
sg63
(lp197
S'client'
p198
asbag56
(g77
g58
NtRp199
(dp200
g61
(dp201
g88
g89
ssg70
g190
sg63
(lp202
S':'
asbag56
(g77
g58
NtRp203
(dp204
g61
(dp205
sg70
g190
sg63
(lp206
g56
(g57
g58
NtRp207
(dp208
g61
(dp209
g69
I5
ssg70
g203
sg63
(lp210
S'127.0.0.1'
p211
asbasbasbag56
(g72
g58
NtRp212
(dp213
g61
(dp214
sg70
g66
sg63
(lp215
g56
(g77
g58
NtRp216
(dp217
g61
(dp218
g81
g82
ssg70
g212
sg63
(lp219
S'controller'
p220
asbag56
(g77
g58
NtRp221
(dp222
g61
(dp223
g88
g89
ssg70
g212
sg63
(lp224
S':'
asbag56
(g77
g58
NtRp225
(dp226
g61
(dp227
sg70
g212
sg63
(lp228
g56
(g57
g58
NtRp229
(dp230
g61
(dp231
g69
I5
ssg70
g225
sg63
(lp232
S'default'
p233
asbasbasbag56
(g72
g58
NtRp234
(dp235
g61
(dp236
sg70
g66
sg63
(lp237
g56
(g77
g58
NtRp238
(dp239
g61
(dp240
g81
g82
ssg70
g234
sg63
(lp241
S'cookies'
p242
asbag56
(g77
g58
NtRp243
(dp244
g61
(dp245
g88
g89
ssg70
g234
sg63
(lp246
S':'
asbag56
(g77
g58
NtRp247
(dp248
g61
(dp249
sg70
g234
sg63
(lp250
g56
(g57
g58
NtRp251
(dp252
g61
(dp253
g69
I5
ssg70
g247
sg63
(lp254
g56
(g65
g58
NtRp255
(dp256
g61
(dp257
g69
I4
ssg70
Nsg63
(lp258
g56
(g72
g58
NtRp259
(dp260
g61
(dp261
sg70
g255
sg63
(lp262
g56
(g77
g58
NtRp263
(dp264
g61
(dp265
g81
g82
ssg70
g259
sg63
(lp266
S'session_id_admin'
p267
asbag56
(g77
g58
NtRp268
(dp269
g61
(dp270
g88
g89
ssg70
g259
sg63
(lp271
S':'
asbag56
(g77
g58
NtRp272
(dp273
g61
(dp274
sg70
g259
sg63
(lp275
g56
(g57
g58
NtRp276
(dp277
g61
(dp278
g69
I4
ssg70
g272
sg63
(lp279
g56
(g65
g58
NtRp280
(dp281
g61
(dp282
g69
I3
ssg70
Nsg63
(lp283
g56
(g72
g58
NtRp284
(dp285
g61
(dp286
sg70
g280
sg63
(lp287
g56
(g77
g58
NtRp288
(dp289
g61
(dp290
g81
g82
ssg70
g284
sg63
(lp291
S'comment'
p292
asbag56
(g77
g58
NtRp293
(dp294
g61
(dp295
g88
g89
ssg70
g284
sg63
(lp296
S':'
asbag56
(g77
g58
NtRp297
(dp298
g61
(dp299
sg70
g284
sg63
(lp300
g56
(g57
g58
NtRp301
(dp302
g61
(dp303
g69
I3
ssg70
g297
sg63
(lp304
S''
asbasbasbag56
(g72
g58
NtRp305
(dp306
g61
(dp307
sg70
g280
sg63
(lp308
g56
(g77
g58
NtRp309
(dp310
g61
(dp311
g81
g82
ssg70
g305
sg63
(lp312
S'domain'
p313
asbag56
(g77
g58
NtRp314
(dp315
g61
(dp316
g88
g89
ssg70
g305
sg63
(lp317
S':'
asbag56
(g77
g58
NtRp318
(dp319
g61
(dp320
sg70
g305
sg63
(lp321
g56
(g57
g58
NtRp322
(dp323
g61
(dp324
g69
I3
ssg70
g318
sg63
(lp325
S''
asbasbasbag56
(g72
g58
NtRp326
(dp327
g61
(dp328
sg70
g280
sg63
(lp329
g56
(g77
g58
NtRp330
(dp331
g61
(dp332
g81
g82
ssg70
g326
sg63
(lp333
S'expires'
p334
asbag56
(g77
g58
NtRp335
(dp336
g61
(dp337
g88
g89
ssg70
g326
sg63
(lp338
S':'
asbag56
(g77
g58
NtRp339
(dp340
g61
(dp341
sg70
g326
sg63
(lp342
g56
(g57
g58
NtRp343
(dp344
g61
(dp345
g69
I3
ssg70
g339
sg63
(lp346
S''
asbasbasbag56
(g72
g58
NtRp347
(dp348
g61
(dp349
sg70
g280
sg63
(lp350
g56
(g77
g58
NtRp351
(dp352
g61
(dp353
g81
g82
ssg70
g347
sg63
(lp354
S'httponly'
p355
asbag56
(g77
g58
NtRp356
(dp357
g61
(dp358
g88
g89
ssg70
g347
sg63
(lp359
S':'
asbag56
(g77
g58
NtRp360
(dp361
g61
(dp362
sg70
g347
sg63
(lp363
g56
(g57
g58
NtRp364
(dp365
g61
(dp366
g69
I3
ssg70
g360
sg63
(lp367
S''
asbasbasbag56
(g72
g58
NtRp368
(dp369
g61
(dp370
sg70
g280
sg63
(lp371
g56
(g77
g58
NtRp372
(dp373
g61
(dp374
g81
g82
ssg70
g368
sg63
(lp375
S'max-age'
p376
asbag56
(g77
g58
NtRp377
(dp378
g61
(dp379
g88
g89
ssg70
g368
sg63
(lp380
S':'
asbag56
(g77
g58
NtRp381
(dp382
g61
(dp383
sg70
g368
sg63
(lp384
g56
(g57
g58
NtRp385
(dp386
g61
(dp387
g69
I3
ssg70
g381
sg63
(lp388
S''
asbasbasbag56
(g72
g58
NtRp389
(dp390
g61
(dp391
sg70
g280
sg63
(lp392
g56
(g77
g58
NtRp393
(dp394
g61
(dp395
g81
g82
ssg70
g389
sg63
(lp396
S'path'
p397
asbag56
(g77
g58
NtRp398
(dp399
g61
(dp400
g88
g89
ssg70
g389
sg63
(lp401
S':'
asbag56
(g77
g58
NtRp402
(dp403
g61
(dp404
sg70
g389
sg63
(lp405
g56
(g57
g58
NtRp406
(dp407
g61
(dp408
g69
I3
ssg70
g402
sg63
(lp409
S''
asbasbasbag56
(g72
g58
NtRp410
(dp411
g61
(dp412
sg70
g280
sg63
(lp413
g56
(g77
g58
NtRp414
(dp415
g61
(dp416
g81
g82
ssg70
g410
sg63
(lp417
S'secure'
p418
asbag56
(g77
g58
NtRp419
(dp420
g61
(dp421
g88
g89
ssg70
g410
sg63
(lp422
S':'
asbag56
(g77
g58
NtRp423
(dp424
g61
(dp425
sg70
g410
sg63
(lp426
g56
(g57
g58
NtRp427
(dp428
g61
(dp429
g69
I3
ssg70
g423
sg63
(lp430
S''
asbasbasbag56
(g72
g58
NtRp431
(dp432
g61
(dp433
sg70
g280
sg63
(lp434
g56
(g77
g58
NtRp435
(dp436
g61
(dp437
g81
g82
ssg70
g431
sg63
(lp438
S'version'
p439
asbag56
(g77
g58
NtRp440
(dp441
g61
(dp442
g88
g89
ssg70
g431
sg63
(lp443
S':'
asbag56
(g77
g58
NtRp444
(dp445
g61
(dp446
sg70
g431
sg63
(lp447
g56
(g57
g58
NtRp448
(dp449
g61
(dp450
g69
I3
ssg70
g444
sg63
(lp451
S''
asbasbasbasbasbasbasbag56
(g72
g58
NtRp452
(dp453
g61
(dp454
sg70
g255
sg63
(lp455
g56
(g77
g58
NtRp456
(dp457
g61
(dp458
g81
g82
ssg70
g452
sg63
(lp459
S'session_id_grades'
p460
asbag56
(g77
g58
NtRp461
(dp462
g61
(dp463
g88
g89
ssg70
g452
sg63
(lp464
S':'
asbag56
(g77
g58
NtRp465
(dp466
g61
(dp467
sg70
g452
sg63
(lp468
g56
(g57
g58
NtRp469
(dp470
g61
(dp471
g69
I4
ssg70
g465
sg63
(lp472
g56
(g65
g58
NtRp473
(dp474
g61
(dp475
g69
I3
ssg70
Nsg63
(lp476
g56
(g72
g58
NtRp477
(dp478
g61
(dp479
sg70
g473
sg63
(lp480
g56
(g77
g58
NtRp481
(dp482
g61
(dp483
g81
g82
ssg70
g477
sg63
(lp484
g292
asbag56
(g77
g58
NtRp485
(dp486
g61
(dp487
g88
g89
ssg70
g477
sg63
(lp488
S':'
asbag56
(g77
g58
NtRp489
(dp490
g61
(dp491
sg70
g477
sg63
(lp492
g56
(g57
g58
NtRp493
(dp494
g61
(dp495
g69
I3
ssg70
g489
sg63
(lp496
S''
asbasbasbag56
(g72
g58
NtRp497
(dp498
g61
(dp499
sg70
g473
sg63
(lp500
g56
(g77
g58
NtRp501
(dp502
g61
(dp503
g81
g82
ssg70
g497
sg63
(lp504
g313
asbag56
(g77
g58
NtRp505
(dp506
g61
(dp507
g88
g89
ssg70
g497
sg63
(lp508
S':'
asbag56
(g77
g58
NtRp509
(dp510
g61
(dp511
sg70
g497
sg63
(lp512
g56
(g57
g58
NtRp513
(dp514
g61
(dp515
g69
I3
ssg70
g509
sg63
(lp516
S''
asbasbasbag56
(g72
g58
NtRp517
(dp518
g61
(dp519
sg70
g473
sg63
(lp520
g56
(g77
g58
NtRp521
(dp522
g61
(dp523
g81
g82
ssg70
g517
sg63
(lp524
g334
asbag56
(g77
g58
NtRp525
(dp526
g61
(dp527
g88
g89
ssg70
g517
sg63
(lp528
S':'
asbag56
(g77
g58
NtRp529
(dp530
g61
(dp531
sg70
g517
sg63
(lp532
g56
(g57
g58
NtRp533
(dp534
g61
(dp535
g69
I3
ssg70
g529
sg63
(lp536
S''
asbasbasbag56
(g72
g58
NtRp537
(dp538
g61
(dp539
sg70
g473
sg63
(lp540
g56
(g77
g58
NtRp541
(dp542
g61
(dp543
g81
g82
ssg70
g537
sg63
(lp544
g355
asbag56
(g77
g58
NtRp545
(dp546
g61
(dp547
g88
g89
ssg70
g537
sg63
(lp548
S':'
asbag56
(g77
g58
NtRp549
(dp550
g61
(dp551
sg70
g537
sg63
(lp552
g56
(g57
g58
NtRp553
(dp554
g61
(dp555
g69
I3
ssg70
g549
sg63
(lp556
S''
asbasbasbag56
(g72
g58
NtRp557
(dp558
g61
(dp559
sg70
g473
sg63
(lp560
g56
(g77
g58
NtRp561
(dp562
g61
(dp563
g81
g82
ssg70
g557
sg63
(lp564
g376
asbag56
(g77
g58
NtRp565
(dp566
g61
(dp567
g88
g89
ssg70
g557
sg63
(lp568
S':'
asbag56
(g77
g58
NtRp569
(dp570
g61
(dp571
sg70
g557
sg63
(lp572
g56
(g57
g58
NtRp573
(dp574
g61
(dp575
g69
I3
ssg70
g569
sg63
(lp576
S''
asbasbasbag56
(g72
g58
NtRp577
(dp578
g61
(dp579
sg70
g473
sg63
(lp580
g56
(g77
g58
NtRp581
(dp582
g61
(dp583
g81
g82
ssg70
g577
sg63
(lp584
g397
asbag56
(g77
g58
NtRp585
(dp586
g61
(dp587
g88
g89
ssg70
g577
sg63
(lp588
S':'
asbag56
(g77
g58
NtRp589
(dp590
g61
(dp591
sg70
g577
sg63
(lp592
g56
(g57
g58
NtRp593
(dp594
g61
(dp595
g69
I3
ssg70
g589
sg63
(lp596
S''
asbasbasbag56
(g72
g58
NtRp597
(dp598
g61
(dp599
sg70
g473
sg63
(lp600
g56
(g77
g58
NtRp601
(dp602
g61
(dp603
g81
g82
ssg70
g597
sg63
(lp604
g418
asbag56
(g77
g58
NtRp605
(dp606
g61
(dp607
g88
g89
ssg70
g597
sg63
(lp608
S':'
asbag56
(g77
g58
NtRp609
(dp610
g61
(dp611
sg70
g597
sg63
(lp612
g56
(g57
g58
NtRp613
(dp614
g61
(dp615
g69
I3
ssg70
g609
sg63
(lp616
S''
asbasbasbag56
(g72
g58
NtRp617
(dp618
g61
(dp619
sg70
g473
sg63
(lp620
g56
(g77
g58
NtRp621
(dp622
g61
(dp623
g81
g82
ssg70
g617
sg63
(lp624
g439
asbag56
(g77
g58
NtRp625
(dp626
g61
(dp627
g88
g89
ssg70
g617
sg63
(lp628
S':'
asbag56
(g77
g58
NtRp629
(dp630
g61
(dp631
sg70
g617
sg63
(lp632
g56
(g57
g58
NtRp633
(dp634
g61
(dp635
g69
I3
ssg70
g629
sg63
(lp636
S''
asbasbasbasbasbasbasbag56
(g72
g58
NtRp637
(dp638
g61
(dp639
sg70
g255
sg63
(lp640
g56
(g77
g58
NtRp641
(dp642
g61
(dp643
g81
g82
ssg70
g637
sg63
(lp644
S'session_id_paideia'
p645
asbag56
(g77
g58
NtRp646
(dp647
g61
(dp648
g88
g89
ssg70
g637
sg63
(lp649
S':'
asbag56
(g77
g58
NtRp650
(dp651
g61
(dp652
sg70
g637
sg63
(lp653
g56
(g57
g58
NtRp654
(dp655
g61
(dp656
g69
I4
ssg70
g650
sg63
(lp657
g56
(g65
g58
NtRp658
(dp659
g61
(dp660
g69
I3
ssg70
Nsg63
(lp661
g56
(g72
g58
NtRp662
(dp663
g61
(dp664
sg70
g658
sg63
(lp665
g56
(g77
g58
NtRp666
(dp667
g61
(dp668
g81
g82
ssg70
g662
sg63
(lp669
g292
asbag56
(g77
g58
NtRp670
(dp671
g61
(dp672
g88
g89
ssg70
g662
sg63
(lp673
S':'
asbag56
(g77
g58
NtRp674
(dp675
g61
(dp676
sg70
g662
sg63
(lp677
g56
(g57
g58
NtRp678
(dp679
g61
(dp680
g69
I3
ssg70
g674
sg63
(lp681
S''
asbasbasbag56
(g72
g58
NtRp682
(dp683
g61
(dp684
sg70
g658
sg63
(lp685
g56
(g77
g58
NtRp686
(dp687
g61
(dp688
g81
g82
ssg70
g682
sg63
(lp689
g313
asbag56
(g77
g58
NtRp690
(dp691
g61
(dp692
g88
g89
ssg70
g682
sg63
(lp693
S':'
asbag56
(g77
g58
NtRp694
(dp695
g61
(dp696
sg70
g682
sg63
(lp697
g56
(g57
g58
NtRp698
(dp699
g61
(dp700
g69
I3
ssg70
g694
sg63
(lp701
S''
asbasbasbag56
(g72
g58
NtRp702
(dp703
g61
(dp704
sg70
g658
sg63
(lp705
g56
(g77
g58
NtRp706
(dp707
g61
(dp708
g81
g82
ssg70
g702
sg63
(lp709
g334
asbag56
(g77
g58
NtRp710
(dp711
g61
(dp712
g88
g89
ssg70
g702
sg63
(lp713
S':'
asbag56
(g77
g58
NtRp714
(dp715
g61
(dp716
sg70
g702
sg63
(lp717
g56
(g57
g58
NtRp718
(dp719
g61
(dp720
g69
I3
ssg70
g714
sg63
(lp721
S''
asbasbasbag56
(g72
g58
NtRp722
(dp723
g61
(dp724
sg70
g658
sg63
(lp725
g56
(g77
g58
NtRp726
(dp727
g61
(dp728
g81
g82
ssg70
g722
sg63
(lp729
g355
asbag56
(g77
g58
NtRp730
(dp731
g61
(dp732
g88
g89
ssg70
g722
sg63
(lp733
S':'
asbag56
(g77
g58
NtRp734
(dp735
g61
(dp736
sg70
g722
sg63
(lp737
g56
(g57
g58
NtRp738
(dp739
g61
(dp740
g69
I3
ssg70
g734
sg63
(lp741
S''
asbasbasbag56
(g72
g58
NtRp742
(dp743
g61
(dp744
sg70
g658
sg63
(lp745
g56
(g77
g58
NtRp746
(dp747
g61
(dp748
g81
g82
ssg70
g742
sg63
(lp749
g376
asbag56
(g77
g58
NtRp750
(dp751
g61
(dp752
g88
g89
ssg70
g742
sg63
(lp753
S':'
asbag56
(g77
g58
NtRp754
(dp755
g61
(dp756
sg70
g742
sg63
(lp757
g56
(g57
g58
NtRp758
(dp759
g61
(dp760
g69
I3
ssg70
g754
sg63
(lp761
S''
asbasbasbag56
(g72
g58
NtRp762
(dp763
g61
(dp764
sg70
g658
sg63
(lp765
g56
(g77
g58
NtRp766
(dp767
g61
(dp768
g81
g82
ssg70
g762
sg63
(lp769
g397
asbag56
(g77
g58
NtRp770
(dp771
g61
(dp772
g88
g89
ssg70
g762
sg63
(lp773
S':'
asbag56
(g77
g58
NtRp774
(dp775
g61
(dp776
sg70
g762
sg63
(lp777
g56
(g57
g58
NtRp778
(dp779
g61
(dp780
g69
I3
ssg70
g774
sg63
(lp781
S''
asbasbasbag56
(g72
g58
NtRp782
(dp783
g61
(dp784
sg70
g658
sg63
(lp785
g56
(g77
g58
NtRp786
(dp787
g61
(dp788
g81
g82
ssg70
g782
sg63
(lp789
g418
asbag56
(g77
g58
NtRp790
(dp791
g61
(dp792
g88
g89
ssg70
g782
sg63
(lp793
S':'
asbag56
(g77
g58
NtRp794
(dp795
g61
(dp796
sg70
g782
sg63
(lp797
g56
(g57
g58
NtRp798
(dp799
g61
(dp800
g69
I3
ssg70
g794
sg63
(lp801
S''
asbasbasbag56
(g72
g58
NtRp802
(dp803
g61
(dp804
sg70
g658
sg63
(lp805
g56
(g77
g58
NtRp806
(dp807
g61
(dp808
g81
g82
ssg70
g802
sg63
(lp809
g439
asbag56
(g77
g58
NtRp810
(dp811
g61
(dp812
g88
g89
ssg70
g802
sg63
(lp813
S':'
asbag56
(g77
g58
NtRp814
(dp815
g61
(dp816
sg70
g802
sg63
(lp817
g56
(g57
g58
NtRp818
(dp819
g61
(dp820
g69
I3
ssg70
g814
sg63
(lp821
S''
asbasbasbasbasbasbasbag56
(g72
g58
NtRp822
(dp823
g61
(dp824
sg70
g255
sg63
(lp825
g56
(g77
g58
NtRp826
(dp827
g61
(dp828
g81
g82
ssg70
g822
sg63
(lp829
S'session_id_welcome'
p830
asbag56
(g77
g58
NtRp831
(dp832
g61
(dp833
g88
g89
ssg70
g822
sg63
(lp834
S':'
asbag56
(g77
g58
NtRp835
(dp836
g61
(dp837
sg70
g822
sg63
(lp838
g56
(g57
g58
NtRp839
(dp840
g61
(dp841
g69
I4
ssg70
g835
sg63
(lp842
g56
(g65
g58
NtRp843
(dp844
g61
(dp845
g69
I3
ssg70
Nsg63
(lp846
g56
(g72
g58
NtRp847
(dp848
g61
(dp849
sg70
g843
sg63
(lp850
g56
(g77
g58
NtRp851
(dp852
g61
(dp853
g81
g82
ssg70
g847
sg63
(lp854
g292
asbag56
(g77
g58
NtRp855
(dp856
g61
(dp857
g88
g89
ssg70
g847
sg63
(lp858
S':'
asbag56
(g77
g58
NtRp859
(dp860
g61
(dp861
sg70
g847
sg63
(lp862
g56
(g57
g58
NtRp863
(dp864
g61
(dp865
g69
I3
ssg70
g859
sg63
(lp866
S''
asbasbasbag56
(g72
g58
NtRp867
(dp868
g61
(dp869
sg70
g843
sg63
(lp870
g56
(g77
g58
NtRp871
(dp872
g61
(dp873
g81
g82
ssg70
g867
sg63
(lp874
g313
asbag56
(g77
g58
NtRp875
(dp876
g61
(dp877
g88
g89
ssg70
g867
sg63
(lp878
S':'
asbag56
(g77
g58
NtRp879
(dp880
g61
(dp881
sg70
g867
sg63
(lp882
g56
(g57
g58
NtRp883
(dp884
g61
(dp885
g69
I3
ssg70
g879
sg63
(lp886
S''
asbasbasbag56
(g72
g58
NtRp887
(dp888
g61
(dp889
sg70
g843
sg63
(lp890
g56
(g77
g58
NtRp891
(dp892
g61
(dp893
g81
g82
ssg70
g887
sg63
(lp894
g334
asbag56
(g77
g58
NtRp895
(dp896
g61
(dp897
g88
g89
ssg70
g887
sg63
(lp898
S':'
asbag56
(g77
g58
NtRp899
(dp900
g61
(dp901
sg70
g887
sg63
(lp902
g56
(g57
g58
NtRp903
(dp904
g61
(dp905
g69
I3
ssg70
g899
sg63
(lp906
S''
asbasbasbag56
(g72
g58
NtRp907
(dp908
g61
(dp909
sg70
g843
sg63
(lp910
g56
(g77
g58
NtRp911
(dp912
g61
(dp913
g81
g82
ssg70
g907
sg63
(lp914
g355
asbag56
(g77
g58
NtRp915
(dp916
g61
(dp917
g88
g89
ssg70
g907
sg63
(lp918
S':'
asbag56
(g77
g58
NtRp919
(dp920
g61
(dp921
sg70
g907
sg63
(lp922
g56
(g57
g58
NtRp923
(dp924
g61
(dp925
g69
I3
ssg70
g919
sg63
(lp926
S''
asbasbasbag56
(g72
g58
NtRp927
(dp928
g61
(dp929
sg70
g843
sg63
(lp930
g56
(g77
g58
NtRp931
(dp932
g61
(dp933
g81
g82
ssg70
g927
sg63
(lp934
g376
asbag56
(g77
g58
NtRp935
(dp936
g61
(dp937
g88
g89
ssg70
g927
sg63
(lp938
S':'
asbag56
(g77
g58
NtRp939
(dp940
g61
(dp941
sg70
g927
sg63
(lp942
g56
(g57
g58
NtRp943
(dp944
g61
(dp945
g69
I3
ssg70
g939
sg63
(lp946
S''
asbasbasbag56
(g72
g58
NtRp947
(dp948
g61
(dp949
sg70
g843
sg63
(lp950
g56
(g77
g58
NtRp951
(dp952
g61
(dp953
g81
g82
ssg70
g947
sg63
(lp954
g397
asbag56
(g77
g58
NtRp955
(dp956
g61
(dp957
g88
g89
ssg70
g947
sg63
(lp958
S':'
asbag56
(g77
g58
NtRp959
(dp960
g61
(dp961
sg70
g947
sg63
(lp962
g56
(g57
g58
NtRp963
(dp964
g61
(dp965
g69
I3
ssg70
g959
sg63
(lp966
S''
asbasbasbag56
(g72
g58
NtRp967
(dp968
g61
(dp969
sg70
g843
sg63
(lp970
g56
(g77
g58
NtRp971
(dp972
g61
(dp973
g81
g82
ssg70
g967
sg63
(lp974
g418
asbag56
(g77
g58
NtRp975
(dp976
g61
(dp977
g88
g89
ssg70
g967
sg63
(lp978
S':'
asbag56
(g77
g58
NtRp979
(dp980
g61
(dp981
sg70
g967
sg63
(lp982
g56
(g57
g58
NtRp983
(dp984
g61
(dp985
g69
I3
ssg70
g979
sg63
(lp986
S''
asbasbasbag56
(g72
g58
NtRp987
(dp988
g61
(dp989
sg70
g843
sg63
(lp990
g56
(g77
g58
NtRp991
(dp992
g61
(dp993
g81
g82
ssg70
g987
sg63
(lp994
g439
asbag56
(g77
g58
NtRp995
(dp996
g61
(dp997
g88
g89
ssg70
g987
sg63
(lp998
S':'
asbag56
(g77
g58
NtRp999
(dp1000
g61
(dp1001
sg70
g987
sg63
(lp1002
g56
(g57
g58
NtRp1003
(dp1004
g61
(dp1005
g69
I3
ssg70
g999
sg63
(lp1006
S''
asbasbasbasbasbasbasbasbasbasbasbag56
(g72
g58
NtRp1007
(dp1008
g61
(dp1009
sg70
g66
sg63
(lp1010
g56
(g77
g58
NtRp1011
(dp1012
g61
(dp1013
g81
g82
ssg70
g1007
sg63
(lp1014
S'env'
p1015
asbag56
(g77
g58
NtRp1016
(dp1017
g61
(dp1018
g88
g89
ssg70
g1007
sg63
(lp1019
S':'
asbag56
(g77
g58
NtRp1020
(dp1021
g61
(dp1022
sg70
g1007
sg63
(lp1023
g56
(g57
g58
NtRp1024
(dp1025
g61
(dp1026
g69
I5
ssg70
g1020
sg63
(lp1027
g56
(g65
g58
NtRp1028
(dp1029
g61
(dp1030
g69
I4
ssg70
Nsg63
(lp1031
g56
(g72
g58
NtRp1032
(dp1033
g61
(dp1034
sg70
g1028
sg63
(lp1035
g56
(g77
g58
NtRp1036
(dp1037
g61
(dp1038
g81
g82
ssg70
g1032
sg63
(lp1039
S'app_folders'
p1040
asbag56
(g77
g58
NtRp1041
(dp1042
g61
(dp1043
g88
g89
ssg70
g1032
sg63
(lp1044
S':'
asbag56
(g77
g58
NtRp1045
(dp1046
g61
(dp1047
sg70
g1032
sg63
(lp1048
g56
(g57
g58
NtRp1049
(dp1050
g61
(dp1051
g69
I4
ssg70
g1045
sg63
(lp1052
S"set(['/home/ian/web2py/applications/welcome/', '/home/ian/web2py/applications/grades/', '/home/ian/web2py/applications/admin/'])"
p1053
asbasbasbag56
(g72
g58
NtRp1054
(dp1055
g61
(dp1056
sg70
g1028
sg63
(lp1057
g56
(g77
g58
NtRp1058
(dp1059
g61
(dp1060
g81
g82
ssg70
g1054
sg63
(lp1061
S'applications_parent'
p1062
asbag56
(g77
g58
NtRp1063
(dp1064
g61
(dp1065
g88
g89
ssg70
g1054
sg63
(lp1066
S':'
asbag56
(g77
g58
NtRp1067
(dp1068
g61
(dp1069
sg70
g1054
sg63
(lp1070
g56
(g57
g58
NtRp1071
(dp1072
g61
(dp1073
g69
I4
ssg70
g1067
sg63
(lp1074
S'/home/ian/web2py'
p1075
asbasbasbag56
(g72
g58
NtRp1076
(dp1077
g61
(dp1078
sg70
g1028
sg63
(lp1079
g56
(g77
g58
NtRp1080
(dp1081
g61
(dp1082
g81
g82
ssg70
g1076
sg63
(lp1083
S'cmd_args'
p1084
asbag56
(g77
g58
NtRp1085
(dp1086
g61
(dp1087
g88
g89
ssg70
g1076
sg63
(lp1088
S':'
asbag56
(g77
g58
NtRp1089
(dp1090
g61
(dp1091
sg70
g1076
sg63
(lp1092
g56
(g57
g58
NtRp1093
(dp1094
g61
(dp1095
g69
I4
ssg70
g1089
sg63
(lp1096
g56
(g65
g58
NtRp1097
(dp1098
g61
(dp1099
g69
I3
ssg70
Nsg63
(lp1100
sbasbasbasbag56
(g72
g58
NtRp1101
(dp1102
g61
(dp1103
sg70
g1028
sg63
(lp1104
g56
(g77
g58
NtRp1105
(dp1106
g61
(dp1107
g81
g82
ssg70
g1101
sg63
(lp1108
S'cmd_options'
p1109
asbag56
(g77
g58
NtRp1110
(dp1111
g61
(dp1112
g88
g89
ssg70
g1101
sg63
(lp1113
S':'
asbag56
(g77
g58
NtRp1114
(dp1115
g61
(dp1116
sg70
g1101
sg63
(lp1117
g56
(g57
g58
NtRp1118
(dp1119
g61
(dp1120
g69
I4
ssg70
g1114
sg63
(lp1121
S"<Values at 0x2331758: {'verbose': False, 'ip': '127.0.0.1', 'shutdown_timeout': 5, 'taskbar': False, 'nocron': False, 'pid_filename': 'httpserver.pid', 'maxthreads': None, 'softcron': False, 'server_name': 'uriel', 'bpython': False, 'nogui': False, 'port': 8000, 'extcron': False, 'debuglevel': 30, 'test': None, 'folder': '/home/ian/web2py', 'config': '', 'import_models': False, 'winservice': '', 'shell': None, 'run': '', 'log_filename': 'httpserver.log', 'args': [''], 'ssl_ca_certificate': None, 'scheduler': None, 'profiler_filename': None, 'ssl_private_key': '', 'password': '<ask>', 'request_queue_size': 5, 'ssl_certificate': '', 'cronjob': False, 'plain': False, 'quiet': False, 'interfaces': None, 'minthreads': None, 'timeout': 10, 'numthreads': None, 'nobanner': False}>"
p1122
asbasbasbag56
(g72
g58
NtRp1123
(dp1124
g61
(dp1125
sg70
g1028
sg63
(lp1126
g56
(g77
g58
NtRp1127
(dp1128
g61
(dp1129
g81
g82
ssg70
g1123
sg63
(lp1130
S'db_sessions'
p1131
asbag56
(g77
g58
NtRp1132
(dp1133
g61
(dp1134
g88
g89
ssg70
g1123
sg63
(lp1135
S':'
asbag56
(g77
g58
NtRp1136
(dp1137
g61
(dp1138
sg70
g1123
sg63
(lp1139
g56
(g57
g58
NtRp1140
(dp1141
g61
(dp1142
g69
I4
ssg70
g1136
sg63
(lp1143
S'set([])'
p1144
asbasbasbag56
(g72
g58
NtRp1145
(dp1146
g61
(dp1147
sg70
g1028
sg63
(lp1148
g56
(g77
g58
NtRp1149
(dp1150
g61
(dp1151
g81
g82
ssg70
g1145
sg63
(lp1152
S'debugging'
p1153
asbag56
(g77
g58
NtRp1154
(dp1155
g61
(dp1156
g88
g89
ssg70
g1145
sg63
(lp1157
S':'
asbag56
(g77
g58
NtRp1158
(dp1159
g61
(dp1160
sg70
g1145
sg63
(lp1161
g56
(g57
g58
NtRp1162
(dp1163
g61
(dp1164
g69
I4
ssg70
g1158
sg63
(lp1165
S'False'
p1166
asbasbasbag56
(g72
g58
NtRp1167
(dp1168
g61
(dp1169
sg70
g1028
sg63
(lp1170
g56
(g77
g58
NtRp1171
(dp1172
g61
(dp1173
g81
g82
ssg70
g1167
sg63
(lp1174
S'gluon_parent'
p1175
asbag56
(g77
g58
NtRp1176
(dp1177
g61
(dp1178
g88
g89
ssg70
g1167
sg63
(lp1179
S':'
asbag56
(g77
g58
NtRp1180
(dp1181
g61
(dp1182
sg70
g1167
sg63
(lp1183
g56
(g57
g58
NtRp1184
(dp1185
g61
(dp1186
g69
I4
ssg70
g1180
sg63
(lp1187
S'/home/ian/web2py'
p1188
asbasbasbag56
(g72
g58
NtRp1189
(dp1190
g61
(dp1191
sg70
g1028
sg63
(lp1192
g56
(g77
g58
NtRp1193
(dp1194
g61
(dp1195
g81
g82
ssg70
g1189
sg63
(lp1196
S'http_accept'
p1197
asbag56
(g77
g58
NtRp1198
(dp1199
g61
(dp1200
g88
g89
ssg70
g1189
sg63
(lp1201
S':'
asbag56
(g77
g58
NtRp1202
(dp1203
g61
(dp1204
sg70
g1189
sg63
(lp1205
g56
(g57
g58
NtRp1206
(dp1207
g61
(dp1208
g69
I4
ssg70
g1202
sg63
(lp1209
S'*/*'
p1210
asbasbasbag56
(g72
g58
NtRp1211
(dp1212
g61
(dp1213
sg70
g1028
sg63
(lp1214
g56
(g77
g58
NtRp1215
(dp1216
g61
(dp1217
g81
g82
ssg70
g1211
sg63
(lp1218
S'http_accept_encoding'
p1219
asbag56
(g77
g58
NtRp1220
(dp1221
g61
(dp1222
g88
g89
ssg70
g1211
sg63
(lp1223
S':'
asbag56
(g77
g58
NtRp1224
(dp1225
g61
(dp1226
sg70
g1211
sg63
(lp1227
g56
(g57
g58
NtRp1228
(dp1229
g61
(dp1230
g69
I4
ssg70
g1224
sg63
(lp1231
S'gzip, deflate'
p1232
asbasbasbag56
(g72
g58
NtRp1233
(dp1234
g61
(dp1235
sg70
g1028
sg63
(lp1236
g56
(g77
g58
NtRp1237
(dp1238
g61
(dp1239
g81
g82
ssg70
g1233
sg63
(lp1240
S'http_accept_language'
p1241
asbag56
(g77
g58
NtRp1242
(dp1243
g61
(dp1244
g88
g89
ssg70
g1233
sg63
(lp1245
S':'
asbag56
(g77
g58
NtRp1246
(dp1247
g61
(dp1248
sg70
g1233
sg63
(lp1249
g56
(g57
g58
NtRp1250
(dp1251
g61
(dp1252
g69
I4
ssg70
g1246
sg63
(lp1253
S'en-us,en;q=0.5'
p1254
asbasbasbag56
(g72
g58
NtRp1255
(dp1256
g61
(dp1257
sg70
g1028
sg63
(lp1258
g56
(g77
g58
NtRp1259
(dp1260
g61
(dp1261
g81
g82
ssg70
g1255
sg63
(lp1262
S'http_connection'
p1263
asbag56
(g77
g58
NtRp1264
(dp1265
g61
(dp1266
g88
g89
ssg70
g1255
sg63
(lp1267
S':'
asbag56
(g77
g58
NtRp1268
(dp1269
g61
(dp1270
sg70
g1255
sg63
(lp1271
g56
(g57
g58
NtRp1272
(dp1273
g61
(dp1274
g69
I4
ssg70
g1268
sg63
(lp1275
S'keep-alive'
p1276
asbasbasbag56
(g72
g58
NtRp1277
(dp1278
g61
(dp1279
sg70
g1028
sg63
(lp1280
g56
(g77
g58
NtRp1281
(dp1282
g61
(dp1283
g81
g82
ssg70
g1277
sg63
(lp1284
S'http_cookie'
p1285
asbag56
(g77
g58
NtRp1286
(dp1287
g61
(dp1288
g88
g89
ssg70
g1277
sg63
(lp1289
S':'
asbag56
(g77
g58
NtRp1290
(dp1291
g61
(dp1292
sg70
g1277
sg63
(lp1293
g56
(g57
g58
NtRp1294
(dp1295
g61
(dp1296
g69
I4
ssg70
g1290
sg63
(lp1297
S'session_id_paideia=127.0.0.1-5296f1e9-849e-4717-b7d4-f5f298041148; session_id_welcome=127.0.0.1-0f1bf67d-abd7-4f3b-9dfa-61414dbdd968; session_id_grades=127.0.0.1-61c0ea3f-8797-4aff-bb5b-97a734e7ddbc; session_id_admin=127.0.0.1-415f1725-a8a3-4383-836a-a1b235a5d231'
p1298
asbasbasbag56
(g72
g58
NtRp1299
(dp1300
g61
(dp1301
sg70
g1028
sg63
(lp1302
g56
(g77
g58
NtRp1303
(dp1304
g61
(dp1305
g81
g82
ssg70
g1299
sg63
(lp1306
S'http_host'
p1307
asbag56
(g77
g58
NtRp1308
(dp1309
g61
(dp1310
g88
g89
ssg70
g1299
sg63
(lp1311
S':'
asbag56
(g77
g58
NtRp1312
(dp1313
g61
(dp1314
sg70
g1299
sg63
(lp1315
g56
(g57
g58
NtRp1316
(dp1317
g61
(dp1318
g69
I4
ssg70
g1312
sg63
(lp1319
S'127.0.0.1:8000'
p1320
asbasbasbag56
(g72
g58
NtRp1321
(dp1322
g61
(dp1323
sg70
g1028
sg63
(lp1324
g56
(g77
g58
NtRp1325
(dp1326
g61
(dp1327
g81
g82
ssg70
g1321
sg63
(lp1328
S'http_referer'
p1329
asbag56
(g77
g58
NtRp1330
(dp1331
g61
(dp1332
g88
g89
ssg70
g1321
sg63
(lp1333
S':'
asbag56
(g77
g58
NtRp1334
(dp1335
g61
(dp1336
sg70
g1321
sg63
(lp1337
g56
(g57
g58
NtRp1338
(dp1339
g61
(dp1340
g69
I4
ssg70
g1334
sg63
(lp1341
S'http://127.0.0.1:8000/grades/default/grades_report/15'
p1342
asbasbasbag56
(g72
g58
NtRp1343
(dp1344
g61
(dp1345
sg70
g1028
sg63
(lp1346
g56
(g77
g58
NtRp1347
(dp1348
g61
(dp1349
g81
g82
ssg70
g1343
sg63
(lp1350
S'http_user_agent'
p1351
asbag56
(g77
g58
NtRp1352
(dp1353
g61
(dp1354
g88
g89
ssg70
g1343
sg63
(lp1355
S':'
asbag56
(g77
g58
NtRp1356
(dp1357
g61
(dp1358
sg70
g1343
sg63
(lp1359
g56
(g57
g58
NtRp1360
(dp1361
g61
(dp1362
g69
I4
ssg70
g1356
sg63
(lp1363
S'Mozilla/5.0 (X11; Linux x86_64; rv:8.0) Gecko/20100101 Firefox/8.0'
p1364
asbasbasbag56
(g72
g58
NtRp1365
(dp1366
g61
(dp1367
sg70
g1028
sg63
(lp1368
g56
(g77
g58
NtRp1369
(dp1370
g61
(dp1371
g81
g82
ssg70
g1365
sg63
(lp1372
S'http_web2py_component_element'
p1373
asbag56
(g77
g58
NtRp1374
(dp1375
g61
(dp1376
g88
g89
ssg70
g1365
sg63
(lp1377
S':'
asbag56
(g77
g58
NtRp1378
(dp1379
g61
(dp1380
sg70
g1365
sg63
(lp1381
g56
(g57
g58
NtRp1382
(dp1383
g61
(dp1384
g69
I4
ssg70
g1378
sg63
(lp1385
g189
asbasbasbag56
(g72
g58
NtRp1386
(dp1387
g61
(dp1388
sg70
g1028
sg63
(lp1389
g56
(g77
g58
NtRp1390
(dp1391
g61
(dp1392
g81
g82
ssg70
g1386
sg63
(lp1393
S'http_web2py_component_location'
p1394
asbag56
(g77
g58
NtRp1395
(dp1396
g61
(dp1397
g88
g89
ssg70
g1386
sg63
(lp1398
S':'
asbag56
(g77
g58
NtRp1399
(dp1400
g61
(dp1401
sg70
g1386
sg63
(lp1402
g56
(g57
g58
NtRp1403
(dp1404
g61
(dp1405
g69
I4
ssg70
g1399
sg63
(lp1406
S'http://127.0.0.1:8000/grades/default/grades_report/15'
p1407
asbasbasbag56
(g72
g58
NtRp1408
(dp1409
g61
(dp1410
sg70
g1028
sg63
(lp1411
g56
(g77
g58
NtRp1412
(dp1413
g61
(dp1414
g81
g82
ssg70
g1408
sg63
(lp1415
S'http_x_requested_with'
p1416
asbag56
(g77
g58
NtRp1417
(dp1418
g61
(dp1419
g88
g89
ssg70
g1408
sg63
(lp1420
S':'
asbag56
(g77
g58
NtRp1421
(dp1422
g61
(dp1423
sg70
g1408
sg63
(lp1424
g56
(g57
g58
NtRp1425
(dp1426
g61
(dp1427
g69
I4
ssg70
g1421
sg63
(lp1428
S'XMLHttpRequest'
p1429
asbasbasbag56
(g72
g58
NtRp1430
(dp1431
g61
(dp1432
sg70
g1028
sg63
(lp1433
g56
(g77
g58
NtRp1434
(dp1435
g61
(dp1436
g81
g82
ssg70
g1430
sg63
(lp1437
S'is_jython'
p1438
asbag56
(g77
g58
NtRp1439
(dp1440
g61
(dp1441
g88
g89
ssg70
g1430
sg63
(lp1442
S':'
asbag56
(g77
g58
NtRp1443
(dp1444
g61
(dp1445
sg70
g1430
sg63
(lp1446
g56
(g57
g58
NtRp1447
(dp1448
g61
(dp1449
g69
I4
ssg70
g1443
sg63
(lp1450
g1166
asbasbasbag56
(g72
g58
NtRp1451
(dp1452
g61
(dp1453
sg70
g1028
sg63
(lp1454
g56
(g77
g58
NtRp1455
(dp1456
g61
(dp1457
g81
g82
ssg70
g1451
sg63
(lp1458
S'path_info'
p1459
asbag56
(g77
g58
NtRp1460
(dp1461
g61
(dp1462
g88
g89
ssg70
g1451
sg63
(lp1463
S':'
asbag56
(g77
g58
NtRp1464
(dp1465
g61
(dp1466
sg70
g1451
sg63
(lp1467
g56
(g57
g58
NtRp1468
(dp1469
g61
(dp1470
g69
I4
ssg70
g1464
sg63
(lp1471
S'/grades/default/grades_report.load'
p1472
asbasbasbag56
(g72
g58
NtRp1473
(dp1474
g61
(dp1475
sg70
g1028
sg63
(lp1476
g56
(g77
g58
NtRp1477
(dp1478
g61
(dp1479
g81
g82
ssg70
g1473
sg63
(lp1480
S'query_string'
p1481
asbag56
(g77
g58
NtRp1482
(dp1483
g61
(dp1484
g88
g89
ssg70
g1473
sg63
(lp1485
S':'
asbag56
(g77
g58
NtRp1486
(dp1487
g61
(dp1488
sg70
g1473
sg63
(lp1489
g56
(g57
g58
NtRp1490
(dp1491
g61
(dp1492
g69
I4
ssg70
g1486
sg63
(lp1493
S''
asbasbasbag56
(g72
g58
NtRp1494
(dp1495
g61
(dp1496
sg70
g1028
sg63
(lp1497
g56
(g77
g58
NtRp1498
(dp1499
g61
(dp1500
g81
g82
ssg70
g1494
sg63
(lp1501
S'remote_addr'
p1502
asbag56
(g77
g58
NtRp1503
(dp1504
g61
(dp1505
g88
g89
ssg70
g1494
sg63
(lp1506
S':'
asbag56
(g77
g58
NtRp1507
(dp1508
g61
(dp1509
sg70
g1494
sg63
(lp1510
g56
(g57
g58
NtRp1511
(dp1512
g61
(dp1513
g69
I4
ssg70
g1507
sg63
(lp1514
g211
asbasbasbag56
(g72
g58
NtRp1515
(dp1516
g61
(dp1517
sg70
g1028
sg63
(lp1518
g56
(g77
g58
NtRp1519
(dp1520
g61
(dp1521
g81
g82
ssg70
g1515
sg63
(lp1522
S'remote_port'
p1523
asbag56
(g77
g58
NtRp1524
(dp1525
g61
(dp1526
g88
g89
ssg70
g1515
sg63
(lp1527
S':'
asbag56
(g77
g58
NtRp1528
(dp1529
g61
(dp1530
sg70
g1515
sg63
(lp1531
g56
(g57
g58
NtRp1532
(dp1533
g61
(dp1534
g69
I4
ssg70
g1528
sg63
(lp1535
S'33165'
p1536
asbasbasbag56
(g72
g58
NtRp1537
(dp1538
g61
(dp1539
sg70
g1028
sg63
(lp1540
g56
(g77
g58
NtRp1541
(dp1542
g61
(dp1543
g81
g82
ssg70
g1537
sg63
(lp1544
S'request_method'
p1545
asbag56
(g77
g58
NtRp1546
(dp1547
g61
(dp1548
g88
g89
ssg70
g1537
sg63
(lp1549
S':'
asbag56
(g77
g58
NtRp1550
(dp1551
g61
(dp1552
sg70
g1537
sg63
(lp1553
g56
(g57
g58
NtRp1554
(dp1555
g61
(dp1556
g69
I4
ssg70
g1550
sg63
(lp1557
S'GET'
p1558
asbasbasbag56
(g72
g58
NtRp1559
(dp1560
g61
(dp1561
sg70
g1028
sg63
(lp1562
g56
(g77
g58
NtRp1563
(dp1564
g61
(dp1565
g81
g82
ssg70
g1559
sg63
(lp1566
S'script_name'
p1567
asbag56
(g77
g58
NtRp1568
(dp1569
g61
(dp1570
g88
g89
ssg70
g1559
sg63
(lp1571
S':'
asbag56
(g77
g58
NtRp1572
(dp1573
g61
(dp1574
sg70
g1559
sg63
(lp1575
g56
(g57
g58
NtRp1576
(dp1577
g61
(dp1578
g69
I4
ssg70
g1572
sg63
(lp1579
S''
asbasbasbag56
(g72
g58
NtRp1580
(dp1581
g61
(dp1582
sg70
g1028
sg63
(lp1583
g56
(g77
g58
NtRp1584
(dp1585
g61
(dp1586
g81
g82
ssg70
g1580
sg63
(lp1587
S'server_name'
p1588
asbag56
(g77
g58
NtRp1589
(dp1590
g61
(dp1591
g88
g89
ssg70
g1580
sg63
(lp1592
S':'
asbag56
(g77
g58
NtRp1593
(dp1594
g61
(dp1595
sg70
g1580
sg63
(lp1596
g56
(g57
g58
NtRp1597
(dp1598
g61
(dp1599
g69
I4
ssg70
g1593
sg63
(lp1600
S'uriel'
p1601
asbasbasbag56
(g72
g58
NtRp1602
(dp1603
g61
(dp1604
sg70
g1028
sg63
(lp1605
g56
(g77
g58
NtRp1606
(dp1607
g61
(dp1608
g81
g82
ssg70
g1602
sg63
(lp1609
S'server_port'
p1610
asbag56
(g77
g58
NtRp1611
(dp1612
g61
(dp1613
g88
g89
ssg70
g1602
sg63
(lp1614
S':'
asbag56
(g77
g58
NtRp1615
(dp1616
g61
(dp1617
sg70
g1602
sg63
(lp1618
g56
(g57
g58
NtRp1619
(dp1620
g61
(dp1621
g69
I4
ssg70
g1615
sg63
(lp1622
S'8000'
p1623
asbasbasbag56
(g72
g58
NtRp1624
(dp1625
g61
(dp1626
sg70
g1028
sg63
(lp1627
g56
(g77
g58
NtRp1628
(dp1629
g61
(dp1630
g81
g82
ssg70
g1624
sg63
(lp1631
S'server_protocol'
p1632
asbag56
(g77
g58
NtRp1633
(dp1634
g61
(dp1635
g88
g89
ssg70
g1624
sg63
(lp1636
S':'
asbag56
(g77
g58
NtRp1637
(dp1638
g61
(dp1639
sg70
g1624
sg63
(lp1640
g56
(g57
g58
NtRp1641
(dp1642
g61
(dp1643
g69
I4
ssg70
g1637
sg63
(lp1644
S'HTTP/1.1'
p1645
asbasbasbag56
(g72
g58
NtRp1646
(dp1647
g61
(dp1648
sg70
g1028
sg63
(lp1649
g56
(g77
g58
NtRp1650
(dp1651
g61
(dp1652
g81
g82
ssg70
g1646
sg63
(lp1653
S'server_software'
p1654
asbag56
(g77
g58
NtRp1655
(dp1656
g61
(dp1657
g88
g89
ssg70
g1646
sg63
(lp1658
S':'
asbag56
(g77
g58
NtRp1659
(dp1660
g61
(dp1661
sg70
g1646
sg63
(lp1662
g56
(g57
g58
NtRp1663
(dp1664
g61
(dp1665
g69
I4
ssg70
g1659
sg63
(lp1666
S'Rocket 1.2.4'
p1667
asbasbasbag56
(g72
g58
NtRp1668
(dp1669
g61
(dp1670
sg70
g1028
sg63
(lp1671
g56
(g77
g58
NtRp1672
(dp1673
g61
(dp1674
g81
g82
ssg70
g1668
sg63
(lp1675
S'web2py_crontype'
p1676
asbag56
(g77
g58
NtRp1677
(dp1678
g61
(dp1679
g88
g89
ssg70
g1668
sg63
(lp1680
S':'
asbag56
(g77
g58
NtRp1681
(dp1682
g61
(dp1683
sg70
g1668
sg63
(lp1684
g56
(g57
g58
NtRp1685
(dp1686
g61
(dp1687
g69
I4
ssg70
g1681
sg63
(lp1688
S'hard'
p1689
asbasbasbag56
(g72
g58
NtRp1690
(dp1691
g61
(dp1692
sg70
g1028
sg63
(lp1693
g56
(g77
g58
NtRp1694
(dp1695
g61
(dp1696
g81
g82
ssg70
g1690
sg63
(lp1697
S'web2py_path'
p1698
asbag56
(g77
g58
NtRp1699
(dp1700
g61
(dp1701
g88
g89
ssg70
g1690
sg63
(lp1702
S':'
asbag56
(g77
g58
NtRp1703
(dp1704
g61
(dp1705
sg70
g1690
sg63
(lp1706
g56
(g57
g58
NtRp1707
(dp1708
g61
(dp1709
g69
I4
ssg70
g1703
sg63
(lp1710
g1075
asbasbasbag56
(g72
g58
NtRp1711
(dp1712
g61
(dp1713
sg70
g1028
sg63
(lp1714
g56
(g77
g58
NtRp1715
(dp1716
g61
(dp1717
g81
g82
ssg70
g1711
sg63
(lp1718
S'web2py_version'
p1719
asbag56
(g77
g58
NtRp1720
(dp1721
g61
(dp1722
g88
g89
ssg70
g1711
sg63
(lp1723
S':'
asbag56
(g77
g58
NtRp1724
(dp1725
g61
(dp1726
sg70
g1711
sg63
(lp1727
g56
(g57
g58
NtRp1728
(dp1729
g61
(dp1730
g69
I4
ssg70
g1724
sg63
(lp1731
g56
(g65
g58
NtRp1732
(dp1733
g61
(dp1734
g69
I3
ssg70
Nsg63
(lp1735
g56
(g72
g58
NtRp1736
(dp1737
g61
(dp1738
sg70
g1732
sg63
(lp1739
g56
(g77
g58
NtRp1740
(dp1741
g61
(dp1742
sg70
g1736
sg63
(lp1743
g56
(g57
g58
NtRp1744
(dp1745
g61
(dp1746
g69
I3
ssg70
g1740
sg63
(lp1747
S'1'
asbasbasbag56
(g72
g58
NtRp1748
(dp1749
g61
(dp1750
sg70
g1732
sg63
(lp1751
g56
(g77
g58
NtRp1752
(dp1753
g61
(dp1754
sg70
g1748
sg63
(lp1755
g56
(g57
g58
NtRp1756
(dp1757
g61
(dp1758
g69
I3
ssg70
g1752
sg63
(lp1759
S'99'
p1760
asbasbasbag56
(g72
g58
NtRp1761
(dp1762
g61
(dp1763
sg70
g1732
sg63
(lp1764
g56
(g77
g58
NtRp1765
(dp1766
g61
(dp1767
sg70
g1761
sg63
(lp1768
g56
(g57
g58
NtRp1769
(dp1770
g61
(dp1771
g69
I3
ssg70
g1765
sg63
(lp1772
S'2'
asbasbasbag56
(g72
g58
NtRp1773
(dp1774
g61
(dp1775
sg70
g1732
sg63
(lp1776
g56
(g77
g58
NtRp1777
(dp1778
g61
(dp1779
sg70
g1773
sg63
(lp1780
g56
(g57
g58
NtRp1781
(dp1782
g61
(dp1783
g69
I3
ssg70
g1777
sg63
(lp1784
S'datetime.datetime(2011, 9, 26, 6, 55, 33)'
p1785
asbasbasbag56
(g72
g58
NtRp1786
(dp1787
g61
(dp1788
sg70
g1732
sg63
(lp1789
g56
(g77
g58
NtRp1790
(dp1791
g61
(dp1792
sg70
g1786
sg63
(lp1793
g56
(g57
g58
NtRp1794
(dp1795
g61
(dp1796
g69
I3
ssg70
g1790
sg63
(lp1797
S'stable'
p1798
asbasbasbasbasbasbasbag56
(g72
g58
NtRp1799
(dp1800
g61
(dp1801
sg70
g1028
sg63
(lp1802
g56
(g77
g58
NtRp1803
(dp1804
g61
(dp1805
g81
g82
ssg70
g1799
sg63
(lp1806
S'wsgi_errors'
p1807
asbag56
(g77
g58
NtRp1808
(dp1809
g61
(dp1810
g88
g89
ssg70
g1799
sg63
(lp1811
S':'
asbag56
(g77
g58
NtRp1812
(dp1813
g61
(dp1814
sg70
g1799
sg63
(lp1815
g56
(g57
g58
NtRp1816
(dp1817
g61
(dp1818
g69
I4
ssg70
g1812
sg63
(lp1819
S"<open file '<stderr>', mode 'w' at 0x7f1a4db92270>"
p1820
asbasbasbag56
(g72
g58
NtRp1821
(dp1822
g61
(dp1823
sg70
g1028
sg63
(lp1824
g56
(g77
g58
NtRp1825
(dp1826
g61
(dp1827
g81
g82
ssg70
g1821
sg63
(lp1828
S'wsgi_file_wrapper'
p1829
asbag56
(g77
g58
NtRp1830
(dp1831
g61
(dp1832
g88
g89
ssg70
g1821
sg63
(lp1833
S':'
asbag56
(g77
g58
NtRp1834
(dp1835
g61
(dp1836
sg70
g1821
sg63
(lp1837
g56
(g57
g58
NtRp1838
(dp1839
g61
(dp1840
g69
I4
ssg70
g1834
sg63
(lp1841
S'<class wsgiref.util.FileWrapper at 0x21fc870>'
p1842
asbasbasbag56
(g72
g58
NtRp1843
(dp1844
g61
(dp1845
sg70
g1028
sg63
(lp1846
g56
(g77
g58
NtRp1847
(dp1848
g61
(dp1849
g81
g82
ssg70
g1843
sg63
(lp1850
S'wsgi_input'
p1851
asbag56
(g77
g58
NtRp1852
(dp1853
g61
(dp1854
g88
g89
ssg70
g1843
sg63
(lp1855
S':'
asbag56
(g77
g58
NtRp1856
(dp1857
g61
(dp1858
sg70
g1843
sg63
(lp1859
g56
(g57
g58
NtRp1860
(dp1861
g61
(dp1862
g69
I4
ssg70
g1856
sg63
(lp1863
S'<socket._fileobject object at 0x2863cd0>'
p1864
asbasbasbag56
(g72
g58
NtRp1865
(dp1866
g61
(dp1867
sg70
g1028
sg63
(lp1868
g56
(g77
g58
NtRp1869
(dp1870
g61
(dp1871
g81
g82
ssg70
g1865
sg63
(lp1872
S'wsgi_multiprocess'
p1873
asbag56
(g77
g58
NtRp1874
(dp1875
g61
(dp1876
g88
g89
ssg70
g1865
sg63
(lp1877
S':'
asbag56
(g77
g58
NtRp1878
(dp1879
g61
(dp1880
sg70
g1865
sg63
(lp1881
g56
(g57
g58
NtRp1882
(dp1883
g61
(dp1884
g69
I4
ssg70
g1878
sg63
(lp1885
g1166
asbasbasbag56
(g72
g58
NtRp1886
(dp1887
g61
(dp1888
sg70
g1028
sg63
(lp1889
g56
(g77
g58
NtRp1890
(dp1891
g61
(dp1892
g81
g82
ssg70
g1886
sg63
(lp1893
S'wsgi_multithread'
p1894
asbag56
(g77
g58
NtRp1895
(dp1896
g61
(dp1897
g88
g89
ssg70
g1886
sg63
(lp1898
S':'
asbag56
(g77
g58
NtRp1899
(dp1900
g61
(dp1901
sg70
g1886
sg63
(lp1902
g56
(g57
g58
NtRp1903
(dp1904
g61
(dp1905
g69
I4
ssg70
g1899
sg63
(lp1906
g99
asbasbasbag56
(g72
g58
NtRp1907
(dp1908
g61
(dp1909
sg70
g1028
sg63
(lp1910
g56
(g77
g58
NtRp1911
(dp1912
g61
(dp1913
g81
g82
ssg70
g1907
sg63
(lp1914
S'wsgi_run_once'
p1915
asbag56
(g77
g58
NtRp1916
(dp1917
g61
(dp1918
g88
g89
ssg70
g1907
sg63
(lp1919
S':'
asbag56
(g77
g58
NtRp1920
(dp1921
g61
(dp1922
sg70
g1907
sg63
(lp1923
g56
(g57
g58
NtRp1924
(dp1925
g61
(dp1926
g69
I4
ssg70
g1920
sg63
(lp1927
g1166
asbasbasbag56
(g72
g58
NtRp1928
(dp1929
g61
(dp1930
sg70
g1028
sg63
(lp1931
g56
(g77
g58
NtRp1932
(dp1933
g61
(dp1934
g81
g82
ssg70
g1928
sg63
(lp1935
S'wsgi_url_scheme'
p1936
asbag56
(g77
g58
NtRp1937
(dp1938
g61
(dp1939
g88
g89
ssg70
g1928
sg63
(lp1940
S':'
asbag56
(g77
g58
NtRp1941
(dp1942
g61
(dp1943
sg70
g1928
sg63
(lp1944
g56
(g57
g58
NtRp1945
(dp1946
g61
(dp1947
g69
I4
ssg70
g1941
sg63
(lp1948
S'http'
p1949
asbasbasbag56
(g72
g58
NtRp1950
(dp1951
g61
(dp1952
sg70
g1028
sg63
(lp1953
g56
(g77
g58
NtRp1954
(dp1955
g61
(dp1956
g81
g82
ssg70
g1950
sg63
(lp1957
S'wsgi_version'
p1958
asbag56
(g77
g58
NtRp1959
(dp1960
g61
(dp1961
g88
g89
ssg70
g1950
sg63
(lp1962
S':'
asbag56
(g77
g58
NtRp1963
(dp1964
g61
(dp1965
sg70
g1950
sg63
(lp1966
g56
(g57
g58
NtRp1967
(dp1968
g61
(dp1969
g69
I4
ssg70
g1963
sg63
(lp1970
g56
(g65
g58
NtRp1971
(dp1972
g61
(dp1973
g69
I3
ssg70
Nsg63
(lp1974
g56
(g72
g58
NtRp1975
(dp1976
g61
(dp1977
sg70
g1971
sg63
(lp1978
g56
(g77
g58
NtRp1979
(dp1980
g61
(dp1981
sg70
g1975
sg63
(lp1982
g56
(g57
g58
NtRp1983
(dp1984
g61
(dp1985
g69
I3
ssg70
g1979
sg63
(lp1986
S'1'
asbasbasbag56
(g72
g58
NtRp1987
(dp1988
g61
(dp1989
sg70
g1971
sg63
(lp1990
g56
(g77
g58
NtRp1991
(dp1992
g61
(dp1993
sg70
g1987
sg63
(lp1994
g56
(g57
g58
NtRp1995
(dp1996
g61
(dp1997
g69
I3
ssg70
g1991
sg63
(lp1998
S'0'
asbasbasbasbasbasbasbasbasbasbasbag56
(g72
g58
NtRp1999
(dp2000
g61
(dp2001
sg70
g66
sg63
(lp2002
g56
(g77
g58
NtRp2003
(dp2004
g61
(dp2005
g81
g82
ssg70
g1999
sg63
(lp2006
S'extension'
p2007
asbag56
(g77
g58
NtRp2008
(dp2009
g61
(dp2010
g88
g89
ssg70
g1999
sg63
(lp2011
S':'
asbag56
(g77
g58
NtRp2012
(dp2013
g61
(dp2014
sg70
g1999
sg63
(lp2015
g56
(g57
g58
NtRp2016
(dp2017
g61
(dp2018
g69
I5
ssg70
g2012
sg63
(lp2019
S'load'
p2020
asbasbasbag56
(g72
g58
NtRp2021
(dp2022
g61
(dp2023
sg70
g66
sg63
(lp2024
g56
(g77
g58
NtRp2025
(dp2026
g61
(dp2027
g81
g82
ssg70
g2021
sg63
(lp2028
S'folder'
p2029
asbag56
(g77
g58
NtRp2030
(dp2031
g61
(dp2032
g88
g89
ssg70
g2021
sg63
(lp2033
S':'
asbag56
(g77
g58
NtRp2034
(dp2035
g61
(dp2036
sg70
g2021
sg63
(lp2037
g56
(g57
g58
NtRp2038
(dp2039
g61
(dp2040
g69
I5
ssg70
g2034
sg63
(lp2041
S'/home/ian/web2py/applications/grades/'
p2042
asbasbasbag56
(g72
g58
NtRp2043
(dp2044
g61
(dp2045
sg70
g66
sg63
(lp2046
g56
(g77
g58
NtRp2047
(dp2048
g61
(dp2049
g81
g82
ssg70
g2043
sg63
(lp2050
S'function'
p2051
asbag56
(g77
g58
NtRp2052
(dp2053
g61
(dp2054
g88
g89
ssg70
g2043
sg63
(lp2055
S':'
asbag56
(g77
g58
NtRp2056
(dp2057
g61
(dp2058
sg70
g2043
sg63
(lp2059
g56
(g57
g58
NtRp2060
(dp2061
g61
(dp2062
g69
I5
ssg70
g2056
sg63
(lp2063
S'grades_report'
p2064
asbasbasbag56
(g72
g58
NtRp2065
(dp2066
g61
(dp2067
sg70
g66
sg63
(lp2068
g56
(g77
g58
NtRp2069
(dp2070
g61
(dp2071
g81
g82
ssg70
g2065
sg63
(lp2072
S'get_vars'
p2073
asbag56
(g77
g58
NtRp2074
(dp2075
g61
(dp2076
g88
g89
ssg70
g2065
sg63
(lp2077
S':'
asbag56
(g77
g58
NtRp2078
(dp2079
g61
(dp2080
sg70
g2065
sg63
(lp2081
g56
(g57
g58
NtRp2082
(dp2083
g61
(dp2084
g69
I5
ssg70
g2078
sg63
(lp2085
g56
(g65
g58
NtRp2086
(dp2087
g61
(dp2088
g69
I4
ssg70
Nsg63
(lp2089
sbasbasbasbag56
(g72
g58
NtRp2090
(dp2091
g61
(dp2092
sg70
g66
sg63
(lp2093
g56
(g77
g58
NtRp2094
(dp2095
g61
(dp2096
g81
g82
ssg70
g2090
sg63
(lp2097
S'global_settings'
p2098
asbag56
(g77
g58
NtRp2099
(dp2100
g61
(dp2101
g88
g89
ssg70
g2090
sg63
(lp2102
S':'
asbag56
(g77
g58
NtRp2103
(dp2104
g61
(dp2105
sg70
g2090
sg63
(lp2106
g56
(g57
g58
NtRp2107
(dp2108
g61
(dp2109
g69
I5
ssg70
g2103
sg63
(lp2110
g56
(g65
g58
NtRp2111
(dp2112
g61
(dp2113
g69
I4
ssg70
Nsg63
(lp2114
g56
(g72
g58
NtRp2115
(dp2116
g61
(dp2117
sg70
g2111
sg63
(lp2118
g56
(g77
g58
NtRp2119
(dp2120
g61
(dp2121
g81
g82
ssg70
g2115
sg63
(lp2122
g1040
asbag56
(g77
g58
NtRp2123
(dp2124
g61
(dp2125
g88
g89
ssg70
g2115
sg63
(lp2126
S':'
asbag56
(g77
g58
NtRp2127
(dp2128
g61
(dp2129
sg70
g2115
sg63
(lp2130
g56
(g57
g58
NtRp2131
(dp2132
g61
(dp2133
g69
I4
ssg70
g2127
sg63
(lp2134
S"set(['/home/ian/web2py/applications/welcome/', '/home/ian/web2py/applications/grades/', '/home/ian/web2py/applications/admin/'])"
p2135
asbasbasbag56
(g72
g58
NtRp2136
(dp2137
g61
(dp2138
sg70
g2111
sg63
(lp2139
g56
(g77
g58
NtRp2140
(dp2141
g61
(dp2142
g81
g82
ssg70
g2136
sg63
(lp2143
g1062
asbag56
(g77
g58
NtRp2144
(dp2145
g61
(dp2146
g88
g89
ssg70
g2136
sg63
(lp2147
S':'
asbag56
(g77
g58
NtRp2148
(dp2149
g61
(dp2150
sg70
g2136
sg63
(lp2151
g56
(g57
g58
NtRp2152
(dp2153
g61
(dp2154
g69
I4
ssg70
g2148
sg63
(lp2155
g1075
asbasbasbag56
(g72
g58
NtRp2156
(dp2157
g61
(dp2158
sg70
g2111
sg63
(lp2159
g56
(g77
g58
NtRp2160
(dp2161
g61
(dp2162
g81
g82
ssg70
g2156
sg63
(lp2163
g1084
asbag56
(g77
g58
NtRp2164
(dp2165
g61
(dp2166
g88
g89
ssg70
g2156
sg63
(lp2167
S':'
asbag56
(g77
g58
NtRp2168
(dp2169
g61
(dp2170
sg70
g2156
sg63
(lp2171
g56
(g57
g58
NtRp2172
(dp2173
g61
(dp2174
g69
I4
ssg70
g2168
sg63
(lp2175
g56
(g65
g58
NtRp2176
(dp2177
g61
(dp2178
g69
I3
ssg70
Nsg63
(lp2179
sbasbasbasbag56
(g72
g58
NtRp2180
(dp2181
g61
(dp2182
sg70
g2111
sg63
(lp2183
g56
(g77
g58
NtRp2184
(dp2185
g61
(dp2186
g81
g82
ssg70
g2180
sg63
(lp2187
g1109
asbag56
(g77
g58
NtRp2188
(dp2189
g61
(dp2190
g88
g89
ssg70
g2180
sg63
(lp2191
S':'
asbag56
(g77
g58
NtRp2192
(dp2193
g61
(dp2194
sg70
g2180
sg63
(lp2195
g56
(g57
g58
NtRp2196
(dp2197
g61
(dp2198
g69
I4
ssg70
g2192
sg63
(lp2199
S"<Values at 0x2331758: {'verbose': False, 'ip': '127.0.0.1', 'shutdown_timeout': 5, 'taskbar': False, 'nocron': False, 'pid_filename': 'httpserver.pid', 'maxthreads': None, 'softcron': False, 'server_name': 'uriel', 'bpython': False, 'nogui': False, 'port': 8000, 'extcron': False, 'debuglevel': 30, 'test': None, 'folder': '/home/ian/web2py', 'config': '', 'import_models': False, 'winservice': '', 'shell': None, 'run': '', 'log_filename': 'httpserver.log', 'args': [''], 'ssl_ca_certificate': None, 'scheduler': None, 'profiler_filename': None, 'ssl_private_key': '', 'password': '<ask>', 'request_queue_size': 5, 'ssl_certificate': '', 'cronjob': False, 'plain': False, 'quiet': False, 'interfaces': None, 'minthreads': None, 'timeout': 10, 'numthreads': None, 'nobanner': False}>"
p2200
asbasbasbag56
(g72
g58
NtRp2201
(dp2202
g61
(dp2203
sg70
g2111
sg63
(lp2204
g56
(g77
g58
NtRp2205
(dp2206
g61
(dp2207
g81
g82
ssg70
g2201
sg63
(lp2208
g1131
asbag56
(g77
g58
NtRp2209
(dp2210
g61
(dp2211
g88
g89
ssg70
g2201
sg63
(lp2212
S':'
asbag56
(g77
g58
NtRp2213
(dp2214
g61
(dp2215
sg70
g2201
sg63
(lp2216
g56
(g57
g58
NtRp2217
(dp2218
g61
(dp2219
g69
I4
ssg70
g2213
sg63
(lp2220
S'set([])'
p2221
asbasbasbag56
(g72
g58
NtRp2222
(dp2223
g61
(dp2224
sg70
g2111
sg63
(lp2225
g56
(g77
g58
NtRp2226
(dp2227
g61
(dp2228
g81
g82
ssg70
g2222
sg63
(lp2229
g1153
asbag56
(g77
g58
NtRp2230
(dp2231
g61
(dp2232
g88
g89
ssg70
g2222
sg63
(lp2233
S':'
asbag56
(g77
g58
NtRp2234
(dp2235
g61
(dp2236
sg70
g2222
sg63
(lp2237
g56
(g57
g58
NtRp2238
(dp2239
g61
(dp2240
g69
I4
ssg70
g2234
sg63
(lp2241
g1166
asbasbasbag56
(g72
g58
NtRp2242
(dp2243
g61
(dp2244
sg70
g2111
sg63
(lp2245
g56
(g77
g58
NtRp2246
(dp2247
g61
(dp2248
g81
g82
ssg70
g2242
sg63
(lp2249
g1175
asbag56
(g77
g58
NtRp2250
(dp2251
g61
(dp2252
g88
g89
ssg70
g2242
sg63
(lp2253
S':'
asbag56
(g77
g58
NtRp2254
(dp2255
g61
(dp2256
sg70
g2242
sg63
(lp2257
g56
(g57
g58
NtRp2258
(dp2259
g61
(dp2260
g69
I4
ssg70
g2254
sg63
(lp2261
g1188
asbasbasbag56
(g72
g58
NtRp2262
(dp2263
g61
(dp2264
sg70
g2111
sg63
(lp2265
g56
(g77
g58
NtRp2266
(dp2267
g61
(dp2268
g81
g82
ssg70
g2262
sg63
(lp2269
g1438
asbag56
(g77
g58
NtRp2270
(dp2271
g61
(dp2272
g88
g89
ssg70
g2262
sg63
(lp2273
S':'
asbag56
(g77
g58
NtRp2274
(dp2275
g61
(dp2276
sg70
g2262
sg63
(lp2277
g56
(g57
g58
NtRp2278
(dp2279
g61
(dp2280
g69
I4
ssg70
g2274
sg63
(lp2281
g1166
asbasbasbag56
(g72
g58
NtRp2282
(dp2283
g61
(dp2284
sg70
g2111
sg63
(lp2285
g56
(g77
g58
NtRp2286
(dp2287
g61
(dp2288
g81
g82
ssg70
g2282
sg63
(lp2289
g1676
asbag56
(g77
g58
NtRp2290
(dp2291
g61
(dp2292
g88
g89
ssg70
g2282
sg63
(lp2293
S':'
asbag56
(g77
g58
NtRp2294
(dp2295
g61
(dp2296
sg70
g2282
sg63
(lp2297
g56
(g57
g58
NtRp2298
(dp2299
g61
(dp2300
g69
I4
ssg70
g2294
sg63
(lp2301
g1689
asbasbasbag56
(g72
g58
NtRp2302
(dp2303
g61
(dp2304
sg70
g2111
sg63
(lp2305
g56
(g77
g58
NtRp2306
(dp2307
g61
(dp2308
g81
g82
ssg70
g2302
sg63
(lp2309
g1719
asbag56
(g77
g58
NtRp2310
(dp2311
g61
(dp2312
g88
g89
ssg70
g2302
sg63
(lp2313
S':'
asbag56
(g77
g58
NtRp2314
(dp2315
g61
(dp2316
sg70
g2302
sg63
(lp2317
g56
(g57
g58
NtRp2318
(dp2319
g61
(dp2320
g69
I4
ssg70
g2314
sg63
(lp2321
g56
(g65
g58
NtRp2322
(dp2323
g61
(dp2324
g69
I3
ssg70
Nsg63
(lp2325
g56
(g72
g58
NtRp2326
(dp2327
g61
(dp2328
sg70
g2322
sg63
(lp2329
g56
(g77
g58
NtRp2330
(dp2331
g61
(dp2332
sg70
g2326
sg63
(lp2333
g56
(g57
g58
NtRp2334
(dp2335
g61
(dp2336
g69
I3
ssg70
g2330
sg63
(lp2337
S'1'
asbasbasbag56
(g72
g58
NtRp2338
(dp2339
g61
(dp2340
sg70
g2322
sg63
(lp2341
g56
(g77
g58
NtRp2342
(dp2343
g61
(dp2344
sg70
g2338
sg63
(lp2345
g56
(g57
g58
NtRp2346
(dp2347
g61
(dp2348
g69
I3
ssg70
g2342
sg63
(lp2349
S'99'
p2350
asbasbasbag56
(g72
g58
NtRp2351
(dp2352
g61
(dp2353
sg70
g2322
sg63
(lp2354
g56
(g77
g58
NtRp2355
(dp2356
g61
(dp2357
sg70
g2351
sg63
(lp2358
g56
(g57
g58
NtRp2359
(dp2360
g61
(dp2361
g69
I3
ssg70
g2355
sg63
(lp2362
S'2'
asbasbasbag56
(g72
g58
NtRp2363
(dp2364
g61
(dp2365
sg70
g2322
sg63
(lp2366
g56
(g77
g58
NtRp2367
(dp2368
g61
(dp2369
sg70
g2363
sg63
(lp2370
g56
(g57
g58
NtRp2371
(dp2372
g61
(dp2373
g69
I3
ssg70
g2367
sg63
(lp2374
S'datetime.datetime(2011, 9, 26, 6, 55, 33)'
p2375
asbasbasbag56
(g72
g58
NtRp2376
(dp2377
g61
(dp2378
sg70
g2322
sg63
(lp2379
g56
(g77
g58
NtRp2380
(dp2381
g61
(dp2382
sg70
g2376
sg63
(lp2383
g56
(g57
g58
NtRp2384
(dp2385
g61
(dp2386
g69
I3
ssg70
g2380
sg63
(lp2387
g1798
asbasbasbasbasbasbasbasbasbasbasbag56
(g72
g58
NtRp2388
(dp2389
g61
(dp2390
sg70
g66
sg63
(lp2391
g56
(g77
g58
NtRp2392
(dp2393
g61
(dp2394
g81
g82
ssg70
g2388
sg63
(lp2395
S'is_https'
p2396
asbag56
(g77
g58
NtRp2397
(dp2398
g61
(dp2399
g88
g89
ssg70
g2388
sg63
(lp2400
S':'
asbag56
(g77
g58
NtRp2401
(dp2402
g61
(dp2403
sg70
g2388
sg63
(lp2404
g56
(g57
g58
NtRp2405
(dp2406
g61
(dp2407
g69
I5
ssg70
g2401
sg63
(lp2408
g1166
asbasbasbag56
(g72
g58
NtRp2409
(dp2410
g61
(dp2411
sg70
g66
sg63
(lp2412
g56
(g77
g58
NtRp2413
(dp2414
g61
(dp2415
g81
g82
ssg70
g2409
sg63
(lp2416
S'is_local'
p2417
asbag56
(g77
g58
NtRp2418
(dp2419
g61
(dp2420
g88
g89
ssg70
g2409
sg63
(lp2421
S':'
asbag56
(g77
g58
NtRp2422
(dp2423
g61
(dp2424
sg70
g2409
sg63
(lp2425
g56
(g57
g58
NtRp2426
(dp2427
g61
(dp2428
g69
I5
ssg70
g2422
sg63
(lp2429
g99
asbasbasbag56
(g72
g58
NtRp2430
(dp2431
g61
(dp2432
sg70
g66
sg63
(lp2433
g56
(g77
g58
NtRp2434
(dp2435
g61
(dp2436
g81
g82
ssg70
g2430
sg63
(lp2437
S'is_restful'
p2438
asbag56
(g77
g58
NtRp2439
(dp2440
g61
(dp2441
g88
g89
ssg70
g2430
sg63
(lp2442
S':'
asbag56
(g77
g58
NtRp2443
(dp2444
g61
(dp2445
sg70
g2430
sg63
(lp2446
g56
(g57
g58
NtRp2447
(dp2448
g61
(dp2449
g69
I5
ssg70
g2443
sg63
(lp2450
g1166
asbasbasbag56
(g72
g58
NtRp2451
(dp2452
g61
(dp2453
sg70
g66
sg63
(lp2454
g56
(g77
g58
NtRp2455
(dp2456
g61
(dp2457
g81
g82
ssg70
g2451
sg63
(lp2458
S'now'
p2459
asbag56
(g77
g58
NtRp2460
(dp2461
g61
(dp2462
g88
g89
ssg70
g2451
sg63
(lp2463
S':'
asbag56
(g77
g58
NtRp2464
(dp2465
g61
(dp2466
sg70
g2451
sg63
(lp2467
g56
(g57
g58
NtRp2468
(dp2469
g61
(dp2470
g69
I5
ssg70
g2464
sg63
(lp2471
S'datetime.datetime(2011, 11, 3, 17, 23, 46, 760020)'
p2472
asbasbasbag56
(g72
g58
NtRp2473
(dp2474
g61
(dp2475
sg70
g66
sg63
(lp2476
g56
(g77
g58
NtRp2477
(dp2478
g61
(dp2479
g81
g82
ssg70
g2473
sg63
(lp2480
S'post_vars'
p2481
asbag56
(g77
g58
NtRp2482
(dp2483
g61
(dp2484
g88
g89
ssg70
g2473
sg63
(lp2485
S':'
asbag56
(g77
g58
NtRp2486
(dp2487
g61
(dp2488
sg70
g2473
sg63
(lp2489
g56
(g57
g58
NtRp2490
(dp2491
g61
(dp2492
g69
I5
ssg70
g2486
sg63
(lp2493
g56
(g65
g58
NtRp2494
(dp2495
g61
(dp2496
g69
I4
ssg70
Nsg63
(lp2497
sbasbasbasbag56
(g72
g58
NtRp2498
(dp2499
g61
(dp2500
sg70
g66
sg63
(lp2501
g56
(g77
g58
NtRp2502
(dp2503
g61
(dp2504
g81
g82
ssg70
g2498
sg63
(lp2505
S'raw_extension'
p2506
asbag56
(g77
g58
NtRp2507
(dp2508
g61
(dp2509
g88
g89
ssg70
g2498
sg63
(lp2510
S':'
asbag56
(g77
g58
NtRp2511
(dp2512
g61
(dp2513
sg70
g2498
sg63
(lp2514
g56
(g57
g58
NtRp2515
(dp2516
g61
(dp2517
g69
I5
ssg70
g2511
sg63
(lp2518
g2020
asbasbasbag56
(g72
g58
NtRp2519
(dp2520
g61
(dp2521
sg70
g66
sg63
(lp2522
g56
(g77
g58
NtRp2523
(dp2524
g61
(dp2525
g81
g82
ssg70
g2519
sg63
(lp2526
S'url'
p2527
asbag56
(g77
g58
NtRp2528
(dp2529
g61
(dp2530
g88
g89
ssg70
g2519
sg63
(lp2531
S':'
asbag56
(g77
g58
NtRp2532
(dp2533
g61
(dp2534
sg70
g2519
sg63
(lp2535
g56
(g57
g58
NtRp2536
(dp2537
g61
(dp2538
g69
I5
ssg70
g2532
sg63
(lp2539
S'/grades/default/grades_report.load'
p2540
asbasbasbag56
(g72
g58
NtRp2541
(dp2542
g61
(dp2543
sg70
g66
sg63
(lp2544
g56
(g77
g58
NtRp2545
(dp2546
g61
(dp2547
g81
g82
ssg70
g2541
sg63
(lp2548
S'utcnow'
p2549
asbag56
(g77
g58
NtRp2550
(dp2551
g61
(dp2552
g88
g89
ssg70
g2541
sg63
(lp2553
S':'
asbag56
(g77
g58
NtRp2554
(dp2555
g61
(dp2556
sg70
g2541
sg63
(lp2557
g56
(g57
g58
NtRp2558
(dp2559
g61
(dp2560
g69
I5
ssg70
g2554
sg63
(lp2561
S'datetime.datetime(2011, 11, 3, 21, 23, 46, 760074)'
p2562
asbasbasbag56
(g72
g58
NtRp2563
(dp2564
g61
(dp2565
sg70
g66
sg63
(lp2566
g56
(g77
g58
NtRp2567
(dp2568
g61
(dp2569
g81
g82
ssg70
g2563
sg63
(lp2570
S'uuid'
p2571
asbag56
(g77
g58
NtRp2572
(dp2573
g61
(dp2574
g88
g89
ssg70
g2563
sg63
(lp2575
S':'
asbag56
(g77
g58
NtRp2576
(dp2577
g61
(dp2578
sg70
g2563
sg63
(lp2579
g56
(g57
g58
NtRp2580
(dp2581
g61
(dp2582
g69
I5
ssg70
g2576
sg63
(lp2583
S'grades/127.0.0.1.2011-11-03.17-23-46.dba78a35-5c32-484a-b7ea-2acb7d373fb6'
p2584
asbasbasbag56
(g72
g58
NtRp2585
(dp2586
g61
(dp2587
sg70
g66
sg63
(lp2588
g56
(g77
g58
NtRp2589
(dp2590
g61
(dp2591
g81
g82
ssg70
g2585
sg63
(lp2592
S'vars'
p2593
asbag56
(g77
g58
NtRp2594
(dp2595
g61
(dp2596
g88
g89
ssg70
g2585
sg63
(lp2597
S':'
asbag56
(g77
g58
NtRp2598
(dp2599
g61
(dp2600
sg70
g2585
sg63
(lp2601
g56
(g57
g58
NtRp2602
(dp2603
g61
(dp2604
g69
I5
ssg70
g2598
sg63
(lp2605
g56
(g65
g58
NtRp2606
(dp2607
g61
(dp2608
g69
I4
ssg70
Nsg63
(lp2609
sbasbasbasbag56
(g72
g58
NtRp2610
(dp2611
g61
(dp2612
sg70
g66
sg63
(lp2613
g56
(g77
g58
NtRp2614
(dp2615
g61
(dp2616
g81
g82
ssg70
g2610
sg63
(lp2617
S'wsgi'
p2618
asbag56
(g77
g58
NtRp2619
(dp2620
g61
(dp2621
g88
g89
ssg70
g2610
sg63
(lp2622
S':'
asbag56
(g77
g58
NtRp2623
(dp2624
g61
(dp2625
sg70
g2610
sg63
(lp2626
g56
(g57
g58
NtRp2627
(dp2628
g61
(dp2629
g69
I5
ssg70
g2623
sg63
(lp2630
g56
(g65
g58
NtRp2631
(dp2632
g61
(dp2633
g69
I4
ssg70
Nsg63
(lp2634
g56
(g72
g58
NtRp2635
(dp2636
g61
(dp2637
sg70
g2631
sg63
(lp2638
g56
(g77
g58
NtRp2639
(dp2640
g61
(dp2641
g81
g82
ssg70
g2635
sg63
(lp2642
S'environ'
p2643
asbag56
(g77
g58
NtRp2644
(dp2645
g61
(dp2646
g88
g89
ssg70
g2635
sg63
(lp2647
S':'
asbag56
(g77
g58
NtRp2648
(dp2649
g61
(dp2650
sg70
g2635
sg63
(lp2651
g56
(g57
g58
NtRp2652
(dp2653
g61
(dp2654
g69
I4
ssg70
g2648
sg63
(lp2655
g56
(g65
g58
NtRp2656
(dp2657
g61
(dp2658
g69
I3
ssg70
Nsg63
(lp2659
g56
(g72
g58
NtRp2660
(dp2661
g61
(dp2662
sg70
g2656
sg63
(lp2663
g56
(g77
g58
NtRp2664
(dp2665
g61
(dp2666
g81
g82
ssg70
g2660
sg63
(lp2667
S'HTTP_ACCEPT'
p2668
asbag56
(g77
g58
NtRp2669
(dp2670
g61
(dp2671
g88
g89
ssg70
g2660
sg63
(lp2672
S':'
asbag56
(g77
g58
NtRp2673
(dp2674
g61
(dp2675
sg70
g2660
sg63
(lp2676
g56
(g57
g58
NtRp2677
(dp2678
g61
(dp2679
g69
I3
ssg70
g2673
sg63
(lp2680
g1210
asbasbasbag56
(g72
g58
NtRp2681
(dp2682
g61
(dp2683
sg70
g2656
sg63
(lp2684
g56
(g77
g58
NtRp2685
(dp2686
g61
(dp2687
g81
g82
ssg70
g2681
sg63
(lp2688
S'HTTP_ACCEPT_ENCODING'
p2689
asbag56
(g77
g58
NtRp2690
(dp2691
g61
(dp2692
g88
g89
ssg70
g2681
sg63
(lp2693
S':'
asbag56
(g77
g58
NtRp2694
(dp2695
g61
(dp2696
sg70
g2681
sg63
(lp2697
g56
(g57
g58
NtRp2698
(dp2699
g61
(dp2700
g69
I3
ssg70
g2694
sg63
(lp2701
g1232
asbasbasbag56
(g72
g58
NtRp2702
(dp2703
g61
(dp2704
sg70
g2656
sg63
(lp2705
g56
(g77
g58
NtRp2706
(dp2707
g61
(dp2708
g81
g82
ssg70
g2702
sg63
(lp2709
S'HTTP_ACCEPT_LANGUAGE'
p2710
asbag56
(g77
g58
NtRp2711
(dp2712
g61
(dp2713
g88
g89
ssg70
g2702
sg63
(lp2714
S':'
asbag56
(g77
g58
NtRp2715
(dp2716
g61
(dp2717
sg70
g2702
sg63
(lp2718
g56
(g57
g58
NtRp2719
(dp2720
g61
(dp2721
g69
I3
ssg70
g2715
sg63
(lp2722
g1254
asbasbasbag56
(g72
g58
NtRp2723
(dp2724
g61
(dp2725
sg70
g2656
sg63
(lp2726
g56
(g77
g58
NtRp2727
(dp2728
g61
(dp2729
g81
g82
ssg70
g2723
sg63
(lp2730
S'HTTP_CONNECTION'
p2731
asbag56
(g77
g58
NtRp2732
(dp2733
g61
(dp2734
g88
g89
ssg70
g2723
sg63
(lp2735
S':'
asbag56
(g77
g58
NtRp2736
(dp2737
g61
(dp2738
sg70
g2723
sg63
(lp2739
g56
(g57
g58
NtRp2740
(dp2741
g61
(dp2742
g69
I3
ssg70
g2736
sg63
(lp2743
g1276
asbasbasbag56
(g72
g58
NtRp2744
(dp2745
g61
(dp2746
sg70
g2656
sg63
(lp2747
g56
(g77
g58
NtRp2748
(dp2749
g61
(dp2750
g81
g82
ssg70
g2744
sg63
(lp2751
S'HTTP_COOKIE'
p2752
asbag56
(g77
g58
NtRp2753
(dp2754
g61
(dp2755
g88
g89
ssg70
g2744
sg63
(lp2756
S':'
asbag56
(g77
g58
NtRp2757
(dp2758
g61
(dp2759
sg70
g2744
sg63
(lp2760
g56
(g57
g58
NtRp2761
(dp2762
g61
(dp2763
g69
I3
ssg70
g2757
sg63
(lp2764
g1298
asbasbasbag56
(g72
g58
NtRp2765
(dp2766
g61
(dp2767
sg70
g2656
sg63
(lp2768
g56
(g77
g58
NtRp2769
(dp2770
g61
(dp2771
g81
g82
ssg70
g2765
sg63
(lp2772
S'HTTP_HOST'
p2773
asbag56
(g77
g58
NtRp2774
(dp2775
g61
(dp2776
g88
g89
ssg70
g2765
sg63
(lp2777
S':'
asbag56
(g77
g58
NtRp2778
(dp2779
g61
(dp2780
sg70
g2765
sg63
(lp2781
g56
(g57
g58
NtRp2782
(dp2783
g61
(dp2784
g69
I3
ssg70
g2778
sg63
(lp2785
g1320
asbasbasbag56
(g72
g58
NtRp2786
(dp2787
g61
(dp2788
sg70
g2656
sg63
(lp2789
g56
(g77
g58
NtRp2790
(dp2791
g61
(dp2792
g81
g82
ssg70
g2786
sg63
(lp2793
S'HTTP_REFERER'
p2794
asbag56
(g77
g58
NtRp2795
(dp2796
g61
(dp2797
g88
g89
ssg70
g2786
sg63
(lp2798
S':'
asbag56
(g77
g58
NtRp2799
(dp2800
g61
(dp2801
sg70
g2786
sg63
(lp2802
g56
(g57
g58
NtRp2803
(dp2804
g61
(dp2805
g69
I3
ssg70
g2799
sg63
(lp2806
g1342
asbasbasbag56
(g72
g58
NtRp2807
(dp2808
g61
(dp2809
sg70
g2656
sg63
(lp2810
g56
(g77
g58
NtRp2811
(dp2812
g61
(dp2813
g81
g82
ssg70
g2807
sg63
(lp2814
S'HTTP_USER_AGENT'
p2815
asbag56
(g77
g58
NtRp2816
(dp2817
g61
(dp2818
g88
g89
ssg70
g2807
sg63
(lp2819
S':'
asbag56
(g77
g58
NtRp2820
(dp2821
g61
(dp2822
sg70
g2807
sg63
(lp2823
g56
(g57
g58
NtRp2824
(dp2825
g61
(dp2826
g69
I3
ssg70
g2820
sg63
(lp2827
g1364
asbasbasbag56
(g72
g58
NtRp2828
(dp2829
g61
(dp2830
sg70
g2656
sg63
(lp2831
g56
(g77
g58
NtRp2832
(dp2833
g61
(dp2834
g81
g82
ssg70
g2828
sg63
(lp2835
S'HTTP_WEB2PY_COMPONENT_ELEMENT'
p2836
asbag56
(g77
g58
NtRp2837
(dp2838
g61
(dp2839
g88
g89
ssg70
g2828
sg63
(lp2840
S':'
asbag56
(g77
g58
NtRp2841
(dp2842
g61
(dp2843
sg70
g2828
sg63
(lp2844
g56
(g57
g58
NtRp2845
(dp2846
g61
(dp2847
g69
I3
ssg70
g2841
sg63
(lp2848
g189
asbasbasbag56
(g72
g58
NtRp2849
(dp2850
g61
(dp2851
sg70
g2656
sg63
(lp2852
g56
(g77
g58
NtRp2853
(dp2854
g61
(dp2855
g81
g82
ssg70
g2849
sg63
(lp2856
S'HTTP_WEB2PY_COMPONENT_LOCATION'
p2857
asbag56
(g77
g58
NtRp2858
(dp2859
g61
(dp2860
g88
g89
ssg70
g2849
sg63
(lp2861
S':'
asbag56
(g77
g58
NtRp2862
(dp2863
g61
(dp2864
sg70
g2849
sg63
(lp2865
g56
(g57
g58
NtRp2866
(dp2867
g61
(dp2868
g69
I3
ssg70
g2862
sg63
(lp2869
g1407
asbasbasbag56
(g72
g58
NtRp2870
(dp2871
g61
(dp2872
sg70
g2656
sg63
(lp2873
g56
(g77
g58
NtRp2874
(dp2875
g61
(dp2876
g81
g82
ssg70
g2870
sg63
(lp2877
S'HTTP_X_REQUESTED_WITH'
p2878
asbag56
(g77
g58
NtRp2879
(dp2880
g61
(dp2881
g88
g89
ssg70
g2870
sg63
(lp2882
S':'
asbag56
(g77
g58
NtRp2883
(dp2884
g61
(dp2885
sg70
g2870
sg63
(lp2886
g56
(g57
g58
NtRp2887
(dp2888
g61
(dp2889
g69
I3
ssg70
g2883
sg63
(lp2890
g1429
asbasbasbag56
(g72
g58
NtRp2891
(dp2892
g61
(dp2893
sg70
g2656
sg63
(lp2894
g56
(g77
g58
NtRp2895
(dp2896
g61
(dp2897
g81
g82
ssg70
g2891
sg63
(lp2898
S'PATH_INFO'
p2899
asbag56
(g77
g58
NtRp2900
(dp2901
g61
(dp2902
g88
g89
ssg70
g2891
sg63
(lp2903
S':'
asbag56
(g77
g58
NtRp2904
(dp2905
g61
(dp2906
sg70
g2891
sg63
(lp2907
g56
(g57
g58
NtRp2908
(dp2909
g61
(dp2910
g69
I3
ssg70
g2904
sg63
(lp2911
g1472
asbasbasbag56
(g72
g58
NtRp2912
(dp2913
g61
(dp2914
sg70
g2656
sg63
(lp2915
g56
(g77
g58
NtRp2916
(dp2917
g61
(dp2918
g81
g82
ssg70
g2912
sg63
(lp2919
S'QUERY_STRING'
p2920
asbag56
(g77
g58
NtRp2921
(dp2922
g61
(dp2923
g88
g89
ssg70
g2912
sg63
(lp2924
S':'
asbag56
(g77
g58
NtRp2925
(dp2926
g61
(dp2927
sg70
g2912
sg63
(lp2928
g56
(g57
g58
NtRp2929
(dp2930
g61
(dp2931
g69
I3
ssg70
g2925
sg63
(lp2932
S''
asbasbasbag56
(g72
g58
NtRp2933
(dp2934
g61
(dp2935
sg70
g2656
sg63
(lp2936
g56
(g77
g58
NtRp2937
(dp2938
g61
(dp2939
g81
g82
ssg70
g2933
sg63
(lp2940
S'REMOTE_ADDR'
p2941
asbag56
(g77
g58
NtRp2942
(dp2943
g61
(dp2944
g88
g89
ssg70
g2933
sg63
(lp2945
S':'
asbag56
(g77
g58
NtRp2946
(dp2947
g61
(dp2948
sg70
g2933
sg63
(lp2949
g56
(g57
g58
NtRp2950
(dp2951
g61
(dp2952
g69
I3
ssg70
g2946
sg63
(lp2953
g211
asbasbasbag56
(g72
g58
NtRp2954
(dp2955
g61
(dp2956
sg70
g2656
sg63
(lp2957
g56
(g77
g58
NtRp2958
(dp2959
g61
(dp2960
g81
g82
ssg70
g2954
sg63
(lp2961
S'REMOTE_PORT'
p2962
asbag56
(g77
g58
NtRp2963
(dp2964
g61
(dp2965
g88
g89
ssg70
g2954
sg63
(lp2966
S':'
asbag56
(g77
g58
NtRp2967
(dp2968
g61
(dp2969
sg70
g2954
sg63
(lp2970
g56
(g57
g58
NtRp2971
(dp2972
g61
(dp2973
g69
I3
ssg70
g2967
sg63
(lp2974
g1536
asbasbasbag56
(g72
g58
NtRp2975
(dp2976
g61
(dp2977
sg70
g2656
sg63
(lp2978
g56
(g77
g58
NtRp2979
(dp2980
g61
(dp2981
g81
g82
ssg70
g2975
sg63
(lp2982
S'REQUEST_METHOD'
p2983
asbag56
(g77
g58
NtRp2984
(dp2985
g61
(dp2986
g88
g89
ssg70
g2975
sg63
(lp2987
S':'
asbag56
(g77
g58
NtRp2988
(dp2989
g61
(dp2990
sg70
g2975
sg63
(lp2991
g56
(g57
g58
NtRp2992
(dp2993
g61
(dp2994
g69
I3
ssg70
g2988
sg63
(lp2995
g1558
asbasbasbag56
(g72
g58
NtRp2996
(dp2997
g61
(dp2998
sg70
g2656
sg63
(lp2999
g56
(g77
g58
NtRp3000
(dp3001
g61
(dp3002
g81
g82
ssg70
g2996
sg63
(lp3003
S'SCRIPT_NAME'
p3004
asbag56
(g77
g58
NtRp3005
(dp3006
g61
(dp3007
g88
g89
ssg70
g2996
sg63
(lp3008
S':'
asbag56
(g77
g58
NtRp3009
(dp3010
g61
(dp3011
sg70
g2996
sg63
(lp3012
g56
(g57
g58
NtRp3013
(dp3014
g61
(dp3015
g69
I3
ssg70
g3009
sg63
(lp3016
S''
asbasbasbag56
(g72
g58
NtRp3017
(dp3018
g61
(dp3019
sg70
g2656
sg63
(lp3020
g56
(g77
g58
NtRp3021
(dp3022
g61
(dp3023
g81
g82
ssg70
g3017
sg63
(lp3024
S'SERVER_NAME'
p3025
asbag56
(g77
g58
NtRp3026
(dp3027
g61
(dp3028
g88
g89
ssg70
g3017
sg63
(lp3029
S':'
asbag56
(g77
g58
NtRp3030
(dp3031
g61
(dp3032
sg70
g3017
sg63
(lp3033
g56
(g57
g58
NtRp3034
(dp3035
g61
(dp3036
g69
I3
ssg70
g3030
sg63
(lp3037
g1601
asbasbasbag56
(g72
g58
NtRp3038
(dp3039
g61
(dp3040
sg70
g2656
sg63
(lp3041
g56
(g77
g58
NtRp3042
(dp3043
g61
(dp3044
g81
g82
ssg70
g3038
sg63
(lp3045
S'SERVER_PORT'
p3046
asbag56
(g77
g58
NtRp3047
(dp3048
g61
(dp3049
g88
g89
ssg70
g3038
sg63
(lp3050
S':'
asbag56
(g77
g58
NtRp3051
(dp3052
g61
(dp3053
sg70
g3038
sg63
(lp3054
g56
(g57
g58
NtRp3055
(dp3056
g61
(dp3057
g69
I3
ssg70
g3051
sg63
(lp3058
g1623
asbasbasbag56
(g72
g58
NtRp3059
(dp3060
g61
(dp3061
sg70
g2656
sg63
(lp3062
g56
(g77
g58
NtRp3063
(dp3064
g61
(dp3065
g81
g82
ssg70
g3059
sg63
(lp3066
S'SERVER_PROTOCOL'
p3067
asbag56
(g77
g58
NtRp3068
(dp3069
g61
(dp3070
g88
g89
ssg70
g3059
sg63
(lp3071
S':'
asbag56
(g77
g58
NtRp3072
(dp3073
g61
(dp3074
sg70
g3059
sg63
(lp3075
g56
(g57
g58
NtRp3076
(dp3077
g61
(dp3078
g69
I3
ssg70
g3072
sg63
(lp3079
g1645
asbasbasbag56
(g72
g58
NtRp3080
(dp3081
g61
(dp3082
sg70
g2656
sg63
(lp3083
g56
(g77
g58
NtRp3084
(dp3085
g61
(dp3086
g81
g82
ssg70
g3080
sg63
(lp3087
S'SERVER_SOFTWARE'
p3088
asbag56
(g77
g58
NtRp3089
(dp3090
g61
(dp3091
g88
g89
ssg70
g3080
sg63
(lp3092
S':'
asbag56
(g77
g58
NtRp3093
(dp3094
g61
(dp3095
sg70
g3080
sg63
(lp3096
g56
(g57
g58
NtRp3097
(dp3098
g61
(dp3099
g69
I3
ssg70
g3093
sg63
(lp3100
g1667
asbasbasbag56
(g72
g58
NtRp3101
(dp3102
g61
(dp3103
sg70
g2656
sg63
(lp3104
g56
(g77
g58
NtRp3105
(dp3106
g61
(dp3107
g81
g82
ssg70
g3101
sg63
(lp3108
S'wsgi.errors'
p3109
asbag56
(g77
g58
NtRp3110
(dp3111
g61
(dp3112
g88
g89
ssg70
g3101
sg63
(lp3113
S':'
asbag56
(g77
g58
NtRp3114
(dp3115
g61
(dp3116
sg70
g3101
sg63
(lp3117
g56
(g57
g58
NtRp3118
(dp3119
g61
(dp3120
g69
I3
ssg70
g3114
sg63
(lp3121
S"<open file '<stderr>', mode 'w' at 0x7f1a4db92270>"
p3122
asbasbasbag56
(g72
g58
NtRp3123
(dp3124
g61
(dp3125
sg70
g2656
sg63
(lp3126
g56
(g77
g58
NtRp3127
(dp3128
g61
(dp3129
g81
g82
ssg70
g3123
sg63
(lp3130
S'wsgi.file_wrapper'
p3131
asbag56
(g77
g58
NtRp3132
(dp3133
g61
(dp3134
g88
g89
ssg70
g3123
sg63
(lp3135
S':'
asbag56
(g77
g58
NtRp3136
(dp3137
g61
(dp3138
sg70
g3123
sg63
(lp3139
g56
(g57
g58
NtRp3140
(dp3141
g61
(dp3142
g69
I3
ssg70
g3136
sg63
(lp3143
S'<class wsgiref.util.FileWrapper at 0x21fc870>'
p3144
asbasbasbag56
(g72
g58
NtRp3145
(dp3146
g61
(dp3147
sg70
g2656
sg63
(lp3148
g56
(g77
g58
NtRp3149
(dp3150
g61
(dp3151
g81
g82
ssg70
g3145
sg63
(lp3152
S'wsgi.input'
p3153
asbag56
(g77
g58
NtRp3154
(dp3155
g61
(dp3156
g88
g89
ssg70
g3145
sg63
(lp3157
S':'
asbag56
(g77
g58
NtRp3158
(dp3159
g61
(dp3160
sg70
g3145
sg63
(lp3161
g56
(g57
g58
NtRp3162
(dp3163
g61
(dp3164
g69
I3
ssg70
g3158
sg63
(lp3165
S'<cStringIO.StringO object at 0x7764848>'
p3166
asbasbasbag56
(g72
g58
NtRp3167
(dp3168
g61
(dp3169
sg70
g2656
sg63
(lp3170
g56
(g77
g58
NtRp3171
(dp3172
g61
(dp3173
g81
g82
ssg70
g3167
sg63
(lp3174
S'wsgi.multiprocess'
p3175
asbag56
(g77
g58
NtRp3176
(dp3177
g61
(dp3178
g88
g89
ssg70
g3167
sg63
(lp3179
S':'
asbag56
(g77
g58
NtRp3180
(dp3181
g61
(dp3182
sg70
g3167
sg63
(lp3183
g56
(g57
g58
NtRp3184
(dp3185
g61
(dp3186
g69
I3
ssg70
g3180
sg63
(lp3187
g1166
asbasbasbag56
(g72
g58
NtRp3188
(dp3189
g61
(dp3190
sg70
g2656
sg63
(lp3191
g56
(g77
g58
NtRp3192
(dp3193
g61
(dp3194
g81
g82
ssg70
g3188
sg63
(lp3195
S'wsgi.multithread'
p3196
asbag56
(g77
g58
NtRp3197
(dp3198
g61
(dp3199
g88
g89
ssg70
g3188
sg63
(lp3200
S':'
asbag56
(g77
g58
NtRp3201
(dp3202
g61
(dp3203
sg70
g3188
sg63
(lp3204
g56
(g57
g58
NtRp3205
(dp3206
g61
(dp3207
g69
I3
ssg70
g3201
sg63
(lp3208
g99
asbasbasbag56
(g72
g58
NtRp3209
(dp3210
g61
(dp3211
sg70
g2656
sg63
(lp3212
g56
(g77
g58
NtRp3213
(dp3214
g61
(dp3215
g81
g82
ssg70
g3209
sg63
(lp3216
S'wsgi.run_once'
p3217
asbag56
(g77
g58
NtRp3218
(dp3219
g61
(dp3220
g88
g89
ssg70
g3209
sg63
(lp3221
S':'
asbag56
(g77
g58
NtRp3222
(dp3223
g61
(dp3224
sg70
g3209
sg63
(lp3225
g56
(g57
g58
NtRp3226
(dp3227
g61
(dp3228
g69
I3
ssg70
g3222
sg63
(lp3229
g1166
asbasbasbag56
(g72
g58
NtRp3230
(dp3231
g61
(dp3232
sg70
g2656
sg63
(lp3233
g56
(g77
g58
NtRp3234
(dp3235
g61
(dp3236
g81
g82
ssg70
g3230
sg63
(lp3237
S'wsgi.url_scheme'
p3238
asbag56
(g77
g58
NtRp3239
(dp3240
g61
(dp3241
g88
g89
ssg70
g3230
sg63
(lp3242
S':'
asbag56
(g77
g58
NtRp3243
(dp3244
g61
(dp3245
sg70
g3230
sg63
(lp3246
g56
(g57
g58
NtRp3247
(dp3248
g61
(dp3249
g69
I3
ssg70
g3243
sg63
(lp3250
g1949
asbasbasbag56
(g72
g58
NtRp3251
(dp3252
g61
(dp3253
sg70
g2656
sg63
(lp3254
g56
(g77
g58
NtRp3255
(dp3256
g61
(dp3257
g81
g82
ssg70
g3251
sg63
(lp3258
S'wsgi.version'
p3259
asbag56
(g77
g58
NtRp3260
(dp3261
g61
(dp3262
g88
g89
ssg70
g3251
sg63
(lp3263
S':'
asbag56
(g77
g58
NtRp3264
(dp3265
g61
(dp3266
sg70
g3251
sg63
(lp3267
g56
(g57
g58
NtRp3268
(dp3269
g61
(dp3270
g69
I3
ssg70
g3264
sg63
(lp3271
S'1'
asbasbasbasbasbasbasbasbasbasbasbasbasbsS'frames'
p3272
(lp3273
(dp3274
S'file'
p3275
S'/home/ian/web2py/gluon/restricted.py'
p3276
sS'dump'
p3277
(dp3278
S'environment'
p3279
S"{'A': <class 'gluon.html.A'>, 'Auth': <class 'gluon.tools.Auth'>, 'B': <class 'gluon.html.B'>, 'BEAUTIFY': <class 'gluon.html.BEAUTIFY'>, 'BODY': <class 'gluon.html.BODY'>, 'BR': <class 'gluon.html.BR'>, 'BUTTON': <class 'gluon.html.BUTTON'>, 'CAT': <class 'gluon.html.CAT'>, 'CENTER': <class 'gluon.html.CENTER'>, 'CLEANUP': <class 'gluon.validators.CLEANUP'>, ...}"
p3280
sS'ccode'
p3281
S'<code object <module> at 0x2855ab0, file "/home/...lications/grades/controllers/default.py", line 2>'
p3282
ssS'lnum'
p3283
I194
sS'lines'
p3284
(dp3285
I192
S'        else:'
p3286
sI193
S'            ccode = compile2(code,layer)'
p3287
sI194
S'        exec ccode in environment'
p3288
sI195
S'    except HTTP:'
p3289
sI196
S'        raise'
p3290
sI197
S'    except Exception, error:'
p3291
sI198
S'        # XXX Show exception in Wing IDE if running in debugger'
p3292
sI189
S'    try:'
p3293
sI190
S'        if type(code) == types.CodeType:'
p3294
sI191
S'            ccode = code'
p3295
ssS'call'
p3296
S"(code='# -*- coding: utf-8 -*-\\nfrom gluon import * \\nimp... \\nresponse._vars=response._caller(grades_report)\\n', environment={'A': <class 'gluon.html.A'>, 'Auth': <class 'gluon.tools.Auth'>, 'B': <class 'gluon.html.B'>, 'BEAUTIFY': <class 'gluon.html.BEAUTIFY'>, 'BODY': <class 'gluon.html.BODY'>, 'BR': <class 'gluon.html.BR'>, 'BUTTON': <class 'gluon.html.BUTTON'>, 'CAT': <class 'gluon.html.CAT'>, 'CENTER': <class 'gluon.html.CENTER'>, 'CLEANUP': <class 'gluon.validators.CLEANUP'>, ...}, layer='/home/ian/web2py/applications/grades/controllers/default.py')"
p3297
sS'func'
p3298
S'restricted'
p3299
sa(dp3300
g3275
S'/home/ian/web2py/applications/grades/controllers/default.py'
p3301
sg3277
(dp3302
sg3283
I62
sg3284
(dp3303
I52
S'            dates = g[the_course]'
p3304
sI53
S'            if the_date in dates:'
p3305
sI54
S'                dates[the_date].append(r.grade)'
p3306
sI55
S'            else:'
p3307
sI56
S'                dates[the_date] = [r.grade]'
p3308
sI57
S'        else:'
p3309
sI58
S'            l = [r.grade]'
p3310
sI59
S'            the_date = r.class_date'
p3311
sI60
S'            g[r.course] = dict(the_date = l)'
p3312
sI61
S'    return dict(grades = g, students = students, student = student)'
p3313
ssg3296
S'()'
p3314
sg3298
S'<module>'
p3315
sa(dp3316
g3275
S'/home/ian/web2py/gluon/globals.py'
p3317
sg3277
(dp3318
S'self'
p3319
S'undefined'
p3320
sS'f'
S'<function grades_report>'
p3321
ssg3283
I149
sg3284
(dp3322
I144
S'        self.meta = Storage()      # used by web2py_ajax.html'
p3323
sI145
S'        self.menu = []             # used by the default view layout'
p3324
sI146
S'        self.files = []            # used by web2py_ajax.html'
p3325
sI147
S'        self.generic_patterns = [] # patterns to allow generic views'
p3326
sI148
S'        self._vars = None'
p3327
sI149
S'        self._caller = lambda f: f()'
p3328
sI150
S'        self._view_environment = None'
p3329
sI151
S'        self._custom_commit = None'
p3330
sI152
S'        self._custom_rollback = None'
p3331
sI153
S''
ssg3296
S'(f=<function grades_report>)'
p3332
sg3298
S'<lambda>'
p3333
sa(dp3334
g3275
S'/home/ian/web2py/gluon/tools.py'
p3335
sg3277
(dp3336
S'action'
p3337
S'<function grades_report>'
p3338
sS'a'
S'()'
p3339
sS'b'
g44
ssg3283
I2456
sg3284
(dp3340
I2451
S"                            '?_next='+urllib.quote(next))"
p3341
sI2452
S'                if not condition:'
p3342
sI2453
S'                    current.session.flash = self.messages.access_denied'
p3343
sI2454
S'                    return call_or_redirect('
p3344
sI2455
S'                        self.settings.on_failed_authorization)'
p3345
sI2456
S'                return action(*a, **b)'
p3346
sI2457
S'            f.__doc__ = action.__doc__'
p3347
sI2458
S'            f.__name__ = action.__name__'
p3348
sI2459
S'            f.__dict__.update(action.__dict__)'
p3349
sI2460
S'            return f'
p3350
ssg3296
S'(*a=(), **b={})'
p3351
sg3298
S'f'
sa(dp3352
g3275
S'/home/ian/web2py/applications/grades/controllers/default.py'
p3353
sg3277
(dp3354
S'global request'
p3355
S"<Storage {'body': <cStringIO.StringO object at 0..._vars': <Storage {}>, 'post_vars': <Storage {}>}>"
p3356
sS'request.args'
p3357
S'[]'
p3358
sS'u'
g3320
ssg3283
I41
sg3284
(dp3359
I36
S'    for s in student_list:'
p3360
sI37
S'        sindex = s.id'
p3361
sI38
S'        slast = s.last_name'
p3362
sI39
S'        sfirst = s.first_name'
p3363
sI40
S"        students[sindex] = slast + ', ' + sfirst"
p3364
sI41
S'    u = request.args[0]'
p3365
sI42
S'    n = db.auth_user[u]'
p3366
sI43
S"    student = n.last_name + ', ' + n.first_name"
p3367
sI44
S'    gradelist = db(db.grades.name == u).select()'
p3368
sI45
S'    session.debug = request.args[0]'
p3369
ssg3296
S'()'
p3370
sg3298
S'grades_report'
p3371
sasS'pyver'
p3372
S'Python 2.7.2+: /usr/bin/python2.7'
p3373
sS'session'
p3374
g56
(g57
g58
NtRp3375
(dp3376
g61
(dp3377
sg63
(lp3378
g56
(g65
g58
NtRp3379
(dp3380
g61
(dp3381
g69
I5
ssg70
Nsg63
(lp3382
g56
(g72
g58
NtRp3383
(dp3384
g61
(dp3385
sg70
g3379
sg63
(lp3386
g56
(g77
g58
NtRp3387
(dp3388
g61
(dp3389
g81
g82
ssg70
g3383
sg63
(lp3390
S'auth'
p3391
asbag56
(g77
g58
NtRp3392
(dp3393
g61
(dp3394
g88
g89
ssg70
g3383
sg63
(lp3395
S':'
asbag56
(g77
g58
NtRp3396
(dp3397
g61
(dp3398
sg70
g3383
sg63
(lp3399
g56
(g57
g58
NtRp3400
(dp3401
g61
(dp3402
g69
I5
ssg70
g3396
sg63
(lp3403
g56
(g65
g58
NtRp3404
(dp3405
g61
(dp3406
g69
I4
ssg70
Nsg63
(lp3407
g56
(g72
g58
NtRp3408
(dp3409
g61
(dp3410
sg70
g3404
sg63
(lp3411
g56
(g77
g58
NtRp3412
(dp3413
g61
(dp3414
g81
g82
ssg70
g3408
sg63
(lp3415
S'expiration'
p3416
asbag56
(g77
g58
NtRp3417
(dp3418
g61
(dp3419
g88
g89
ssg70
g3408
sg63
(lp3420
S':'
asbag56
(g77
g58
NtRp3421
(dp3422
g61
(dp3423
sg70
g3408
sg63
(lp3424
g56
(g57
g58
NtRp3425
(dp3426
g61
(dp3427
g69
I4
ssg70
g3421
sg63
(lp3428
S'2592000'
p3429
asbasbasbag56
(g72
g58
NtRp3430
(dp3431
g61
(dp3432
sg70
g3404
sg63
(lp3433
g56
(g77
g58
NtRp3434
(dp3435
g61
(dp3436
g81
g82
ssg70
g3430
sg63
(lp3437
S'hmac_key'
p3438
asbag56
(g77
g58
NtRp3439
(dp3440
g61
(dp3441
g88
g89
ssg70
g3430
sg63
(lp3442
S':'
asbag56
(g77
g58
NtRp3443
(dp3444
g61
(dp3445
sg70
g3430
sg63
(lp3446
g56
(g57
g58
NtRp3447
(dp3448
g61
(dp3449
g69
I4
ssg70
g3443
sg63
(lp3450
S'7662103e-e580-4791-b95a-39c18813d8df'
p3451
asbasbasbag56
(g72
g58
NtRp3452
(dp3453
g61
(dp3454
sg70
g3404
sg63
(lp3455
g56
(g77
g58
NtRp3456
(dp3457
g61
(dp3458
g81
g82
ssg70
g3452
sg63
(lp3459
S'last_visit'
p3460
asbag56
(g77
g58
NtRp3461
(dp3462
g61
(dp3463
g88
g89
ssg70
g3452
sg63
(lp3464
S':'
asbag56
(g77
g58
NtRp3465
(dp3466
g61
(dp3467
sg70
g3452
sg63
(lp3468
g56
(g57
g58
NtRp3469
(dp3470
g61
(dp3471
g69
I4
ssg70
g3465
sg63
(lp3472
S'datetime.datetime(2011, 11, 3, 16, 16, 8, 558332)'
p3473
asbasbasbag56
(g72
g58
NtRp3474
(dp3475
g61
(dp3476
sg70
g3404
sg63
(lp3477
g56
(g77
g58
NtRp3478
(dp3479
g61
(dp3480
g81
g82
ssg70
g3474
sg63
(lp3481
S'remember'
p3482
asbag56
(g77
g58
NtRp3483
(dp3484
g61
(dp3485
g88
g89
ssg70
g3474
sg63
(lp3486
S':'
asbag56
(g77
g58
NtRp3487
(dp3488
g61
(dp3489
sg70
g3474
sg63
(lp3490
g56
(g57
g58
NtRp3491
(dp3492
g61
(dp3493
g69
I4
ssg70
g3487
sg63
(lp3494
g1166
asbasbasbag56
(g72
g58
NtRp3495
(dp3496
g61
(dp3497
sg70
g3404
sg63
(lp3498
g56
(g77
g58
NtRp3499
(dp3500
g61
(dp3501
g81
g82
ssg70
g3495
sg63
(lp3502
S'user'
p3503
asbag56
(g77
g58
NtRp3504
(dp3505
g61
(dp3506
g88
g89
ssg70
g3495
sg63
(lp3507
S':'
asbag56
(g77
g58
NtRp3508
(dp3509
g61
(dp3510
sg70
g3495
sg63
(lp3511
g56
(g57
g58
NtRp3512
(dp3513
g61
(dp3514
g69
I4
ssg70
g3508
sg63
(lp3515
g56
(g65
g58
NtRp3516
(dp3517
g61
(dp3518
g69
I3
ssg70
Nsg63
(lp3519
g56
(g72
g58
NtRp3520
(dp3521
g61
(dp3522
sg70
g3516
sg63
(lp3523
g56
(g77
g58
NtRp3524
(dp3525
g61
(dp3526
g81
g82
ssg70
g3520
sg63
(lp3527
S'email'
p3528
asbag56
(g77
g58
NtRp3529
(dp3530
g61
(dp3531
g88
g89
ssg70
g3520
sg63
(lp3532
S':'
asbag56
(g77
g58
NtRp3533
(dp3534
g61
(dp3535
sg70
g3520
sg63
(lp3536
g56
(g57
g58
NtRp3537
(dp3538
g61
(dp3539
g69
I3
ssg70
g3533
sg63
(lp3540
S'scottianw@gmail.com'
p3541
asbasbasbag56
(g72
g58
NtRp3542
(dp3543
g61
(dp3544
sg70
g3516
sg63
(lp3545
g56
(g77
g58
NtRp3546
(dp3547
g61
(dp3548
g81
g82
ssg70
g3542
sg63
(lp3549
S'first_name'
p3550
asbag56
(g77
g58
NtRp3551
(dp3552
g61
(dp3553
g88
g89
ssg70
g3542
sg63
(lp3554
S':'
asbag56
(g77
g58
NtRp3555
(dp3556
g61
(dp3557
sg70
g3542
sg63
(lp3558
g56
(g57
g58
NtRp3559
(dp3560
g61
(dp3561
g69
I3
ssg70
g3555
sg63
(lp3562
S'Ian'
p3563
asbasbasbag56
(g72
g58
NtRp3564
(dp3565
g61
(dp3566
sg70
g3516
sg63
(lp3567
g56
(g77
g58
NtRp3568
(dp3569
g61
(dp3570
g81
g82
ssg70
g3564
sg63
(lp3571
S'id'
p3572
asbag56
(g77
g58
NtRp3573
(dp3574
g61
(dp3575
g88
g89
ssg70
g3564
sg63
(lp3576
S':'
asbag56
(g77
g58
NtRp3577
(dp3578
g61
(dp3579
sg70
g3564
sg63
(lp3580
g56
(g57
g58
NtRp3581
(dp3582
g61
(dp3583
g69
I3
ssg70
g3577
sg63
(lp3584
S'11'
p3585
asbasbasbag56
(g72
g58
NtRp3586
(dp3587
g61
(dp3588
sg70
g3516
sg63
(lp3589
g56
(g77
g58
NtRp3590
(dp3591
g61
(dp3592
g81
g82
ssg70
g3586
sg63
(lp3593
S'last_name'
p3594
asbag56
(g77
g58
NtRp3595
(dp3596
g61
(dp3597
g88
g89
ssg70
g3586
sg63
(lp3598
S':'
asbag56
(g77
g58
NtRp3599
(dp3600
g61
(dp3601
sg70
g3586
sg63
(lp3602
g56
(g57
g58
NtRp3603
(dp3604
g61
(dp3605
g69
I3
ssg70
g3599
sg63
(lp3606
S'Scott'
p3607
asbasbasbag56
(g72
g58
NtRp3608
(dp3609
g61
(dp3610
sg70
g3516
sg63
(lp3611
g56
(g77
g58
NtRp3612
(dp3613
g61
(dp3614
g81
g82
ssg70
g3608
sg63
(lp3615
S'password'
p3616
asbag56
(g77
g58
NtRp3617
(dp3618
g61
(dp3619
g88
g89
ssg70
g3608
sg63
(lp3620
S':'
asbag56
(g77
g58
NtRp3621
(dp3622
g61
(dp3623
sg70
g3608
sg63
(lp3624
g56
(g57
g58
NtRp3625
(dp3626
g61
(dp3627
g69
I3
ssg70
g3621
sg63
(lp3628
S'351bc855a8ae4839e89ee60d2f279ed9'
p3629
asbasbasbag56
(g72
g58
NtRp3630
(dp3631
g61
(dp3632
sg70
g3516
sg63
(lp3633
g56
(g77
g58
NtRp3634
(dp3635
g61
(dp3636
g81
g82
ssg70
g3630
sg63
(lp3637
S'registration_key'
p3638
asbag56
(g77
g58
NtRp3639
(dp3640
g61
(dp3641
g88
g89
ssg70
g3630
sg63
(lp3642
S':'
asbag56
(g77
g58
NtRp3643
(dp3644
g61
(dp3645
sg70
g3630
sg63
(lp3646
g56
(g57
g58
NtRp3647
(dp3648
g61
(dp3649
g69
I3
ssg70
g3643
sg63
(lp3650
S''
asbasbasbag56
(g72
g58
NtRp3651
(dp3652
g61
(dp3653
sg70
g3516
sg63
(lp3654
g56
(g77
g58
NtRp3655
(dp3656
g61
(dp3657
g81
g82
ssg70
g3651
sg63
(lp3658
S'reset_password_key'
p3659
asbag56
(g77
g58
NtRp3660
(dp3661
g61
(dp3662
g88
g89
ssg70
g3651
sg63
(lp3663
S':'
asbag56
(g77
g58
NtRp3664
(dp3665
g61
(dp3666
sg70
g3651
sg63
(lp3667
g56
(g57
g58
NtRp3668
(dp3669
g61
(dp3670
g69
I3
ssg70
g3664
sg63
(lp3671
S''
asbasbasbasbasbasbasbasbasbasbasbag56
(g72
g58
NtRp3672
(dp3673
g61
(dp3674
sg70
g3379
sg63
(lp3675
g56
(g77
g58
NtRp3676
(dp3677
g61
(dp3678
g81
g82
ssg70
g3672
sg63
(lp3679
S'debug'
p3680
asbag56
(g77
g58
NtRp3681
(dp3682
g61
(dp3683
g88
g89
ssg70
g3672
sg63
(lp3684
S':'
asbag56
(g77
g58
NtRp3685
(dp3686
g61
(dp3687
sg70
g3672
sg63
(lp3688
g56
(g57
g58
NtRp3689
(dp3690
g61
(dp3691
g69
I5
ssg70
g3685
sg63
(lp3692
S'15'
p3693
asbasbasbasbasbsS'etype'
p3694
S"<type 'exceptions.IndexError'>"
p3695
sS'date'
p3696
S'Thu Nov  3 17:23:46 2011'
p3697
sS'response'
p3698
g56
(g57
g58
NtRp3699
(dp3700
g61
(dp3701
sg63
(lp3702
g56
(g65
g58
NtRp3703
(dp3704
g61
(dp3705
g69
I5
ssg70
Nsg63
(lp3706
g56
(g72
g58
NtRp3707
(dp3708
g61
(dp3709
sg70
g3703
sg63
(lp3710
g56
(g77
g58
NtRp3711
(dp3712
g61
(dp3713
g81
g82
ssg70
g3707
sg63
(lp3714
g154
asbag56
(g77
g58
NtRp3715
(dp3716
g61
(dp3717
g88
g89
ssg70
g3707
sg63
(lp3718
S':'
asbag56
(g77
g58
NtRp3719
(dp3720
g61
(dp3721
sg70
g3707
sg63
(lp3722
g56
(g57
g58
NtRp3723
(dp3724
g61
(dp3725
g69
I5
ssg70
g3719
sg63
(lp3726
S'<cStringIO.StringO object at 0x77644c8>'
p3727
asbasbasbag56
(g72
g58
NtRp3728
(dp3729
g61
(dp3730
sg70
g3703
sg63
(lp3731
g56
(g77
g58
NtRp3732
(dp3733
g61
(dp3734
g81
g82
ssg70
g3728
sg63
(lp3735
g242
asbag56
(g77
g58
NtRp3736
(dp3737
g61
(dp3738
g88
g89
ssg70
g3728
sg63
(lp3739
S':'
asbag56
(g77
g58
NtRp3740
(dp3741
g61
(dp3742
sg70
g3728
sg63
(lp3743
g56
(g57
g58
NtRp3744
(dp3745
g61
(dp3746
g69
I5
ssg70
g3740
sg63
(lp3747
g56
(g65
g58
NtRp3748
(dp3749
g61
(dp3750
g69
I4
ssg70
Nsg63
(lp3751
g56
(g72
g58
NtRp3752
(dp3753
g61
(dp3754
sg70
g3748
sg63
(lp3755
g56
(g77
g58
NtRp3756
(dp3757
g61
(dp3758
g81
g82
ssg70
g3752
sg63
(lp3759
S'session_id_grades'
p3760
asbag56
(g77
g58
NtRp3761
(dp3762
g61
(dp3763
g88
g89
ssg70
g3752
sg63
(lp3764
S':'
asbag56
(g77
g58
NtRp3765
(dp3766
g61
(dp3767
sg70
g3752
sg63
(lp3768
g56
(g57
g58
NtRp3769
(dp3770
g61
(dp3771
g69
I4
ssg70
g3765
sg63
(lp3772
g56
(g65
g58
NtRp3773
(dp3774
g61
(dp3775
g69
I3
ssg70
Nsg63
(lp3776
g56
(g72
g58
NtRp3777
(dp3778
g61
(dp3779
sg70
g3773
sg63
(lp3780
g56
(g77
g58
NtRp3781
(dp3782
g61
(dp3783
g81
g82
ssg70
g3777
sg63
(lp3784
g292
asbag56
(g77
g58
NtRp3785
(dp3786
g61
(dp3787
g88
g89
ssg70
g3777
sg63
(lp3788
S':'
asbag56
(g77
g58
NtRp3789
(dp3790
g61
(dp3791
sg70
g3777
sg63
(lp3792
g56
(g57
g58
NtRp3793
(dp3794
g61
(dp3795
g69
I3
ssg70
g3789
sg63
(lp3796
S''
asbasbasbag56
(g72
g58
NtRp3797
(dp3798
g61
(dp3799
sg70
g3773
sg63
(lp3800
g56
(g77
g58
NtRp3801
(dp3802
g61
(dp3803
g81
g82
ssg70
g3797
sg63
(lp3804
g313
asbag56
(g77
g58
NtRp3805
(dp3806
g61
(dp3807
g88
g89
ssg70
g3797
sg63
(lp3808
S':'
asbag56
(g77
g58
NtRp3809
(dp3810
g61
(dp3811
sg70
g3797
sg63
(lp3812
g56
(g57
g58
NtRp3813
(dp3814
g61
(dp3815
g69
I3
ssg70
g3809
sg63
(lp3816
S''
asbasbasbag56
(g72
g58
NtRp3817
(dp3818
g61
(dp3819
sg70
g3773
sg63
(lp3820
g56
(g77
g58
NtRp3821
(dp3822
g61
(dp3823
g81
g82
ssg70
g3817
sg63
(lp3824
g334
asbag56
(g77
g58
NtRp3825
(dp3826
g61
(dp3827
g88
g89
ssg70
g3817
sg63
(lp3828
S':'
asbag56
(g77
g58
NtRp3829
(dp3830
g61
(dp3831
sg70
g3817
sg63
(lp3832
g56
(g57
g58
NtRp3833
(dp3834
g61
(dp3835
g69
I3
ssg70
g3829
sg63
(lp3836
S''
asbasbasbag56
(g72
g58
NtRp3837
(dp3838
g61
(dp3839
sg70
g3773
sg63
(lp3840
g56
(g77
g58
NtRp3841
(dp3842
g61
(dp3843
g81
g82
ssg70
g3837
sg63
(lp3844
g355
asbag56
(g77
g58
NtRp3845
(dp3846
g61
(dp3847
g88
g89
ssg70
g3837
sg63
(lp3848
S':'
asbag56
(g77
g58
NtRp3849
(dp3850
g61
(dp3851
sg70
g3837
sg63
(lp3852
g56
(g57
g58
NtRp3853
(dp3854
g61
(dp3855
g69
I3
ssg70
g3849
sg63
(lp3856
S''
asbasbasbag56
(g72
g58
NtRp3857
(dp3858
g61
(dp3859
sg70
g3773
sg63
(lp3860
g56
(g77
g58
NtRp3861
(dp3862
g61
(dp3863
g81
g82
ssg70
g3857
sg63
(lp3864
g376
asbag56
(g77
g58
NtRp3865
(dp3866
g61
(dp3867
g88
g89
ssg70
g3857
sg63
(lp3868
S':'
asbag56
(g77
g58
NtRp3869
(dp3870
g61
(dp3871
sg70
g3857
sg63
(lp3872
g56
(g57
g58
NtRp3873
(dp3874
g61
(dp3875
g69
I3
ssg70
g3869
sg63
(lp3876
S''
asbasbasbag56
(g72
g58
NtRp3877
(dp3878
g61
(dp3879
sg70
g3773
sg63
(lp3880
g56
(g77
g58
NtRp3881
(dp3882
g61
(dp3883
g81
g82
ssg70
g3877
sg63
(lp3884
g397
asbag56
(g77
g58
NtRp3885
(dp3886
g61
(dp3887
g88
g89
ssg70
g3877
sg63
(lp3888
S':'
asbag56
(g77
g58
NtRp3889
(dp3890
g61
(dp3891
sg70
g3877
sg63
(lp3892
g56
(g57
g58
NtRp3893
(dp3894
g61
(dp3895
g69
I3
ssg70
g3889
sg63
(lp3896
S'/'
asbasbasbag56
(g72
g58
NtRp3897
(dp3898
g61
(dp3899
sg70
g3773
sg63
(lp3900
g56
(g77
g58
NtRp3901
(dp3902
g61
(dp3903
g81
g82
ssg70
g3897
sg63
(lp3904
g418
asbag56
(g77
g58
NtRp3905
(dp3906
g61
(dp3907
g88
g89
ssg70
g3897
sg63
(lp3908
S':'
asbag56
(g77
g58
NtRp3909
(dp3910
g61
(dp3911
sg70
g3897
sg63
(lp3912
g56
(g57
g58
NtRp3913
(dp3914
g61
(dp3915
g69
I3
ssg70
g3909
sg63
(lp3916
S''
asbasbasbag56
(g72
g58
NtRp3917
(dp3918
g61
(dp3919
sg70
g3773
sg63
(lp3920
g56
(g77
g58
NtRp3921
(dp3922
g61
(dp3923
g81
g82
ssg70
g3917
sg63
(lp3924
g439
asbag56
(g77
g58
NtRp3925
(dp3926
g61
(dp3927
g88
g89
ssg70
g3917
sg63
(lp3928
S':'
asbag56
(g77
g58
NtRp3929
(dp3930
g61
(dp3931
sg70
g3917
sg63
(lp3932
g56
(g57
g58
NtRp3933
(dp3934
g61
(dp3935
g69
I3
ssg70
g3929
sg63
(lp3936
S''
asbasbasbasbasbasbasbasbasbasbasbag56
(g72
g58
NtRp3937
(dp3938
g61
(dp3939
sg70
g3703
sg63
(lp3940
g56
(g77
g58
NtRp3941
(dp3942
g61
(dp3943
g81
g82
ssg70
g3937
sg63
(lp3944
S'files'
p3945
asbag56
(g77
g58
NtRp3946
(dp3947
g61
(dp3948
g88
g89
ssg70
g3937
sg63
(lp3949
S':'
asbag56
(g77
g58
NtRp3950
(dp3951
g61
(dp3952
sg70
g3937
sg63
(lp3953
g56
(g57
g58
NtRp3954
(dp3955
g61
(dp3956
g69
I5
ssg70
g3950
sg63
(lp3957
g56
(g65
g58
NtRp3958
(dp3959
g61
(dp3960
g69
I4
ssg70
Nsg63
(lp3961
sbasbasbasbag56
(g72
g58
NtRp3962
(dp3963
g61
(dp3964
sg70
g3703
sg63
(lp3965
g56
(g77
g58
NtRp3966
(dp3967
g61
(dp3968
g81
g82
ssg70
g3962
sg63
(lp3969
S'flash'
p3970
asbag56
(g77
g58
NtRp3971
(dp3972
g61
(dp3973
g88
g89
ssg70
g3962
sg63
(lp3974
S':'
asbag56
(g77
g58
NtRp3975
(dp3976
g61
(dp3977
sg70
g3962
sg63
(lp3978
g56
(g57
g58
NtRp3979
(dp3980
g61
(dp3981
g69
I5
ssg70
g3975
sg63
(lp3982
S''
asbasbasbag56
(g72
g58
NtRp3983
(dp3984
g61
(dp3985
sg70
g3703
sg63
(lp3986
g56
(g77
g58
NtRp3987
(dp3988
g61
(dp3989
g81
g82
ssg70
g3983
sg63
(lp3990
S'generic_patterns'
p3991
asbag56
(g77
g58
NtRp3992
(dp3993
g61
(dp3994
g88
g89
ssg70
g3983
sg63
(lp3995
S':'
asbag56
(g77
g58
NtRp3996
(dp3997
g61
(dp3998
sg70
g3983
sg63
(lp3999
g56
(g57
g58
NtRp4000
(dp4001
g61
(dp4002
g69
I5
ssg70
g3996
sg63
(lp4003
g56
(g65
g58
NtRp4004
(dp4005
g61
(dp4006
g69
I4
ssg70
Nsg63
(lp4007
g56
(g72
g58
NtRp4008
(dp4009
g61
(dp4010
sg70
g4004
sg63
(lp4011
g56
(g77
g58
NtRp4012
(dp4013
g61
(dp4014
sg70
g4008
sg63
(lp4015
g56
(g57
g58
NtRp4016
(dp4017
g61
(dp4018
g69
I4
ssg70
g4012
sg63
(lp4019
S'*'
asbasbasbasbasbasbasbag56
(g72
g58
NtRp4020
(dp4021
g61
(dp4022
sg70
g3703
sg63
(lp4023
g56
(g77
g58
NtRp4024
(dp4025
g61
(dp4026
g81
g82
ssg70
g4020
sg63
(lp4027
S'headers'
p4028
asbag56
(g77
g58
NtRp4029
(dp4030
g61
(dp4031
g88
g89
ssg70
g4020
sg63
(lp4032
S':'
asbag56
(g77
g58
NtRp4033
(dp4034
g61
(dp4035
sg70
g4020
sg63
(lp4036
g56
(g57
g58
NtRp4037
(dp4038
g61
(dp4039
g69
I5
ssg70
g4033
sg63
(lp4040
g56
(g65
g58
NtRp4041
(dp4042
g61
(dp4043
g69
I4
ssg70
Nsg63
(lp4044
g56
(g72
g58
NtRp4045
(dp4046
g61
(dp4047
sg70
g4041
sg63
(lp4048
g56
(g77
g58
NtRp4049
(dp4050
g61
(dp4051
g81
g82
ssg70
g4045
sg63
(lp4052
S'Cache-Control'
p4053
asbag56
(g77
g58
NtRp4054
(dp4055
g61
(dp4056
g88
g89
ssg70
g4045
sg63
(lp4057
S':'
asbag56
(g77
g58
NtRp4058
(dp4059
g61
(dp4060
sg70
g4045
sg63
(lp4061
g56
(g57
g58
NtRp4062
(dp4063
g61
(dp4064
g69
I4
ssg70
g4058
sg63
(lp4065
S'no-store, no-cache, must-revalidate, post-check=0, pre-check=0'
p4066
asbasbasbag56
(g72
g58
NtRp4067
(dp4068
g61
(dp4069
sg70
g4041
sg63
(lp4070
g56
(g77
g58
NtRp4071
(dp4072
g61
(dp4073
g81
g82
ssg70
g4067
sg63
(lp4074
S'Content-Type'
p4075
asbag56
(g77
g58
NtRp4076
(dp4077
g61
(dp4078
g88
g89
ssg70
g4067
sg63
(lp4079
S':'
asbag56
(g77
g58
NtRp4080
(dp4081
g61
(dp4082
sg70
g4067
sg63
(lp4083
g56
(g57
g58
NtRp4084
(dp4085
g61
(dp4086
g69
I4
ssg70
g4080
sg63
(lp4087
S'text/html; charset=utf-8'
p4088
asbasbasbag56
(g72
g58
NtRp4089
(dp4090
g61
(dp4091
sg70
g4041
sg63
(lp4092
g56
(g77
g58
NtRp4093
(dp4094
g61
(dp4095
g81
g82
ssg70
g4089
sg63
(lp4096
S'Expires'
p4097
asbag56
(g77
g58
NtRp4098
(dp4099
g61
(dp4100
g88
g89
ssg70
g4089
sg63
(lp4101
S':'
asbag56
(g77
g58
NtRp4102
(dp4103
g61
(dp4104
sg70
g4089
sg63
(lp4105
g56
(g57
g58
NtRp4106
(dp4107
g61
(dp4108
g69
I4
ssg70
g4102
sg63
(lp4109
S'Thu, 03 Nov 2011 21:23:46 GMT'
p4110
asbasbasbag56
(g72
g58
NtRp4111
(dp4112
g61
(dp4113
sg70
g4041
sg63
(lp4114
g56
(g77
g58
NtRp4115
(dp4116
g61
(dp4117
g81
g82
ssg70
g4111
sg63
(lp4118
S'Pragma'
p4119
asbag56
(g77
g58
NtRp4120
(dp4121
g61
(dp4122
g88
g89
ssg70
g4111
sg63
(lp4123
S':'
asbag56
(g77
g58
NtRp4124
(dp4125
g61
(dp4126
sg70
g4111
sg63
(lp4127
g56
(g57
g58
NtRp4128
(dp4129
g61
(dp4130
g69
I4
ssg70
g4124
sg63
(lp4131
S'no-cache'
p4132
asbasbasbag56
(g72
g58
NtRp4133
(dp4134
g61
(dp4135
sg70
g4041
sg63
(lp4136
g56
(g77
g58
NtRp4137
(dp4138
g61
(dp4139
g81
g82
ssg70
g4133
sg63
(lp4140
S'X-Powered-By'
p4141
asbag56
(g77
g58
NtRp4142
(dp4143
g61
(dp4144
g88
g89
ssg70
g4133
sg63
(lp4145
S':'
asbag56
(g77
g58
NtRp4146
(dp4147
g61
(dp4148
sg70
g4133
sg63
(lp4149
g56
(g57
g58
NtRp4150
(dp4151
g61
(dp4152
g69
I4
ssg70
g4146
sg63
(lp4153
S'web2py'
p4154
asbasbasbasbasbasbasbag56
(g72
g58
NtRp4155
(dp4156
g61
(dp4157
sg70
g3703
sg63
(lp4158
g56
(g77
g58
NtRp4159
(dp4160
g61
(dp4161
g81
g82
ssg70
g4155
sg63
(lp4162
S'menu'
p4163
asbag56
(g77
g58
NtRp4164
(dp4165
g61
(dp4166
g88
g89
ssg70
g4155
sg63
(lp4167
S':'
asbag56
(g77
g58
NtRp4168
(dp4169
g61
(dp4170
sg70
g4155
sg63
(lp4171
g56
(g57
g58
NtRp4172
(dp4173
g61
(dp4174
g69
I5
ssg70
g4168
sg63
(lp4175
g56
(g65
g58
NtRp4176
(dp4177
g61
(dp4178
g69
I4
ssg70
Nsg63
(lp4179
g56
(g72
g58
NtRp4180
(dp4181
g61
(dp4182
sg70
g4176
sg63
(lp4183
g56
(g77
g58
NtRp4184
(dp4185
g61
(dp4186
sg70
g4180
sg63
(lp4187
g56
(g57
g58
NtRp4188
(dp4189
g61
(dp4190
g69
I4
ssg70
g4184
sg63
(lp4191
g56
(g65
g58
NtRp4192
(dp4193
g61
(dp4194
g69
I3
ssg70
Nsg63
(lp4195
g56
(g72
g58
NtRp4196
(dp4197
g61
(dp4198
sg70
g4192
sg63
(lp4199
g56
(g77
g58
NtRp4200
(dp4201
g61
(dp4202
sg70
g4196
sg63
(lp4203
g56
(g57
g58
NtRp4204
(dp4205
g61
(dp4206
g69
I3
ssg70
g4200
sg63
(lp4207
cgluon.languages
lazyT_unpickle
p4208
(S't\x05\x00\x00\x00Index'
tRp4209
asbasbasbag56
(g72
g58
NtRp4210
(dp4211
g61
(dp4212
sg70
g4192
sg63
(lp4213
g56
(g77
g58
NtRp4214
(dp4215
g61
(dp4216
sg70
g4210
sg63
(lp4217
g56
(g57
g58
NtRp4218
(dp4219
g61
(dp4220
g69
I3
ssg70
g4214
sg63
(lp4221
g1166
asbasbasbag56
(g72
g58
NtRp4222
(dp4223
g61
(dp4224
sg70
g4192
sg63
(lp4225
g56
(g77
g58
NtRp4226
(dp4227
g61
(dp4228
sg70
g4222
sg63
(lp4229
g56
(g57
g58
NtRp4230
(dp4231
g61
(dp4232
g69
I3
ssg70
g4226
sg63
(lp4233
S'/grades/default/index.load'
p4234
asbasbasbag56
(g72
g58
NtRp4235
(dp4236
g61
(dp4237
sg70
g4192
sg63
(lp4238
g56
(g77
g58
NtRp4239
(dp4240
g61
(dp4241
sg70
g4235
sg63
(lp4242
g56
(g57
g58
NtRp4243
(dp4244
g61
(dp4245
g69
I3
ssg70
g4239
sg63
(lp4246
g56
(g65
g58
NtRp4247
(dp4248
g61
(dp4249
g69
I2
ssg70
Nsg63
(lp4250
sbasbasbasbasbasbasbasbag56
(g72
g58
NtRp4251
(dp4252
g61
(dp4253
sg70
g4176
sg63
(lp4254
g56
(g77
g58
NtRp4255
(dp4256
g61
(dp4257
sg70
g4251
sg63
(lp4258
g56
(g57
g58
NtRp4259
(dp4260
g61
(dp4261
g69
I4
ssg70
g4255
sg63
(lp4262
g56
(g65
g58
NtRp4263
(dp4264
g61
(dp4265
g69
I3
ssg70
Nsg63
(lp4266
g56
(g72
g58
NtRp4267
(dp4268
g61
(dp4269
sg70
g4263
sg63
(lp4270
g56
(g77
g58
NtRp4271
(dp4272
g61
(dp4273
sg70
g4267
sg63
(lp4274
g56
(g57
g58
NtRp4275
(dp4276
g61
(dp4277
g69
I3
ssg70
g4271
sg63
(lp4278
g4208
(S't\x06\x00\x00\x00Grades'
tRp4279
asbasbasbag56
(g72
g58
NtRp4280
(dp4281
g61
(dp4282
sg70
g4263
sg63
(lp4283
g56
(g77
g58
NtRp4284
(dp4285
g61
(dp4286
sg70
g4280
sg63
(lp4287
g56
(g57
g58
NtRp4288
(dp4289
g61
(dp4290
g69
I3
ssg70
g4284
sg63
(lp4291
g1166
asbasbasbag56
(g72
g58
NtRp4292
(dp4293
g61
(dp4294
sg70
g4263
sg63
(lp4295
g56
(g77
g58
NtRp4296
(dp4297
g61
(dp4298
sg70
g4292
sg63
(lp4299
g56
(g57
g58
NtRp4300
(dp4301
g61
(dp4302
g69
I3
ssg70
g4296
sg63
(lp4303
S'/grades/default/grades_manage.load'
p4304
asbasbasbag56
(g72
g58
NtRp4305
(dp4306
g61
(dp4307
sg70
g4263
sg63
(lp4308
g56
(g77
g58
NtRp4309
(dp4310
g61
(dp4311
sg70
g4305
sg63
(lp4312
g56
(g57
g58
NtRp4313
(dp4314
g61
(dp4315
g69
I3
ssg70
g4309
sg63
(lp4316
g56
(g65
g58
NtRp4317
(dp4318
g61
(dp4319
g69
I2
ssg70
Nsg63
(lp4320
sbasbasbasbasbasbasbasbag56
(g72
g58
NtRp4321
(dp4322
g61
(dp4323
sg70
g4176
sg63
(lp4324
g56
(g77
g58
NtRp4325
(dp4326
g61
(dp4327
sg70
g4321
sg63
(lp4328
g56
(g57
g58
NtRp4329
(dp4330
g61
(dp4331
g69
I4
ssg70
g4325
sg63
(lp4332
g56
(g65
g58
NtRp4333
(dp4334
g61
(dp4335
g69
I3
ssg70
Nsg63
(lp4336
g56
(g72
g58
NtRp4337
(dp4338
g61
(dp4339
sg70
g4333
sg63
(lp4340
g56
(g77
g58
NtRp4341
(dp4342
g61
(dp4343
sg70
g4337
sg63
(lp4344
g56
(g57
g58
NtRp4345
(dp4346
g61
(dp4347
g69
I3
ssg70
g4341
sg63
(lp4348
g4208
(S't\x07\x00\x00\x00Classes'
tRp4349
asbasbasbag56
(g72
g58
NtRp4350
(dp4351
g61
(dp4352
sg70
g4333
sg63
(lp4353
g56
(g77
g58
NtRp4354
(dp4355
g61
(dp4356
sg70
g4350
sg63
(lp4357
g56
(g57
g58
NtRp4358
(dp4359
g61
(dp4360
g69
I3
ssg70
g4354
sg63
(lp4361
g1166
asbasbasbag56
(g72
g58
NtRp4362
(dp4363
g61
(dp4364
sg70
g4333
sg63
(lp4365
g56
(g77
g58
NtRp4366
(dp4367
g61
(dp4368
sg70
g4362
sg63
(lp4369
g56
(g57
g58
NtRp4370
(dp4371
g61
(dp4372
g69
I3
ssg70
g4366
sg63
(lp4373
S'/grades/default/classes_manage.load'
p4374
asbasbasbag56
(g72
g58
NtRp4375
(dp4376
g61
(dp4377
sg70
g4333
sg63
(lp4378
g56
(g77
g58
NtRp4379
(dp4380
g61
(dp4381
sg70
g4375
sg63
(lp4382
g56
(g57
g58
NtRp4383
(dp4384
g61
(dp4385
g69
I3
ssg70
g4379
sg63
(lp4386
g56
(g65
g58
NtRp4387
(dp4388
g61
(dp4389
g69
I2
ssg70
Nsg63
(lp4390
sbasbasbasbasbasbasbasbasbasbasbasbag56
(g72
g58
NtRp4391
(dp4392
g61
(dp4393
sg70
g3703
sg63
(lp4394
g56
(g77
g58
NtRp4395
(dp4396
g61
(dp4397
g81
g82
ssg70
g4391
sg63
(lp4398
S'meta'
p4399
asbag56
(g77
g58
NtRp4400
(dp4401
g61
(dp4402
g88
g89
ssg70
g4391
sg63
(lp4403
S':'
asbag56
(g77
g58
NtRp4404
(dp4405
g61
(dp4406
sg70
g4391
sg63
(lp4407
g56
(g57
g58
NtRp4408
(dp4409
g61
(dp4410
g69
I5
ssg70
g4404
sg63
(lp4411
g56
(g65
g58
NtRp4412
(dp4413
g61
(dp4414
g69
I4
ssg70
Nsg63
(lp4415
g56
(g72
g58
NtRp4416
(dp4417
g61
(dp4418
sg70
g4412
sg63
(lp4419
g56
(g77
g58
NtRp4420
(dp4421
g61
(dp4422
g81
g82
ssg70
g4416
sg63
(lp4423
S'author'
p4424
asbag56
(g77
g58
NtRp4425
(dp4426
g61
(dp4427
g88
g89
ssg70
g4416
sg63
(lp4428
S':'
asbag56
(g77
g58
NtRp4429
(dp4430
g61
(dp4431
sg70
g4416
sg63
(lp4432
g56
(g57
g58
NtRp4433
(dp4434
g61
(dp4435
g69
I4
ssg70
g4429
sg63
(lp4436
S'Ian W. Scott <scottianw@gmail.com>'
p4437
asbasbasbag56
(g72
g58
NtRp4438
(dp4439
g61
(dp4440
sg70
g4412
sg63
(lp4441
g56
(g77
g58
NtRp4442
(dp4443
g61
(dp4444
g81
g82
ssg70
g4438
sg63
(lp4445
S'description'
p4446
asbag56
(g77
g58
NtRp4447
(dp4448
g61
(dp4449
g88
g89
ssg70
g4438
sg63
(lp4450
S':'
asbag56
(g77
g58
NtRp4451
(dp4452
g61
(dp4453
sg70
g4438
sg63
(lp4454
g56
(g57
g58
NtRp4455
(dp4456
g61
(dp4457
g69
I4
ssg70
g4451
sg63
(lp4458
S''
asbasbasbag56
(g72
g58
NtRp4459
(dp4460
g61
(dp4461
sg70
g4412
sg63
(lp4462
g56
(g77
g58
NtRp4463
(dp4464
g61
(dp4465
g81
g82
ssg70
g4459
sg63
(lp4466
S'keywords'
p4467
asbag56
(g77
g58
NtRp4468
(dp4469
g61
(dp4470
g88
g89
ssg70
g4459
sg63
(lp4471
S':'
asbag56
(g77
g58
NtRp4472
(dp4473
g61
(dp4474
sg70
g4459
sg63
(lp4475
g56
(g57
g58
NtRp4476
(dp4477
g61
(dp4478
g69
I4
ssg70
g4472
sg63
(lp4479
S''
asbasbasbasbasbasbasbag56
(g72
g58
NtRp4480
(dp4481
g61
(dp4482
sg70
g3703
sg63
(lp4483
g56
(g77
g58
NtRp4484
(dp4485
g61
(dp4486
g81
g82
ssg70
g4480
sg63
(lp4487
S'postprocessing'
p4488
asbag56
(g77
g58
NtRp4489
(dp4490
g61
(dp4491
g88
g89
ssg70
g4480
sg63
(lp4492
S':'
asbag56
(g77
g58
NtRp4493
(dp4494
g61
(dp4495
sg70
g4480
sg63
(lp4496
g56
(g57
g58
NtRp4497
(dp4498
g61
(dp4499
g69
I5
ssg70
g4493
sg63
(lp4500
g56
(g65
g58
NtRp4501
(dp4502
g61
(dp4503
g69
I4
ssg70
Nsg63
(lp4504
sbasbasbasbag56
(g72
g58
NtRp4505
(dp4506
g61
(dp4507
sg70
g3703
sg63
(lp4508
g56
(g77
g58
NtRp4509
(dp4510
g61
(dp4511
g81
g82
ssg70
g4505
sg63
(lp4512
S'session_file'
p4513
asbag56
(g77
g58
NtRp4514
(dp4515
g61
(dp4516
g88
g89
ssg70
g4505
sg63
(lp4517
S':'
asbag56
(g77
g58
NtRp4518
(dp4519
g61
(dp4520
sg70
g4505
sg63
(lp4521
g56
(g57
g58
NtRp4522
(dp4523
g61
(dp4524
g69
I5
ssg70
g4518
sg63
(lp4525
S"<open file '/home/ian/web2py/applications/grades/sessions/127.0.0.1-61c0ea3f-8797-4aff-bb5b-97a734e7ddbc', mode 'rb+' at 0x70b76f0>"
p4526
asbasbasbag56
(g72
g58
NtRp4527
(dp4528
g61
(dp4529
sg70
g3703
sg63
(lp4530
g56
(g77
g58
NtRp4531
(dp4532
g61
(dp4533
g81
g82
ssg70
g4527
sg63
(lp4534
S'session_filename'
p4535
asbag56
(g77
g58
NtRp4536
(dp4537
g61
(dp4538
g88
g89
ssg70
g4527
sg63
(lp4539
S':'
asbag56
(g77
g58
NtRp4540
(dp4541
g61
(dp4542
sg70
g4527
sg63
(lp4543
g56
(g57
g58
NtRp4544
(dp4545
g61
(dp4546
g69
I5
ssg70
g4540
sg63
(lp4547
S'/home/ian/web2py/applications/grades/sessions/127.0.0.1-61c0ea3f-8797-4aff-bb5b-97a734e7ddbc'
p4548
asbasbasbag56
(g72
g58
NtRp4549
(dp4550
g61
(dp4551
sg70
g3703
sg63
(lp4552
g56
(g77
g58
NtRp4553
(dp4554
g61
(dp4555
g81
g82
ssg70
g4549
sg63
(lp4556
S'session_id'
p4557
asbag56
(g77
g58
NtRp4558
(dp4559
g61
(dp4560
g88
g89
ssg70
g4549
sg63
(lp4561
S':'
asbag56
(g77
g58
NtRp4562
(dp4563
g61
(dp4564
sg70
g4549
sg63
(lp4565
g56
(g57
g58
NtRp4566
(dp4567
g61
(dp4568
g69
I5
ssg70
g4562
sg63
(lp4569
S'127.0.0.1-61c0ea3f-8797-4aff-bb5b-97a734e7ddbc'
p4570
asbasbasbag56
(g72
g58
NtRp4571
(dp4572
g61
(dp4573
sg70
g3703
sg63
(lp4574
g56
(g77
g58
NtRp4575
(dp4576
g61
(dp4577
g81
g82
ssg70
g4571
sg63
(lp4578
S'session_id_name'
p4579
asbag56
(g77
g58
NtRp4580
(dp4581
g61
(dp4582
g88
g89
ssg70
g4571
sg63
(lp4583
S':'
asbag56
(g77
g58
NtRp4584
(dp4585
g61
(dp4586
sg70
g4571
sg63
(lp4587
g56
(g57
g58
NtRp4588
(dp4589
g61
(dp4590
g69
I5
ssg70
g4584
sg63
(lp4591
g3760
asbasbasbag56
(g72
g58
NtRp4592
(dp4593
g61
(dp4594
sg70
g3703
sg63
(lp4595
g56
(g77
g58
NtRp4596
(dp4597
g61
(dp4598
g81
g82
ssg70
g4592
sg63
(lp4599
S'session_locked'
p4600
asbag56
(g77
g58
NtRp4601
(dp4602
g61
(dp4603
g88
g89
ssg70
g4592
sg63
(lp4604
S':'
asbag56
(g77
g58
NtRp4605
(dp4606
g61
(dp4607
sg70
g4592
sg63
(lp4608
g56
(g57
g58
NtRp4609
(dp4610
g61
(dp4611
g69
I5
ssg70
g4605
sg63
(lp4612
g99
asbasbasbag56
(g72
g58
NtRp4613
(dp4614
g61
(dp4615
sg70
g3703
sg63
(lp4616
g56
(g77
g58
NtRp4617
(dp4618
g61
(dp4619
g81
g82
ssg70
g4613
sg63
(lp4620
S'session_new'
p4621
asbag56
(g77
g58
NtRp4622
(dp4623
g61
(dp4624
g88
g89
ssg70
g4613
sg63
(lp4625
S':'
asbag56
(g77
g58
NtRp4626
(dp4627
g61
(dp4628
sg70
g4613
sg63
(lp4629
g56
(g57
g58
NtRp4630
(dp4631
g61
(dp4632
g69
I5
ssg70
g4626
sg63
(lp4633
g1166
asbasbasbag56
(g72
g58
NtRp4634
(dp4635
g61
(dp4636
sg70
g3703
sg63
(lp4637
g56
(g77
g58
NtRp4638
(dp4639
g61
(dp4640
g81
g82
ssg70
g4634
sg63
(lp4641
S'status'
p4642
asbag56
(g77
g58
NtRp4643
(dp4644
g61
(dp4645
g88
g89
ssg70
g4634
sg63
(lp4646
S':'
asbag56
(g77
g58
NtRp4647
(dp4648
g61
(dp4649
sg70
g4634
sg63
(lp4650
g56
(g57
g58
NtRp4651
(dp4652
g61
(dp4653
g69
I5
ssg70
g4647
sg63
(lp4654
S'200'
p4655
asbasbasbag56
(g72
g58
NtRp4656
(dp4657
g61
(dp4658
sg70
g3703
sg63
(lp4659
g56
(g77
g58
NtRp4660
(dp4661
g61
(dp4662
g81
g82
ssg70
g4656
sg63
(lp4663
S'subtitle'
p4664
asbag56
(g77
g58
NtRp4665
(dp4666
g61
(dp4667
g88
g89
ssg70
g4656
sg63
(lp4668
S':'
asbag56
(g77
g58
NtRp4669
(dp4670
g61
(dp4671
sg70
g4656
sg63
(lp4672
g56
(g57
g58
NtRp4673
(dp4674
g61
(dp4675
g69
I5
ssg70
g4669
sg63
(lp4676
S'a platform for easy submission of peer grades'
p4677
asbasbasbag56
(g72
g58
NtRp4678
(dp4679
g61
(dp4680
sg70
g3703
sg63
(lp4681
g56
(g77
g58
NtRp4682
(dp4683
g61
(dp4684
g81
g82
ssg70
g4678
sg63
(lp4685
S'title'
p4686
asbag56
(g77
g58
NtRp4687
(dp4688
g61
(dp4689
g88
g89
ssg70
g4678
sg63
(lp4690
S':'
asbag56
(g77
g58
NtRp4691
(dp4692
g61
(dp4693
sg70
g4678
sg63
(lp4694
g56
(g57
g58
NtRp4695
(dp4696
g61
(dp4697
g69
I5
ssg70
g4691
sg63
(lp4698
S'Grades'
p4699
asbasbasbag56
(g72
g58
NtRp4700
(dp4701
g61
(dp4702
sg70
g3703
sg63
(lp4703
g56
(g77
g58
NtRp4704
(dp4705
g61
(dp4706
g81
g82
ssg70
g4700
sg63
(lp4707
g2571
asbag56
(g77
g58
NtRp4708
(dp4709
g61
(dp4710
g88
g89
ssg70
g4700
sg63
(lp4711
S':'
asbag56
(g77
g58
NtRp4712
(dp4713
g61
(dp4714
sg70
g4700
sg63
(lp4715
g56
(g57
g58
NtRp4716
(dp4717
g61
(dp4718
g69
I5
ssg70
g4712
sg63
(lp4719
g2584
asbasbasbag56
(g72
g58
NtRp4720
(dp4721
g61
(dp4722
sg70
g3703
sg63
(lp4723
g56
(g77
g58
NtRp4724
(dp4725
g61
(dp4726
g81
g82
ssg70
g4720
sg63
(lp4727
S'view'
p4728
asbag56
(g77
g58
NtRp4729
(dp4730
g61
(dp4731
g88
g89
ssg70
g4720
sg63
(lp4732
S':'
asbag56
(g77
g58
NtRp4733
(dp4734
g61
(dp4735
sg70
g4720
sg63
(lp4736
g56
(g57
g58
NtRp4737
(dp4738
g61
(dp4739
g69
I5
ssg70
g4733
sg63
(lp4740
S'default/grades_report.load'
p4741
asbasbasbasbasbsS'locals'
p4742
(dp4743
S'sindex'
p4744
S'54'
p4745
sS'students'
p4746
S"{11: 'Scott, Ian', 12: 'Man, Jacquelyn', 13: 'Sequeira, Adrianne', 14: 'Johnston, Dianne', 15: 'Kwok, Kam', 16: 'Chen, Gary', 17: 'Tam, Derek', 18: 'ADHIKARY, RICHARD', 19: 'asamoah, david', 20: 'Seto, Michael', ...}"
p4747
sS'slast'
p4748
S"'Gordon'"
p4749
sS's'
S"<Row {'auth_event': <gluon.dal.Set object at 0x6...elete_record': <function <lambda> at 0x8fd0050>}>"
p4750
sS'student_list'
p4751
S'<gluon.dal.Rows object>'
p4752
sS'sfirst'
p4753
S"'Christal'"
p4754
sssS'traceback'
p4755
S'Traceback (most recent call last):\n  File "/home/ian/web2py/gluon/restricted.py", line 194, in restricted\n    exec ccode in environment\n  File "/home/ian/web2py/applications/grades/controllers/default.py", line 62, in <module>\n  File "/home/ian/web2py/gluon/globals.py", line 149, in <lambda>\n    self._caller = lambda f: f()\n  File "/home/ian/web2py/gluon/tools.py", line 2456, in f\n    return action(*a, **b)\n  File "/home/ian/web2py/applications/grades/controllers/default.py", line 41, in grades_report\n    u = request.args[0]\nIndexError: list index out of range\n'
p4756
s.