(dp1
S'output'
p2
S''
sS'layer'
p3
S'/home/ian/web2py/applications/grades/views/default/grades_report.html'
p4
sS'code'
p5
S'response.write(\'<!DOCTYPE html>\\n<html lang="\', escape=False)\nresponse.write(T.accepted_language or \'en\')\nresponse.write(\'" class="no-js"><!-- no-js need it for modernzr -->\\n  <head>\\n    \\n    <meta charset="utf-8" />        \\n    <!-- www.phpied.com/conditional-comments-block-downloads/ -->\\n    <!--[if IE]>\\n      <!-- Always force latest IE rendering engine \\n       (even in intranet) & Chrome Frame \\n       Remove this if you use the .htaccess -->\\n      <meta http-equiv="X-UA-Compatible" content="IE=edge,chrome=1">\\n    <![endif]-->    \\n\\n    <title>\', escape=False)\nresponse.write(response.title or request.application)\nresponse.write(\'</title>\\n    \\n    <!-- http://dev.w3.org/html5/markup/meta.name.html -->\\n    <meta name="application-name" content="\', escape=False)\nresponse.write(request.application)\nresponse.write(\'" /> \\n    \\n    <!-- Speaking of Google, don\\\'t forget to set your site up: \\n     http://google.com/webmasters -->\\n    <meta name="google-site-verification" content="" />\\n    \\n    <!--  Mobile Viewport Fix\\n      j.mp/mobileviewport & davidbcalhoun.com/2010/viewport-metatag \\n      device-width: Occupy full width of the screen in its current orientation\\n      initial-scale = 1.0 retains dimensions instead of zooming out if page height > device height\\n      maximum-scale = 1.0 retains dimensions instead of zooming in if page width < device width\\n      -->\\n    <meta name="viewport" content="width=device-width, initial-scale=1.0, maximum-scale=1.0">\\n    \\n    <!-- Place favicon.ico and apple-touch-icon.png in the root of your domain and delete these references -->\\n    <link rel="shortcut icon" href="\', escape=False)\nresponse.write(URL(\'static\',\'favicon.ico\'))\nresponse.write(\'" type="image/x-icon">\\n    <link rel="apple-touch-icon" href="\', escape=False)\nresponse.write(URL(\'static\',\'favicon.png\'))\nresponse.write(\'">\\n\\n    <!-- For the less-enabled mobile browsers like Opera Mini -->\\n    <link rel="stylesheet" media="handheld" href="\', escape=False)\nresponse.write(URL(\'static\',\'css/handheld.css\'))\nresponse.write(\'">\\n    \\n    <!-- All JavaScript at the bottom, except for Modernizr which enables HTML5 elements & feature detects -->\\n    <script src="\', escape=False)\nresponse.write(URL(\'static\',\'js/modernizr-1.7.min.js\'))\nresponse.write(\'"></script>\\n    \\n    \', escape=False)\n#------  require CSS and JS files for this page (read info in base.css) ------\nresponse.write(\'\\n    \', escape=False)\nresponse.files.append(URL(\'static\',\'css/base.css\'))\nresponse.write(\'\\n    \', escape=False)\nresponse.files.append(URL(\'static\',\'css/superfish.css\'))\nresponse.write(\'\\n    \', escape=False)\nresponse.files.append(URL(\'static\',\'js/superfish.js\'))\nresponse.write(\'\\n    \', escape=False)\n#------ include web2py specific js code (jquery, calendar, form stuff) ------\nresponse.write(\'\\n    \', escape=False)\nresponse.files.insert(0,URL(\'static\',\'js/jquery.js\'))\nresponse.files.insert(1,URL(\'static\',\'css/anytime.css\'))\nresponse.files.insert(2,URL(\'static\',\'js/anytime.js\'))\nresponse.include_meta()\nresponse.include_files()\nresponse.write(\'\\n<script type="text/javascript"><!--\\n    // These variables are used by the web2py_ajax_init function in web2py_ajax.js (which is loaded below).\\n    var w2p_ajax_confirm_message = "\', escape=False)\nresponse.write(T(\'Are you sure you want to delete this object?\'))\nresponse.write(\'";\\n    var w2p_ajax_date_format = "\', escape=False)\nresponse.write(T(\'%Y-%m-%d\'))\nresponse.write(\'";\\n    var w2p_ajax_datetime_format = "\', escape=False)\nresponse.write(T(\'%Y-%m-%d %H:%M:%S\'))\nresponse.write(\'";\\n    //--></script>\\n    <script src="\', escape=False)\nresponse.write(URL(\'static\',\'js/web2py_ajax.js\'))\nresponse.write(\'" type="text/javascript"></script>\\n\', escape=False)\nresponse.write(\'\\n\\n    \', escape=False)\n#using sidebars need to know what sidebar you want to use\n#prior of using it, because of static width size of content, you can use\n#left_sidebar, right_sidebar, both or none (False left and right)\nleft_sidebar_enabled = globals().get(\'left_sidebar_enabled\',False)\nright_sidebar_enabled = globals().get(\'right_sidebar_enabled\',False)\nif left_sidebar_enabled and right_sidebar_enabled: width_content=\'63%\'\nelif left_sidebar_enabled != right_sidebar_enabled: width_content=\'740px\'\nelse: width_content=\'100%\'\nif left_sidebar_enabled: left_sidebar_style = \'style="display: block;"\'\nelse: left_sidebar_style = \'style="display: none;"\'\nif right_sidebar_enabled: right_sidebar_style = \'style="display: block;"\'\nelse: right_sidebar_style = \'style="display: none;"\'\nstyle_content = \'style="width: %s"\' % width_content\nresponse.write(\'\\n    \\n    <!-- uncomment here to load jquery-ui -->\\n    \\n    <link rel="stylesheet" href="http://ajax.googleapis.com/ajax/libs/jqueryui/1.8.16/themes/base/jquery-ui.css" type="text/css" media="all" />\\n    <script src="http://ajax.googleapis.com/ajax/libs/jqueryui/1.8.16/jquery-ui.min.js" type="text/javascript"></script>\\n    \\n   <!-- uncomment to load jquery-ui -->\\n    \\n    \\n  </head>\\n  \\n  <!-- paulirish.com/2008/conditional-stylesheets-vs-css-hacks-answer-neither/ -->  \\n  <!--[if lt IE 7 ]> <body class="ie6"> <![endif]-->\\n  <!--[if IE 7 ]>    <body class="ie7"> <![endif]-->\\n  <!--[if IE 8 ]>    <body class="ie8"> <![endif]-->\\n  <!--[if IE 9 ]>    <body class="ie9"> <![endif]-->\\n  <!--[if (gt IE 9)|!(IE)]><!--> <body> <!--<![endif]-->\\n    \\n    <div class="flash">\', escape=False)\nresponse.write(response.flash or \'\')\nresponse.write(\'</div> <!-- notification div -->\\n\\n        \\n\\n    <div id="container">                        \\n      \\n      <div id="wrapper">        \\n      \', escape=False)\ntry:\n    response.write(auth.navbar(action=URL(\'default\',\'user\')))\nexcept:pass\nresponse.write(\'\\n    \\n    <div id="header"> <!-- header and login nav -->\\n      \', escape=False)\nresponse.write(\' <!-- this is default header -->\\n      \\n      <h1>\\n        <span id="appname">\', escape=False)\nresponse.write(request.application.capitalize())\nresponse.write(\'</span>App\\n      </h1>\\n      <div style="clear: both;"></div><!-- Clear the divs -->\\n      \', escape=False)\nresponse.write(\'\\n    </div><!-- header  -->\\n    \\n    <div id="statusbar"><!-- statusbar is menu zone -->\\n      \', escape=False)\nresponse.write(\' <!-- this is default statusbar -->\\n      \', escape=False)\n#------ superfish menu ------\nresponse.write(\'\\n      \', escape=False)\nresponse.write(MENU(response.menu,_class=\'sf-menu\'))\nresponse.write(\'\\n      <script type="text/javascript">\\n        jQuery(document).ready(function(){\\n        jQuery(\\\'ul.sf-menu\\\').superfish();});\\n      </script>\\n\\n      <!-- AddToAny BEGIN -->\\n      <div style="padding: 7px; float:right;" class="a2a_kit a2a_default_style"><a class="a2a_dd" href="http://www.addtoany.com/share_save">Share</a></div><script type="text/javascript" src="http://static.addtoany.com/menu/page.js"></script>\\n      <!-- AddToAny END -->\\n\\n      <div style="clear: both;"></div><!-- Clear the divs -->   \\n      \', escape=False)\nresponse.write(\'               \\n    </div><!-- statusbar -->\\n    \\n    <div id="page"> <!-- Here my central body -->     \\n\\n      \', escape=False)\nif left_sidebar_enabled:\n    response.write(\'\\n          <div id="left_sidebar" \', escape=False)\n    response.write(XML(left_sidebar_style))\n    response.write(\' >\\n            <div style="padding: 4px;">\\n          \', escape=False)\n    response.write(\'Content Left Sidebar\', escape=False)\n    response.write(\'       \\n            </div>\\n          </div><!-- left_sidebar -->\\n      \', escape=False)\n    pass\nresponse.write(\'\\n\\n      <!-- content -->\\n      <div id="content" \', escape=False)\nresponse.write(XML(style_content))\nresponse.write(\' >\\n        \', escape=False)\nresponse.write(\'\\n\\n<h2>Grade Report for \', escape=False)\nresponse.write(ln)\nresponse.write(\'</h2>\\n\\n<p>\', escape=False)\nfor c in grades:\n    response.write(\'\\n<ul>\\n<li>\', escape=False)\n    response.write(c)\n    response.write(\'</li>\\n\\n    <ul>\\n    \', escape=False)\n    for k,w in grades[c].items():\n        response.write(\'\\n    <li>\\n        \', escape=False)\n        response.write(k)\n        response.write(\':\\n        \', escape=False)\n        for s in w:\n            response.write(\'\\n        \', escape=False)\n            response.write(s)\n            response.write(\'\\n        \', escape=False)\n            pass\n        response.write(\'\\n    </li>\\n    \', escape=False)\n        pass\n    response.write(\'\\n    </ul>\\n\\n</ul>\\n\\n\', escape=False)\n    pass\nresponse.write(\'\\n</p>\', escape=False)\nresponse.write(\' \\n      </div>\\n      <!-- content -->\\n\\n      \', escape=False)\nif right_sidebar_enabled:\n    response.write(\'\\n          <div id="right_sidebar" \', escape=False)\n    response.write(XML(right_sidebar_style))\n    response.write(\' >\\n            <div style="padding: 4px;">\\n              \', escape=False)\n    response.write(\'Content Right Sidebar\', escape=False)\n    response.write(\'\\n            </div>\\n      </div><!-- right_sidebar -->\\n          \', escape=False)\n    pass\nresponse.write(\'\\n\\n\\n      <div style="clear: both;"></div><!-- Clear the divs -->\\n      \\n    </div><!-- page -->                         \\n    \\n    <div id="footer">\\n      \', escape=False)\nresponse.write(\' <!-- this is default footer -->\\n      <a href="http://www.web2py.com/" style="float: left; padding-right: 6px;">\\n        <img src="\', escape=False)\nresponse.write(URL(\'static\',\'images/poweredby.png\'))\nresponse.write(\'"/>\\n      </a>\\n      \', escape=False)\nresponse.write(T(\'Copyright\'))\nresponse.write(\' &#169; 2011               \\n      <div style="clear: both;"></div><!-- Clear the divs -->\\n      \', escape=False)\nresponse.write(\'\\n\\n    </div><!-- footer -->           \\n\\n    \', escape=False)\nif session.debug:\n    response.write(\'\\n    \', escape=False)\n    response.write(DIV(session.debug))\n    response.write(\'\\n    \', escape=False)\n    pass\nresponse.write(\'\\n    \\n      </div><!-- wrapper -->\\n    </div><!-- container -->        \\n    \\n    <!--[if lt IE 7 ]>\\n    <script src="\', escape=False)\nresponse.write(URL(\'static\',\'js/dd_belatedpng.js\'))\nresponse.write(\'"></script>\\n    <script> DD_belatedPNG.fix(\\\'img, .png_bg\\\'); //fix any <img> or .png_bg background-images </script>\\n    <![endif]-->\\n    \', escape=False)\nif response.google_analytics_id:\n    response.write("<script>/* http://mathiasbynens.be/notes/async-analytics-snippet */ var _gaq=[[\'_setAccount\',\'", escape=False)\n    response.write(response.google_analyitics_id)\n    response.write("\'],[\'_trackPageview\']];(function(d,t){var g=d.createElement(t),s=d.getElementsByTagName(t)[0];g.src=\'//www.google-analytics.com/ga.js\';s.parentNode.insertBefore(g,s)}(document,\'script\')) </script>", escape=False)\n    pass\nresponse.write(\'\\n  </body>\\n</html>\\n\', escape=False)'
p6
sS'snapshot'
p7
(dp8
S'exception'
p9
(dp10
S'__hash__'
p11
S"<method-wrapper '__hash__' of exceptions.NameError object>"
p12
sS'__setattr__'
p13
S"<method-wrapper '__setattr__' of exceptions.NameError object>"
p14
sS'__reduce_ex__'
p15
S'<built-in method __reduce_ex__ of exceptions.NameError object>'
p16
sS'__getslice__'
p17
S"<method-wrapper '__getslice__' of exceptions.NameError object>"
p18
sS'__getitem__'
p19
S"<method-wrapper '__getitem__' of exceptions.NameError object>"
p20
sS'__setstate__'
p21
S'<built-in method __setstate__ of exceptions.NameError object>'
p22
sS'args'
p23
S'("name \'ln\' is not defined",)'
p24
sS'__reduce__'
p25
S'<built-in method __reduce__ of exceptions.NameError object>'
p26
sS'__str__'
p27
S"<method-wrapper '__str__' of exceptions.NameError object>"
p28
sS'__format__'
p29
S'<built-in method __format__ of exceptions.NameError object>'
p30
sS'__getattribute__'
p31
S"<method-wrapper '__getattribute__' of exceptions.NameError object>"
p32
sS'__class__'
p33
S"<type 'exceptions.NameError'>"
p34
sS'__unicode__'
p35
S'<built-in method __unicode__ of exceptions.NameError object>'
p36
sS'__delattr__'
p37
S"<method-wrapper '__delattr__' of exceptions.NameError object>"
p38
sS'__subclasshook__'
p39
S'<built-in method __subclasshook__ of type object>'
p40
sS'__repr__'
p41
S"<method-wrapper '__repr__' of exceptions.NameError object>"
p42
sS'__dict__'
p43
S'{}'
p44
sS'__sizeof__'
p45
S'<built-in method __sizeof__ of exceptions.NameError object>'
p46
sS'__doc__'
p47
S"'Name not found globally.'"
p48
sS'__init__'
p49
S"<method-wrapper '__init__' of exceptions.NameError object>"
p50
sS'__new__'
p51
S'<built-in method __new__ of type object>'
p52
ssS'evalue'
p53
S"name 'ln' is not defined"
p54
sS'request'
p55
ccopy_reg
_reconstructor
p56
(cgluon.html
BEAUTIFY
p57
c__builtin__
object
p58
NtRp59
(dp60
S'attributes'
p61
(dp62
sS'components'
p63
(lp64
g56
(cgluon.html
TABLE
p65
g58
NtRp66
(dp67
g61
(dp68
S'level'
p69
I5
ssS'parent'
p70
Nsg63
(lp71
g56
(cgluon.html
TR
p72
g58
NtRp73
(dp74
g61
(dp75
sg70
g66
sg63
(lp76
g56
(cgluon.html
TD
p77
g58
NtRp78
(dp79
g61
(dp80
S'_style'
p81
S'font-weight:bold;'
p82
ssg70
g73
sg63
(lp83
S'ajax'
p84
asbag56
(g77
g58
NtRp85
(dp86
g61
(dp87
S'_valign'
p88
S'top'
p89
ssg70
g73
sg63
(lp90
S':'
asbag56
(g77
g58
NtRp91
(dp92
g61
(dp93
sg70
g73
sg63
(lp94
g56
(g57
g58
NtRp95
(dp96
g61
(dp97
g69
I5
ssg70
g91
sg63
(lp98
S'False'
p99
asbasbasbag56
(g72
g58
NtRp100
(dp101
g61
(dp102
sg70
g66
sg63
(lp103
g56
(g77
g58
NtRp104
(dp105
g61
(dp106
g81
g82
ssg70
g100
sg63
(lp107
S'application'
p108
asbag56
(g77
g58
NtRp109
(dp110
g61
(dp111
g88
g89
ssg70
g100
sg63
(lp112
S':'
asbag56
(g77
g58
NtRp113
(dp114
g61
(dp115
sg70
g100
sg63
(lp116
g56
(g57
g58
NtRp117
(dp118
g61
(dp119
g69
I5
ssg70
g113
sg63
(lp120
S'grades'
p121
asbasbasbag56
(g72
g58
NtRp122
(dp123
g61
(dp124
sg70
g66
sg63
(lp125
g56
(g77
g58
NtRp126
(dp127
g61
(dp128
g81
g82
ssg70
g122
sg63
(lp129
g23
asbag56
(g77
g58
NtRp130
(dp131
g61
(dp132
g88
g89
ssg70
g122
sg63
(lp133
S':'
asbag56
(g77
g58
NtRp134
(dp135
g61
(dp136
sg70
g122
sg63
(lp137
g56
(g57
g58
NtRp138
(dp139
g61
(dp140
g69
I5
ssg70
g134
sg63
(lp141
g56
(g65
g58
NtRp142
(dp143
g61
(dp144
g69
I4
ssg70
Nsg63
(lp145
g56
(g72
g58
NtRp146
(dp147
g61
(dp148
sg70
g142
sg63
(lp149
g56
(g77
g58
NtRp150
(dp151
g61
(dp152
sg70
g146
sg63
(lp153
g56
(g57
g58
NtRp154
(dp155
g61
(dp156
g69
I4
ssg70
g150
sg63
(lp157
S'16'
p158
asbasbasbasbasbasbasbag56
(g72
g58
NtRp159
(dp160
g61
(dp161
sg70
g66
sg63
(lp162
g56
(g77
g58
NtRp163
(dp164
g61
(dp165
g81
g82
ssg70
g159
sg63
(lp166
S'body'
p167
asbag56
(g77
g58
NtRp168
(dp169
g61
(dp170
g88
g89
ssg70
g159
sg63
(lp171
S':'
asbag56
(g77
g58
NtRp172
(dp173
g61
(dp174
sg70
g159
sg63
(lp175
g56
(g57
g58
NtRp176
(dp177
g61
(dp178
g69
I5
ssg70
g172
sg63
(lp179
S'<cStringIO.StringO object at 0x82e21f0>'
p180
asbasbasbag56
(g72
g58
NtRp181
(dp182
g61
(dp183
sg70
g66
sg63
(lp184
g56
(g77
g58
NtRp185
(dp186
g61
(dp187
g81
g82
ssg70
g181
sg63
(lp188
S'client'
p189
asbag56
(g77
g58
NtRp190
(dp191
g61
(dp192
g88
g89
ssg70
g181
sg63
(lp193
S':'
asbag56
(g77
g58
NtRp194
(dp195
g61
(dp196
sg70
g181
sg63
(lp197
g56
(g57
g58
NtRp198
(dp199
g61
(dp200
g69
I5
ssg70
g194
sg63
(lp201
S'127.0.0.1'
p202
asbasbasbag56
(g72
g58
NtRp203
(dp204
g61
(dp205
sg70
g66
sg63
(lp206
g56
(g77
g58
NtRp207
(dp208
g61
(dp209
g81
g82
ssg70
g203
sg63
(lp210
S'controller'
p211
asbag56
(g77
g58
NtRp212
(dp213
g61
(dp214
g88
g89
ssg70
g203
sg63
(lp215
S':'
asbag56
(g77
g58
NtRp216
(dp217
g61
(dp218
sg70
g203
sg63
(lp219
g56
(g57
g58
NtRp220
(dp221
g61
(dp222
g69
I5
ssg70
g216
sg63
(lp223
S'default'
p224
asbasbasbag56
(g72
g58
NtRp225
(dp226
g61
(dp227
sg70
g66
sg63
(lp228
g56
(g77
g58
NtRp229
(dp230
g61
(dp231
g81
g82
ssg70
g225
sg63
(lp232
S'cookies'
p233
asbag56
(g77
g58
NtRp234
(dp235
g61
(dp236
g88
g89
ssg70
g225
sg63
(lp237
S':'
asbag56
(g77
g58
NtRp238
(dp239
g61
(dp240
sg70
g225
sg63
(lp241
g56
(g57
g58
NtRp242
(dp243
g61
(dp244
g69
I5
ssg70
g238
sg63
(lp245
g56
(g65
g58
NtRp246
(dp247
g61
(dp248
g69
I4
ssg70
Nsg63
(lp249
g56
(g72
g58
NtRp250
(dp251
g61
(dp252
sg70
g246
sg63
(lp253
g56
(g77
g58
NtRp254
(dp255
g61
(dp256
g81
g82
ssg70
g250
sg63
(lp257
S'session_id_admin'
p258
asbag56
(g77
g58
NtRp259
(dp260
g61
(dp261
g88
g89
ssg70
g250
sg63
(lp262
S':'
asbag56
(g77
g58
NtRp263
(dp264
g61
(dp265
sg70
g250
sg63
(lp266
g56
(g57
g58
NtRp267
(dp268
g61
(dp269
g69
I4
ssg70
g263
sg63
(lp270
g56
(g65
g58
NtRp271
(dp272
g61
(dp273
g69
I3
ssg70
Nsg63
(lp274
g56
(g72
g58
NtRp275
(dp276
g61
(dp277
sg70
g271
sg63
(lp278
g56
(g77
g58
NtRp279
(dp280
g61
(dp281
g81
g82
ssg70
g275
sg63
(lp282
S'comment'
p283
asbag56
(g77
g58
NtRp284
(dp285
g61
(dp286
g88
g89
ssg70
g275
sg63
(lp287
S':'
asbag56
(g77
g58
NtRp288
(dp289
g61
(dp290
sg70
g275
sg63
(lp291
g56
(g57
g58
NtRp292
(dp293
g61
(dp294
g69
I3
ssg70
g288
sg63
(lp295
S''
asbasbasbag56
(g72
g58
NtRp296
(dp297
g61
(dp298
sg70
g271
sg63
(lp299
g56
(g77
g58
NtRp300
(dp301
g61
(dp302
g81
g82
ssg70
g296
sg63
(lp303
S'domain'
p304
asbag56
(g77
g58
NtRp305
(dp306
g61
(dp307
g88
g89
ssg70
g296
sg63
(lp308
S':'
asbag56
(g77
g58
NtRp309
(dp310
g61
(dp311
sg70
g296
sg63
(lp312
g56
(g57
g58
NtRp313
(dp314
g61
(dp315
g69
I3
ssg70
g309
sg63
(lp316
S''
asbasbasbag56
(g72
g58
NtRp317
(dp318
g61
(dp319
sg70
g271
sg63
(lp320
g56
(g77
g58
NtRp321
(dp322
g61
(dp323
g81
g82
ssg70
g317
sg63
(lp324
S'expires'
p325
asbag56
(g77
g58
NtRp326
(dp327
g61
(dp328
g88
g89
ssg70
g317
sg63
(lp329
S':'
asbag56
(g77
g58
NtRp330
(dp331
g61
(dp332
sg70
g317
sg63
(lp333
g56
(g57
g58
NtRp334
(dp335
g61
(dp336
g69
I3
ssg70
g330
sg63
(lp337
S''
asbasbasbag56
(g72
g58
NtRp338
(dp339
g61
(dp340
sg70
g271
sg63
(lp341
g56
(g77
g58
NtRp342
(dp343
g61
(dp344
g81
g82
ssg70
g338
sg63
(lp345
S'httponly'
p346
asbag56
(g77
g58
NtRp347
(dp348
g61
(dp349
g88
g89
ssg70
g338
sg63
(lp350
S':'
asbag56
(g77
g58
NtRp351
(dp352
g61
(dp353
sg70
g338
sg63
(lp354
g56
(g57
g58
NtRp355
(dp356
g61
(dp357
g69
I3
ssg70
g351
sg63
(lp358
S''
asbasbasbag56
(g72
g58
NtRp359
(dp360
g61
(dp361
sg70
g271
sg63
(lp362
g56
(g77
g58
NtRp363
(dp364
g61
(dp365
g81
g82
ssg70
g359
sg63
(lp366
S'max-age'
p367
asbag56
(g77
g58
NtRp368
(dp369
g61
(dp370
g88
g89
ssg70
g359
sg63
(lp371
S':'
asbag56
(g77
g58
NtRp372
(dp373
g61
(dp374
sg70
g359
sg63
(lp375
g56
(g57
g58
NtRp376
(dp377
g61
(dp378
g69
I3
ssg70
g372
sg63
(lp379
S''
asbasbasbag56
(g72
g58
NtRp380
(dp381
g61
(dp382
sg70
g271
sg63
(lp383
g56
(g77
g58
NtRp384
(dp385
g61
(dp386
g81
g82
ssg70
g380
sg63
(lp387
S'path'
p388
asbag56
(g77
g58
NtRp389
(dp390
g61
(dp391
g88
g89
ssg70
g380
sg63
(lp392
S':'
asbag56
(g77
g58
NtRp393
(dp394
g61
(dp395
sg70
g380
sg63
(lp396
g56
(g57
g58
NtRp397
(dp398
g61
(dp399
g69
I3
ssg70
g393
sg63
(lp400
S''
asbasbasbag56
(g72
g58
NtRp401
(dp402
g61
(dp403
sg70
g271
sg63
(lp404
g56
(g77
g58
NtRp405
(dp406
g61
(dp407
g81
g82
ssg70
g401
sg63
(lp408
S'secure'
p409
asbag56
(g77
g58
NtRp410
(dp411
g61
(dp412
g88
g89
ssg70
g401
sg63
(lp413
S':'
asbag56
(g77
g58
NtRp414
(dp415
g61
(dp416
sg70
g401
sg63
(lp417
g56
(g57
g58
NtRp418
(dp419
g61
(dp420
g69
I3
ssg70
g414
sg63
(lp421
S''
asbasbasbag56
(g72
g58
NtRp422
(dp423
g61
(dp424
sg70
g271
sg63
(lp425
g56
(g77
g58
NtRp426
(dp427
g61
(dp428
g81
g82
ssg70
g422
sg63
(lp429
S'version'
p430
asbag56
(g77
g58
NtRp431
(dp432
g61
(dp433
g88
g89
ssg70
g422
sg63
(lp434
S':'
asbag56
(g77
g58
NtRp435
(dp436
g61
(dp437
sg70
g422
sg63
(lp438
g56
(g57
g58
NtRp439
(dp440
g61
(dp441
g69
I3
ssg70
g435
sg63
(lp442
S''
asbasbasbasbasbasbasbag56
(g72
g58
NtRp443
(dp444
g61
(dp445
sg70
g246
sg63
(lp446
g56
(g77
g58
NtRp447
(dp448
g61
(dp449
g81
g82
ssg70
g443
sg63
(lp450
S'session_id_grades'
p451
asbag56
(g77
g58
NtRp452
(dp453
g61
(dp454
g88
g89
ssg70
g443
sg63
(lp455
S':'
asbag56
(g77
g58
NtRp456
(dp457
g61
(dp458
sg70
g443
sg63
(lp459
g56
(g57
g58
NtRp460
(dp461
g61
(dp462
g69
I4
ssg70
g456
sg63
(lp463
g56
(g65
g58
NtRp464
(dp465
g61
(dp466
g69
I3
ssg70
Nsg63
(lp467
g56
(g72
g58
NtRp468
(dp469
g61
(dp470
sg70
g464
sg63
(lp471
g56
(g77
g58
NtRp472
(dp473
g61
(dp474
g81
g82
ssg70
g468
sg63
(lp475
g283
asbag56
(g77
g58
NtRp476
(dp477
g61
(dp478
g88
g89
ssg70
g468
sg63
(lp479
S':'
asbag56
(g77
g58
NtRp480
(dp481
g61
(dp482
sg70
g468
sg63
(lp483
g56
(g57
g58
NtRp484
(dp485
g61
(dp486
g69
I3
ssg70
g480
sg63
(lp487
S''
asbasbasbag56
(g72
g58
NtRp488
(dp489
g61
(dp490
sg70
g464
sg63
(lp491
g56
(g77
g58
NtRp492
(dp493
g61
(dp494
g81
g82
ssg70
g488
sg63
(lp495
g304
asbag56
(g77
g58
NtRp496
(dp497
g61
(dp498
g88
g89
ssg70
g488
sg63
(lp499
S':'
asbag56
(g77
g58
NtRp500
(dp501
g61
(dp502
sg70
g488
sg63
(lp503
g56
(g57
g58
NtRp504
(dp505
g61
(dp506
g69
I3
ssg70
g500
sg63
(lp507
S''
asbasbasbag56
(g72
g58
NtRp508
(dp509
g61
(dp510
sg70
g464
sg63
(lp511
g56
(g77
g58
NtRp512
(dp513
g61
(dp514
g81
g82
ssg70
g508
sg63
(lp515
g325
asbag56
(g77
g58
NtRp516
(dp517
g61
(dp518
g88
g89
ssg70
g508
sg63
(lp519
S':'
asbag56
(g77
g58
NtRp520
(dp521
g61
(dp522
sg70
g508
sg63
(lp523
g56
(g57
g58
NtRp524
(dp525
g61
(dp526
g69
I3
ssg70
g520
sg63
(lp527
S''
asbasbasbag56
(g72
g58
NtRp528
(dp529
g61
(dp530
sg70
g464
sg63
(lp531
g56
(g77
g58
NtRp532
(dp533
g61
(dp534
g81
g82
ssg70
g528
sg63
(lp535
g346
asbag56
(g77
g58
NtRp536
(dp537
g61
(dp538
g88
g89
ssg70
g528
sg63
(lp539
S':'
asbag56
(g77
g58
NtRp540
(dp541
g61
(dp542
sg70
g528
sg63
(lp543
g56
(g57
g58
NtRp544
(dp545
g61
(dp546
g69
I3
ssg70
g540
sg63
(lp547
S''
asbasbasbag56
(g72
g58
NtRp548
(dp549
g61
(dp550
sg70
g464
sg63
(lp551
g56
(g77
g58
NtRp552
(dp553
g61
(dp554
g81
g82
ssg70
g548
sg63
(lp555
g367
asbag56
(g77
g58
NtRp556
(dp557
g61
(dp558
g88
g89
ssg70
g548
sg63
(lp559
S':'
asbag56
(g77
g58
NtRp560
(dp561
g61
(dp562
sg70
g548
sg63
(lp563
g56
(g57
g58
NtRp564
(dp565
g61
(dp566
g69
I3
ssg70
g560
sg63
(lp567
S''
asbasbasbag56
(g72
g58
NtRp568
(dp569
g61
(dp570
sg70
g464
sg63
(lp571
g56
(g77
g58
NtRp572
(dp573
g61
(dp574
g81
g82
ssg70
g568
sg63
(lp575
g388
asbag56
(g77
g58
NtRp576
(dp577
g61
(dp578
g88
g89
ssg70
g568
sg63
(lp579
S':'
asbag56
(g77
g58
NtRp580
(dp581
g61
(dp582
sg70
g568
sg63
(lp583
g56
(g57
g58
NtRp584
(dp585
g61
(dp586
g69
I3
ssg70
g580
sg63
(lp587
S''
asbasbasbag56
(g72
g58
NtRp588
(dp589
g61
(dp590
sg70
g464
sg63
(lp591
g56
(g77
g58
NtRp592
(dp593
g61
(dp594
g81
g82
ssg70
g588
sg63
(lp595
g409
asbag56
(g77
g58
NtRp596
(dp597
g61
(dp598
g88
g89
ssg70
g588
sg63
(lp599
S':'
asbag56
(g77
g58
NtRp600
(dp601
g61
(dp602
sg70
g588
sg63
(lp603
g56
(g57
g58
NtRp604
(dp605
g61
(dp606
g69
I3
ssg70
g600
sg63
(lp607
S''
asbasbasbag56
(g72
g58
NtRp608
(dp609
g61
(dp610
sg70
g464
sg63
(lp611
g56
(g77
g58
NtRp612
(dp613
g61
(dp614
g81
g82
ssg70
g608
sg63
(lp615
g430
asbag56
(g77
g58
NtRp616
(dp617
g61
(dp618
g88
g89
ssg70
g608
sg63
(lp619
S':'
asbag56
(g77
g58
NtRp620
(dp621
g61
(dp622
sg70
g608
sg63
(lp623
g56
(g57
g58
NtRp624
(dp625
g61
(dp626
g69
I3
ssg70
g620
sg63
(lp627
S''
asbasbasbasbasbasbasbag56
(g72
g58
NtRp628
(dp629
g61
(dp630
sg70
g246
sg63
(lp631
g56
(g77
g58
NtRp632
(dp633
g61
(dp634
g81
g82
ssg70
g628
sg63
(lp635
S'session_id_welcome'
p636
asbag56
(g77
g58
NtRp637
(dp638
g61
(dp639
g88
g89
ssg70
g628
sg63
(lp640
S':'
asbag56
(g77
g58
NtRp641
(dp642
g61
(dp643
sg70
g628
sg63
(lp644
g56
(g57
g58
NtRp645
(dp646
g61
(dp647
g69
I4
ssg70
g641
sg63
(lp648
g56
(g65
g58
NtRp649
(dp650
g61
(dp651
g69
I3
ssg70
Nsg63
(lp652
g56
(g72
g58
NtRp653
(dp654
g61
(dp655
sg70
g649
sg63
(lp656
g56
(g77
g58
NtRp657
(dp658
g61
(dp659
g81
g82
ssg70
g653
sg63
(lp660
g283
asbag56
(g77
g58
NtRp661
(dp662
g61
(dp663
g88
g89
ssg70
g653
sg63
(lp664
S':'
asbag56
(g77
g58
NtRp665
(dp666
g61
(dp667
sg70
g653
sg63
(lp668
g56
(g57
g58
NtRp669
(dp670
g61
(dp671
g69
I3
ssg70
g665
sg63
(lp672
S''
asbasbasbag56
(g72
g58
NtRp673
(dp674
g61
(dp675
sg70
g649
sg63
(lp676
g56
(g77
g58
NtRp677
(dp678
g61
(dp679
g81
g82
ssg70
g673
sg63
(lp680
g304
asbag56
(g77
g58
NtRp681
(dp682
g61
(dp683
g88
g89
ssg70
g673
sg63
(lp684
S':'
asbag56
(g77
g58
NtRp685
(dp686
g61
(dp687
sg70
g673
sg63
(lp688
g56
(g57
g58
NtRp689
(dp690
g61
(dp691
g69
I3
ssg70
g685
sg63
(lp692
S''
asbasbasbag56
(g72
g58
NtRp693
(dp694
g61
(dp695
sg70
g649
sg63
(lp696
g56
(g77
g58
NtRp697
(dp698
g61
(dp699
g81
g82
ssg70
g693
sg63
(lp700
g325
asbag56
(g77
g58
NtRp701
(dp702
g61
(dp703
g88
g89
ssg70
g693
sg63
(lp704
S':'
asbag56
(g77
g58
NtRp705
(dp706
g61
(dp707
sg70
g693
sg63
(lp708
g56
(g57
g58
NtRp709
(dp710
g61
(dp711
g69
I3
ssg70
g705
sg63
(lp712
S''
asbasbasbag56
(g72
g58
NtRp713
(dp714
g61
(dp715
sg70
g649
sg63
(lp716
g56
(g77
g58
NtRp717
(dp718
g61
(dp719
g81
g82
ssg70
g713
sg63
(lp720
g346
asbag56
(g77
g58
NtRp721
(dp722
g61
(dp723
g88
g89
ssg70
g713
sg63
(lp724
S':'
asbag56
(g77
g58
NtRp725
(dp726
g61
(dp727
sg70
g713
sg63
(lp728
g56
(g57
g58
NtRp729
(dp730
g61
(dp731
g69
I3
ssg70
g725
sg63
(lp732
S''
asbasbasbag56
(g72
g58
NtRp733
(dp734
g61
(dp735
sg70
g649
sg63
(lp736
g56
(g77
g58
NtRp737
(dp738
g61
(dp739
g81
g82
ssg70
g733
sg63
(lp740
g367
asbag56
(g77
g58
NtRp741
(dp742
g61
(dp743
g88
g89
ssg70
g733
sg63
(lp744
S':'
asbag56
(g77
g58
NtRp745
(dp746
g61
(dp747
sg70
g733
sg63
(lp748
g56
(g57
g58
NtRp749
(dp750
g61
(dp751
g69
I3
ssg70
g745
sg63
(lp752
S''
asbasbasbag56
(g72
g58
NtRp753
(dp754
g61
(dp755
sg70
g649
sg63
(lp756
g56
(g77
g58
NtRp757
(dp758
g61
(dp759
g81
g82
ssg70
g753
sg63
(lp760
g388
asbag56
(g77
g58
NtRp761
(dp762
g61
(dp763
g88
g89
ssg70
g753
sg63
(lp764
S':'
asbag56
(g77
g58
NtRp765
(dp766
g61
(dp767
sg70
g753
sg63
(lp768
g56
(g57
g58
NtRp769
(dp770
g61
(dp771
g69
I3
ssg70
g765
sg63
(lp772
S''
asbasbasbag56
(g72
g58
NtRp773
(dp774
g61
(dp775
sg70
g649
sg63
(lp776
g56
(g77
g58
NtRp777
(dp778
g61
(dp779
g81
g82
ssg70
g773
sg63
(lp780
g409
asbag56
(g77
g58
NtRp781
(dp782
g61
(dp783
g88
g89
ssg70
g773
sg63
(lp784
S':'
asbag56
(g77
g58
NtRp785
(dp786
g61
(dp787
sg70
g773
sg63
(lp788
g56
(g57
g58
NtRp789
(dp790
g61
(dp791
g69
I3
ssg70
g785
sg63
(lp792
S''
asbasbasbag56
(g72
g58
NtRp793
(dp794
g61
(dp795
sg70
g649
sg63
(lp796
g56
(g77
g58
NtRp797
(dp798
g61
(dp799
g81
g82
ssg70
g793
sg63
(lp800
g430
asbag56
(g77
g58
NtRp801
(dp802
g61
(dp803
g88
g89
ssg70
g793
sg63
(lp804
S':'
asbag56
(g77
g58
NtRp805
(dp806
g61
(dp807
sg70
g793
sg63
(lp808
g56
(g57
g58
NtRp809
(dp810
g61
(dp811
g69
I3
ssg70
g805
sg63
(lp812
S''
asbasbasbasbasbasbasbasbasbasbasbag56
(g72
g58
NtRp813
(dp814
g61
(dp815
sg70
g66
sg63
(lp816
g56
(g77
g58
NtRp817
(dp818
g61
(dp819
g81
g82
ssg70
g813
sg63
(lp820
S'env'
p821
asbag56
(g77
g58
NtRp822
(dp823
g61
(dp824
g88
g89
ssg70
g813
sg63
(lp825
S':'
asbag56
(g77
g58
NtRp826
(dp827
g61
(dp828
sg70
g813
sg63
(lp829
g56
(g57
g58
NtRp830
(dp831
g61
(dp832
g69
I5
ssg70
g826
sg63
(lp833
g56
(g65
g58
NtRp834
(dp835
g61
(dp836
g69
I4
ssg70
Nsg63
(lp837
g56
(g72
g58
NtRp838
(dp839
g61
(dp840
sg70
g834
sg63
(lp841
g56
(g77
g58
NtRp842
(dp843
g61
(dp844
g81
g82
ssg70
g838
sg63
(lp845
S'app_folders'
p846
asbag56
(g77
g58
NtRp847
(dp848
g61
(dp849
g88
g89
ssg70
g838
sg63
(lp850
S':'
asbag56
(g77
g58
NtRp851
(dp852
g61
(dp853
sg70
g838
sg63
(lp854
g56
(g57
g58
NtRp855
(dp856
g61
(dp857
g69
I4
ssg70
g851
sg63
(lp858
S"set(['/home/ian/web2py/applications/welcome/', '/home/ian/web2py/applications/grades/', '/home/ian/web2py/applications/admin/'])"
p859
asbasbasbag56
(g72
g58
NtRp860
(dp861
g61
(dp862
sg70
g834
sg63
(lp863
g56
(g77
g58
NtRp864
(dp865
g61
(dp866
g81
g82
ssg70
g860
sg63
(lp867
S'applications_parent'
p868
asbag56
(g77
g58
NtRp869
(dp870
g61
(dp871
g88
g89
ssg70
g860
sg63
(lp872
S':'
asbag56
(g77
g58
NtRp873
(dp874
g61
(dp875
sg70
g860
sg63
(lp876
g56
(g57
g58
NtRp877
(dp878
g61
(dp879
g69
I4
ssg70
g873
sg63
(lp880
S'/home/ian/web2py'
p881
asbasbasbag56
(g72
g58
NtRp882
(dp883
g61
(dp884
sg70
g834
sg63
(lp885
g56
(g77
g58
NtRp886
(dp887
g61
(dp888
g81
g82
ssg70
g882
sg63
(lp889
S'cmd_args'
p890
asbag56
(g77
g58
NtRp891
(dp892
g61
(dp893
g88
g89
ssg70
g882
sg63
(lp894
S':'
asbag56
(g77
g58
NtRp895
(dp896
g61
(dp897
sg70
g882
sg63
(lp898
g56
(g57
g58
NtRp899
(dp900
g61
(dp901
g69
I4
ssg70
g895
sg63
(lp902
g56
(g65
g58
NtRp903
(dp904
g61
(dp905
g69
I3
ssg70
Nsg63
(lp906
sbasbasbasbag56
(g72
g58
NtRp907
(dp908
g61
(dp909
sg70
g834
sg63
(lp910
g56
(g77
g58
NtRp911
(dp912
g61
(dp913
g81
g82
ssg70
g907
sg63
(lp914
S'cmd_options'
p915
asbag56
(g77
g58
NtRp916
(dp917
g61
(dp918
g88
g89
ssg70
g907
sg63
(lp919
S':'
asbag56
(g77
g58
NtRp920
(dp921
g61
(dp922
sg70
g907
sg63
(lp923
g56
(g57
g58
NtRp924
(dp925
g61
(dp926
g69
I4
ssg70
g920
sg63
(lp927
S"<Values at 0x1b247e8: {'verbose': False, 'ip': '127.0.0.1', 'shutdown_timeout': 5, 'taskbar': False, 'nocron': False, 'pid_filename': 'httpserver.pid', 'maxthreads': None, 'softcron': False, 'server_name': 'Ariel-ubuntu', 'bpython': False, 'nogui': False, 'port': 8000, 'extcron': False, 'debuglevel': 30, 'test': None, 'folder': '/home/ian/web2py', 'config': '', 'import_models': False, 'winservice': '', 'shell': None, 'run': '', 'log_filename': 'httpserver.log', 'args': [''], 'ssl_ca_certificate': None, 'scheduler': None, 'profiler_filename': None, 'ssl_private_key': '', 'password': '<ask>', 'request_queue_size': 5, 'ssl_certificate': '', 'cronjob': False, 'plain': False, 'quiet': False, 'interfaces': None, 'minthreads': None, 'timeout': 10, 'numthreads': None, 'nobanner': False}>"
p928
asbasbasbag56
(g72
g58
NtRp929
(dp930
g61
(dp931
sg70
g834
sg63
(lp932
g56
(g77
g58
NtRp933
(dp934
g61
(dp935
g81
g82
ssg70
g929
sg63
(lp936
S'db_sessions'
p937
asbag56
(g77
g58
NtRp938
(dp939
g61
(dp940
g88
g89
ssg70
g929
sg63
(lp941
S':'
asbag56
(g77
g58
NtRp942
(dp943
g61
(dp944
sg70
g929
sg63
(lp945
g56
(g57
g58
NtRp946
(dp947
g61
(dp948
g69
I4
ssg70
g942
sg63
(lp949
S'set([])'
p950
asbasbasbag56
(g72
g58
NtRp951
(dp952
g61
(dp953
sg70
g834
sg63
(lp954
g56
(g77
g58
NtRp955
(dp956
g61
(dp957
g81
g82
ssg70
g951
sg63
(lp958
S'debugging'
p959
asbag56
(g77
g58
NtRp960
(dp961
g61
(dp962
g88
g89
ssg70
g951
sg63
(lp963
S':'
asbag56
(g77
g58
NtRp964
(dp965
g61
(dp966
sg70
g951
sg63
(lp967
g56
(g57
g58
NtRp968
(dp969
g61
(dp970
g69
I4
ssg70
g964
sg63
(lp971
g99
asbasbasbag56
(g72
g58
NtRp972
(dp973
g61
(dp974
sg70
g834
sg63
(lp975
g56
(g77
g58
NtRp976
(dp977
g61
(dp978
g81
g82
ssg70
g972
sg63
(lp979
S'gluon_parent'
p980
asbag56
(g77
g58
NtRp981
(dp982
g61
(dp983
g88
g89
ssg70
g972
sg63
(lp984
S':'
asbag56
(g77
g58
NtRp985
(dp986
g61
(dp987
sg70
g972
sg63
(lp988
g56
(g57
g58
NtRp989
(dp990
g61
(dp991
g69
I4
ssg70
g985
sg63
(lp992
S'/home/ian/web2py'
p993
asbasbasbag56
(g72
g58
NtRp994
(dp995
g61
(dp996
sg70
g834
sg63
(lp997
g56
(g77
g58
NtRp998
(dp999
g61
(dp1000
g81
g82
ssg70
g994
sg63
(lp1001
S'http_accept'
p1002
asbag56
(g77
g58
NtRp1003
(dp1004
g61
(dp1005
g88
g89
ssg70
g994
sg63
(lp1006
S':'
asbag56
(g77
g58
NtRp1007
(dp1008
g61
(dp1009
sg70
g994
sg63
(lp1010
g56
(g57
g58
NtRp1011
(dp1012
g61
(dp1013
g69
I4
ssg70
g1007
sg63
(lp1014
S'text/html,application/xhtml+xml,application/xml;q=0.9,*/*;q=0.8'
p1015
asbasbasbag56
(g72
g58
NtRp1016
(dp1017
g61
(dp1018
sg70
g834
sg63
(lp1019
g56
(g77
g58
NtRp1020
(dp1021
g61
(dp1022
g81
g82
ssg70
g1016
sg63
(lp1023
S'http_accept_charset'
p1024
asbag56
(g77
g58
NtRp1025
(dp1026
g61
(dp1027
g88
g89
ssg70
g1016
sg63
(lp1028
S':'
asbag56
(g77
g58
NtRp1029
(dp1030
g61
(dp1031
sg70
g1016
sg63
(lp1032
g56
(g57
g58
NtRp1033
(dp1034
g61
(dp1035
g69
I4
ssg70
g1029
sg63
(lp1036
S'ISO-8859-1,utf-8;q=0.7,*;q=0.7'
p1037
asbasbasbag56
(g72
g58
NtRp1038
(dp1039
g61
(dp1040
sg70
g834
sg63
(lp1041
g56
(g77
g58
NtRp1042
(dp1043
g61
(dp1044
g81
g82
ssg70
g1038
sg63
(lp1045
S'http_accept_encoding'
p1046
asbag56
(g77
g58
NtRp1047
(dp1048
g61
(dp1049
g88
g89
ssg70
g1038
sg63
(lp1050
S':'
asbag56
(g77
g58
NtRp1051
(dp1052
g61
(dp1053
sg70
g1038
sg63
(lp1054
g56
(g57
g58
NtRp1055
(dp1056
g61
(dp1057
g69
I4
ssg70
g1051
sg63
(lp1058
S'gzip, deflate'
p1059
asbasbasbag56
(g72
g58
NtRp1060
(dp1061
g61
(dp1062
sg70
g834
sg63
(lp1063
g56
(g77
g58
NtRp1064
(dp1065
g61
(dp1066
g81
g82
ssg70
g1060
sg63
(lp1067
S'http_accept_language'
p1068
asbag56
(g77
g58
NtRp1069
(dp1070
g61
(dp1071
g88
g89
ssg70
g1060
sg63
(lp1072
S':'
asbag56
(g77
g58
NtRp1073
(dp1074
g61
(dp1075
sg70
g1060
sg63
(lp1076
g56
(g57
g58
NtRp1077
(dp1078
g61
(dp1079
g69
I4
ssg70
g1073
sg63
(lp1080
S'en-us,en;q=0.5'
p1081
asbasbasbag56
(g72
g58
NtRp1082
(dp1083
g61
(dp1084
sg70
g834
sg63
(lp1085
g56
(g77
g58
NtRp1086
(dp1087
g61
(dp1088
g81
g82
ssg70
g1082
sg63
(lp1089
S'http_cache_control'
p1090
asbag56
(g77
g58
NtRp1091
(dp1092
g61
(dp1093
g88
g89
ssg70
g1082
sg63
(lp1094
S':'
asbag56
(g77
g58
NtRp1095
(dp1096
g61
(dp1097
sg70
g1082
sg63
(lp1098
g56
(g57
g58
NtRp1099
(dp1100
g61
(dp1101
g69
I4
ssg70
g1095
sg63
(lp1102
S'max-age=0'
p1103
asbasbasbag56
(g72
g58
NtRp1104
(dp1105
g61
(dp1106
sg70
g834
sg63
(lp1107
g56
(g77
g58
NtRp1108
(dp1109
g61
(dp1110
g81
g82
ssg70
g1104
sg63
(lp1111
S'http_connection'
p1112
asbag56
(g77
g58
NtRp1113
(dp1114
g61
(dp1115
g88
g89
ssg70
g1104
sg63
(lp1116
S':'
asbag56
(g77
g58
NtRp1117
(dp1118
g61
(dp1119
sg70
g1104
sg63
(lp1120
g56
(g57
g58
NtRp1121
(dp1122
g61
(dp1123
g69
I4
ssg70
g1117
sg63
(lp1124
S'keep-alive'
p1125
asbasbasbag56
(g72
g58
NtRp1126
(dp1127
g61
(dp1128
sg70
g834
sg63
(lp1129
g56
(g77
g58
NtRp1130
(dp1131
g61
(dp1132
g81
g82
ssg70
g1126
sg63
(lp1133
S'http_cookie'
p1134
asbag56
(g77
g58
NtRp1135
(dp1136
g61
(dp1137
g88
g89
ssg70
g1126
sg63
(lp1138
S':'
asbag56
(g77
g58
NtRp1139
(dp1140
g61
(dp1141
sg70
g1126
sg63
(lp1142
g56
(g57
g58
NtRp1143
(dp1144
g61
(dp1145
g69
I4
ssg70
g1139
sg63
(lp1146
S'__utma_a2a=9789918665.1351576430.1320019504.1320019504.1320019504.1; session_id_welcome=127.0.0.1-3ab8d7d7-13cf-4607-be24-e2fabfac3080; session_id_grades=127.0.0.1-c574ca17-f89b-43b2-a33b-5430c26e6a60; session_id_admin=127.0.0.1-e60c3a2d-b3bd-476b-86cd-b7f3ce8126e7'
p1147
asbasbasbag56
(g72
g58
NtRp1148
(dp1149
g61
(dp1150
sg70
g834
sg63
(lp1151
g56
(g77
g58
NtRp1152
(dp1153
g61
(dp1154
g81
g82
ssg70
g1148
sg63
(lp1155
S'http_host'
p1156
asbag56
(g77
g58
NtRp1157
(dp1158
g61
(dp1159
g88
g89
ssg70
g1148
sg63
(lp1160
S':'
asbag56
(g77
g58
NtRp1161
(dp1162
g61
(dp1163
sg70
g1148
sg63
(lp1164
g56
(g57
g58
NtRp1165
(dp1166
g61
(dp1167
g69
I4
ssg70
g1161
sg63
(lp1168
S'127.0.0.1:8000'
p1169
asbasbasbag56
(g72
g58
NtRp1170
(dp1171
g61
(dp1172
sg70
g834
sg63
(lp1173
g56
(g77
g58
NtRp1174
(dp1175
g61
(dp1176
g81
g82
ssg70
g1170
sg63
(lp1177
S'http_user_agent'
p1178
asbag56
(g77
g58
NtRp1179
(dp1180
g61
(dp1181
g88
g89
ssg70
g1170
sg63
(lp1182
S':'
asbag56
(g77
g58
NtRp1183
(dp1184
g61
(dp1185
sg70
g1170
sg63
(lp1186
g56
(g57
g58
NtRp1187
(dp1188
g61
(dp1189
g69
I4
ssg70
g1183
sg63
(lp1190
S'Mozilla/5.0 (X11; Linux x86_64; rv:7.0.1) Gecko/20100101 Firefox/7.0.1'
p1191
asbasbasbag56
(g72
g58
NtRp1192
(dp1193
g61
(dp1194
sg70
g834
sg63
(lp1195
g56
(g77
g58
NtRp1196
(dp1197
g61
(dp1198
g81
g82
ssg70
g1192
sg63
(lp1199
S'is_jython'
p1200
asbag56
(g77
g58
NtRp1201
(dp1202
g61
(dp1203
g88
g89
ssg70
g1192
sg63
(lp1204
S':'
asbag56
(g77
g58
NtRp1205
(dp1206
g61
(dp1207
sg70
g1192
sg63
(lp1208
g56
(g57
g58
NtRp1209
(dp1210
g61
(dp1211
g69
I4
ssg70
g1205
sg63
(lp1212
g99
asbasbasbag56
(g72
g58
NtRp1213
(dp1214
g61
(dp1215
sg70
g834
sg63
(lp1216
g56
(g77
g58
NtRp1217
(dp1218
g61
(dp1219
g81
g82
ssg70
g1213
sg63
(lp1220
S'path_info'
p1221
asbag56
(g77
g58
NtRp1222
(dp1223
g61
(dp1224
g88
g89
ssg70
g1213
sg63
(lp1225
S':'
asbag56
(g77
g58
NtRp1226
(dp1227
g61
(dp1228
sg70
g1213
sg63
(lp1229
g56
(g57
g58
NtRp1230
(dp1231
g61
(dp1232
g69
I4
ssg70
g1226
sg63
(lp1233
S'/grades/default/grades_report/16'
p1234
asbasbasbag56
(g72
g58
NtRp1235
(dp1236
g61
(dp1237
sg70
g834
sg63
(lp1238
g56
(g77
g58
NtRp1239
(dp1240
g61
(dp1241
g81
g82
ssg70
g1235
sg63
(lp1242
S'query_string'
p1243
asbag56
(g77
g58
NtRp1244
(dp1245
g61
(dp1246
g88
g89
ssg70
g1235
sg63
(lp1247
S':'
asbag56
(g77
g58
NtRp1248
(dp1249
g61
(dp1250
sg70
g1235
sg63
(lp1251
g56
(g57
g58
NtRp1252
(dp1253
g61
(dp1254
g69
I4
ssg70
g1248
sg63
(lp1255
S''
asbasbasbag56
(g72
g58
NtRp1256
(dp1257
g61
(dp1258
sg70
g834
sg63
(lp1259
g56
(g77
g58
NtRp1260
(dp1261
g61
(dp1262
g81
g82
ssg70
g1256
sg63
(lp1263
S'remote_addr'
p1264
asbag56
(g77
g58
NtRp1265
(dp1266
g61
(dp1267
g88
g89
ssg70
g1256
sg63
(lp1268
S':'
asbag56
(g77
g58
NtRp1269
(dp1270
g61
(dp1271
sg70
g1256
sg63
(lp1272
g56
(g57
g58
NtRp1273
(dp1274
g61
(dp1275
g69
I4
ssg70
g1269
sg63
(lp1276
g202
asbasbasbag56
(g72
g58
NtRp1277
(dp1278
g61
(dp1279
sg70
g834
sg63
(lp1280
g56
(g77
g58
NtRp1281
(dp1282
g61
(dp1283
g81
g82
ssg70
g1277
sg63
(lp1284
S'remote_port'
p1285
asbag56
(g77
g58
NtRp1286
(dp1287
g61
(dp1288
g88
g89
ssg70
g1277
sg63
(lp1289
S':'
asbag56
(g77
g58
NtRp1290
(dp1291
g61
(dp1292
sg70
g1277
sg63
(lp1293
g56
(g57
g58
NtRp1294
(dp1295
g61
(dp1296
g69
I4
ssg70
g1290
sg63
(lp1297
S'37265'
p1298
asbasbasbag56
(g72
g58
NtRp1299
(dp1300
g61
(dp1301
sg70
g834
sg63
(lp1302
g56
(g77
g58
NtRp1303
(dp1304
g61
(dp1305
g81
g82
ssg70
g1299
sg63
(lp1306
S'request_method'
p1307
asbag56
(g77
g58
NtRp1308
(dp1309
g61
(dp1310
g88
g89
ssg70
g1299
sg63
(lp1311
S':'
asbag56
(g77
g58
NtRp1312
(dp1313
g61
(dp1314
sg70
g1299
sg63
(lp1315
g56
(g57
g58
NtRp1316
(dp1317
g61
(dp1318
g69
I4
ssg70
g1312
sg63
(lp1319
S'GET'
p1320
asbasbasbag56
(g72
g58
NtRp1321
(dp1322
g61
(dp1323
sg70
g834
sg63
(lp1324
g56
(g77
g58
NtRp1325
(dp1326
g61
(dp1327
g81
g82
ssg70
g1321
sg63
(lp1328
S'script_name'
p1329
asbag56
(g77
g58
NtRp1330
(dp1331
g61
(dp1332
g88
g89
ssg70
g1321
sg63
(lp1333
S':'
asbag56
(g77
g58
NtRp1334
(dp1335
g61
(dp1336
sg70
g1321
sg63
(lp1337
g56
(g57
g58
NtRp1338
(dp1339
g61
(dp1340
g69
I4
ssg70
g1334
sg63
(lp1341
S''
asbasbasbag56
(g72
g58
NtRp1342
(dp1343
g61
(dp1344
sg70
g834
sg63
(lp1345
g56
(g77
g58
NtRp1346
(dp1347
g61
(dp1348
g81
g82
ssg70
g1342
sg63
(lp1349
S'server_name'
p1350
asbag56
(g77
g58
NtRp1351
(dp1352
g61
(dp1353
g88
g89
ssg70
g1342
sg63
(lp1354
S':'
asbag56
(g77
g58
NtRp1355
(dp1356
g61
(dp1357
sg70
g1342
sg63
(lp1358
g56
(g57
g58
NtRp1359
(dp1360
g61
(dp1361
g69
I4
ssg70
g1355
sg63
(lp1362
S'Ariel-ubuntu'
p1363
asbasbasbag56
(g72
g58
NtRp1364
(dp1365
g61
(dp1366
sg70
g834
sg63
(lp1367
g56
(g77
g58
NtRp1368
(dp1369
g61
(dp1370
g81
g82
ssg70
g1364
sg63
(lp1371
S'server_port'
p1372
asbag56
(g77
g58
NtRp1373
(dp1374
g61
(dp1375
g88
g89
ssg70
g1364
sg63
(lp1376
S':'
asbag56
(g77
g58
NtRp1377
(dp1378
g61
(dp1379
sg70
g1364
sg63
(lp1380
g56
(g57
g58
NtRp1381
(dp1382
g61
(dp1383
g69
I4
ssg70
g1377
sg63
(lp1384
S'8000'
p1385
asbasbasbag56
(g72
g58
NtRp1386
(dp1387
g61
(dp1388
sg70
g834
sg63
(lp1389
g56
(g77
g58
NtRp1390
(dp1391
g61
(dp1392
g81
g82
ssg70
g1386
sg63
(lp1393
S'server_protocol'
p1394
asbag56
(g77
g58
NtRp1395
(dp1396
g61
(dp1397
g88
g89
ssg70
g1386
sg63
(lp1398
S':'
asbag56
(g77
g58
NtRp1399
(dp1400
g61
(dp1401
sg70
g1386
sg63
(lp1402
g56
(g57
g58
NtRp1403
(dp1404
g61
(dp1405
g69
I4
ssg70
g1399
sg63
(lp1406
S'HTTP/1.1'
p1407
asbasbasbag56
(g72
g58
NtRp1408
(dp1409
g61
(dp1410
sg70
g834
sg63
(lp1411
g56
(g77
g58
NtRp1412
(dp1413
g61
(dp1414
g81
g82
ssg70
g1408
sg63
(lp1415
S'server_software'
p1416
asbag56
(g77
g58
NtRp1417
(dp1418
g61
(dp1419
g88
g89
ssg70
g1408
sg63
(lp1420
S':'
asbag56
(g77
g58
NtRp1421
(dp1422
g61
(dp1423
sg70
g1408
sg63
(lp1424
g56
(g57
g58
NtRp1425
(dp1426
g61
(dp1427
g69
I4
ssg70
g1421
sg63
(lp1428
S'Rocket 1.2.4'
p1429
asbasbasbag56
(g72
g58
NtRp1430
(dp1431
g61
(dp1432
sg70
g834
sg63
(lp1433
g56
(g77
g58
NtRp1434
(dp1435
g61
(dp1436
g81
g82
ssg70
g1430
sg63
(lp1437
S'web2py_crontype'
p1438
asbag56
(g77
g58
NtRp1439
(dp1440
g61
(dp1441
g88
g89
ssg70
g1430
sg63
(lp1442
S':'
asbag56
(g77
g58
NtRp1443
(dp1444
g61
(dp1445
sg70
g1430
sg63
(lp1446
g56
(g57
g58
NtRp1447
(dp1448
g61
(dp1449
g69
I4
ssg70
g1443
sg63
(lp1450
S'hard'
p1451
asbasbasbag56
(g72
g58
NtRp1452
(dp1453
g61
(dp1454
sg70
g834
sg63
(lp1455
g56
(g77
g58
NtRp1456
(dp1457
g61
(dp1458
g81
g82
ssg70
g1452
sg63
(lp1459
S'web2py_path'
p1460
asbag56
(g77
g58
NtRp1461
(dp1462
g61
(dp1463
g88
g89
ssg70
g1452
sg63
(lp1464
S':'
asbag56
(g77
g58
NtRp1465
(dp1466
g61
(dp1467
sg70
g1452
sg63
(lp1468
g56
(g57
g58
NtRp1469
(dp1470
g61
(dp1471
g69
I4
ssg70
g1465
sg63
(lp1472
g881
asbasbasbag56
(g72
g58
NtRp1473
(dp1474
g61
(dp1475
sg70
g834
sg63
(lp1476
g56
(g77
g58
NtRp1477
(dp1478
g61
(dp1479
g81
g82
ssg70
g1473
sg63
(lp1480
S'web2py_version'
p1481
asbag56
(g77
g58
NtRp1482
(dp1483
g61
(dp1484
g88
g89
ssg70
g1473
sg63
(lp1485
S':'
asbag56
(g77
g58
NtRp1486
(dp1487
g61
(dp1488
sg70
g1473
sg63
(lp1489
g56
(g57
g58
NtRp1490
(dp1491
g61
(dp1492
g69
I4
ssg70
g1486
sg63
(lp1493
g56
(g65
g58
NtRp1494
(dp1495
g61
(dp1496
g69
I3
ssg70
Nsg63
(lp1497
g56
(g72
g58
NtRp1498
(dp1499
g61
(dp1500
sg70
g1494
sg63
(lp1501
g56
(g77
g58
NtRp1502
(dp1503
g61
(dp1504
sg70
g1498
sg63
(lp1505
g56
(g57
g58
NtRp1506
(dp1507
g61
(dp1508
g69
I3
ssg70
g1502
sg63
(lp1509
S'1'
asbasbasbag56
(g72
g58
NtRp1510
(dp1511
g61
(dp1512
sg70
g1494
sg63
(lp1513
g56
(g77
g58
NtRp1514
(dp1515
g61
(dp1516
sg70
g1510
sg63
(lp1517
g56
(g57
g58
NtRp1518
(dp1519
g61
(dp1520
g69
I3
ssg70
g1514
sg63
(lp1521
S'99'
p1522
asbasbasbag56
(g72
g58
NtRp1523
(dp1524
g61
(dp1525
sg70
g1494
sg63
(lp1526
g56
(g77
g58
NtRp1527
(dp1528
g61
(dp1529
sg70
g1523
sg63
(lp1530
g56
(g57
g58
NtRp1531
(dp1532
g61
(dp1533
g69
I3
ssg70
g1527
sg63
(lp1534
S'2'
asbasbasbag56
(g72
g58
NtRp1535
(dp1536
g61
(dp1537
sg70
g1494
sg63
(lp1538
g56
(g77
g58
NtRp1539
(dp1540
g61
(dp1541
sg70
g1535
sg63
(lp1542
g56
(g57
g58
NtRp1543
(dp1544
g61
(dp1545
g69
I3
ssg70
g1539
sg63
(lp1546
S'datetime.datetime(2011, 9, 26, 6, 55, 33)'
p1547
asbasbasbag56
(g72
g58
NtRp1548
(dp1549
g61
(dp1550
sg70
g1494
sg63
(lp1551
g56
(g77
g58
NtRp1552
(dp1553
g61
(dp1554
sg70
g1548
sg63
(lp1555
g56
(g57
g58
NtRp1556
(dp1557
g61
(dp1558
g69
I3
ssg70
g1552
sg63
(lp1559
S'stable'
p1560
asbasbasbasbasbasbasbag56
(g72
g58
NtRp1561
(dp1562
g61
(dp1563
sg70
g834
sg63
(lp1564
g56
(g77
g58
NtRp1565
(dp1566
g61
(dp1567
g81
g82
ssg70
g1561
sg63
(lp1568
S'wsgi_errors'
p1569
asbag56
(g77
g58
NtRp1570
(dp1571
g61
(dp1572
g88
g89
ssg70
g1561
sg63
(lp1573
S':'
asbag56
(g77
g58
NtRp1574
(dp1575
g61
(dp1576
sg70
g1561
sg63
(lp1577
g56
(g57
g58
NtRp1578
(dp1579
g61
(dp1580
g69
I4
ssg70
g1574
sg63
(lp1581
S"<open file '<stderr>', mode 'w' at 0x7fcb798d7270>"
p1582
asbasbasbag56
(g72
g58
NtRp1583
(dp1584
g61
(dp1585
sg70
g834
sg63
(lp1586
g56
(g77
g58
NtRp1587
(dp1588
g61
(dp1589
g81
g82
ssg70
g1583
sg63
(lp1590
S'wsgi_file_wrapper'
p1591
asbag56
(g77
g58
NtRp1592
(dp1593
g61
(dp1594
g88
g89
ssg70
g1583
sg63
(lp1595
S':'
asbag56
(g77
g58
NtRp1596
(dp1597
g61
(dp1598
sg70
g1583
sg63
(lp1599
g56
(g57
g58
NtRp1600
(dp1601
g61
(dp1602
g69
I4
ssg70
g1596
sg63
(lp1603
S'<class wsgiref.util.FileWrapper at 0x19ec808>'
p1604
asbasbasbag56
(g72
g58
NtRp1605
(dp1606
g61
(dp1607
sg70
g834
sg63
(lp1608
g56
(g77
g58
NtRp1609
(dp1610
g61
(dp1611
g81
g82
ssg70
g1605
sg63
(lp1612
S'wsgi_input'
p1613
asbag56
(g77
g58
NtRp1614
(dp1615
g61
(dp1616
g88
g89
ssg70
g1605
sg63
(lp1617
S':'
asbag56
(g77
g58
NtRp1618
(dp1619
g61
(dp1620
sg70
g1605
sg63
(lp1621
g56
(g57
g58
NtRp1622
(dp1623
g61
(dp1624
g69
I4
ssg70
g1618
sg63
(lp1625
S'<socket._fileobject object at 0x67951d0>'
p1626
asbasbasbag56
(g72
g58
NtRp1627
(dp1628
g61
(dp1629
sg70
g834
sg63
(lp1630
g56
(g77
g58
NtRp1631
(dp1632
g61
(dp1633
g81
g82
ssg70
g1627
sg63
(lp1634
S'wsgi_multiprocess'
p1635
asbag56
(g77
g58
NtRp1636
(dp1637
g61
(dp1638
g88
g89
ssg70
g1627
sg63
(lp1639
S':'
asbag56
(g77
g58
NtRp1640
(dp1641
g61
(dp1642
sg70
g1627
sg63
(lp1643
g56
(g57
g58
NtRp1644
(dp1645
g61
(dp1646
g69
I4
ssg70
g1640
sg63
(lp1647
g99
asbasbasbag56
(g72
g58
NtRp1648
(dp1649
g61
(dp1650
sg70
g834
sg63
(lp1651
g56
(g77
g58
NtRp1652
(dp1653
g61
(dp1654
g81
g82
ssg70
g1648
sg63
(lp1655
S'wsgi_multithread'
p1656
asbag56
(g77
g58
NtRp1657
(dp1658
g61
(dp1659
g88
g89
ssg70
g1648
sg63
(lp1660
S':'
asbag56
(g77
g58
NtRp1661
(dp1662
g61
(dp1663
sg70
g1648
sg63
(lp1664
g56
(g57
g58
NtRp1665
(dp1666
g61
(dp1667
g69
I4
ssg70
g1661
sg63
(lp1668
S'True'
p1669
asbasbasbag56
(g72
g58
NtRp1670
(dp1671
g61
(dp1672
sg70
g834
sg63
(lp1673
g56
(g77
g58
NtRp1674
(dp1675
g61
(dp1676
g81
g82
ssg70
g1670
sg63
(lp1677
S'wsgi_run_once'
p1678
asbag56
(g77
g58
NtRp1679
(dp1680
g61
(dp1681
g88
g89
ssg70
g1670
sg63
(lp1682
S':'
asbag56
(g77
g58
NtRp1683
(dp1684
g61
(dp1685
sg70
g1670
sg63
(lp1686
g56
(g57
g58
NtRp1687
(dp1688
g61
(dp1689
g69
I4
ssg70
g1683
sg63
(lp1690
g99
asbasbasbag56
(g72
g58
NtRp1691
(dp1692
g61
(dp1693
sg70
g834
sg63
(lp1694
g56
(g77
g58
NtRp1695
(dp1696
g61
(dp1697
g81
g82
ssg70
g1691
sg63
(lp1698
S'wsgi_url_scheme'
p1699
asbag56
(g77
g58
NtRp1700
(dp1701
g61
(dp1702
g88
g89
ssg70
g1691
sg63
(lp1703
S':'
asbag56
(g77
g58
NtRp1704
(dp1705
g61
(dp1706
sg70
g1691
sg63
(lp1707
g56
(g57
g58
NtRp1708
(dp1709
g61
(dp1710
g69
I4
ssg70
g1704
sg63
(lp1711
S'http'
p1712
asbasbasbag56
(g72
g58
NtRp1713
(dp1714
g61
(dp1715
sg70
g834
sg63
(lp1716
g56
(g77
g58
NtRp1717
(dp1718
g61
(dp1719
g81
g82
ssg70
g1713
sg63
(lp1720
S'wsgi_version'
p1721
asbag56
(g77
g58
NtRp1722
(dp1723
g61
(dp1724
g88
g89
ssg70
g1713
sg63
(lp1725
S':'
asbag56
(g77
g58
NtRp1726
(dp1727
g61
(dp1728
sg70
g1713
sg63
(lp1729
g56
(g57
g58
NtRp1730
(dp1731
g61
(dp1732
g69
I4
ssg70
g1726
sg63
(lp1733
g56
(g65
g58
NtRp1734
(dp1735
g61
(dp1736
g69
I3
ssg70
Nsg63
(lp1737
g56
(g72
g58
NtRp1738
(dp1739
g61
(dp1740
sg70
g1734
sg63
(lp1741
g56
(g77
g58
NtRp1742
(dp1743
g61
(dp1744
sg70
g1738
sg63
(lp1745
g56
(g57
g58
NtRp1746
(dp1747
g61
(dp1748
g69
I3
ssg70
g1742
sg63
(lp1749
S'1'
asbasbasbag56
(g72
g58
NtRp1750
(dp1751
g61
(dp1752
sg70
g1734
sg63
(lp1753
g56
(g77
g58
NtRp1754
(dp1755
g61
(dp1756
sg70
g1750
sg63
(lp1757
g56
(g57
g58
NtRp1758
(dp1759
g61
(dp1760
g69
I3
ssg70
g1754
sg63
(lp1761
S'0'
asbasbasbasbasbasbasbasbasbasbasbag56
(g72
g58
NtRp1762
(dp1763
g61
(dp1764
sg70
g66
sg63
(lp1765
g56
(g77
g58
NtRp1766
(dp1767
g61
(dp1768
g81
g82
ssg70
g1762
sg63
(lp1769
S'extension'
p1770
asbag56
(g77
g58
NtRp1771
(dp1772
g61
(dp1773
g88
g89
ssg70
g1762
sg63
(lp1774
S':'
asbag56
(g77
g58
NtRp1775
(dp1776
g61
(dp1777
sg70
g1762
sg63
(lp1778
g56
(g57
g58
NtRp1779
(dp1780
g61
(dp1781
g69
I5
ssg70
g1775
sg63
(lp1782
S'html'
p1783
asbasbasbag56
(g72
g58
NtRp1784
(dp1785
g61
(dp1786
sg70
g66
sg63
(lp1787
g56
(g77
g58
NtRp1788
(dp1789
g61
(dp1790
g81
g82
ssg70
g1784
sg63
(lp1791
S'folder'
p1792
asbag56
(g77
g58
NtRp1793
(dp1794
g61
(dp1795
g88
g89
ssg70
g1784
sg63
(lp1796
S':'
asbag56
(g77
g58
NtRp1797
(dp1798
g61
(dp1799
sg70
g1784
sg63
(lp1800
g56
(g57
g58
NtRp1801
(dp1802
g61
(dp1803
g69
I5
ssg70
g1797
sg63
(lp1804
S'/home/ian/web2py/applications/grades/'
p1805
asbasbasbag56
(g72
g58
NtRp1806
(dp1807
g61
(dp1808
sg70
g66
sg63
(lp1809
g56
(g77
g58
NtRp1810
(dp1811
g61
(dp1812
g81
g82
ssg70
g1806
sg63
(lp1813
S'function'
p1814
asbag56
(g77
g58
NtRp1815
(dp1816
g61
(dp1817
g88
g89
ssg70
g1806
sg63
(lp1818
S':'
asbag56
(g77
g58
NtRp1819
(dp1820
g61
(dp1821
sg70
g1806
sg63
(lp1822
g56
(g57
g58
NtRp1823
(dp1824
g61
(dp1825
g69
I5
ssg70
g1819
sg63
(lp1826
S'grades_report'
p1827
asbasbasbag56
(g72
g58
NtRp1828
(dp1829
g61
(dp1830
sg70
g66
sg63
(lp1831
g56
(g77
g58
NtRp1832
(dp1833
g61
(dp1834
g81
g82
ssg70
g1828
sg63
(lp1835
S'get_vars'
p1836
asbag56
(g77
g58
NtRp1837
(dp1838
g61
(dp1839
g88
g89
ssg70
g1828
sg63
(lp1840
S':'
asbag56
(g77
g58
NtRp1841
(dp1842
g61
(dp1843
sg70
g1828
sg63
(lp1844
g56
(g57
g58
NtRp1845
(dp1846
g61
(dp1847
g69
I5
ssg70
g1841
sg63
(lp1848
g56
(g65
g58
NtRp1849
(dp1850
g61
(dp1851
g69
I4
ssg70
Nsg63
(lp1852
sbasbasbasbag56
(g72
g58
NtRp1853
(dp1854
g61
(dp1855
sg70
g66
sg63
(lp1856
g56
(g77
g58
NtRp1857
(dp1858
g61
(dp1859
g81
g82
ssg70
g1853
sg63
(lp1860
S'global_settings'
p1861
asbag56
(g77
g58
NtRp1862
(dp1863
g61
(dp1864
g88
g89
ssg70
g1853
sg63
(lp1865
S':'
asbag56
(g77
g58
NtRp1866
(dp1867
g61
(dp1868
sg70
g1853
sg63
(lp1869
g56
(g57
g58
NtRp1870
(dp1871
g61
(dp1872
g69
I5
ssg70
g1866
sg63
(lp1873
g56
(g65
g58
NtRp1874
(dp1875
g61
(dp1876
g69
I4
ssg70
Nsg63
(lp1877
g56
(g72
g58
NtRp1878
(dp1879
g61
(dp1880
sg70
g1874
sg63
(lp1881
g56
(g77
g58
NtRp1882
(dp1883
g61
(dp1884
g81
g82
ssg70
g1878
sg63
(lp1885
g846
asbag56
(g77
g58
NtRp1886
(dp1887
g61
(dp1888
g88
g89
ssg70
g1878
sg63
(lp1889
S':'
asbag56
(g77
g58
NtRp1890
(dp1891
g61
(dp1892
sg70
g1878
sg63
(lp1893
g56
(g57
g58
NtRp1894
(dp1895
g61
(dp1896
g69
I4
ssg70
g1890
sg63
(lp1897
S"set(['/home/ian/web2py/applications/welcome/', '/home/ian/web2py/applications/grades/', '/home/ian/web2py/applications/admin/'])"
p1898
asbasbasbag56
(g72
g58
NtRp1899
(dp1900
g61
(dp1901
sg70
g1874
sg63
(lp1902
g56
(g77
g58
NtRp1903
(dp1904
g61
(dp1905
g81
g82
ssg70
g1899
sg63
(lp1906
g868
asbag56
(g77
g58
NtRp1907
(dp1908
g61
(dp1909
g88
g89
ssg70
g1899
sg63
(lp1910
S':'
asbag56
(g77
g58
NtRp1911
(dp1912
g61
(dp1913
sg70
g1899
sg63
(lp1914
g56
(g57
g58
NtRp1915
(dp1916
g61
(dp1917
g69
I4
ssg70
g1911
sg63
(lp1918
g881
asbasbasbag56
(g72
g58
NtRp1919
(dp1920
g61
(dp1921
sg70
g1874
sg63
(lp1922
g56
(g77
g58
NtRp1923
(dp1924
g61
(dp1925
g81
g82
ssg70
g1919
sg63
(lp1926
g890
asbag56
(g77
g58
NtRp1927
(dp1928
g61
(dp1929
g88
g89
ssg70
g1919
sg63
(lp1930
S':'
asbag56
(g77
g58
NtRp1931
(dp1932
g61
(dp1933
sg70
g1919
sg63
(lp1934
g56
(g57
g58
NtRp1935
(dp1936
g61
(dp1937
g69
I4
ssg70
g1931
sg63
(lp1938
g56
(g65
g58
NtRp1939
(dp1940
g61
(dp1941
g69
I3
ssg70
Nsg63
(lp1942
sbasbasbasbag56
(g72
g58
NtRp1943
(dp1944
g61
(dp1945
sg70
g1874
sg63
(lp1946
g56
(g77
g58
NtRp1947
(dp1948
g61
(dp1949
g81
g82
ssg70
g1943
sg63
(lp1950
g915
asbag56
(g77
g58
NtRp1951
(dp1952
g61
(dp1953
g88
g89
ssg70
g1943
sg63
(lp1954
S':'
asbag56
(g77
g58
NtRp1955
(dp1956
g61
(dp1957
sg70
g1943
sg63
(lp1958
g56
(g57
g58
NtRp1959
(dp1960
g61
(dp1961
g69
I4
ssg70
g1955
sg63
(lp1962
S"<Values at 0x1b247e8: {'verbose': False, 'ip': '127.0.0.1', 'shutdown_timeout': 5, 'taskbar': False, 'nocron': False, 'pid_filename': 'httpserver.pid', 'maxthreads': None, 'softcron': False, 'server_name': 'Ariel-ubuntu', 'bpython': False, 'nogui': False, 'port': 8000, 'extcron': False, 'debuglevel': 30, 'test': None, 'folder': '/home/ian/web2py', 'config': '', 'import_models': False, 'winservice': '', 'shell': None, 'run': '', 'log_filename': 'httpserver.log', 'args': [''], 'ssl_ca_certificate': None, 'scheduler': None, 'profiler_filename': None, 'ssl_private_key': '', 'password': '<ask>', 'request_queue_size': 5, 'ssl_certificate': '', 'cronjob': False, 'plain': False, 'quiet': False, 'interfaces': None, 'minthreads': None, 'timeout': 10, 'numthreads': None, 'nobanner': False}>"
p1963
asbasbasbag56
(g72
g58
NtRp1964
(dp1965
g61
(dp1966
sg70
g1874
sg63
(lp1967
g56
(g77
g58
NtRp1968
(dp1969
g61
(dp1970
g81
g82
ssg70
g1964
sg63
(lp1971
g937
asbag56
(g77
g58
NtRp1972
(dp1973
g61
(dp1974
g88
g89
ssg70
g1964
sg63
(lp1975
S':'
asbag56
(g77
g58
NtRp1976
(dp1977
g61
(dp1978
sg70
g1964
sg63
(lp1979
g56
(g57
g58
NtRp1980
(dp1981
g61
(dp1982
g69
I4
ssg70
g1976
sg63
(lp1983
S'set([])'
p1984
asbasbasbag56
(g72
g58
NtRp1985
(dp1986
g61
(dp1987
sg70
g1874
sg63
(lp1988
g56
(g77
g58
NtRp1989
(dp1990
g61
(dp1991
g81
g82
ssg70
g1985
sg63
(lp1992
g959
asbag56
(g77
g58
NtRp1993
(dp1994
g61
(dp1995
g88
g89
ssg70
g1985
sg63
(lp1996
S':'
asbag56
(g77
g58
NtRp1997
(dp1998
g61
(dp1999
sg70
g1985
sg63
(lp2000
g56
(g57
g58
NtRp2001
(dp2002
g61
(dp2003
g69
I4
ssg70
g1997
sg63
(lp2004
g99
asbasbasbag56
(g72
g58
NtRp2005
(dp2006
g61
(dp2007
sg70
g1874
sg63
(lp2008
g56
(g77
g58
NtRp2009
(dp2010
g61
(dp2011
g81
g82
ssg70
g2005
sg63
(lp2012
g980
asbag56
(g77
g58
NtRp2013
(dp2014
g61
(dp2015
g88
g89
ssg70
g2005
sg63
(lp2016
S':'
asbag56
(g77
g58
NtRp2017
(dp2018
g61
(dp2019
sg70
g2005
sg63
(lp2020
g56
(g57
g58
NtRp2021
(dp2022
g61
(dp2023
g69
I4
ssg70
g2017
sg63
(lp2024
g993
asbasbasbag56
(g72
g58
NtRp2025
(dp2026
g61
(dp2027
sg70
g1874
sg63
(lp2028
g56
(g77
g58
NtRp2029
(dp2030
g61
(dp2031
g81
g82
ssg70
g2025
sg63
(lp2032
g1200
asbag56
(g77
g58
NtRp2033
(dp2034
g61
(dp2035
g88
g89
ssg70
g2025
sg63
(lp2036
S':'
asbag56
(g77
g58
NtRp2037
(dp2038
g61
(dp2039
sg70
g2025
sg63
(lp2040
g56
(g57
g58
NtRp2041
(dp2042
g61
(dp2043
g69
I4
ssg70
g2037
sg63
(lp2044
g99
asbasbasbag56
(g72
g58
NtRp2045
(dp2046
g61
(dp2047
sg70
g1874
sg63
(lp2048
g56
(g77
g58
NtRp2049
(dp2050
g61
(dp2051
g81
g82
ssg70
g2045
sg63
(lp2052
g1438
asbag56
(g77
g58
NtRp2053
(dp2054
g61
(dp2055
g88
g89
ssg70
g2045
sg63
(lp2056
S':'
asbag56
(g77
g58
NtRp2057
(dp2058
g61
(dp2059
sg70
g2045
sg63
(lp2060
g56
(g57
g58
NtRp2061
(dp2062
g61
(dp2063
g69
I4
ssg70
g2057
sg63
(lp2064
g1451
asbasbasbag56
(g72
g58
NtRp2065
(dp2066
g61
(dp2067
sg70
g1874
sg63
(lp2068
g56
(g77
g58
NtRp2069
(dp2070
g61
(dp2071
g81
g82
ssg70
g2065
sg63
(lp2072
g1481
asbag56
(g77
g58
NtRp2073
(dp2074
g61
(dp2075
g88
g89
ssg70
g2065
sg63
(lp2076
S':'
asbag56
(g77
g58
NtRp2077
(dp2078
g61
(dp2079
sg70
g2065
sg63
(lp2080
g56
(g57
g58
NtRp2081
(dp2082
g61
(dp2083
g69
I4
ssg70
g2077
sg63
(lp2084
g56
(g65
g58
NtRp2085
(dp2086
g61
(dp2087
g69
I3
ssg70
Nsg63
(lp2088
g56
(g72
g58
NtRp2089
(dp2090
g61
(dp2091
sg70
g2085
sg63
(lp2092
g56
(g77
g58
NtRp2093
(dp2094
g61
(dp2095
sg70
g2089
sg63
(lp2096
g56
(g57
g58
NtRp2097
(dp2098
g61
(dp2099
g69
I3
ssg70
g2093
sg63
(lp2100
S'1'
asbasbasbag56
(g72
g58
NtRp2101
(dp2102
g61
(dp2103
sg70
g2085
sg63
(lp2104
g56
(g77
g58
NtRp2105
(dp2106
g61
(dp2107
sg70
g2101
sg63
(lp2108
g56
(g57
g58
NtRp2109
(dp2110
g61
(dp2111
g69
I3
ssg70
g2105
sg63
(lp2112
S'99'
p2113
asbasbasbag56
(g72
g58
NtRp2114
(dp2115
g61
(dp2116
sg70
g2085
sg63
(lp2117
g56
(g77
g58
NtRp2118
(dp2119
g61
(dp2120
sg70
g2114
sg63
(lp2121
g56
(g57
g58
NtRp2122
(dp2123
g61
(dp2124
g69
I3
ssg70
g2118
sg63
(lp2125
S'2'
asbasbasbag56
(g72
g58
NtRp2126
(dp2127
g61
(dp2128
sg70
g2085
sg63
(lp2129
g56
(g77
g58
NtRp2130
(dp2131
g61
(dp2132
sg70
g2126
sg63
(lp2133
g56
(g57
g58
NtRp2134
(dp2135
g61
(dp2136
g69
I3
ssg70
g2130
sg63
(lp2137
S'datetime.datetime(2011, 9, 26, 6, 55, 33)'
p2138
asbasbasbag56
(g72
g58
NtRp2139
(dp2140
g61
(dp2141
sg70
g2085
sg63
(lp2142
g56
(g77
g58
NtRp2143
(dp2144
g61
(dp2145
sg70
g2139
sg63
(lp2146
g56
(g57
g58
NtRp2147
(dp2148
g61
(dp2149
g69
I3
ssg70
g2143
sg63
(lp2150
g1560
asbasbasbasbasbasbasbasbasbasbasbag56
(g72
g58
NtRp2151
(dp2152
g61
(dp2153
sg70
g66
sg63
(lp2154
g56
(g77
g58
NtRp2155
(dp2156
g61
(dp2157
g81
g82
ssg70
g2151
sg63
(lp2158
S'is_https'
p2159
asbag56
(g77
g58
NtRp2160
(dp2161
g61
(dp2162
g88
g89
ssg70
g2151
sg63
(lp2163
S':'
asbag56
(g77
g58
NtRp2164
(dp2165
g61
(dp2166
sg70
g2151
sg63
(lp2167
g56
(g57
g58
NtRp2168
(dp2169
g61
(dp2170
g69
I5
ssg70
g2164
sg63
(lp2171
g99
asbasbasbag56
(g72
g58
NtRp2172
(dp2173
g61
(dp2174
sg70
g66
sg63
(lp2175
g56
(g77
g58
NtRp2176
(dp2177
g61
(dp2178
g81
g82
ssg70
g2172
sg63
(lp2179
S'is_local'
p2180
asbag56
(g77
g58
NtRp2181
(dp2182
g61
(dp2183
g88
g89
ssg70
g2172
sg63
(lp2184
S':'
asbag56
(g77
g58
NtRp2185
(dp2186
g61
(dp2187
sg70
g2172
sg63
(lp2188
g56
(g57
g58
NtRp2189
(dp2190
g61
(dp2191
g69
I5
ssg70
g2185
sg63
(lp2192
g1669
asbasbasbag56
(g72
g58
NtRp2193
(dp2194
g61
(dp2195
sg70
g66
sg63
(lp2196
g56
(g77
g58
NtRp2197
(dp2198
g61
(dp2199
g81
g82
ssg70
g2193
sg63
(lp2200
S'is_restful'
p2201
asbag56
(g77
g58
NtRp2202
(dp2203
g61
(dp2204
g88
g89
ssg70
g2193
sg63
(lp2205
S':'
asbag56
(g77
g58
NtRp2206
(dp2207
g61
(dp2208
sg70
g2193
sg63
(lp2209
g56
(g57
g58
NtRp2210
(dp2211
g61
(dp2212
g69
I5
ssg70
g2206
sg63
(lp2213
g99
asbasbasbag56
(g72
g58
NtRp2214
(dp2215
g61
(dp2216
sg70
g66
sg63
(lp2217
g56
(g77
g58
NtRp2218
(dp2219
g61
(dp2220
g81
g82
ssg70
g2214
sg63
(lp2221
S'now'
p2222
asbag56
(g77
g58
NtRp2223
(dp2224
g61
(dp2225
g88
g89
ssg70
g2214
sg63
(lp2226
S':'
asbag56
(g77
g58
NtRp2227
(dp2228
g61
(dp2229
sg70
g2214
sg63
(lp2230
g56
(g57
g58
NtRp2231
(dp2232
g61
(dp2233
g69
I5
ssg70
g2227
sg63
(lp2234
S'datetime.datetime(2011, 11, 3, 9, 50, 33, 141529)'
p2235
asbasbasbag56
(g72
g58
NtRp2236
(dp2237
g61
(dp2238
sg70
g66
sg63
(lp2239
g56
(g77
g58
NtRp2240
(dp2241
g61
(dp2242
g81
g82
ssg70
g2236
sg63
(lp2243
S'post_vars'
p2244
asbag56
(g77
g58
NtRp2245
(dp2246
g61
(dp2247
g88
g89
ssg70
g2236
sg63
(lp2248
S':'
asbag56
(g77
g58
NtRp2249
(dp2250
g61
(dp2251
sg70
g2236
sg63
(lp2252
g56
(g57
g58
NtRp2253
(dp2254
g61
(dp2255
g69
I5
ssg70
g2249
sg63
(lp2256
g56
(g65
g58
NtRp2257
(dp2258
g61
(dp2259
g69
I4
ssg70
Nsg63
(lp2260
sbasbasbasbag56
(g72
g58
NtRp2261
(dp2262
g61
(dp2263
sg70
g66
sg63
(lp2264
g56
(g77
g58
NtRp2265
(dp2266
g61
(dp2267
g81
g82
ssg70
g2261
sg63
(lp2268
S'raw_args'
p2269
asbag56
(g77
g58
NtRp2270
(dp2271
g61
(dp2272
g88
g89
ssg70
g2261
sg63
(lp2273
S':'
asbag56
(g77
g58
NtRp2274
(dp2275
g61
(dp2276
sg70
g2261
sg63
(lp2277
g56
(g57
g58
NtRp2278
(dp2279
g61
(dp2280
g69
I5
ssg70
g2274
sg63
(lp2281
g158
asbasbasbag56
(g72
g58
NtRp2282
(dp2283
g61
(dp2284
sg70
g66
sg63
(lp2285
g56
(g77
g58
NtRp2286
(dp2287
g61
(dp2288
g81
g82
ssg70
g2282
sg63
(lp2289
S'url'
p2290
asbag56
(g77
g58
NtRp2291
(dp2292
g61
(dp2293
g88
g89
ssg70
g2282
sg63
(lp2294
S':'
asbag56
(g77
g58
NtRp2295
(dp2296
g61
(dp2297
sg70
g2282
sg63
(lp2298
g56
(g57
g58
NtRp2299
(dp2300
g61
(dp2301
g69
I5
ssg70
g2295
sg63
(lp2302
S'/grades/default/grades_report/16'
p2303
asbasbasbag56
(g72
g58
NtRp2304
(dp2305
g61
(dp2306
sg70
g66
sg63
(lp2307
g56
(g77
g58
NtRp2308
(dp2309
g61
(dp2310
g81
g82
ssg70
g2304
sg63
(lp2311
S'utcnow'
p2312
asbag56
(g77
g58
NtRp2313
(dp2314
g61
(dp2315
g88
g89
ssg70
g2304
sg63
(lp2316
S':'
asbag56
(g77
g58
NtRp2317
(dp2318
g61
(dp2319
sg70
g2304
sg63
(lp2320
g56
(g57
g58
NtRp2321
(dp2322
g61
(dp2323
g69
I5
ssg70
g2317
sg63
(lp2324
S'datetime.datetime(2011, 11, 3, 13, 50, 33, 141593)'
p2325
asbasbasbag56
(g72
g58
NtRp2326
(dp2327
g61
(dp2328
sg70
g66
sg63
(lp2329
g56
(g77
g58
NtRp2330
(dp2331
g61
(dp2332
g81
g82
ssg70
g2326
sg63
(lp2333
S'uuid'
p2334
asbag56
(g77
g58
NtRp2335
(dp2336
g61
(dp2337
g88
g89
ssg70
g2326
sg63
(lp2338
S':'
asbag56
(g77
g58
NtRp2339
(dp2340
g61
(dp2341
sg70
g2326
sg63
(lp2342
g56
(g57
g58
NtRp2343
(dp2344
g61
(dp2345
g69
I5
ssg70
g2339
sg63
(lp2346
S'grades/127.0.0.1.2011-11-03.09-50-33.3447b064-246c-44ad-ba5e-152f4f92dfef'
p2347
asbasbasbag56
(g72
g58
NtRp2348
(dp2349
g61
(dp2350
sg70
g66
sg63
(lp2351
g56
(g77
g58
NtRp2352
(dp2353
g61
(dp2354
g81
g82
ssg70
g2348
sg63
(lp2355
S'vars'
p2356
asbag56
(g77
g58
NtRp2357
(dp2358
g61
(dp2359
g88
g89
ssg70
g2348
sg63
(lp2360
S':'
asbag56
(g77
g58
NtRp2361
(dp2362
g61
(dp2363
sg70
g2348
sg63
(lp2364
g56
(g57
g58
NtRp2365
(dp2366
g61
(dp2367
g69
I5
ssg70
g2361
sg63
(lp2368
g56
(g65
g58
NtRp2369
(dp2370
g61
(dp2371
g69
I4
ssg70
Nsg63
(lp2372
sbasbasbasbag56
(g72
g58
NtRp2373
(dp2374
g61
(dp2375
sg70
g66
sg63
(lp2376
g56
(g77
g58
NtRp2377
(dp2378
g61
(dp2379
g81
g82
ssg70
g2373
sg63
(lp2380
S'wsgi'
p2381
asbag56
(g77
g58
NtRp2382
(dp2383
g61
(dp2384
g88
g89
ssg70
g2373
sg63
(lp2385
S':'
asbag56
(g77
g58
NtRp2386
(dp2387
g61
(dp2388
sg70
g2373
sg63
(lp2389
g56
(g57
g58
NtRp2390
(dp2391
g61
(dp2392
g69
I5
ssg70
g2386
sg63
(lp2393
g56
(g65
g58
NtRp2394
(dp2395
g61
(dp2396
g69
I4
ssg70
Nsg63
(lp2397
g56
(g72
g58
NtRp2398
(dp2399
g61
(dp2400
sg70
g2394
sg63
(lp2401
g56
(g77
g58
NtRp2402
(dp2403
g61
(dp2404
g81
g82
ssg70
g2398
sg63
(lp2405
S'environ'
p2406
asbag56
(g77
g58
NtRp2407
(dp2408
g61
(dp2409
g88
g89
ssg70
g2398
sg63
(lp2410
S':'
asbag56
(g77
g58
NtRp2411
(dp2412
g61
(dp2413
sg70
g2398
sg63
(lp2414
g56
(g57
g58
NtRp2415
(dp2416
g61
(dp2417
g69
I4
ssg70
g2411
sg63
(lp2418
g56
(g65
g58
NtRp2419
(dp2420
g61
(dp2421
g69
I3
ssg70
Nsg63
(lp2422
g56
(g72
g58
NtRp2423
(dp2424
g61
(dp2425
sg70
g2419
sg63
(lp2426
g56
(g77
g58
NtRp2427
(dp2428
g61
(dp2429
g81
g82
ssg70
g2423
sg63
(lp2430
S'HTTP_ACCEPT'
p2431
asbag56
(g77
g58
NtRp2432
(dp2433
g61
(dp2434
g88
g89
ssg70
g2423
sg63
(lp2435
S':'
asbag56
(g77
g58
NtRp2436
(dp2437
g61
(dp2438
sg70
g2423
sg63
(lp2439
g56
(g57
g58
NtRp2440
(dp2441
g61
(dp2442
g69
I3
ssg70
g2436
sg63
(lp2443
g1015
asbasbasbag56
(g72
g58
NtRp2444
(dp2445
g61
(dp2446
sg70
g2419
sg63
(lp2447
g56
(g77
g58
NtRp2448
(dp2449
g61
(dp2450
g81
g82
ssg70
g2444
sg63
(lp2451
S'HTTP_ACCEPT_CHARSET'
p2452
asbag56
(g77
g58
NtRp2453
(dp2454
g61
(dp2455
g88
g89
ssg70
g2444
sg63
(lp2456
S':'
asbag56
(g77
g58
NtRp2457
(dp2458
g61
(dp2459
sg70
g2444
sg63
(lp2460
g56
(g57
g58
NtRp2461
(dp2462
g61
(dp2463
g69
I3
ssg70
g2457
sg63
(lp2464
g1037
asbasbasbag56
(g72
g58
NtRp2465
(dp2466
g61
(dp2467
sg70
g2419
sg63
(lp2468
g56
(g77
g58
NtRp2469
(dp2470
g61
(dp2471
g81
g82
ssg70
g2465
sg63
(lp2472
S'HTTP_ACCEPT_ENCODING'
p2473
asbag56
(g77
g58
NtRp2474
(dp2475
g61
(dp2476
g88
g89
ssg70
g2465
sg63
(lp2477
S':'
asbag56
(g77
g58
NtRp2478
(dp2479
g61
(dp2480
sg70
g2465
sg63
(lp2481
g56
(g57
g58
NtRp2482
(dp2483
g61
(dp2484
g69
I3
ssg70
g2478
sg63
(lp2485
g1059
asbasbasbag56
(g72
g58
NtRp2486
(dp2487
g61
(dp2488
sg70
g2419
sg63
(lp2489
g56
(g77
g58
NtRp2490
(dp2491
g61
(dp2492
g81
g82
ssg70
g2486
sg63
(lp2493
S'HTTP_ACCEPT_LANGUAGE'
p2494
asbag56
(g77
g58
NtRp2495
(dp2496
g61
(dp2497
g88
g89
ssg70
g2486
sg63
(lp2498
S':'
asbag56
(g77
g58
NtRp2499
(dp2500
g61
(dp2501
sg70
g2486
sg63
(lp2502
g56
(g57
g58
NtRp2503
(dp2504
g61
(dp2505
g69
I3
ssg70
g2499
sg63
(lp2506
g1081
asbasbasbag56
(g72
g58
NtRp2507
(dp2508
g61
(dp2509
sg70
g2419
sg63
(lp2510
g56
(g77
g58
NtRp2511
(dp2512
g61
(dp2513
g81
g82
ssg70
g2507
sg63
(lp2514
S'HTTP_CACHE_CONTROL'
p2515
asbag56
(g77
g58
NtRp2516
(dp2517
g61
(dp2518
g88
g89
ssg70
g2507
sg63
(lp2519
S':'
asbag56
(g77
g58
NtRp2520
(dp2521
g61
(dp2522
sg70
g2507
sg63
(lp2523
g56
(g57
g58
NtRp2524
(dp2525
g61
(dp2526
g69
I3
ssg70
g2520
sg63
(lp2527
g1103
asbasbasbag56
(g72
g58
NtRp2528
(dp2529
g61
(dp2530
sg70
g2419
sg63
(lp2531
g56
(g77
g58
NtRp2532
(dp2533
g61
(dp2534
g81
g82
ssg70
g2528
sg63
(lp2535
S'HTTP_CONNECTION'
p2536
asbag56
(g77
g58
NtRp2537
(dp2538
g61
(dp2539
g88
g89
ssg70
g2528
sg63
(lp2540
S':'
asbag56
(g77
g58
NtRp2541
(dp2542
g61
(dp2543
sg70
g2528
sg63
(lp2544
g56
(g57
g58
NtRp2545
(dp2546
g61
(dp2547
g69
I3
ssg70
g2541
sg63
(lp2548
g1125
asbasbasbag56
(g72
g58
NtRp2549
(dp2550
g61
(dp2551
sg70
g2419
sg63
(lp2552
g56
(g77
g58
NtRp2553
(dp2554
g61
(dp2555
g81
g82
ssg70
g2549
sg63
(lp2556
S'HTTP_COOKIE'
p2557
asbag56
(g77
g58
NtRp2558
(dp2559
g61
(dp2560
g88
g89
ssg70
g2549
sg63
(lp2561
S':'
asbag56
(g77
g58
NtRp2562
(dp2563
g61
(dp2564
sg70
g2549
sg63
(lp2565
g56
(g57
g58
NtRp2566
(dp2567
g61
(dp2568
g69
I3
ssg70
g2562
sg63
(lp2569
g1147
asbasbasbag56
(g72
g58
NtRp2570
(dp2571
g61
(dp2572
sg70
g2419
sg63
(lp2573
g56
(g77
g58
NtRp2574
(dp2575
g61
(dp2576
g81
g82
ssg70
g2570
sg63
(lp2577
S'HTTP_HOST'
p2578
asbag56
(g77
g58
NtRp2579
(dp2580
g61
(dp2581
g88
g89
ssg70
g2570
sg63
(lp2582
S':'
asbag56
(g77
g58
NtRp2583
(dp2584
g61
(dp2585
sg70
g2570
sg63
(lp2586
g56
(g57
g58
NtRp2587
(dp2588
g61
(dp2589
g69
I3
ssg70
g2583
sg63
(lp2590
g1169
asbasbasbag56
(g72
g58
NtRp2591
(dp2592
g61
(dp2593
sg70
g2419
sg63
(lp2594
g56
(g77
g58
NtRp2595
(dp2596
g61
(dp2597
g81
g82
ssg70
g2591
sg63
(lp2598
S'HTTP_USER_AGENT'
p2599
asbag56
(g77
g58
NtRp2600
(dp2601
g61
(dp2602
g88
g89
ssg70
g2591
sg63
(lp2603
S':'
asbag56
(g77
g58
NtRp2604
(dp2605
g61
(dp2606
sg70
g2591
sg63
(lp2607
g56
(g57
g58
NtRp2608
(dp2609
g61
(dp2610
g69
I3
ssg70
g2604
sg63
(lp2611
g1191
asbasbasbag56
(g72
g58
NtRp2612
(dp2613
g61
(dp2614
sg70
g2419
sg63
(lp2615
g56
(g77
g58
NtRp2616
(dp2617
g61
(dp2618
g81
g82
ssg70
g2612
sg63
(lp2619
S'PATH_INFO'
p2620
asbag56
(g77
g58
NtRp2621
(dp2622
g61
(dp2623
g88
g89
ssg70
g2612
sg63
(lp2624
S':'
asbag56
(g77
g58
NtRp2625
(dp2626
g61
(dp2627
sg70
g2612
sg63
(lp2628
g56
(g57
g58
NtRp2629
(dp2630
g61
(dp2631
g69
I3
ssg70
g2625
sg63
(lp2632
g1234
asbasbasbag56
(g72
g58
NtRp2633
(dp2634
g61
(dp2635
sg70
g2419
sg63
(lp2636
g56
(g77
g58
NtRp2637
(dp2638
g61
(dp2639
g81
g82
ssg70
g2633
sg63
(lp2640
S'QUERY_STRING'
p2641
asbag56
(g77
g58
NtRp2642
(dp2643
g61
(dp2644
g88
g89
ssg70
g2633
sg63
(lp2645
S':'
asbag56
(g77
g58
NtRp2646
(dp2647
g61
(dp2648
sg70
g2633
sg63
(lp2649
g56
(g57
g58
NtRp2650
(dp2651
g61
(dp2652
g69
I3
ssg70
g2646
sg63
(lp2653
S''
asbasbasbag56
(g72
g58
NtRp2654
(dp2655
g61
(dp2656
sg70
g2419
sg63
(lp2657
g56
(g77
g58
NtRp2658
(dp2659
g61
(dp2660
g81
g82
ssg70
g2654
sg63
(lp2661
S'REMOTE_ADDR'
p2662
asbag56
(g77
g58
NtRp2663
(dp2664
g61
(dp2665
g88
g89
ssg70
g2654
sg63
(lp2666
S':'
asbag56
(g77
g58
NtRp2667
(dp2668
g61
(dp2669
sg70
g2654
sg63
(lp2670
g56
(g57
g58
NtRp2671
(dp2672
g61
(dp2673
g69
I3
ssg70
g2667
sg63
(lp2674
g202
asbasbasbag56
(g72
g58
NtRp2675
(dp2676
g61
(dp2677
sg70
g2419
sg63
(lp2678
g56
(g77
g58
NtRp2679
(dp2680
g61
(dp2681
g81
g82
ssg70
g2675
sg63
(lp2682
S'REMOTE_PORT'
p2683
asbag56
(g77
g58
NtRp2684
(dp2685
g61
(dp2686
g88
g89
ssg70
g2675
sg63
(lp2687
S':'
asbag56
(g77
g58
NtRp2688
(dp2689
g61
(dp2690
sg70
g2675
sg63
(lp2691
g56
(g57
g58
NtRp2692
(dp2693
g61
(dp2694
g69
I3
ssg70
g2688
sg63
(lp2695
g1298
asbasbasbag56
(g72
g58
NtRp2696
(dp2697
g61
(dp2698
sg70
g2419
sg63
(lp2699
g56
(g77
g58
NtRp2700
(dp2701
g61
(dp2702
g81
g82
ssg70
g2696
sg63
(lp2703
S'REQUEST_METHOD'
p2704
asbag56
(g77
g58
NtRp2705
(dp2706
g61
(dp2707
g88
g89
ssg70
g2696
sg63
(lp2708
S':'
asbag56
(g77
g58
NtRp2709
(dp2710
g61
(dp2711
sg70
g2696
sg63
(lp2712
g56
(g57
g58
NtRp2713
(dp2714
g61
(dp2715
g69
I3
ssg70
g2709
sg63
(lp2716
g1320
asbasbasbag56
(g72
g58
NtRp2717
(dp2718
g61
(dp2719
sg70
g2419
sg63
(lp2720
g56
(g77
g58
NtRp2721
(dp2722
g61
(dp2723
g81
g82
ssg70
g2717
sg63
(lp2724
S'SCRIPT_NAME'
p2725
asbag56
(g77
g58
NtRp2726
(dp2727
g61
(dp2728
g88
g89
ssg70
g2717
sg63
(lp2729
S':'
asbag56
(g77
g58
NtRp2730
(dp2731
g61
(dp2732
sg70
g2717
sg63
(lp2733
g56
(g57
g58
NtRp2734
(dp2735
g61
(dp2736
g69
I3
ssg70
g2730
sg63
(lp2737
S''
asbasbasbag56
(g72
g58
NtRp2738
(dp2739
g61
(dp2740
sg70
g2419
sg63
(lp2741
g56
(g77
g58
NtRp2742
(dp2743
g61
(dp2744
g81
g82
ssg70
g2738
sg63
(lp2745
S'SERVER_NAME'
p2746
asbag56
(g77
g58
NtRp2747
(dp2748
g61
(dp2749
g88
g89
ssg70
g2738
sg63
(lp2750
S':'
asbag56
(g77
g58
NtRp2751
(dp2752
g61
(dp2753
sg70
g2738
sg63
(lp2754
g56
(g57
g58
NtRp2755
(dp2756
g61
(dp2757
g69
I3
ssg70
g2751
sg63
(lp2758
g1363
asbasbasbag56
(g72
g58
NtRp2759
(dp2760
g61
(dp2761
sg70
g2419
sg63
(lp2762
g56
(g77
g58
NtRp2763
(dp2764
g61
(dp2765
g81
g82
ssg70
g2759
sg63
(lp2766
S'SERVER_PORT'
p2767
asbag56
(g77
g58
NtRp2768
(dp2769
g61
(dp2770
g88
g89
ssg70
g2759
sg63
(lp2771
S':'
asbag56
(g77
g58
NtRp2772
(dp2773
g61
(dp2774
sg70
g2759
sg63
(lp2775
g56
(g57
g58
NtRp2776
(dp2777
g61
(dp2778
g69
I3
ssg70
g2772
sg63
(lp2779
g1385
asbasbasbag56
(g72
g58
NtRp2780
(dp2781
g61
(dp2782
sg70
g2419
sg63
(lp2783
g56
(g77
g58
NtRp2784
(dp2785
g61
(dp2786
g81
g82
ssg70
g2780
sg63
(lp2787
S'SERVER_PROTOCOL'
p2788
asbag56
(g77
g58
NtRp2789
(dp2790
g61
(dp2791
g88
g89
ssg70
g2780
sg63
(lp2792
S':'
asbag56
(g77
g58
NtRp2793
(dp2794
g61
(dp2795
sg70
g2780
sg63
(lp2796
g56
(g57
g58
NtRp2797
(dp2798
g61
(dp2799
g69
I3
ssg70
g2793
sg63
(lp2800
g1407
asbasbasbag56
(g72
g58
NtRp2801
(dp2802
g61
(dp2803
sg70
g2419
sg63
(lp2804
g56
(g77
g58
NtRp2805
(dp2806
g61
(dp2807
g81
g82
ssg70
g2801
sg63
(lp2808
S'SERVER_SOFTWARE'
p2809
asbag56
(g77
g58
NtRp2810
(dp2811
g61
(dp2812
g88
g89
ssg70
g2801
sg63
(lp2813
S':'
asbag56
(g77
g58
NtRp2814
(dp2815
g61
(dp2816
sg70
g2801
sg63
(lp2817
g56
(g57
g58
NtRp2818
(dp2819
g61
(dp2820
g69
I3
ssg70
g2814
sg63
(lp2821
g1429
asbasbasbag56
(g72
g58
NtRp2822
(dp2823
g61
(dp2824
sg70
g2419
sg63
(lp2825
g56
(g77
g58
NtRp2826
(dp2827
g61
(dp2828
g81
g82
ssg70
g2822
sg63
(lp2829
S'wsgi.errors'
p2830
asbag56
(g77
g58
NtRp2831
(dp2832
g61
(dp2833
g88
g89
ssg70
g2822
sg63
(lp2834
S':'
asbag56
(g77
g58
NtRp2835
(dp2836
g61
(dp2837
sg70
g2822
sg63
(lp2838
g56
(g57
g58
NtRp2839
(dp2840
g61
(dp2841
g69
I3
ssg70
g2835
sg63
(lp2842
S"<open file '<stderr>', mode 'w' at 0x7fcb798d7270>"
p2843
asbasbasbag56
(g72
g58
NtRp2844
(dp2845
g61
(dp2846
sg70
g2419
sg63
(lp2847
g56
(g77
g58
NtRp2848
(dp2849
g61
(dp2850
g81
g82
ssg70
g2844
sg63
(lp2851
S'wsgi.file_wrapper'
p2852
asbag56
(g77
g58
NtRp2853
(dp2854
g61
(dp2855
g88
g89
ssg70
g2844
sg63
(lp2856
S':'
asbag56
(g77
g58
NtRp2857
(dp2858
g61
(dp2859
sg70
g2844
sg63
(lp2860
g56
(g57
g58
NtRp2861
(dp2862
g61
(dp2863
g69
I3
ssg70
g2857
sg63
(lp2864
S'<class wsgiref.util.FileWrapper at 0x19ec808>'
p2865
asbasbasbag56
(g72
g58
NtRp2866
(dp2867
g61
(dp2868
sg70
g2419
sg63
(lp2869
g56
(g77
g58
NtRp2870
(dp2871
g61
(dp2872
g81
g82
ssg70
g2866
sg63
(lp2873
S'wsgi.input'
p2874
asbag56
(g77
g58
NtRp2875
(dp2876
g61
(dp2877
g88
g89
ssg70
g2866
sg63
(lp2878
S':'
asbag56
(g77
g58
NtRp2879
(dp2880
g61
(dp2881
sg70
g2866
sg63
(lp2882
g56
(g57
g58
NtRp2883
(dp2884
g61
(dp2885
g69
I3
ssg70
g2879
sg63
(lp2886
S'<cStringIO.StringO object at 0x82e21f0>'
p2887
asbasbasbag56
(g72
g58
NtRp2888
(dp2889
g61
(dp2890
sg70
g2419
sg63
(lp2891
g56
(g77
g58
NtRp2892
(dp2893
g61
(dp2894
g81
g82
ssg70
g2888
sg63
(lp2895
S'wsgi.multiprocess'
p2896
asbag56
(g77
g58
NtRp2897
(dp2898
g61
(dp2899
g88
g89
ssg70
g2888
sg63
(lp2900
S':'
asbag56
(g77
g58
NtRp2901
(dp2902
g61
(dp2903
sg70
g2888
sg63
(lp2904
g56
(g57
g58
NtRp2905
(dp2906
g61
(dp2907
g69
I3
ssg70
g2901
sg63
(lp2908
g99
asbasbasbag56
(g72
g58
NtRp2909
(dp2910
g61
(dp2911
sg70
g2419
sg63
(lp2912
g56
(g77
g58
NtRp2913
(dp2914
g61
(dp2915
g81
g82
ssg70
g2909
sg63
(lp2916
S'wsgi.multithread'
p2917
asbag56
(g77
g58
NtRp2918
(dp2919
g61
(dp2920
g88
g89
ssg70
g2909
sg63
(lp2921
S':'
asbag56
(g77
g58
NtRp2922
(dp2923
g61
(dp2924
sg70
g2909
sg63
(lp2925
g56
(g57
g58
NtRp2926
(dp2927
g61
(dp2928
g69
I3
ssg70
g2922
sg63
(lp2929
g1669
asbasbasbag56
(g72
g58
NtRp2930
(dp2931
g61
(dp2932
sg70
g2419
sg63
(lp2933
g56
(g77
g58
NtRp2934
(dp2935
g61
(dp2936
g81
g82
ssg70
g2930
sg63
(lp2937
S'wsgi.run_once'
p2938
asbag56
(g77
g58
NtRp2939
(dp2940
g61
(dp2941
g88
g89
ssg70
g2930
sg63
(lp2942
S':'
asbag56
(g77
g58
NtRp2943
(dp2944
g61
(dp2945
sg70
g2930
sg63
(lp2946
g56
(g57
g58
NtRp2947
(dp2948
g61
(dp2949
g69
I3
ssg70
g2943
sg63
(lp2950
g99
asbasbasbag56
(g72
g58
NtRp2951
(dp2952
g61
(dp2953
sg70
g2419
sg63
(lp2954
g56
(g77
g58
NtRp2955
(dp2956
g61
(dp2957
g81
g82
ssg70
g2951
sg63
(lp2958
S'wsgi.url_scheme'
p2959
asbag56
(g77
g58
NtRp2960
(dp2961
g61
(dp2962
g88
g89
ssg70
g2951
sg63
(lp2963
S':'
asbag56
(g77
g58
NtRp2964
(dp2965
g61
(dp2966
sg70
g2951
sg63
(lp2967
g56
(g57
g58
NtRp2968
(dp2969
g61
(dp2970
g69
I3
ssg70
g2964
sg63
(lp2971
g1712
asbasbasbag56
(g72
g58
NtRp2972
(dp2973
g61
(dp2974
sg70
g2419
sg63
(lp2975
g56
(g77
g58
NtRp2976
(dp2977
g61
(dp2978
g81
g82
ssg70
g2972
sg63
(lp2979
S'wsgi.version'
p2980
asbag56
(g77
g58
NtRp2981
(dp2982
g61
(dp2983
g88
g89
ssg70
g2972
sg63
(lp2984
S':'
asbag56
(g77
g58
NtRp2985
(dp2986
g61
(dp2987
sg70
g2972
sg63
(lp2988
g56
(g57
g58
NtRp2989
(dp2990
g61
(dp2991
g69
I3
ssg70
g2985
sg63
(lp2992
S'1'
asbasbasbasbasbasbasbasbasbasbasbasbasbsS'frames'
p2993
(lp2994
(dp2995
S'file'
p2996
S'/home/ian/web2py/gluon/restricted.py'
p2997
sS'dump'
p2998
(dp2999
S'environment'
p3000
S"{'A': <class 'gluon.html.A'>, 'Auth': <class 'gluon.tools.Auth'>, 'B': <class 'gluon.html.B'>, 'BEAUTIFY': <class 'gluon.html.BEAUTIFY'>, 'BODY': <class 'gluon.html.BODY'>, 'BR': <class 'gluon.html.BR'>, 'BUTTON': <class 'gluon.html.BUTTON'>, 'CAT': <class 'gluon.html.CAT'>, 'CENTER': <class 'gluon.html.CENTER'>, 'CLEANUP': <class 'gluon.validators.CLEANUP'>, ...}"
p3001
sS'ccode'
p3002
S'<code object <module> at 0x72e06b0, file "/home/...grades/views/default/grades_report.html", line 1>'
p3003
ssS'lnum'
p3004
I194
sS'lines'
p3005
(dp3006
I192
S'        else:'
p3007
sI193
S'            ccode = compile2(code,layer)'
p3008
sI194
S'        exec ccode in environment'
p3009
sI195
S'    except HTTP:'
p3010
sI196
S'        raise'
p3011
sI197
S'    except Exception, error:'
p3012
sI198
S'        # XXX Show exception in Wing IDE if running in debugger'
p3013
sI189
S'    try:'
p3014
sI190
S'        if type(code) == types.CodeType:'
p3015
sI191
S'            ccode = code'
p3016
ssS'call'
p3017
S'(code=\'response.write(\\\'<!DOCTYPE html>\\\\n<html lang="\\\', ...nse.write(\\\'\\\\n  </body>\\\\n</html>\\\\n\\\', escape=False)\', environment={\'A\': <class \'gluon.html.A\'>, \'Auth\': <class \'gluon.tools.Auth\'>, \'B\': <class \'gluon.html.B\'>, \'BEAUTIFY\': <class \'gluon.html.BEAUTIFY\'>, \'BODY\': <class \'gluon.html.BODY\'>, \'BR\': <class \'gluon.html.BR\'>, \'BUTTON\': <class \'gluon.html.BUTTON\'>, \'CAT\': <class \'gluon.html.CAT\'>, \'CENTER\': <class \'gluon.html.CENTER\'>, \'CLEANUP\': <class \'gluon.validators.CLEANUP\'>, ...}, layer=\'/home/ian/web2py/applications/grades/views/default/grades_report.html\')'
p3018
sS'func'
p3019
S'restricted'
p3020
sa(dp3021
g2996
S'/home/ian/web2py/applications/grades/views/default/grades_report.html'
p3022
sg2998
(dp3023
sg3004
I82
sg3005
(dp3024
I73
S'    response.write(XML(left_sidebar_style))'
p3025
sI74
S'    response.write(\' >\\n            <div style="padding: 4px;">\\n          \', escape=False)'
p3026
sI75
S"    response.write('Content Left Sidebar', escape=False)"
p3027
sI76
S"    response.write('       \\n            </div>\\n          </div><!-- left_sidebar -->\\n      ', escape=False)"
p3028
sI77
S'    pass'
p3029
sI78
S'response.write(\'\\n\\n      <!-- content -->\\n      <div id="content" \', escape=False)'
p3030
sI79
S'response.write(XML(style_content))'
p3031
sI80
S"response.write(' >\\n        ', escape=False)"
p3032
sI81
S"response.write('\\n\\n<h2>Grade Report for ', escape=False)"
p3033
sI82
S'response.write(ln)'
p3034
sI83
S"response.write('</h2>\\n\\n<p>', escape=False)"
p3035
sI84
S'for c in grades:'
p3036
sI85
S"    response.write('\\n<ul>\\n<li>', escape=False)"
p3037
sI86
S'    response.write(c)'
p3038
sI87
S"    response.write('</li>\\n\\n    <ul>\\n    ', escape=False)"
p3039
sI88
S'    for k,w in grades[c].items():'
p3040
sI89
S"        response.write('\\n    <li>\\n        ', escape=False)"
p3041
sI90
S'        response.write(k)'
p3042
sI91
S"        response.write(':\\n        ', escape=False)"
p3043
sI92
S'        for s in w:'
p3044
ssg3017
S'()'
p3045
sg3019
S'<module>'
p3046
sasS'pyver'
p3047
S'Python 2.7.2+: /usr/bin/python2.7'
p3048
sS'session'
p3049
g56
(g57
g58
NtRp3050
(dp3051
g61
(dp3052
sg63
(lp3053
g56
(g65
g58
NtRp3054
(dp3055
g61
(dp3056
g69
I5
ssg70
Nsg63
(lp3057
g56
(g72
g58
NtRp3058
(dp3059
g61
(dp3060
sg70
g3054
sg63
(lp3061
g56
(g77
g58
NtRp3062
(dp3063
g61
(dp3064
g81
g82
ssg70
g3058
sg63
(lp3065
S'auth'
p3066
asbag56
(g77
g58
NtRp3067
(dp3068
g61
(dp3069
g88
g89
ssg70
g3058
sg63
(lp3070
S':'
asbag56
(g77
g58
NtRp3071
(dp3072
g61
(dp3073
sg70
g3058
sg63
(lp3074
g56
(g57
g58
NtRp3075
(dp3076
g61
(dp3077
g69
I5
ssg70
g3071
sg63
(lp3078
g56
(g65
g58
NtRp3079
(dp3080
g61
(dp3081
g69
I4
ssg70
Nsg63
(lp3082
g56
(g72
g58
NtRp3083
(dp3084
g61
(dp3085
sg70
g3079
sg63
(lp3086
g56
(g77
g58
NtRp3087
(dp3088
g61
(dp3089
g81
g82
ssg70
g3083
sg63
(lp3090
S'expiration'
p3091
asbag56
(g77
g58
NtRp3092
(dp3093
g61
(dp3094
g88
g89
ssg70
g3083
sg63
(lp3095
S':'
asbag56
(g77
g58
NtRp3096
(dp3097
g61
(dp3098
sg70
g3083
sg63
(lp3099
g56
(g57
g58
NtRp3100
(dp3101
g61
(dp3102
g69
I4
ssg70
g3096
sg63
(lp3103
S'2592000'
p3104
asbasbasbag56
(g72
g58
NtRp3105
(dp3106
g61
(dp3107
sg70
g3079
sg63
(lp3108
g56
(g77
g58
NtRp3109
(dp3110
g61
(dp3111
g81
g82
ssg70
g3105
sg63
(lp3112
S'hmac_key'
p3113
asbag56
(g77
g58
NtRp3114
(dp3115
g61
(dp3116
g88
g89
ssg70
g3105
sg63
(lp3117
S':'
asbag56
(g77
g58
NtRp3118
(dp3119
g61
(dp3120
sg70
g3105
sg63
(lp3121
g56
(g57
g58
NtRp3122
(dp3123
g61
(dp3124
g69
I4
ssg70
g3118
sg63
(lp3125
S'5ead79e1-3449-4733-9cfa-56c1a46440a2'
p3126
asbasbasbag56
(g72
g58
NtRp3127
(dp3128
g61
(dp3129
sg70
g3079
sg63
(lp3130
g56
(g77
g58
NtRp3131
(dp3132
g61
(dp3133
g81
g82
ssg70
g3127
sg63
(lp3134
S'last_visit'
p3135
asbag56
(g77
g58
NtRp3136
(dp3137
g61
(dp3138
g88
g89
ssg70
g3127
sg63
(lp3139
S':'
asbag56
(g77
g58
NtRp3140
(dp3141
g61
(dp3142
sg70
g3127
sg63
(lp3143
g56
(g57
g58
NtRp3144
(dp3145
g61
(dp3146
g69
I4
ssg70
g3140
sg63
(lp3147
S'datetime.datetime(2011, 11, 3, 8, 1, 20, 311289)'
p3148
asbasbasbag56
(g72
g58
NtRp3149
(dp3150
g61
(dp3151
sg70
g3079
sg63
(lp3152
g56
(g77
g58
NtRp3153
(dp3154
g61
(dp3155
g81
g82
ssg70
g3149
sg63
(lp3156
S'remember'
p3157
asbag56
(g77
g58
NtRp3158
(dp3159
g61
(dp3160
g88
g89
ssg70
g3149
sg63
(lp3161
S':'
asbag56
(g77
g58
NtRp3162
(dp3163
g61
(dp3164
sg70
g3149
sg63
(lp3165
g56
(g57
g58
NtRp3166
(dp3167
g61
(dp3168
g69
I4
ssg70
g3162
sg63
(lp3169
g99
asbasbasbag56
(g72
g58
NtRp3170
(dp3171
g61
(dp3172
sg70
g3079
sg63
(lp3173
g56
(g77
g58
NtRp3174
(dp3175
g61
(dp3176
g81
g82
ssg70
g3170
sg63
(lp3177
S'user'
p3178
asbag56
(g77
g58
NtRp3179
(dp3180
g61
(dp3181
g88
g89
ssg70
g3170
sg63
(lp3182
S':'
asbag56
(g77
g58
NtRp3183
(dp3184
g61
(dp3185
sg70
g3170
sg63
(lp3186
g56
(g57
g58
NtRp3187
(dp3188
g61
(dp3189
g69
I4
ssg70
g3183
sg63
(lp3190
g56
(g65
g58
NtRp3191
(dp3192
g61
(dp3193
g69
I3
ssg70
Nsg63
(lp3194
g56
(g72
g58
NtRp3195
(dp3196
g61
(dp3197
sg70
g3191
sg63
(lp3198
g56
(g77
g58
NtRp3199
(dp3200
g61
(dp3201
g81
g82
ssg70
g3195
sg63
(lp3202
S'email'
p3203
asbag56
(g77
g58
NtRp3204
(dp3205
g61
(dp3206
g88
g89
ssg70
g3195
sg63
(lp3207
S':'
asbag56
(g77
g58
NtRp3208
(dp3209
g61
(dp3210
sg70
g3195
sg63
(lp3211
g56
(g57
g58
NtRp3212
(dp3213
g61
(dp3214
g69
I3
ssg70
g3208
sg63
(lp3215
S'scottianw@gmail.com'
p3216
asbasbasbag56
(g72
g58
NtRp3217
(dp3218
g61
(dp3219
sg70
g3191
sg63
(lp3220
g56
(g77
g58
NtRp3221
(dp3222
g61
(dp3223
g81
g82
ssg70
g3217
sg63
(lp3224
S'first_name'
p3225
asbag56
(g77
g58
NtRp3226
(dp3227
g61
(dp3228
g88
g89
ssg70
g3217
sg63
(lp3229
S':'
asbag56
(g77
g58
NtRp3230
(dp3231
g61
(dp3232
sg70
g3217
sg63
(lp3233
g56
(g57
g58
NtRp3234
(dp3235
g61
(dp3236
g69
I3
ssg70
g3230
sg63
(lp3237
S'Ian'
p3238
asbasbasbag56
(g72
g58
NtRp3239
(dp3240
g61
(dp3241
sg70
g3191
sg63
(lp3242
g56
(g77
g58
NtRp3243
(dp3244
g61
(dp3245
g81
g82
ssg70
g3239
sg63
(lp3246
S'id'
p3247
asbag56
(g77
g58
NtRp3248
(dp3249
g61
(dp3250
g88
g89
ssg70
g3239
sg63
(lp3251
S':'
asbag56
(g77
g58
NtRp3252
(dp3253
g61
(dp3254
sg70
g3239
sg63
(lp3255
g56
(g57
g58
NtRp3256
(dp3257
g61
(dp3258
g69
I3
ssg70
g3252
sg63
(lp3259
S'11'
p3260
asbasbasbag56
(g72
g58
NtRp3261
(dp3262
g61
(dp3263
sg70
g3191
sg63
(lp3264
g56
(g77
g58
NtRp3265
(dp3266
g61
(dp3267
g81
g82
ssg70
g3261
sg63
(lp3268
S'last_name'
p3269
asbag56
(g77
g58
NtRp3270
(dp3271
g61
(dp3272
g88
g89
ssg70
g3261
sg63
(lp3273
S':'
asbag56
(g77
g58
NtRp3274
(dp3275
g61
(dp3276
sg70
g3261
sg63
(lp3277
g56
(g57
g58
NtRp3278
(dp3279
g61
(dp3280
g69
I3
ssg70
g3274
sg63
(lp3281
S'Scott'
p3282
asbasbasbag56
(g72
g58
NtRp3283
(dp3284
g61
(dp3285
sg70
g3191
sg63
(lp3286
g56
(g77
g58
NtRp3287
(dp3288
g61
(dp3289
g81
g82
ssg70
g3283
sg63
(lp3290
S'password'
p3291
asbag56
(g77
g58
NtRp3292
(dp3293
g61
(dp3294
g88
g89
ssg70
g3283
sg63
(lp3295
S':'
asbag56
(g77
g58
NtRp3296
(dp3297
g61
(dp3298
sg70
g3283
sg63
(lp3299
g56
(g57
g58
NtRp3300
(dp3301
g61
(dp3302
g69
I3
ssg70
g3296
sg63
(lp3303
S'351bc855a8ae4839e89ee60d2f279ed9'
p3304
asbasbasbag56
(g72
g58
NtRp3305
(dp3306
g61
(dp3307
sg70
g3191
sg63
(lp3308
g56
(g77
g58
NtRp3309
(dp3310
g61
(dp3311
g81
g82
ssg70
g3305
sg63
(lp3312
S'registration_key'
p3313
asbag56
(g77
g58
NtRp3314
(dp3315
g61
(dp3316
g88
g89
ssg70
g3305
sg63
(lp3317
S':'
asbag56
(g77
g58
NtRp3318
(dp3319
g61
(dp3320
sg70
g3305
sg63
(lp3321
g56
(g57
g58
NtRp3322
(dp3323
g61
(dp3324
g69
I3
ssg70
g3318
sg63
(lp3325
S''
asbasbasbag56
(g72
g58
NtRp3326
(dp3327
g61
(dp3328
sg70
g3191
sg63
(lp3329
g56
(g77
g58
NtRp3330
(dp3331
g61
(dp3332
g81
g82
ssg70
g3326
sg63
(lp3333
S'reset_password_key'
p3334
asbag56
(g77
g58
NtRp3335
(dp3336
g61
(dp3337
g88
g89
ssg70
g3326
sg63
(lp3338
S':'
asbag56
(g77
g58
NtRp3339
(dp3340
g61
(dp3341
sg70
g3326
sg63
(lp3342
g56
(g57
g58
NtRp3343
(dp3344
g61
(dp3345
g69
I3
ssg70
g3339
sg63
(lp3346
S''
asbasbasbasbasbasbasbasbasbasbasbag56
(g72
g58
NtRp3347
(dp3348
g61
(dp3349
sg70
g3054
sg63
(lp3350
g56
(g77
g58
NtRp3351
(dp3352
g61
(dp3353
g81
g82
ssg70
g3347
sg63
(lp3354
S'debug'
p3355
asbag56
(g77
g58
NtRp3356
(dp3357
g61
(dp3358
g88
g89
ssg70
g3347
sg63
(lp3359
S':'
asbag56
(g77
g58
NtRp3360
(dp3361
g61
(dp3362
sg70
g3347
sg63
(lp3363
g56
(g57
g58
NtRp3364
(dp3365
g61
(dp3366
g69
I5
ssg70
g3360
sg63
(lp3367
g158
asbasbasbag56
(g72
g58
NtRp3368
(dp3369
g61
(dp3370
sg70
g3054
sg63
(lp3371
g56
(g77
g58
NtRp3372
(dp3373
g61
(dp3374
g81
g82
ssg70
g3368
sg63
(lp3375
S'last_query'
p3376
asbag56
(g77
g58
NtRp3377
(dp3378
g61
(dp3379
g88
g89
ssg70
g3368
sg63
(lp3380
S':'
asbag56
(g77
g58
NtRp3381
(dp3382
g61
(dp3383
sg70
g3368
sg63
(lp3384
g56
(g57
g58
NtRp3385
(dp3386
g61
(dp3387
g69
I5
ssg70
g3381
sg63
(lp3388
S'db.grades.name == 15'
p3389
asbasbasbasbasbsS'etype'
p3390
S"<type 'exceptions.NameError'>"
p3391
sS'date'
p3392
S'Thu Nov  3 09:50:33 2011'
p3393
sS'response'
p3394
g56
(g57
g58
NtRp3395
(dp3396
g61
(dp3397
sg63
(lp3398
g56
(g65
g58
NtRp3399
(dp3400
g61
(dp3401
g69
I5
ssg70
Nsg63
(lp3402
g56
(g72
g58
NtRp3403
(dp3404
g61
(dp3405
sg70
g3399
sg63
(lp3406
g56
(g77
g58
NtRp3407
(dp3408
g61
(dp3409
g81
g82
ssg70
g3403
sg63
(lp3410
g167
asbag56
(g77
g58
NtRp3411
(dp3412
g61
(dp3413
g88
g89
ssg70
g3403
sg63
(lp3414
S':'
asbag56
(g77
g58
NtRp3415
(dp3416
g61
(dp3417
sg70
g3403
sg63
(lp3418
g56
(g57
g58
NtRp3419
(dp3420
g61
(dp3421
g69
I5
ssg70
g3415
sg63
(lp3422
S'<cStringIO.StringO object at 0x86d1458>'
p3423
asbasbasbag56
(g72
g58
NtRp3424
(dp3425
g61
(dp3426
sg70
g3399
sg63
(lp3427
g56
(g77
g58
NtRp3428
(dp3429
g61
(dp3430
g81
g82
ssg70
g3424
sg63
(lp3431
g233
asbag56
(g77
g58
NtRp3432
(dp3433
g61
(dp3434
g88
g89
ssg70
g3424
sg63
(lp3435
S':'
asbag56
(g77
g58
NtRp3436
(dp3437
g61
(dp3438
sg70
g3424
sg63
(lp3439
g56
(g57
g58
NtRp3440
(dp3441
g61
(dp3442
g69
I5
ssg70
g3436
sg63
(lp3443
g56
(g65
g58
NtRp3444
(dp3445
g61
(dp3446
g69
I4
ssg70
Nsg63
(lp3447
g56
(g72
g58
NtRp3448
(dp3449
g61
(dp3450
sg70
g3444
sg63
(lp3451
g56
(g77
g58
NtRp3452
(dp3453
g61
(dp3454
g81
g82
ssg70
g3448
sg63
(lp3455
S'session_id_grades'
p3456
asbag56
(g77
g58
NtRp3457
(dp3458
g61
(dp3459
g88
g89
ssg70
g3448
sg63
(lp3460
S':'
asbag56
(g77
g58
NtRp3461
(dp3462
g61
(dp3463
sg70
g3448
sg63
(lp3464
g56
(g57
g58
NtRp3465
(dp3466
g61
(dp3467
g69
I4
ssg70
g3461
sg63
(lp3468
g56
(g65
g58
NtRp3469
(dp3470
g61
(dp3471
g69
I3
ssg70
Nsg63
(lp3472
g56
(g72
g58
NtRp3473
(dp3474
g61
(dp3475
sg70
g3469
sg63
(lp3476
g56
(g77
g58
NtRp3477
(dp3478
g61
(dp3479
g81
g82
ssg70
g3473
sg63
(lp3480
g283
asbag56
(g77
g58
NtRp3481
(dp3482
g61
(dp3483
g88
g89
ssg70
g3473
sg63
(lp3484
S':'
asbag56
(g77
g58
NtRp3485
(dp3486
g61
(dp3487
sg70
g3473
sg63
(lp3488
g56
(g57
g58
NtRp3489
(dp3490
g61
(dp3491
g69
I3
ssg70
g3485
sg63
(lp3492
S''
asbasbasbag56
(g72
g58
NtRp3493
(dp3494
g61
(dp3495
sg70
g3469
sg63
(lp3496
g56
(g77
g58
NtRp3497
(dp3498
g61
(dp3499
g81
g82
ssg70
g3493
sg63
(lp3500
g304
asbag56
(g77
g58
NtRp3501
(dp3502
g61
(dp3503
g88
g89
ssg70
g3493
sg63
(lp3504
S':'
asbag56
(g77
g58
NtRp3505
(dp3506
g61
(dp3507
sg70
g3493
sg63
(lp3508
g56
(g57
g58
NtRp3509
(dp3510
g61
(dp3511
g69
I3
ssg70
g3505
sg63
(lp3512
S''
asbasbasbag56
(g72
g58
NtRp3513
(dp3514
g61
(dp3515
sg70
g3469
sg63
(lp3516
g56
(g77
g58
NtRp3517
(dp3518
g61
(dp3519
g81
g82
ssg70
g3513
sg63
(lp3520
g325
asbag56
(g77
g58
NtRp3521
(dp3522
g61
(dp3523
g88
g89
ssg70
g3513
sg63
(lp3524
S':'
asbag56
(g77
g58
NtRp3525
(dp3526
g61
(dp3527
sg70
g3513
sg63
(lp3528
g56
(g57
g58
NtRp3529
(dp3530
g61
(dp3531
g69
I3
ssg70
g3525
sg63
(lp3532
S''
asbasbasbag56
(g72
g58
NtRp3533
(dp3534
g61
(dp3535
sg70
g3469
sg63
(lp3536
g56
(g77
g58
NtRp3537
(dp3538
g61
(dp3539
g81
g82
ssg70
g3533
sg63
(lp3540
g346
asbag56
(g77
g58
NtRp3541
(dp3542
g61
(dp3543
g88
g89
ssg70
g3533
sg63
(lp3544
S':'
asbag56
(g77
g58
NtRp3545
(dp3546
g61
(dp3547
sg70
g3533
sg63
(lp3548
g56
(g57
g58
NtRp3549
(dp3550
g61
(dp3551
g69
I3
ssg70
g3545
sg63
(lp3552
S''
asbasbasbag56
(g72
g58
NtRp3553
(dp3554
g61
(dp3555
sg70
g3469
sg63
(lp3556
g56
(g77
g58
NtRp3557
(dp3558
g61
(dp3559
g81
g82
ssg70
g3553
sg63
(lp3560
g367
asbag56
(g77
g58
NtRp3561
(dp3562
g61
(dp3563
g88
g89
ssg70
g3553
sg63
(lp3564
S':'
asbag56
(g77
g58
NtRp3565
(dp3566
g61
(dp3567
sg70
g3553
sg63
(lp3568
g56
(g57
g58
NtRp3569
(dp3570
g61
(dp3571
g69
I3
ssg70
g3565
sg63
(lp3572
S''
asbasbasbag56
(g72
g58
NtRp3573
(dp3574
g61
(dp3575
sg70
g3469
sg63
(lp3576
g56
(g77
g58
NtRp3577
(dp3578
g61
(dp3579
g81
g82
ssg70
g3573
sg63
(lp3580
g388
asbag56
(g77
g58
NtRp3581
(dp3582
g61
(dp3583
g88
g89
ssg70
g3573
sg63
(lp3584
S':'
asbag56
(g77
g58
NtRp3585
(dp3586
g61
(dp3587
sg70
g3573
sg63
(lp3588
g56
(g57
g58
NtRp3589
(dp3590
g61
(dp3591
g69
I3
ssg70
g3585
sg63
(lp3592
S'/'
asbasbasbag56
(g72
g58
NtRp3593
(dp3594
g61
(dp3595
sg70
g3469
sg63
(lp3596
g56
(g77
g58
NtRp3597
(dp3598
g61
(dp3599
g81
g82
ssg70
g3593
sg63
(lp3600
g409
asbag56
(g77
g58
NtRp3601
(dp3602
g61
(dp3603
g88
g89
ssg70
g3593
sg63
(lp3604
S':'
asbag56
(g77
g58
NtRp3605
(dp3606
g61
(dp3607
sg70
g3593
sg63
(lp3608
g56
(g57
g58
NtRp3609
(dp3610
g61
(dp3611
g69
I3
ssg70
g3605
sg63
(lp3612
S''
asbasbasbag56
(g72
g58
NtRp3613
(dp3614
g61
(dp3615
sg70
g3469
sg63
(lp3616
g56
(g77
g58
NtRp3617
(dp3618
g61
(dp3619
g81
g82
ssg70
g3613
sg63
(lp3620
g430
asbag56
(g77
g58
NtRp3621
(dp3622
g61
(dp3623
g88
g89
ssg70
g3613
sg63
(lp3624
S':'
asbag56
(g77
g58
NtRp3625
(dp3626
g61
(dp3627
sg70
g3613
sg63
(lp3628
g56
(g57
g58
NtRp3629
(dp3630
g61
(dp3631
g69
I3
ssg70
g3625
sg63
(lp3632
S''
asbasbasbasbasbasbasbasbasbasbasbag56
(g72
g58
NtRp3633
(dp3634
g61
(dp3635
sg70
g3399
sg63
(lp3636
g56
(g77
g58
NtRp3637
(dp3638
g61
(dp3639
g81
g82
ssg70
g3633
sg63
(lp3640
S'files'
p3641
asbag56
(g77
g58
NtRp3642
(dp3643
g61
(dp3644
g88
g89
ssg70
g3633
sg63
(lp3645
S':'
asbag56
(g77
g58
NtRp3646
(dp3647
g61
(dp3648
sg70
g3633
sg63
(lp3649
g56
(g57
g58
NtRp3650
(dp3651
g61
(dp3652
g69
I5
ssg70
g3646
sg63
(lp3653
g56
(g65
g58
NtRp3654
(dp3655
g61
(dp3656
g69
I4
ssg70
Nsg63
(lp3657
g56
(g72
g58
NtRp3658
(dp3659
g61
(dp3660
sg70
g3654
sg63
(lp3661
g56
(g77
g58
NtRp3662
(dp3663
g61
(dp3664
sg70
g3658
sg63
(lp3665
g56
(g57
g58
NtRp3666
(dp3667
g61
(dp3668
g69
I4
ssg70
g3662
sg63
(lp3669
S'/grades/static/js/jquery.js'
p3670
asbasbasbag56
(g72
g58
NtRp3671
(dp3672
g61
(dp3673
sg70
g3654
sg63
(lp3674
g56
(g77
g58
NtRp3675
(dp3676
g61
(dp3677
sg70
g3671
sg63
(lp3678
g56
(g57
g58
NtRp3679
(dp3680
g61
(dp3681
g69
I4
ssg70
g3675
sg63
(lp3682
S'/grades/static/css/anytime.css'
p3683
asbasbasbag56
(g72
g58
NtRp3684
(dp3685
g61
(dp3686
sg70
g3654
sg63
(lp3687
g56
(g77
g58
NtRp3688
(dp3689
g61
(dp3690
sg70
g3684
sg63
(lp3691
g56
(g57
g58
NtRp3692
(dp3693
g61
(dp3694
g69
I4
ssg70
g3688
sg63
(lp3695
S'/grades/static/js/anytime.js'
p3696
asbasbasbag56
(g72
g58
NtRp3697
(dp3698
g61
(dp3699
sg70
g3654
sg63
(lp3700
g56
(g77
g58
NtRp3701
(dp3702
g61
(dp3703
sg70
g3697
sg63
(lp3704
g56
(g57
g58
NtRp3705
(dp3706
g61
(dp3707
g69
I4
ssg70
g3701
sg63
(lp3708
S'/grades/static/css/base.css'
p3709
asbasbasbag56
(g72
g58
NtRp3710
(dp3711
g61
(dp3712
sg70
g3654
sg63
(lp3713
g56
(g77
g58
NtRp3714
(dp3715
g61
(dp3716
sg70
g3710
sg63
(lp3717
g56
(g57
g58
NtRp3718
(dp3719
g61
(dp3720
g69
I4
ssg70
g3714
sg63
(lp3721
S'/grades/static/css/superfish.css'
p3722
asbasbasbag56
(g72
g58
NtRp3723
(dp3724
g61
(dp3725
sg70
g3654
sg63
(lp3726
g56
(g77
g58
NtRp3727
(dp3728
g61
(dp3729
sg70
g3723
sg63
(lp3730
g56
(g57
g58
NtRp3731
(dp3732
g61
(dp3733
g69
I4
ssg70
g3727
sg63
(lp3734
S'/grades/static/js/superfish.js'
p3735
asbasbasbasbasbasbasbag56
(g72
g58
NtRp3736
(dp3737
g61
(dp3738
sg70
g3399
sg63
(lp3739
g56
(g77
g58
NtRp3740
(dp3741
g61
(dp3742
g81
g82
ssg70
g3736
sg63
(lp3743
S'flash'
p3744
asbag56
(g77
g58
NtRp3745
(dp3746
g61
(dp3747
g88
g89
ssg70
g3736
sg63
(lp3748
S':'
asbag56
(g77
g58
NtRp3749
(dp3750
g61
(dp3751
sg70
g3736
sg63
(lp3752
g56
(g57
g58
NtRp3753
(dp3754
g61
(dp3755
g69
I5
ssg70
g3749
sg63
(lp3756
S''
asbasbasbag56
(g72
g58
NtRp3757
(dp3758
g61
(dp3759
sg70
g3399
sg63
(lp3760
g56
(g77
g58
NtRp3761
(dp3762
g61
(dp3763
g81
g82
ssg70
g3757
sg63
(lp3764
S'generic_patterns'
p3765
asbag56
(g77
g58
NtRp3766
(dp3767
g61
(dp3768
g88
g89
ssg70
g3757
sg63
(lp3769
S':'
asbag56
(g77
g58
NtRp3770
(dp3771
g61
(dp3772
sg70
g3757
sg63
(lp3773
g56
(g57
g58
NtRp3774
(dp3775
g61
(dp3776
g69
I5
ssg70
g3770
sg63
(lp3777
g56
(g65
g58
NtRp3778
(dp3779
g61
(dp3780
g69
I4
ssg70
Nsg63
(lp3781
g56
(g72
g58
NtRp3782
(dp3783
g61
(dp3784
sg70
g3778
sg63
(lp3785
g56
(g77
g58
NtRp3786
(dp3787
g61
(dp3788
sg70
g3782
sg63
(lp3789
g56
(g57
g58
NtRp3790
(dp3791
g61
(dp3792
g69
I4
ssg70
g3786
sg63
(lp3793
S'*'
asbasbasbasbasbasbasbag56
(g72
g58
NtRp3794
(dp3795
g61
(dp3796
sg70
g3399
sg63
(lp3797
g56
(g77
g58
NtRp3798
(dp3799
g61
(dp3800
g81
g82
ssg70
g3794
sg63
(lp3801
S'headers'
p3802
asbag56
(g77
g58
NtRp3803
(dp3804
g61
(dp3805
g88
g89
ssg70
g3794
sg63
(lp3806
S':'
asbag56
(g77
g58
NtRp3807
(dp3808
g61
(dp3809
sg70
g3794
sg63
(lp3810
g56
(g57
g58
NtRp3811
(dp3812
g61
(dp3813
g69
I5
ssg70
g3807
sg63
(lp3814
g56
(g65
g58
NtRp3815
(dp3816
g61
(dp3817
g69
I4
ssg70
Nsg63
(lp3818
g56
(g72
g58
NtRp3819
(dp3820
g61
(dp3821
sg70
g3815
sg63
(lp3822
g56
(g77
g58
NtRp3823
(dp3824
g61
(dp3825
g81
g82
ssg70
g3819
sg63
(lp3826
S'Cache-Control'
p3827
asbag56
(g77
g58
NtRp3828
(dp3829
g61
(dp3830
g88
g89
ssg70
g3819
sg63
(lp3831
S':'
asbag56
(g77
g58
NtRp3832
(dp3833
g61
(dp3834
sg70
g3819
sg63
(lp3835
g56
(g57
g58
NtRp3836
(dp3837
g61
(dp3838
g69
I4
ssg70
g3832
sg63
(lp3839
S'no-store, no-cache, must-revalidate, post-check=0, pre-check=0'
p3840
asbasbasbag56
(g72
g58
NtRp3841
(dp3842
g61
(dp3843
sg70
g3815
sg63
(lp3844
g56
(g77
g58
NtRp3845
(dp3846
g61
(dp3847
g81
g82
ssg70
g3841
sg63
(lp3848
S'Content-Type'
p3849
asbag56
(g77
g58
NtRp3850
(dp3851
g61
(dp3852
g88
g89
ssg70
g3841
sg63
(lp3853
S':'
asbag56
(g77
g58
NtRp3854
(dp3855
g61
(dp3856
sg70
g3841
sg63
(lp3857
g56
(g57
g58
NtRp3858
(dp3859
g61
(dp3860
g69
I4
ssg70
g3854
sg63
(lp3861
S'text/html; charset=utf-8'
p3862
asbasbasbag56
(g72
g58
NtRp3863
(dp3864
g61
(dp3865
sg70
g3815
sg63
(lp3866
g56
(g77
g58
NtRp3867
(dp3868
g61
(dp3869
g81
g82
ssg70
g3863
sg63
(lp3870
S'Expires'
p3871
asbag56
(g77
g58
NtRp3872
(dp3873
g61
(dp3874
g88
g89
ssg70
g3863
sg63
(lp3875
S':'
asbag56
(g77
g58
NtRp3876
(dp3877
g61
(dp3878
sg70
g3863
sg63
(lp3879
g56
(g57
g58
NtRp3880
(dp3881
g61
(dp3882
g69
I4
ssg70
g3876
sg63
(lp3883
S'Thu, 03 Nov 2011 13:50:33 GMT'
p3884
asbasbasbag56
(g72
g58
NtRp3885
(dp3886
g61
(dp3887
sg70
g3815
sg63
(lp3888
g56
(g77
g58
NtRp3889
(dp3890
g61
(dp3891
g81
g82
ssg70
g3885
sg63
(lp3892
S'Pragma'
p3893
asbag56
(g77
g58
NtRp3894
(dp3895
g61
(dp3896
g88
g89
ssg70
g3885
sg63
(lp3897
S':'
asbag56
(g77
g58
NtRp3898
(dp3899
g61
(dp3900
sg70
g3885
sg63
(lp3901
g56
(g57
g58
NtRp3902
(dp3903
g61
(dp3904
g69
I4
ssg70
g3898
sg63
(lp3905
S'no-cache'
p3906
asbasbasbag56
(g72
g58
NtRp3907
(dp3908
g61
(dp3909
sg70
g3815
sg63
(lp3910
g56
(g77
g58
NtRp3911
(dp3912
g61
(dp3913
g81
g82
ssg70
g3907
sg63
(lp3914
S'X-Powered-By'
p3915
asbag56
(g77
g58
NtRp3916
(dp3917
g61
(dp3918
g88
g89
ssg70
g3907
sg63
(lp3919
S':'
asbag56
(g77
g58
NtRp3920
(dp3921
g61
(dp3922
sg70
g3907
sg63
(lp3923
g56
(g57
g58
NtRp3924
(dp3925
g61
(dp3926
g69
I4
ssg70
g3920
sg63
(lp3927
S'web2py'
p3928
asbasbasbasbasbasbasbag56
(g72
g58
NtRp3929
(dp3930
g61
(dp3931
sg70
g3399
sg63
(lp3932
g56
(g77
g58
NtRp3933
(dp3934
g61
(dp3935
g81
g82
ssg70
g3929
sg63
(lp3936
S'menu'
p3937
asbag56
(g77
g58
NtRp3938
(dp3939
g61
(dp3940
g88
g89
ssg70
g3929
sg63
(lp3941
S':'
asbag56
(g77
g58
NtRp3942
(dp3943
g61
(dp3944
sg70
g3929
sg63
(lp3945
g56
(g57
g58
NtRp3946
(dp3947
g61
(dp3948
g69
I5
ssg70
g3942
sg63
(lp3949
g56
(g65
g58
NtRp3950
(dp3951
g61
(dp3952
g69
I4
ssg70
Nsg63
(lp3953
g56
(g72
g58
NtRp3954
(dp3955
g61
(dp3956
sg70
g3950
sg63
(lp3957
g56
(g77
g58
NtRp3958
(dp3959
g61
(dp3960
sg70
g3954
sg63
(lp3961
g56
(g57
g58
NtRp3962
(dp3963
g61
(dp3964
g69
I4
ssg70
g3958
sg63
(lp3965
g56
(g65
g58
NtRp3966
(dp3967
g61
(dp3968
g69
I3
ssg70
Nsg63
(lp3969
g56
(g72
g58
NtRp3970
(dp3971
g61
(dp3972
sg70
g3966
sg63
(lp3973
g56
(g77
g58
NtRp3974
(dp3975
g61
(dp3976
sg70
g3970
sg63
(lp3977
g56
(g57
g58
NtRp3978
(dp3979
g61
(dp3980
g69
I3
ssg70
g3974
sg63
(lp3981
cgluon.languages
lazyT_unpickle
p3982
(S't\x05\x00\x00\x00Index'
tRp3983
asbasbasbag56
(g72
g58
NtRp3984
(dp3985
g61
(dp3986
sg70
g3966
sg63
(lp3987
g56
(g77
g58
NtRp3988
(dp3989
g61
(dp3990
sg70
g3984
sg63
(lp3991
g56
(g57
g58
NtRp3992
(dp3993
g61
(dp3994
g69
I3
ssg70
g3988
sg63
(lp3995
g99
asbasbasbag56
(g72
g58
NtRp3996
(dp3997
g61
(dp3998
sg70
g3966
sg63
(lp3999
g56
(g77
g58
NtRp4000
(dp4001
g61
(dp4002
sg70
g3996
sg63
(lp4003
g56
(g57
g58
NtRp4004
(dp4005
g61
(dp4006
g69
I3
ssg70
g4000
sg63
(lp4007
S'/grades/default/index'
p4008
asbasbasbag56
(g72
g58
NtRp4009
(dp4010
g61
(dp4011
sg70
g3966
sg63
(lp4012
g56
(g77
g58
NtRp4013
(dp4014
g61
(dp4015
sg70
g4009
sg63
(lp4016
g56
(g57
g58
NtRp4017
(dp4018
g61
(dp4019
g69
I3
ssg70
g4013
sg63
(lp4020
g56
(g65
g58
NtRp4021
(dp4022
g61
(dp4023
g69
I2
ssg70
Nsg63
(lp4024
sbasbasbasbasbasbasbasbag56
(g72
g58
NtRp4025
(dp4026
g61
(dp4027
sg70
g3950
sg63
(lp4028
g56
(g77
g58
NtRp4029
(dp4030
g61
(dp4031
sg70
g4025
sg63
(lp4032
g56
(g57
g58
NtRp4033
(dp4034
g61
(dp4035
g69
I4
ssg70
g4029
sg63
(lp4036
g56
(g65
g58
NtRp4037
(dp4038
g61
(dp4039
g69
I3
ssg70
Nsg63
(lp4040
g56
(g72
g58
NtRp4041
(dp4042
g61
(dp4043
sg70
g4037
sg63
(lp4044
g56
(g77
g58
NtRp4045
(dp4046
g61
(dp4047
sg70
g4041
sg63
(lp4048
g56
(g57
g58
NtRp4049
(dp4050
g61
(dp4051
g69
I3
ssg70
g4045
sg63
(lp4052
g3982
(S't\x06\x00\x00\x00Grades'
tRp4053
asbasbasbag56
(g72
g58
NtRp4054
(dp4055
g61
(dp4056
sg70
g4037
sg63
(lp4057
g56
(g77
g58
NtRp4058
(dp4059
g61
(dp4060
sg70
g4054
sg63
(lp4061
g56
(g57
g58
NtRp4062
(dp4063
g61
(dp4064
g69
I3
ssg70
g4058
sg63
(lp4065
g99
asbasbasbag56
(g72
g58
NtRp4066
(dp4067
g61
(dp4068
sg70
g4037
sg63
(lp4069
g56
(g77
g58
NtRp4070
(dp4071
g61
(dp4072
sg70
g4066
sg63
(lp4073
g56
(g57
g58
NtRp4074
(dp4075
g61
(dp4076
g69
I3
ssg70
g4070
sg63
(lp4077
S'/grades/default/grades_manage'
p4078
asbasbasbag56
(g72
g58
NtRp4079
(dp4080
g61
(dp4081
sg70
g4037
sg63
(lp4082
g56
(g77
g58
NtRp4083
(dp4084
g61
(dp4085
sg70
g4079
sg63
(lp4086
g56
(g57
g58
NtRp4087
(dp4088
g61
(dp4089
g69
I3
ssg70
g4083
sg63
(lp4090
g56
(g65
g58
NtRp4091
(dp4092
g61
(dp4093
g69
I2
ssg70
Nsg63
(lp4094
sbasbasbasbasbasbasbasbag56
(g72
g58
NtRp4095
(dp4096
g61
(dp4097
sg70
g3950
sg63
(lp4098
g56
(g77
g58
NtRp4099
(dp4100
g61
(dp4101
sg70
g4095
sg63
(lp4102
g56
(g57
g58
NtRp4103
(dp4104
g61
(dp4105
g69
I4
ssg70
g4099
sg63
(lp4106
g56
(g65
g58
NtRp4107
(dp4108
g61
(dp4109
g69
I3
ssg70
Nsg63
(lp4110
g56
(g72
g58
NtRp4111
(dp4112
g61
(dp4113
sg70
g4107
sg63
(lp4114
g56
(g77
g58
NtRp4115
(dp4116
g61
(dp4117
sg70
g4111
sg63
(lp4118
g56
(g57
g58
NtRp4119
(dp4120
g61
(dp4121
g69
I3
ssg70
g4115
sg63
(lp4122
g3982
(S't\x07\x00\x00\x00Classes'
tRp4123
asbasbasbag56
(g72
g58
NtRp4124
(dp4125
g61
(dp4126
sg70
g4107
sg63
(lp4127
g56
(g77
g58
NtRp4128
(dp4129
g61
(dp4130
sg70
g4124
sg63
(lp4131
g56
(g57
g58
NtRp4132
(dp4133
g61
(dp4134
g69
I3
ssg70
g4128
sg63
(lp4135
g99
asbasbasbag56
(g72
g58
NtRp4136
(dp4137
g61
(dp4138
sg70
g4107
sg63
(lp4139
g56
(g77
g58
NtRp4140
(dp4141
g61
(dp4142
sg70
g4136
sg63
(lp4143
g56
(g57
g58
NtRp4144
(dp4145
g61
(dp4146
g69
I3
ssg70
g4140
sg63
(lp4147
S'/grades/default/classes_manage'
p4148
asbasbasbag56
(g72
g58
NtRp4149
(dp4150
g61
(dp4151
sg70
g4107
sg63
(lp4152
g56
(g77
g58
NtRp4153
(dp4154
g61
(dp4155
sg70
g4149
sg63
(lp4156
g56
(g57
g58
NtRp4157
(dp4158
g61
(dp4159
g69
I3
ssg70
g4153
sg63
(lp4160
g56
(g65
g58
NtRp4161
(dp4162
g61
(dp4163
g69
I2
ssg70
Nsg63
(lp4164
sbasbasbasbasbasbasbasbasbasbasbasbag56
(g72
g58
NtRp4165
(dp4166
g61
(dp4167
sg70
g3399
sg63
(lp4168
g56
(g77
g58
NtRp4169
(dp4170
g61
(dp4171
g81
g82
ssg70
g4165
sg63
(lp4172
S'meta'
p4173
asbag56
(g77
g58
NtRp4174
(dp4175
g61
(dp4176
g88
g89
ssg70
g4165
sg63
(lp4177
S':'
asbag56
(g77
g58
NtRp4178
(dp4179
g61
(dp4180
sg70
g4165
sg63
(lp4181
g56
(g57
g58
NtRp4182
(dp4183
g61
(dp4184
g69
I5
ssg70
g4178
sg63
(lp4185
g56
(g65
g58
NtRp4186
(dp4187
g61
(dp4188
g69
I4
ssg70
Nsg63
(lp4189
g56
(g72
g58
NtRp4190
(dp4191
g61
(dp4192
sg70
g4186
sg63
(lp4193
g56
(g77
g58
NtRp4194
(dp4195
g61
(dp4196
g81
g82
ssg70
g4190
sg63
(lp4197
S'author'
p4198
asbag56
(g77
g58
NtRp4199
(dp4200
g61
(dp4201
g88
g89
ssg70
g4190
sg63
(lp4202
S':'
asbag56
(g77
g58
NtRp4203
(dp4204
g61
(dp4205
sg70
g4190
sg63
(lp4206
g56
(g57
g58
NtRp4207
(dp4208
g61
(dp4209
g69
I4
ssg70
g4203
sg63
(lp4210
S'Ian W. Scott <scottianw@gmail.com>'
p4211
asbasbasbag56
(g72
g58
NtRp4212
(dp4213
g61
(dp4214
sg70
g4186
sg63
(lp4215
g56
(g77
g58
NtRp4216
(dp4217
g61
(dp4218
g81
g82
ssg70
g4212
sg63
(lp4219
S'description'
p4220
asbag56
(g77
g58
NtRp4221
(dp4222
g61
(dp4223
g88
g89
ssg70
g4212
sg63
(lp4224
S':'
asbag56
(g77
g58
NtRp4225
(dp4226
g61
(dp4227
sg70
g4212
sg63
(lp4228
g56
(g57
g58
NtRp4229
(dp4230
g61
(dp4231
g69
I4
ssg70
g4225
sg63
(lp4232
S''
asbasbasbag56
(g72
g58
NtRp4233
(dp4234
g61
(dp4235
sg70
g4186
sg63
(lp4236
g56
(g77
g58
NtRp4237
(dp4238
g61
(dp4239
g81
g82
ssg70
g4233
sg63
(lp4240
S'keywords'
p4241
asbag56
(g77
g58
NtRp4242
(dp4243
g61
(dp4244
g88
g89
ssg70
g4233
sg63
(lp4245
S':'
asbag56
(g77
g58
NtRp4246
(dp4247
g61
(dp4248
sg70
g4233
sg63
(lp4249
g56
(g57
g58
NtRp4250
(dp4251
g61
(dp4252
g69
I4
ssg70
g4246
sg63
(lp4253
S''
asbasbasbasbasbasbasbag56
(g72
g58
NtRp4254
(dp4255
g61
(dp4256
sg70
g3399
sg63
(lp4257
g56
(g77
g58
NtRp4258
(dp4259
g61
(dp4260
g81
g82
ssg70
g4254
sg63
(lp4261
S'postprocessing'
p4262
asbag56
(g77
g58
NtRp4263
(dp4264
g61
(dp4265
g88
g89
ssg70
g4254
sg63
(lp4266
S':'
asbag56
(g77
g58
NtRp4267
(dp4268
g61
(dp4269
sg70
g4254
sg63
(lp4270
g56
(g57
g58
NtRp4271
(dp4272
g61
(dp4273
g69
I5
ssg70
g4267
sg63
(lp4274
g56
(g65
g58
NtRp4275
(dp4276
g61
(dp4277
g69
I4
ssg70
Nsg63
(lp4278
sbasbasbasbag56
(g72
g58
NtRp4279
(dp4280
g61
(dp4281
sg70
g3399
sg63
(lp4282
g56
(g77
g58
NtRp4283
(dp4284
g61
(dp4285
g81
g82
ssg70
g4279
sg63
(lp4286
S'session_file'
p4287
asbag56
(g77
g58
NtRp4288
(dp4289
g61
(dp4290
g88
g89
ssg70
g4279
sg63
(lp4291
S':'
asbag56
(g77
g58
NtRp4292
(dp4293
g61
(dp4294
sg70
g4279
sg63
(lp4295
g56
(g57
g58
NtRp4296
(dp4297
g61
(dp4298
g69
I5
ssg70
g4292
sg63
(lp4299
S"<open file '/home/ian/web2py/applications/grades/sessions/127.0.0.1-c574ca17-f89b-43b2-a33b-5430c26e6a60', mode 'rb+' at 0x86eedb0>"
p4300
asbasbasbag56
(g72
g58
NtRp4301
(dp4302
g61
(dp4303
sg70
g3399
sg63
(lp4304
g56
(g77
g58
NtRp4305
(dp4306
g61
(dp4307
g81
g82
ssg70
g4301
sg63
(lp4308
S'session_filename'
p4309
asbag56
(g77
g58
NtRp4310
(dp4311
g61
(dp4312
g88
g89
ssg70
g4301
sg63
(lp4313
S':'
asbag56
(g77
g58
NtRp4314
(dp4315
g61
(dp4316
sg70
g4301
sg63
(lp4317
g56
(g57
g58
NtRp4318
(dp4319
g61
(dp4320
g69
I5
ssg70
g4314
sg63
(lp4321
S'/home/ian/web2py/applications/grades/sessions/127.0.0.1-c574ca17-f89b-43b2-a33b-5430c26e6a60'
p4322
asbasbasbag56
(g72
g58
NtRp4323
(dp4324
g61
(dp4325
sg70
g3399
sg63
(lp4326
g56
(g77
g58
NtRp4327
(dp4328
g61
(dp4329
g81
g82
ssg70
g4323
sg63
(lp4330
S'session_id'
p4331
asbag56
(g77
g58
NtRp4332
(dp4333
g61
(dp4334
g88
g89
ssg70
g4323
sg63
(lp4335
S':'
asbag56
(g77
g58
NtRp4336
(dp4337
g61
(dp4338
sg70
g4323
sg63
(lp4339
g56
(g57
g58
NtRp4340
(dp4341
g61
(dp4342
g69
I5
ssg70
g4336
sg63
(lp4343
S'127.0.0.1-c574ca17-f89b-43b2-a33b-5430c26e6a60'
p4344
asbasbasbag56
(g72
g58
NtRp4345
(dp4346
g61
(dp4347
sg70
g3399
sg63
(lp4348
g56
(g77
g58
NtRp4349
(dp4350
g61
(dp4351
g81
g82
ssg70
g4345
sg63
(lp4352
S'session_id_name'
p4353
asbag56
(g77
g58
NtRp4354
(dp4355
g61
(dp4356
g88
g89
ssg70
g4345
sg63
(lp4357
S':'
asbag56
(g77
g58
NtRp4358
(dp4359
g61
(dp4360
sg70
g4345
sg63
(lp4361
g56
(g57
g58
NtRp4362
(dp4363
g61
(dp4364
g69
I5
ssg70
g4358
sg63
(lp4365
g3456
asbasbasbag56
(g72
g58
NtRp4366
(dp4367
g61
(dp4368
sg70
g3399
sg63
(lp4369
g56
(g77
g58
NtRp4370
(dp4371
g61
(dp4372
g81
g82
ssg70
g4366
sg63
(lp4373
S'session_locked'
p4374
asbag56
(g77
g58
NtRp4375
(dp4376
g61
(dp4377
g88
g89
ssg70
g4366
sg63
(lp4378
S':'
asbag56
(g77
g58
NtRp4379
(dp4380
g61
(dp4381
sg70
g4366
sg63
(lp4382
g56
(g57
g58
NtRp4383
(dp4384
g61
(dp4385
g69
I5
ssg70
g4379
sg63
(lp4386
g1669
asbasbasbag56
(g72
g58
NtRp4387
(dp4388
g61
(dp4389
sg70
g3399
sg63
(lp4390
g56
(g77
g58
NtRp4391
(dp4392
g61
(dp4393
g81
g82
ssg70
g4387
sg63
(lp4394
S'session_new'
p4395
asbag56
(g77
g58
NtRp4396
(dp4397
g61
(dp4398
g88
g89
ssg70
g4387
sg63
(lp4399
S':'
asbag56
(g77
g58
NtRp4400
(dp4401
g61
(dp4402
sg70
g4387
sg63
(lp4403
g56
(g57
g58
NtRp4404
(dp4405
g61
(dp4406
g69
I5
ssg70
g4400
sg63
(lp4407
g99
asbasbasbag56
(g72
g58
NtRp4408
(dp4409
g61
(dp4410
sg70
g3399
sg63
(lp4411
g56
(g77
g58
NtRp4412
(dp4413
g61
(dp4414
g81
g82
ssg70
g4408
sg63
(lp4415
S'status'
p4416
asbag56
(g77
g58
NtRp4417
(dp4418
g61
(dp4419
g88
g89
ssg70
g4408
sg63
(lp4420
S':'
asbag56
(g77
g58
NtRp4421
(dp4422
g61
(dp4423
sg70
g4408
sg63
(lp4424
g56
(g57
g58
NtRp4425
(dp4426
g61
(dp4427
g69
I5
ssg70
g4421
sg63
(lp4428
S'200'
p4429
asbasbasbag56
(g72
g58
NtRp4430
(dp4431
g61
(dp4432
sg70
g3399
sg63
(lp4433
g56
(g77
g58
NtRp4434
(dp4435
g61
(dp4436
g81
g82
ssg70
g4430
sg63
(lp4437
S'subtitle'
p4438
asbag56
(g77
g58
NtRp4439
(dp4440
g61
(dp4441
g88
g89
ssg70
g4430
sg63
(lp4442
S':'
asbag56
(g77
g58
NtRp4443
(dp4444
g61
(dp4445
sg70
g4430
sg63
(lp4446
g56
(g57
g58
NtRp4447
(dp4448
g61
(dp4449
g69
I5
ssg70
g4443
sg63
(lp4450
S'a platform for easy submission of peer grades'
p4451
asbasbasbag56
(g72
g58
NtRp4452
(dp4453
g61
(dp4454
sg70
g3399
sg63
(lp4455
g56
(g77
g58
NtRp4456
(dp4457
g61
(dp4458
g81
g82
ssg70
g4452
sg63
(lp4459
S'title'
p4460
asbag56
(g77
g58
NtRp4461
(dp4462
g61
(dp4463
g88
g89
ssg70
g4452
sg63
(lp4464
S':'
asbag56
(g77
g58
NtRp4465
(dp4466
g61
(dp4467
sg70
g4452
sg63
(lp4468
g56
(g57
g58
NtRp4469
(dp4470
g61
(dp4471
g69
I5
ssg70
g4465
sg63
(lp4472
S'Grades'
p4473
asbasbasbag56
(g72
g58
NtRp4474
(dp4475
g61
(dp4476
sg70
g3399
sg63
(lp4477
g56
(g77
g58
NtRp4478
(dp4479
g61
(dp4480
g81
g82
ssg70
g4474
sg63
(lp4481
g2334
asbag56
(g77
g58
NtRp4482
(dp4483
g61
(dp4484
g88
g89
ssg70
g4474
sg63
(lp4485
S':'
asbag56
(g77
g58
NtRp4486
(dp4487
g61
(dp4488
sg70
g4474
sg63
(lp4489
g56
(g57
g58
NtRp4490
(dp4491
g61
(dp4492
g69
I5
ssg70
g4486
sg63
(lp4493
g2347
asbasbasbag56
(g72
g58
NtRp4494
(dp4495
g61
(dp4496
sg70
g3399
sg63
(lp4497
g56
(g77
g58
NtRp4498
(dp4499
g61
(dp4500
g81
g82
ssg70
g4494
sg63
(lp4501
S'view'
p4502
asbag56
(g77
g58
NtRp4503
(dp4504
g61
(dp4505
g88
g89
ssg70
g4494
sg63
(lp4506
S':'
asbag56
(g77
g58
NtRp4507
(dp4508
g61
(dp4509
sg70
g4494
sg63
(lp4510
g56
(g57
g58
NtRp4511
(dp4512
g61
(dp4513
g69
I5
ssg70
g4507
sg63
(lp4514
S'default/grades_report.html'
p4515
asbasbasbasbasbsS'locals'
p4516
(dp4517
S'Service'
p4518
S"<class 'gluon.tools.Service'>"
p4519
sS'OBJECT'
p4520
S"<class 'gluon.html.OBJECT'>"
p4521
sS'SQLDB'
p4522
S"<class 'gluon.dal.DAL'>"
p4523
sS'grades'
p4524
S"{1: {'the_date': [3.6], datetime.date(2011, 10, 19): [3.6, 3.5, 3.5], datetime.date(2011, 10, 12): [3.5, 4.0]}}"
p4525
sg3049
S"<Storage {'last_query': 'db.grades.name == 15', ..., 11, 3, 8, 1, 20, 311289), 'remember': False}>}>"
p4526
sS'LINK'
p4527
S"<class 'gluon.html.LINK'>"
p4528
sS'BR'
p4529
S"<class 'gluon.html.BR'>"
p4530
sS'local_import'
p4531
S'<function <lambda>>'
p4532
sS'OPTGROUP'
p4533
S"<class 'gluon.html.OPTGROUP'>"
p4534
sS'PRE'
p4535
S"<class 'gluon.html.PRE'>"
p4536
sS'IS_INT_IN_RANGE'
p4537
S"<class 'gluon.validators.IS_INT_IN_RANGE'>"
p4538
sS'left_sidebar_enabled'
p4539
g99
sS'IS_LOWER'
p4540
S"<class 'gluon.validators.IS_LOWER'>"
p4541
sS'IS_STRONG'
p4542
S"<class 'gluon.validators.IS_STRONG'>"
p4543
sS'Recaptcha'
p4544
S"<class 'gluon.tools.Recaptcha'>"
p4545
sS'cache'
p4546
S'<gluon.cache.Cache object>'
p4547
sS'IS_IN_DB'
p4548
S"<class 'gluon.validators.IS_IN_DB'>"
p4549
sS'TAG'
p4550
S'<gluon.html.__TAG__ object>'
p4551
sS'SQLField'
p4552
S"<class 'gluon.dal.Field'>"
p4553
sS'mail'
p4554
S'<gluon.tools.Mail object>'
p4555
sS'BODY'
p4556
S"<class 'gluon.html.BODY'>"
p4557
sS'IS_DATE_IN_RANGE'
p4558
S"<class 'gluon.validators.IS_DATE_IN_RANGE'>"
p4559
sS'TH'
p4560
S"<class 'gluon.html.TH'>"
p4561
sS'URL'
p4562
S'<function URL>'
p4563
sS'__file__'
p4564
S"'/home/ian/web2py/applications/grades/views/default/grades_report.html'"
p4565
sS'db'
p4566
S"<DAL {'auth_event': <Table {'origin': <gluon.dal..., 'id': <gluon.dal.Field object at 0x72e8350>}>}>"
p4567
sS'auth'
p4568
S'<gluon.tools.Auth object>'
p4569
sS'P'
S"<class 'gluon.html.P'>"
p4570
sS'TFOOT'
p4571
S"<class 'gluon.html.TFOOT'>"
p4572
sS'XHTML'
p4573
S"<class 'gluon.html.XHTML'>"
p4574
sS'ON'
p4575
g1669
sS'OL'
p4576
S"<class 'gluon.html.OL'>"
p4577
sS'TEXTAREA'
p4578
S"<class 'gluon.html.TEXTAREA'>"
p4579
sS'settings'
p4580
S"<Storage {'layout_theme': 'Default', 'subtitle':...l_server': 'localhost', 'login_method': 'local'}>"
p4581
sS'MENU'
p4582
S"<class 'gluon.html.MENU'>"
p4583
sS'IS_IMAGE'
p4584
S"<class 'gluon.validators.IS_IMAGE'>"
p4585
sS'LOAD'
p4586
S'<gluon.compileapp.LoadFactory object>'
p4587
sS'CODE'
p4588
S"<class 'gluon.html.CODE'>"
p4589
sS'HTTP'
p4590
S"<class 'gluon.http.HTTP'>"
p4591
sS'HR'
p4592
S"<class 'gluon.html.HR'>"
p4593
sS'IS_DATETIME'
p4594
S"<class 'gluon.validators.IS_DATETIME'>"
p4595
sS'Storage'
p4596
S"<class 'gluon.storage.Storage'>"
p4597
sS'HEAD'
p4598
S"<class 'gluon.html.HEAD'>"
p4599
sS'LABEL'
p4600
S"<class 'gluon.html.LABEL'>"
p4601
sS'META'
p4602
S"<class 'gluon.html.META'>"
p4603
sS'plugins'
p4604
S'<gluon.tools.PluginManager object>'
p4605
sS'SELECT'
p4606
S"<class 'gluon.html.SELECT'>"
p4607
sS'use_janrain'
p4608
S'<function use_janrain>'
p4609
sS'CENTER'
p4610
S"<class 'gluon.html.CENTER'>"
p4611
sS'prettydate'
p4612
S'<function prettydate>'
p4613
sS'Crud'
p4614
S"<class 'gluon.tools.Crud'>"
p4615
sS'Auth'
p4616
S"<class 'gluon.tools.Auth'>"
p4617
sS'IS_EQUAL_TO'
p4618
S"<class 'gluon.validators.IS_EQUAL_TO'>"
p4619
sS'HTML'
p4620
S"<class 'gluon.html.HTML'>"
p4621
sS'SQLFORM'
p4622
S"<class 'gluon.sqlhtml.SQLFORM'>"
p4623
sS'EM'
p4624
S"<class 'gluon.html.EM'>"
p4625
sS'redirect'
p4626
S'<function redirect>'
p4627
sS'FIELDSET'
p4628
S"<class 'gluon.html.FIELDSET'>"
p4629
sS'__builtins__'
p4630
S"{'ArithmeticError': <type 'exceptions.ArithmeticError'>, 'AssertionError': <type 'exceptions.AssertionError'>, 'AttributeError': <type 'exceptions.AttributeError'>, 'BaseException': <type 'exceptions.BaseException'>, 'BufferError': <type 'exceptions.BufferError'>, 'BytesWarning': <type 'exceptions.BytesWarning'>, 'DeprecationWarning': <type 'exceptions.DeprecationWarning'>, 'EOFError': <type 'exceptions.EOFError'>, 'Ellipsis': Ellipsis, 'EnvironmentError': <type 'exceptions.EnvironmentError'>, ...}"
p4631
sS'embed64'
p4632
S'<function embed64>'
p4633
sS'IS_LIST_OF'
p4634
S"<class 'gluon.validators.IS_LIST_OF'>"
p4635
sS'INPUT'
p4636
S"<class 'gluon.html.INPUT'>"
p4637
sS'EMBED'
p4638
S"<class 'gluon.html.EMBED'>"
p4639
sS'FORM'
p4640
S"<class 'gluon.html.FORM'>"
p4641
sS'width_content'
p4642
S"'100%'"
p4643
sS'H2'
p4644
S"<class 'gluon.html.H2'>"
p4645
sS'H3'
p4646
S"<class 'gluon.html.H3'>"
p4647
sS'BUTTON'
p4648
S"<class 'gluon.html.BUTTON'>"
p4649
sS'H1'
p4650
S"<class 'gluon.html.H1'>"
p4651
sS'H6'
p4652
S"<class 'gluon.html.H6'>"
p4653
sS'H4'
p4654
S"<class 'gluon.html.H4'>"
p4655
sS'H5'
p4656
S"<class 'gluon.html.H5'>"
p4657
sS'UL'
p4658
S"<class 'gluon.html.UL'>"
p4659
sS'IS_UPPER'
p4660
S"<class 'gluon.validators.IS_UPPER'>"
p4661
sS'xmlescape'
p4662
S'<function xmlescape>'
p4663
sS'IS_TIME'
p4664
S"<class 'gluon.validators.IS_TIME'>"
p4665
sS'OPTION'
p4666
S"<class 'gluon.html.OPTION'>"
p4667
sS'TITLE'
p4668
S"<class 'gluon.html.TITLE'>"
p4669
sS'CRYPT'
p4670
S"<class 'gluon.validators.CRYPT'>"
p4671
sS'IS_EMPTY_OR'
p4672
S"<class 'gluon.validators.IS_EMPTY_OR'>"
p4673
sS'MARKMIN'
p4674
S"<class 'gluon.html.MARKMIN'>"
p4675
sS'COL'
p4676
S"<class 'gluon.html.COL'>"
p4677
sS'service'
p4678
S'<gluon.tools.Service object>'
p4679
sS'SCRIPT'
p4680
S"<class 'gluon.html.SCRIPT'>"
p4681
sS'TABLE'
p4682
S"<class 'gluon.html.TABLE'>"
p4683
sS'IS_IPV4'
p4684
S"<class 'gluon.validators.IS_IPV4'>"
p4685
sS'IS_LENGTH'
p4686
S"<class 'gluon.validators.IS_LENGTH'>"
p4687
sS'XML'
p4688
S"<class 'gluon.html.XML'>"
p4689
sS'B'
S"<class 'gluon.html.B'>"
p4690
sS'IMG'
p4691
S"<class 'gluon.html.IMG'>"
p4692
sS'SQLTABLE'
p4693
S"<class 'gluon.sqlhtml.SQLTABLE'>"
p4694
sS'IS_MATCH'
p4695
S"<class 'gluon.validators.IS_MATCH'>"
p4696
sS'IS_ALPHANUMERIC'
p4697
S"<class 'gluon.validators.IS_ALPHANUMERIC'>"
p4698
sS'SPAN'
p4699
S"<class 'gluon.html.SPAN'>"
p4700
sS'IS_SLUG'
p4701
S"<class 'gluon.validators.IS_SLUG'>"
p4702
sS'CLEANUP'
p4703
S"<class 'gluon.validators.CLEANUP'>"
p4704
sS'IS_DATE'
p4705
S"<class 'gluon.validators.IS_DATE'>"
p4706
sS'IS_EMAIL'
p4707
S"<class 'gluon.validators.IS_EMAIL'>"
p4708
sS'IS_NOT_EMPTY'
p4709
S"<class 'gluon.validators.IS_NOT_EMPTY'>"
p4710
sg55
S"<Storage {'body': <cStringIO.StringO object at 0..._vars': <Storage {}>, 'post_vars': <Storage {}>}>"
p4711
sS'BEAUTIFY'
p4712
S"<class 'gluon.html.BEAUTIFY'>"
p4713
sS'TBODY'
p4714
S"<class 'gluon.html.TBODY'>"
p4715
sS'CAT'
p4716
S"<class 'gluon.html.CAT'>"
p4717
sS'Field'
p4718
S"<class 'gluon.dal.Field'>"
p4719
sS'DIV'
p4720
S"<class 'gluon.html.DIV'>"
p4721
sS'LEGEND'
p4722
S"<class 'gluon.html.LEGEND'>"
p4723
sS'COLGROUP'
p4724
S"<class 'gluon.html.COLGROUP'>"
p4725
sS'DAL'
p4726
S"<class 'gluon.dal.DAL'>"
p4727
sS'TT'
p4728
S"<class 'gluon.html.TT'>"
p4729
sS'TR'
p4730
S"<class 'gluon.html.TR'>"
p4731
sS'LI'
p4732
S"<class 'gluon.html.LI'>"
p4733
sS'right_sidebar_enabled'
p4734
g99
sS'IFRAME'
p4735
S"<class 'gluon.html.IFRAME'>"
p4736
sS'TD'
p4737
S"<class 'gluon.html.TD'>"
p4738
sS'PluginManager'
p4739
S"<class 'gluon.tools.PluginManager'>"
p4740
sS'IS_URL'
p4741
S"<class 'gluon.validators.IS_URL'>"
p4742
sS'A'
S"<class 'gluon.html.A'>"
p4743
sS'STYLE'
p4744
S"<class 'gluon.html.STYLE'>"
p4745
sS'IS_DATETIME_IN_RANGE'
p4746
S"<class 'gluon.validators.IS_DATETIME_IN_RANGE'>"
p4747
sS'populate'
p4748
S'<function populate>'
p4749
sS'I'
S"<class 'gluon.html.I'>"
p4750
sS'crud'
p4751
S'<gluon.tools.Crud object>'
p4752
sS'right_sidebar_style'
p4753
S'\'style="display: none;"\''
p4754
sS'IS_NOT_IN_DB'
p4755
S"<class 'gluon.validators.IS_NOT_IN_DB'>"
p4756
sS'student'
p4757
S"('Chen', ', ', 'Gary')"
p4758
sg3394
S"<Storage {'body': <cStringIO.StringO object at 0...x72e6cf8>, 'view': 'default/grades_report.html'}>"
p4759
sS'THEAD'
p4760
S"<class 'gluon.html.THEAD'>"
p4761
sS'IS_NULL_OR'
p4762
S"<class 'gluon.validators.IS_EMPTY_OR'>"
p4763
sS'left_sidebar_style'
p4764
S'\'style="display: none;"\''
p4765
sS'IS_FLOAT_IN_RANGE'
p4766
S"<class 'gluon.validators.IS_FLOAT_IN_RANGE'>"
p4767
sS'IS_EXPR'
p4768
S"<class 'gluon.validators.IS_EXPR'>"
p4769
sS'T'
S'<gluon.languages.translator object>'
p4770
sS'IS_IN_SET'
p4771
S"<class 'gluon.validators.IS_IN_SET'>"
p4772
sS'IS_UPLOAD_FILENAME'
p4773
S"<class 'gluon.validators.IS_UPLOAD_FILENAME'>"
p4774
sS'style_content'
p4775
S'\'style="width: 100%"\''
p4776
sS'IS_DECIMAL_IN_RANGE'
p4777
S"<class 'gluon.validators.IS_DECIMAL_IN_RANGE'>"
p4778
sssS'traceback'
p4779
S'Traceback (most recent call last):\n  File "/home/ian/web2py/gluon/restricted.py", line 194, in restricted\n    exec ccode in environment\n  File "/home/ian/web2py/applications/grades/views/default/grades_report.html", line 82, in <module>\nNameError: name \'ln\' is not defined\n'
p4780
s.