(dp1
S'output'
p2
S''
sS'layer'
p3
S'/home/ian/web2py/applications/grades/views/default/grades_report.load'
p4
sS'code'
p5
S'for c in grades:\n    response.write(\'\\n<h3>\', escape=False)\n    response.write(student)\n    response.write(\'</h3>\\n<ul>\\n<li>\', escape=False)\n    response.write(c)\n    response.write(\'</li>\\n\\n    <ul>\\n    \', escape=False)\n    for k,w in grades[c].items():\n        response.write(\'\\n    <li>\\n        \', escape=False)\n        response.write(k)\n        response.write(\':\\n        \', escape=False)\n        for s in w:\n            response.write(\'\\n        \', escape=False)\n            response.write(s)\n            response.write(\';\\n        \', escape=False)\n            pass\n        response.write(\'\\n    </li>\\n    \', escape=False)\n        pass\n    response.write(\'\\n    </ul>\\n\\n</ul>\\n\', escape=False)\n    pass\nresponse.write(\'\\n\\n\', escape=False)\nresponse.write(A(\'previous student\', _href=URL(\'grades_report.load\', args=(int(request.args[0])-1)), _class="prevnav" cid=\'viewpane\'))\nresponse.write(\'\\n\', escape=False)\nresponse.write(A(\'next student\', _href=URL(\'grades_report.load\', args=(int(request.args[0])+1)), _class="nextnav" cid=\'viewpane\'))'
p6
sS'snapshot'
p7
(dp8
S'exception'
p9
(dp10
S'__getslice__'
p11
S"<method-wrapper '__getslice__' of exceptions.SyntaxError object>"
p12
sS'text'
p13
S'\'response.write(A(\\\'previous student\\\', _href=URL(\\\'....args[0])-1)), _class="prevnav" cid=\\\'viewpane\\\'))\\n\''
p14
sS'__str__'
p15
S"<method-wrapper '__str__' of exceptions.SyntaxError object>"
p16
sS'__reduce__'
p17
S'<built-in method __reduce__ of exceptions.SyntaxError object>'
p18
sS'__dict__'
p19
S'{}'
p20
sS'__sizeof__'
p21
S'<built-in method __sizeof__ of exceptions.SyntaxError object>'
p22
sS'__init__'
p23
S"<method-wrapper '__init__' of exceptions.SyntaxError object>"
p24
sS'__setattr__'
p25
S"<method-wrapper '__setattr__' of exceptions.SyntaxError object>"
p26
sS'__reduce_ex__'
p27
S'<built-in method __reduce_ex__ of exceptions.SyntaxError object>'
p28
sS'__new__'
p29
S'<built-in method __new__ of type object>'
p30
sS'__format__'
p31
S'<built-in method __format__ of exceptions.SyntaxError object>'
p32
sS'__class__'
p33
S"<type 'exceptions.SyntaxError'>"
p34
sS'filename'
p35
S"'/home/ian/web2py/applications/grades/views/default/grades_report.load'"
p36
sS'lineno'
p37
S'21'
p38
sS'msg'
p39
S"'invalid syntax'"
p40
sS'__doc__'
p41
S"'Invalid syntax.'"
p42
sS'__getitem__'
p43
S"<method-wrapper '__getitem__' of exceptions.SyntaxError object>"
p44
sS'__setstate__'
p45
S'<built-in method __setstate__ of exceptions.SyntaxError object>'
p46
sS'__getattribute__'
p47
S"<method-wrapper '__getattribute__' of exceptions.SyntaxError object>"
p48
sS'print_file_and_line'
p49
S'None'
p50
sS'args'
p51
S'(\'invalid syntax\', (\'/home/ian/web2py/applications/grades/views/default/grades_report.load\', 21, 121, \'response.write(A(\\\'previous student\\\', _href=URL(\\\'....args[0])-1)), _class="prevnav" cid=\\\'viewpane\\\'))\\n\'))'
p52
sS'__subclasshook__'
p53
S'<built-in method __subclasshook__ of type object>'
p54
sS'offset'
p55
S'121'
p56
sS'__unicode__'
p57
S'<built-in method __unicode__ of exceptions.SyntaxError object>'
p58
sS'__delattr__'
p59
S"<method-wrapper '__delattr__' of exceptions.SyntaxError object>"
p60
sS'__repr__'
p61
S"<method-wrapper '__repr__' of exceptions.SyntaxError object>"
p62
sS'__hash__'
p63
S"<method-wrapper '__hash__' of exceptions.SyntaxError object>"
p64
ssS'evalue'
p65
S'invalid syntax (grades_report.load, line 21)'
p66
sS'request'
p67
ccopy_reg
_reconstructor
p68
(cgluon.html
BEAUTIFY
p69
c__builtin__
object
p70
NtRp71
(dp72
S'attributes'
p73
(dp74
sS'components'
p75
(lp76
g68
(cgluon.html
TABLE
p77
g70
NtRp78
(dp79
g73
(dp80
S'level'
p81
I5
ssS'parent'
p82
Nsg75
(lp83
g68
(cgluon.html
TR
p84
g70
NtRp85
(dp86
g73
(dp87
sg82
g78
sg75
(lp88
g68
(cgluon.html
TD
p89
g70
NtRp90
(dp91
g73
(dp92
S'_style'
p93
S'font-weight:bold;'
p94
ssg82
g85
sg75
(lp95
S'ajax'
p96
asbag68
(g89
g70
NtRp97
(dp98
g73
(dp99
S'_valign'
p100
S'top'
p101
ssg82
g85
sg75
(lp102
S':'
asbag68
(g89
g70
NtRp103
(dp104
g73
(dp105
sg82
g85
sg75
(lp106
g68
(g69
g70
NtRp107
(dp108
g73
(dp109
g81
I5
ssg82
g103
sg75
(lp110
S'True'
p111
asbasbasbag68
(g84
g70
NtRp112
(dp113
g73
(dp114
sg82
g78
sg75
(lp115
g68
(g89
g70
NtRp116
(dp117
g73
(dp118
g93
g94
ssg82
g112
sg75
(lp119
S'application'
p120
asbag68
(g89
g70
NtRp121
(dp122
g73
(dp123
g100
g101
ssg82
g112
sg75
(lp124
S':'
asbag68
(g89
g70
NtRp125
(dp126
g73
(dp127
sg82
g112
sg75
(lp128
g68
(g69
g70
NtRp129
(dp130
g73
(dp131
g81
I5
ssg82
g125
sg75
(lp132
S'grades'
p133
asbasbasbag68
(g84
g70
NtRp134
(dp135
g73
(dp136
sg82
g78
sg75
(lp137
g68
(g89
g70
NtRp138
(dp139
g73
(dp140
g93
g94
ssg82
g134
sg75
(lp141
g51
asbag68
(g89
g70
NtRp142
(dp143
g73
(dp144
g100
g101
ssg82
g134
sg75
(lp145
S':'
asbag68
(g89
g70
NtRp146
(dp147
g73
(dp148
sg82
g134
sg75
(lp149
g68
(g69
g70
NtRp150
(dp151
g73
(dp152
g81
I5
ssg82
g146
sg75
(lp153
g68
(g77
g70
NtRp154
(dp155
g73
(dp156
g81
I4
ssg82
Nsg75
(lp157
g68
(g84
g70
NtRp158
(dp159
g73
(dp160
sg82
g154
sg75
(lp161
g68
(g89
g70
NtRp162
(dp163
g73
(dp164
sg82
g158
sg75
(lp165
g68
(g69
g70
NtRp166
(dp167
g73
(dp168
g81
I4
ssg82
g162
sg75
(lp169
S'19'
p170
asbasbasbasbasbasbasbag68
(g84
g70
NtRp171
(dp172
g73
(dp173
sg82
g78
sg75
(lp174
g68
(g89
g70
NtRp175
(dp176
g73
(dp177
g93
g94
ssg82
g171
sg75
(lp178
S'body'
p179
asbag68
(g89
g70
NtRp180
(dp181
g73
(dp182
g100
g101
ssg82
g171
sg75
(lp183
S':'
asbag68
(g89
g70
NtRp184
(dp185
g73
(dp186
sg82
g171
sg75
(lp187
g68
(g69
g70
NtRp188
(dp189
g73
(dp190
g81
I5
ssg82
g184
sg75
(lp191
S'<cStringIO.StringO object at 0x8dd7650>'
p192
asbasbasbag68
(g84
g70
NtRp193
(dp194
g73
(dp195
sg82
g78
sg75
(lp196
g68
(g89
g70
NtRp197
(dp198
g73
(dp199
g93
g94
ssg82
g193
sg75
(lp200
S'cid'
p201
asbag68
(g89
g70
NtRp202
(dp203
g73
(dp204
g100
g101
ssg82
g193
sg75
(lp205
S':'
asbag68
(g89
g70
NtRp206
(dp207
g73
(dp208
sg82
g193
sg75
(lp209
g68
(g69
g70
NtRp210
(dp211
g73
(dp212
g81
I5
ssg82
g206
sg75
(lp213
S'viewpane'
p214
asbasbasbag68
(g84
g70
NtRp215
(dp216
g73
(dp217
sg82
g78
sg75
(lp218
g68
(g89
g70
NtRp219
(dp220
g73
(dp221
g93
g94
ssg82
g215
sg75
(lp222
S'client'
p223
asbag68
(g89
g70
NtRp224
(dp225
g73
(dp226
g100
g101
ssg82
g215
sg75
(lp227
S':'
asbag68
(g89
g70
NtRp228
(dp229
g73
(dp230
sg82
g215
sg75
(lp231
g68
(g69
g70
NtRp232
(dp233
g73
(dp234
g81
I5
ssg82
g228
sg75
(lp235
S'127.0.0.1'
p236
asbasbasbag68
(g84
g70
NtRp237
(dp238
g73
(dp239
sg82
g78
sg75
(lp240
g68
(g89
g70
NtRp241
(dp242
g73
(dp243
g93
g94
ssg82
g237
sg75
(lp244
S'controller'
p245
asbag68
(g89
g70
NtRp246
(dp247
g73
(dp248
g100
g101
ssg82
g237
sg75
(lp249
S':'
asbag68
(g89
g70
NtRp250
(dp251
g73
(dp252
sg82
g237
sg75
(lp253
g68
(g69
g70
NtRp254
(dp255
g73
(dp256
g81
I5
ssg82
g250
sg75
(lp257
S'default'
p258
asbasbasbag68
(g84
g70
NtRp259
(dp260
g73
(dp261
sg82
g78
sg75
(lp262
g68
(g89
g70
NtRp263
(dp264
g73
(dp265
g93
g94
ssg82
g259
sg75
(lp266
S'cookies'
p267
asbag68
(g89
g70
NtRp268
(dp269
g73
(dp270
g100
g101
ssg82
g259
sg75
(lp271
S':'
asbag68
(g89
g70
NtRp272
(dp273
g73
(dp274
sg82
g259
sg75
(lp275
g68
(g69
g70
NtRp276
(dp277
g73
(dp278
g81
I5
ssg82
g272
sg75
(lp279
g68
(g77
g70
NtRp280
(dp281
g73
(dp282
g81
I4
ssg82
Nsg75
(lp283
g68
(g84
g70
NtRp284
(dp285
g73
(dp286
sg82
g280
sg75
(lp287
g68
(g89
g70
NtRp288
(dp289
g73
(dp290
g93
g94
ssg82
g284
sg75
(lp291
S'session_id_admin'
p292
asbag68
(g89
g70
NtRp293
(dp294
g73
(dp295
g100
g101
ssg82
g284
sg75
(lp296
S':'
asbag68
(g89
g70
NtRp297
(dp298
g73
(dp299
sg82
g284
sg75
(lp300
g68
(g69
g70
NtRp301
(dp302
g73
(dp303
g81
I4
ssg82
g297
sg75
(lp304
g68
(g77
g70
NtRp305
(dp306
g73
(dp307
g81
I3
ssg82
Nsg75
(lp308
g68
(g84
g70
NtRp309
(dp310
g73
(dp311
sg82
g305
sg75
(lp312
g68
(g89
g70
NtRp313
(dp314
g73
(dp315
g93
g94
ssg82
g309
sg75
(lp316
S'comment'
p317
asbag68
(g89
g70
NtRp318
(dp319
g73
(dp320
g100
g101
ssg82
g309
sg75
(lp321
S':'
asbag68
(g89
g70
NtRp322
(dp323
g73
(dp324
sg82
g309
sg75
(lp325
g68
(g69
g70
NtRp326
(dp327
g73
(dp328
g81
I3
ssg82
g322
sg75
(lp329
S''
asbasbasbag68
(g84
g70
NtRp330
(dp331
g73
(dp332
sg82
g305
sg75
(lp333
g68
(g89
g70
NtRp334
(dp335
g73
(dp336
g93
g94
ssg82
g330
sg75
(lp337
S'domain'
p338
asbag68
(g89
g70
NtRp339
(dp340
g73
(dp341
g100
g101
ssg82
g330
sg75
(lp342
S':'
asbag68
(g89
g70
NtRp343
(dp344
g73
(dp345
sg82
g330
sg75
(lp346
g68
(g69
g70
NtRp347
(dp348
g73
(dp349
g81
I3
ssg82
g343
sg75
(lp350
S''
asbasbasbag68
(g84
g70
NtRp351
(dp352
g73
(dp353
sg82
g305
sg75
(lp354
g68
(g89
g70
NtRp355
(dp356
g73
(dp357
g93
g94
ssg82
g351
sg75
(lp358
S'expires'
p359
asbag68
(g89
g70
NtRp360
(dp361
g73
(dp362
g100
g101
ssg82
g351
sg75
(lp363
S':'
asbag68
(g89
g70
NtRp364
(dp365
g73
(dp366
sg82
g351
sg75
(lp367
g68
(g69
g70
NtRp368
(dp369
g73
(dp370
g81
I3
ssg82
g364
sg75
(lp371
S''
asbasbasbag68
(g84
g70
NtRp372
(dp373
g73
(dp374
sg82
g305
sg75
(lp375
g68
(g89
g70
NtRp376
(dp377
g73
(dp378
g93
g94
ssg82
g372
sg75
(lp379
S'httponly'
p380
asbag68
(g89
g70
NtRp381
(dp382
g73
(dp383
g100
g101
ssg82
g372
sg75
(lp384
S':'
asbag68
(g89
g70
NtRp385
(dp386
g73
(dp387
sg82
g372
sg75
(lp388
g68
(g69
g70
NtRp389
(dp390
g73
(dp391
g81
I3
ssg82
g385
sg75
(lp392
S''
asbasbasbag68
(g84
g70
NtRp393
(dp394
g73
(dp395
sg82
g305
sg75
(lp396
g68
(g89
g70
NtRp397
(dp398
g73
(dp399
g93
g94
ssg82
g393
sg75
(lp400
S'max-age'
p401
asbag68
(g89
g70
NtRp402
(dp403
g73
(dp404
g100
g101
ssg82
g393
sg75
(lp405
S':'
asbag68
(g89
g70
NtRp406
(dp407
g73
(dp408
sg82
g393
sg75
(lp409
g68
(g69
g70
NtRp410
(dp411
g73
(dp412
g81
I3
ssg82
g406
sg75
(lp413
S''
asbasbasbag68
(g84
g70
NtRp414
(dp415
g73
(dp416
sg82
g305
sg75
(lp417
g68
(g89
g70
NtRp418
(dp419
g73
(dp420
g93
g94
ssg82
g414
sg75
(lp421
S'path'
p422
asbag68
(g89
g70
NtRp423
(dp424
g73
(dp425
g100
g101
ssg82
g414
sg75
(lp426
S':'
asbag68
(g89
g70
NtRp427
(dp428
g73
(dp429
sg82
g414
sg75
(lp430
g68
(g69
g70
NtRp431
(dp432
g73
(dp433
g81
I3
ssg82
g427
sg75
(lp434
S''
asbasbasbag68
(g84
g70
NtRp435
(dp436
g73
(dp437
sg82
g305
sg75
(lp438
g68
(g89
g70
NtRp439
(dp440
g73
(dp441
g93
g94
ssg82
g435
sg75
(lp442
S'secure'
p443
asbag68
(g89
g70
NtRp444
(dp445
g73
(dp446
g100
g101
ssg82
g435
sg75
(lp447
S':'
asbag68
(g89
g70
NtRp448
(dp449
g73
(dp450
sg82
g435
sg75
(lp451
g68
(g69
g70
NtRp452
(dp453
g73
(dp454
g81
I3
ssg82
g448
sg75
(lp455
S''
asbasbasbag68
(g84
g70
NtRp456
(dp457
g73
(dp458
sg82
g305
sg75
(lp459
g68
(g89
g70
NtRp460
(dp461
g73
(dp462
g93
g94
ssg82
g456
sg75
(lp463
S'version'
p464
asbag68
(g89
g70
NtRp465
(dp466
g73
(dp467
g100
g101
ssg82
g456
sg75
(lp468
S':'
asbag68
(g89
g70
NtRp469
(dp470
g73
(dp471
sg82
g456
sg75
(lp472
g68
(g69
g70
NtRp473
(dp474
g73
(dp475
g81
I3
ssg82
g469
sg75
(lp476
S''
asbasbasbasbasbasbasbag68
(g84
g70
NtRp477
(dp478
g73
(dp479
sg82
g280
sg75
(lp480
g68
(g89
g70
NtRp481
(dp482
g73
(dp483
g93
g94
ssg82
g477
sg75
(lp484
S'session_id_grades'
p485
asbag68
(g89
g70
NtRp486
(dp487
g73
(dp488
g100
g101
ssg82
g477
sg75
(lp489
S':'
asbag68
(g89
g70
NtRp490
(dp491
g73
(dp492
sg82
g477
sg75
(lp493
g68
(g69
g70
NtRp494
(dp495
g73
(dp496
g81
I4
ssg82
g490
sg75
(lp497
g68
(g77
g70
NtRp498
(dp499
g73
(dp500
g81
I3
ssg82
Nsg75
(lp501
g68
(g84
g70
NtRp502
(dp503
g73
(dp504
sg82
g498
sg75
(lp505
g68
(g89
g70
NtRp506
(dp507
g73
(dp508
g93
g94
ssg82
g502
sg75
(lp509
g317
asbag68
(g89
g70
NtRp510
(dp511
g73
(dp512
g100
g101
ssg82
g502
sg75
(lp513
S':'
asbag68
(g89
g70
NtRp514
(dp515
g73
(dp516
sg82
g502
sg75
(lp517
g68
(g69
g70
NtRp518
(dp519
g73
(dp520
g81
I3
ssg82
g514
sg75
(lp521
S''
asbasbasbag68
(g84
g70
NtRp522
(dp523
g73
(dp524
sg82
g498
sg75
(lp525
g68
(g89
g70
NtRp526
(dp527
g73
(dp528
g93
g94
ssg82
g522
sg75
(lp529
g338
asbag68
(g89
g70
NtRp530
(dp531
g73
(dp532
g100
g101
ssg82
g522
sg75
(lp533
S':'
asbag68
(g89
g70
NtRp534
(dp535
g73
(dp536
sg82
g522
sg75
(lp537
g68
(g69
g70
NtRp538
(dp539
g73
(dp540
g81
I3
ssg82
g534
sg75
(lp541
S''
asbasbasbag68
(g84
g70
NtRp542
(dp543
g73
(dp544
sg82
g498
sg75
(lp545
g68
(g89
g70
NtRp546
(dp547
g73
(dp548
g93
g94
ssg82
g542
sg75
(lp549
g359
asbag68
(g89
g70
NtRp550
(dp551
g73
(dp552
g100
g101
ssg82
g542
sg75
(lp553
S':'
asbag68
(g89
g70
NtRp554
(dp555
g73
(dp556
sg82
g542
sg75
(lp557
g68
(g69
g70
NtRp558
(dp559
g73
(dp560
g81
I3
ssg82
g554
sg75
(lp561
S''
asbasbasbag68
(g84
g70
NtRp562
(dp563
g73
(dp564
sg82
g498
sg75
(lp565
g68
(g89
g70
NtRp566
(dp567
g73
(dp568
g93
g94
ssg82
g562
sg75
(lp569
g380
asbag68
(g89
g70
NtRp570
(dp571
g73
(dp572
g100
g101
ssg82
g562
sg75
(lp573
S':'
asbag68
(g89
g70
NtRp574
(dp575
g73
(dp576
sg82
g562
sg75
(lp577
g68
(g69
g70
NtRp578
(dp579
g73
(dp580
g81
I3
ssg82
g574
sg75
(lp581
S''
asbasbasbag68
(g84
g70
NtRp582
(dp583
g73
(dp584
sg82
g498
sg75
(lp585
g68
(g89
g70
NtRp586
(dp587
g73
(dp588
g93
g94
ssg82
g582
sg75
(lp589
g401
asbag68
(g89
g70
NtRp590
(dp591
g73
(dp592
g100
g101
ssg82
g582
sg75
(lp593
S':'
asbag68
(g89
g70
NtRp594
(dp595
g73
(dp596
sg82
g582
sg75
(lp597
g68
(g69
g70
NtRp598
(dp599
g73
(dp600
g81
I3
ssg82
g594
sg75
(lp601
S''
asbasbasbag68
(g84
g70
NtRp602
(dp603
g73
(dp604
sg82
g498
sg75
(lp605
g68
(g89
g70
NtRp606
(dp607
g73
(dp608
g93
g94
ssg82
g602
sg75
(lp609
g422
asbag68
(g89
g70
NtRp610
(dp611
g73
(dp612
g100
g101
ssg82
g602
sg75
(lp613
S':'
asbag68
(g89
g70
NtRp614
(dp615
g73
(dp616
sg82
g602
sg75
(lp617
g68
(g69
g70
NtRp618
(dp619
g73
(dp620
g81
I3
ssg82
g614
sg75
(lp621
S''
asbasbasbag68
(g84
g70
NtRp622
(dp623
g73
(dp624
sg82
g498
sg75
(lp625
g68
(g89
g70
NtRp626
(dp627
g73
(dp628
g93
g94
ssg82
g622
sg75
(lp629
g443
asbag68
(g89
g70
NtRp630
(dp631
g73
(dp632
g100
g101
ssg82
g622
sg75
(lp633
S':'
asbag68
(g89
g70
NtRp634
(dp635
g73
(dp636
sg82
g622
sg75
(lp637
g68
(g69
g70
NtRp638
(dp639
g73
(dp640
g81
I3
ssg82
g634
sg75
(lp641
S''
asbasbasbag68
(g84
g70
NtRp642
(dp643
g73
(dp644
sg82
g498
sg75
(lp645
g68
(g89
g70
NtRp646
(dp647
g73
(dp648
g93
g94
ssg82
g642
sg75
(lp649
g464
asbag68
(g89
g70
NtRp650
(dp651
g73
(dp652
g100
g101
ssg82
g642
sg75
(lp653
S':'
asbag68
(g89
g70
NtRp654
(dp655
g73
(dp656
sg82
g642
sg75
(lp657
g68
(g69
g70
NtRp658
(dp659
g73
(dp660
g81
I3
ssg82
g654
sg75
(lp661
S''
asbasbasbasbasbasbasbag68
(g84
g70
NtRp662
(dp663
g73
(dp664
sg82
g280
sg75
(lp665
g68
(g89
g70
NtRp666
(dp667
g73
(dp668
g93
g94
ssg82
g662
sg75
(lp669
S'session_id_paideia'
p670
asbag68
(g89
g70
NtRp671
(dp672
g73
(dp673
g100
g101
ssg82
g662
sg75
(lp674
S':'
asbag68
(g89
g70
NtRp675
(dp676
g73
(dp677
sg82
g662
sg75
(lp678
g68
(g69
g70
NtRp679
(dp680
g73
(dp681
g81
I4
ssg82
g675
sg75
(lp682
g68
(g77
g70
NtRp683
(dp684
g73
(dp685
g81
I3
ssg82
Nsg75
(lp686
g68
(g84
g70
NtRp687
(dp688
g73
(dp689
sg82
g683
sg75
(lp690
g68
(g89
g70
NtRp691
(dp692
g73
(dp693
g93
g94
ssg82
g687
sg75
(lp694
g317
asbag68
(g89
g70
NtRp695
(dp696
g73
(dp697
g100
g101
ssg82
g687
sg75
(lp698
S':'
asbag68
(g89
g70
NtRp699
(dp700
g73
(dp701
sg82
g687
sg75
(lp702
g68
(g69
g70
NtRp703
(dp704
g73
(dp705
g81
I3
ssg82
g699
sg75
(lp706
S''
asbasbasbag68
(g84
g70
NtRp707
(dp708
g73
(dp709
sg82
g683
sg75
(lp710
g68
(g89
g70
NtRp711
(dp712
g73
(dp713
g93
g94
ssg82
g707
sg75
(lp714
g338
asbag68
(g89
g70
NtRp715
(dp716
g73
(dp717
g100
g101
ssg82
g707
sg75
(lp718
S':'
asbag68
(g89
g70
NtRp719
(dp720
g73
(dp721
sg82
g707
sg75
(lp722
g68
(g69
g70
NtRp723
(dp724
g73
(dp725
g81
I3
ssg82
g719
sg75
(lp726
S''
asbasbasbag68
(g84
g70
NtRp727
(dp728
g73
(dp729
sg82
g683
sg75
(lp730
g68
(g89
g70
NtRp731
(dp732
g73
(dp733
g93
g94
ssg82
g727
sg75
(lp734
g359
asbag68
(g89
g70
NtRp735
(dp736
g73
(dp737
g100
g101
ssg82
g727
sg75
(lp738
S':'
asbag68
(g89
g70
NtRp739
(dp740
g73
(dp741
sg82
g727
sg75
(lp742
g68
(g69
g70
NtRp743
(dp744
g73
(dp745
g81
I3
ssg82
g739
sg75
(lp746
S''
asbasbasbag68
(g84
g70
NtRp747
(dp748
g73
(dp749
sg82
g683
sg75
(lp750
g68
(g89
g70
NtRp751
(dp752
g73
(dp753
g93
g94
ssg82
g747
sg75
(lp754
g380
asbag68
(g89
g70
NtRp755
(dp756
g73
(dp757
g100
g101
ssg82
g747
sg75
(lp758
S':'
asbag68
(g89
g70
NtRp759
(dp760
g73
(dp761
sg82
g747
sg75
(lp762
g68
(g69
g70
NtRp763
(dp764
g73
(dp765
g81
I3
ssg82
g759
sg75
(lp766
S''
asbasbasbag68
(g84
g70
NtRp767
(dp768
g73
(dp769
sg82
g683
sg75
(lp770
g68
(g89
g70
NtRp771
(dp772
g73
(dp773
g93
g94
ssg82
g767
sg75
(lp774
g401
asbag68
(g89
g70
NtRp775
(dp776
g73
(dp777
g100
g101
ssg82
g767
sg75
(lp778
S':'
asbag68
(g89
g70
NtRp779
(dp780
g73
(dp781
sg82
g767
sg75
(lp782
g68
(g69
g70
NtRp783
(dp784
g73
(dp785
g81
I3
ssg82
g779
sg75
(lp786
S''
asbasbasbag68
(g84
g70
NtRp787
(dp788
g73
(dp789
sg82
g683
sg75
(lp790
g68
(g89
g70
NtRp791
(dp792
g73
(dp793
g93
g94
ssg82
g787
sg75
(lp794
g422
asbag68
(g89
g70
NtRp795
(dp796
g73
(dp797
g100
g101
ssg82
g787
sg75
(lp798
S':'
asbag68
(g89
g70
NtRp799
(dp800
g73
(dp801
sg82
g787
sg75
(lp802
g68
(g69
g70
NtRp803
(dp804
g73
(dp805
g81
I3
ssg82
g799
sg75
(lp806
S''
asbasbasbag68
(g84
g70
NtRp807
(dp808
g73
(dp809
sg82
g683
sg75
(lp810
g68
(g89
g70
NtRp811
(dp812
g73
(dp813
g93
g94
ssg82
g807
sg75
(lp814
g443
asbag68
(g89
g70
NtRp815
(dp816
g73
(dp817
g100
g101
ssg82
g807
sg75
(lp818
S':'
asbag68
(g89
g70
NtRp819
(dp820
g73
(dp821
sg82
g807
sg75
(lp822
g68
(g69
g70
NtRp823
(dp824
g73
(dp825
g81
I3
ssg82
g819
sg75
(lp826
S''
asbasbasbag68
(g84
g70
NtRp827
(dp828
g73
(dp829
sg82
g683
sg75
(lp830
g68
(g89
g70
NtRp831
(dp832
g73
(dp833
g93
g94
ssg82
g827
sg75
(lp834
g464
asbag68
(g89
g70
NtRp835
(dp836
g73
(dp837
g100
g101
ssg82
g827
sg75
(lp838
S':'
asbag68
(g89
g70
NtRp839
(dp840
g73
(dp841
sg82
g827
sg75
(lp842
g68
(g69
g70
NtRp843
(dp844
g73
(dp845
g81
I3
ssg82
g839
sg75
(lp846
S''
asbasbasbasbasbasbasbag68
(g84
g70
NtRp847
(dp848
g73
(dp849
sg82
g280
sg75
(lp850
g68
(g89
g70
NtRp851
(dp852
g73
(dp853
g93
g94
ssg82
g847
sg75
(lp854
S'session_id_welcome'
p855
asbag68
(g89
g70
NtRp856
(dp857
g73
(dp858
g100
g101
ssg82
g847
sg75
(lp859
S':'
asbag68
(g89
g70
NtRp860
(dp861
g73
(dp862
sg82
g847
sg75
(lp863
g68
(g69
g70
NtRp864
(dp865
g73
(dp866
g81
I4
ssg82
g860
sg75
(lp867
g68
(g77
g70
NtRp868
(dp869
g73
(dp870
g81
I3
ssg82
Nsg75
(lp871
g68
(g84
g70
NtRp872
(dp873
g73
(dp874
sg82
g868
sg75
(lp875
g68
(g89
g70
NtRp876
(dp877
g73
(dp878
g93
g94
ssg82
g872
sg75
(lp879
g317
asbag68
(g89
g70
NtRp880
(dp881
g73
(dp882
g100
g101
ssg82
g872
sg75
(lp883
S':'
asbag68
(g89
g70
NtRp884
(dp885
g73
(dp886
sg82
g872
sg75
(lp887
g68
(g69
g70
NtRp888
(dp889
g73
(dp890
g81
I3
ssg82
g884
sg75
(lp891
S''
asbasbasbag68
(g84
g70
NtRp892
(dp893
g73
(dp894
sg82
g868
sg75
(lp895
g68
(g89
g70
NtRp896
(dp897
g73
(dp898
g93
g94
ssg82
g892
sg75
(lp899
g338
asbag68
(g89
g70
NtRp900
(dp901
g73
(dp902
g100
g101
ssg82
g892
sg75
(lp903
S':'
asbag68
(g89
g70
NtRp904
(dp905
g73
(dp906
sg82
g892
sg75
(lp907
g68
(g69
g70
NtRp908
(dp909
g73
(dp910
g81
I3
ssg82
g904
sg75
(lp911
S''
asbasbasbag68
(g84
g70
NtRp912
(dp913
g73
(dp914
sg82
g868
sg75
(lp915
g68
(g89
g70
NtRp916
(dp917
g73
(dp918
g93
g94
ssg82
g912
sg75
(lp919
g359
asbag68
(g89
g70
NtRp920
(dp921
g73
(dp922
g100
g101
ssg82
g912
sg75
(lp923
S':'
asbag68
(g89
g70
NtRp924
(dp925
g73
(dp926
sg82
g912
sg75
(lp927
g68
(g69
g70
NtRp928
(dp929
g73
(dp930
g81
I3
ssg82
g924
sg75
(lp931
S''
asbasbasbag68
(g84
g70
NtRp932
(dp933
g73
(dp934
sg82
g868
sg75
(lp935
g68
(g89
g70
NtRp936
(dp937
g73
(dp938
g93
g94
ssg82
g932
sg75
(lp939
g380
asbag68
(g89
g70
NtRp940
(dp941
g73
(dp942
g100
g101
ssg82
g932
sg75
(lp943
S':'
asbag68
(g89
g70
NtRp944
(dp945
g73
(dp946
sg82
g932
sg75
(lp947
g68
(g69
g70
NtRp948
(dp949
g73
(dp950
g81
I3
ssg82
g944
sg75
(lp951
S''
asbasbasbag68
(g84
g70
NtRp952
(dp953
g73
(dp954
sg82
g868
sg75
(lp955
g68
(g89
g70
NtRp956
(dp957
g73
(dp958
g93
g94
ssg82
g952
sg75
(lp959
g401
asbag68
(g89
g70
NtRp960
(dp961
g73
(dp962
g100
g101
ssg82
g952
sg75
(lp963
S':'
asbag68
(g89
g70
NtRp964
(dp965
g73
(dp966
sg82
g952
sg75
(lp967
g68
(g69
g70
NtRp968
(dp969
g73
(dp970
g81
I3
ssg82
g964
sg75
(lp971
S''
asbasbasbag68
(g84
g70
NtRp972
(dp973
g73
(dp974
sg82
g868
sg75
(lp975
g68
(g89
g70
NtRp976
(dp977
g73
(dp978
g93
g94
ssg82
g972
sg75
(lp979
g422
asbag68
(g89
g70
NtRp980
(dp981
g73
(dp982
g100
g101
ssg82
g972
sg75
(lp983
S':'
asbag68
(g89
g70
NtRp984
(dp985
g73
(dp986
sg82
g972
sg75
(lp987
g68
(g69
g70
NtRp988
(dp989
g73
(dp990
g81
I3
ssg82
g984
sg75
(lp991
S''
asbasbasbag68
(g84
g70
NtRp992
(dp993
g73
(dp994
sg82
g868
sg75
(lp995
g68
(g89
g70
NtRp996
(dp997
g73
(dp998
g93
g94
ssg82
g992
sg75
(lp999
g443
asbag68
(g89
g70
NtRp1000
(dp1001
g73
(dp1002
g100
g101
ssg82
g992
sg75
(lp1003
S':'
asbag68
(g89
g70
NtRp1004
(dp1005
g73
(dp1006
sg82
g992
sg75
(lp1007
g68
(g69
g70
NtRp1008
(dp1009
g73
(dp1010
g81
I3
ssg82
g1004
sg75
(lp1011
S''
asbasbasbag68
(g84
g70
NtRp1012
(dp1013
g73
(dp1014
sg82
g868
sg75
(lp1015
g68
(g89
g70
NtRp1016
(dp1017
g73
(dp1018
g93
g94
ssg82
g1012
sg75
(lp1019
g464
asbag68
(g89
g70
NtRp1020
(dp1021
g73
(dp1022
g100
g101
ssg82
g1012
sg75
(lp1023
S':'
asbag68
(g89
g70
NtRp1024
(dp1025
g73
(dp1026
sg82
g1012
sg75
(lp1027
g68
(g69
g70
NtRp1028
(dp1029
g73
(dp1030
g81
I3
ssg82
g1024
sg75
(lp1031
S''
asbasbasbasbasbasbasbasbasbasbasbag68
(g84
g70
NtRp1032
(dp1033
g73
(dp1034
sg82
g78
sg75
(lp1035
g68
(g89
g70
NtRp1036
(dp1037
g73
(dp1038
g93
g94
ssg82
g1032
sg75
(lp1039
S'env'
p1040
asbag68
(g89
g70
NtRp1041
(dp1042
g73
(dp1043
g100
g101
ssg82
g1032
sg75
(lp1044
S':'
asbag68
(g89
g70
NtRp1045
(dp1046
g73
(dp1047
sg82
g1032
sg75
(lp1048
g68
(g69
g70
NtRp1049
(dp1050
g73
(dp1051
g81
I5
ssg82
g1045
sg75
(lp1052
g68
(g77
g70
NtRp1053
(dp1054
g73
(dp1055
g81
I4
ssg82
Nsg75
(lp1056
g68
(g84
g70
NtRp1057
(dp1058
g73
(dp1059
sg82
g1053
sg75
(lp1060
g68
(g89
g70
NtRp1061
(dp1062
g73
(dp1063
g93
g94
ssg82
g1057
sg75
(lp1064
S'app_folders'
p1065
asbag68
(g89
g70
NtRp1066
(dp1067
g73
(dp1068
g100
g101
ssg82
g1057
sg75
(lp1069
S':'
asbag68
(g89
g70
NtRp1070
(dp1071
g73
(dp1072
sg82
g1057
sg75
(lp1073
g68
(g69
g70
NtRp1074
(dp1075
g73
(dp1076
g81
I4
ssg82
g1070
sg75
(lp1077
S"set(['/home/ian/web2py/applications/welcome/', '/home/ian/web2py/applications/grades/', '/home/ian/web2py/applications/admin/'])"
p1078
asbasbasbag68
(g84
g70
NtRp1079
(dp1080
g73
(dp1081
sg82
g1053
sg75
(lp1082
g68
(g89
g70
NtRp1083
(dp1084
g73
(dp1085
g93
g94
ssg82
g1079
sg75
(lp1086
S'applications_parent'
p1087
asbag68
(g89
g70
NtRp1088
(dp1089
g73
(dp1090
g100
g101
ssg82
g1079
sg75
(lp1091
S':'
asbag68
(g89
g70
NtRp1092
(dp1093
g73
(dp1094
sg82
g1079
sg75
(lp1095
g68
(g69
g70
NtRp1096
(dp1097
g73
(dp1098
g81
I4
ssg82
g1092
sg75
(lp1099
S'/home/ian/web2py'
p1100
asbasbasbag68
(g84
g70
NtRp1101
(dp1102
g73
(dp1103
sg82
g1053
sg75
(lp1104
g68
(g89
g70
NtRp1105
(dp1106
g73
(dp1107
g93
g94
ssg82
g1101
sg75
(lp1108
S'cmd_args'
p1109
asbag68
(g89
g70
NtRp1110
(dp1111
g73
(dp1112
g100
g101
ssg82
g1101
sg75
(lp1113
S':'
asbag68
(g89
g70
NtRp1114
(dp1115
g73
(dp1116
sg82
g1101
sg75
(lp1117
g68
(g69
g70
NtRp1118
(dp1119
g73
(dp1120
g81
I4
ssg82
g1114
sg75
(lp1121
g68
(g77
g70
NtRp1122
(dp1123
g73
(dp1124
g81
I3
ssg82
Nsg75
(lp1125
sbasbasbasbag68
(g84
g70
NtRp1126
(dp1127
g73
(dp1128
sg82
g1053
sg75
(lp1129
g68
(g89
g70
NtRp1130
(dp1131
g73
(dp1132
g93
g94
ssg82
g1126
sg75
(lp1133
S'cmd_options'
p1134
asbag68
(g89
g70
NtRp1135
(dp1136
g73
(dp1137
g100
g101
ssg82
g1126
sg75
(lp1138
S':'
asbag68
(g89
g70
NtRp1139
(dp1140
g73
(dp1141
sg82
g1126
sg75
(lp1142
g68
(g69
g70
NtRp1143
(dp1144
g73
(dp1145
g81
I4
ssg82
g1139
sg75
(lp1146
S"<Values at 0x2331758: {'verbose': False, 'ip': '127.0.0.1', 'shutdown_timeout': 5, 'taskbar': False, 'nocron': False, 'pid_filename': 'httpserver.pid', 'maxthreads': None, 'softcron': False, 'server_name': 'uriel', 'bpython': False, 'nogui': False, 'port': 8000, 'extcron': False, 'debuglevel': 30, 'test': None, 'folder': '/home/ian/web2py', 'config': '', 'import_models': False, 'winservice': '', 'shell': None, 'run': '', 'log_filename': 'httpserver.log', 'args': [''], 'ssl_ca_certificate': None, 'scheduler': None, 'profiler_filename': None, 'ssl_private_key': '', 'password': '<ask>', 'request_queue_size': 5, 'ssl_certificate': '', 'cronjob': False, 'plain': False, 'quiet': False, 'interfaces': None, 'minthreads': None, 'timeout': 10, 'numthreads': None, 'nobanner': False}>"
p1147
asbasbasbag68
(g84
g70
NtRp1148
(dp1149
g73
(dp1150
sg82
g1053
sg75
(lp1151
g68
(g89
g70
NtRp1152
(dp1153
g73
(dp1154
g93
g94
ssg82
g1148
sg75
(lp1155
S'db_sessions'
p1156
asbag68
(g89
g70
NtRp1157
(dp1158
g73
(dp1159
g100
g101
ssg82
g1148
sg75
(lp1160
S':'
asbag68
(g89
g70
NtRp1161
(dp1162
g73
(dp1163
sg82
g1148
sg75
(lp1164
g68
(g69
g70
NtRp1165
(dp1166
g73
(dp1167
g81
I4
ssg82
g1161
sg75
(lp1168
S'set([])'
p1169
asbasbasbag68
(g84
g70
NtRp1170
(dp1171
g73
(dp1172
sg82
g1053
sg75
(lp1173
g68
(g89
g70
NtRp1174
(dp1175
g73
(dp1176
g93
g94
ssg82
g1170
sg75
(lp1177
S'debugging'
p1178
asbag68
(g89
g70
NtRp1179
(dp1180
g73
(dp1181
g100
g101
ssg82
g1170
sg75
(lp1182
S':'
asbag68
(g89
g70
NtRp1183
(dp1184
g73
(dp1185
sg82
g1170
sg75
(lp1186
g68
(g69
g70
NtRp1187
(dp1188
g73
(dp1189
g81
I4
ssg82
g1183
sg75
(lp1190
S'False'
p1191
asbasbasbag68
(g84
g70
NtRp1192
(dp1193
g73
(dp1194
sg82
g1053
sg75
(lp1195
g68
(g89
g70
NtRp1196
(dp1197
g73
(dp1198
g93
g94
ssg82
g1192
sg75
(lp1199
S'gluon_parent'
p1200
asbag68
(g89
g70
NtRp1201
(dp1202
g73
(dp1203
g100
g101
ssg82
g1192
sg75
(lp1204
S':'
asbag68
(g89
g70
NtRp1205
(dp1206
g73
(dp1207
sg82
g1192
sg75
(lp1208
g68
(g69
g70
NtRp1209
(dp1210
g73
(dp1211
g81
I4
ssg82
g1205
sg75
(lp1212
S'/home/ian/web2py'
p1213
asbasbasbag68
(g84
g70
NtRp1214
(dp1215
g73
(dp1216
sg82
g1053
sg75
(lp1217
g68
(g89
g70
NtRp1218
(dp1219
g73
(dp1220
g93
g94
ssg82
g1214
sg75
(lp1221
S'http_accept'
p1222
asbag68
(g89
g70
NtRp1223
(dp1224
g73
(dp1225
g100
g101
ssg82
g1214
sg75
(lp1226
S':'
asbag68
(g89
g70
NtRp1227
(dp1228
g73
(dp1229
sg82
g1214
sg75
(lp1230
g68
(g69
g70
NtRp1231
(dp1232
g73
(dp1233
g81
I4
ssg82
g1227
sg75
(lp1234
S'*/*'
p1235
asbasbasbag68
(g84
g70
NtRp1236
(dp1237
g73
(dp1238
sg82
g1053
sg75
(lp1239
g68
(g89
g70
NtRp1240
(dp1241
g73
(dp1242
g93
g94
ssg82
g1236
sg75
(lp1243
S'http_accept_encoding'
p1244
asbag68
(g89
g70
NtRp1245
(dp1246
g73
(dp1247
g100
g101
ssg82
g1236
sg75
(lp1248
S':'
asbag68
(g89
g70
NtRp1249
(dp1250
g73
(dp1251
sg82
g1236
sg75
(lp1252
g68
(g69
g70
NtRp1253
(dp1254
g73
(dp1255
g81
I4
ssg82
g1249
sg75
(lp1256
S'gzip, deflate'
p1257
asbasbasbag68
(g84
g70
NtRp1258
(dp1259
g73
(dp1260
sg82
g1053
sg75
(lp1261
g68
(g89
g70
NtRp1262
(dp1263
g73
(dp1264
g93
g94
ssg82
g1258
sg75
(lp1265
S'http_accept_language'
p1266
asbag68
(g89
g70
NtRp1267
(dp1268
g73
(dp1269
g100
g101
ssg82
g1258
sg75
(lp1270
S':'
asbag68
(g89
g70
NtRp1271
(dp1272
g73
(dp1273
sg82
g1258
sg75
(lp1274
g68
(g69
g70
NtRp1275
(dp1276
g73
(dp1277
g81
I4
ssg82
g1271
sg75
(lp1278
S'en-us,en;q=0.5'
p1279
asbasbasbag68
(g84
g70
NtRp1280
(dp1281
g73
(dp1282
sg82
g1053
sg75
(lp1283
g68
(g89
g70
NtRp1284
(dp1285
g73
(dp1286
g93
g94
ssg82
g1280
sg75
(lp1287
S'http_connection'
p1288
asbag68
(g89
g70
NtRp1289
(dp1290
g73
(dp1291
g100
g101
ssg82
g1280
sg75
(lp1292
S':'
asbag68
(g89
g70
NtRp1293
(dp1294
g73
(dp1295
sg82
g1280
sg75
(lp1296
g68
(g69
g70
NtRp1297
(dp1298
g73
(dp1299
g81
I4
ssg82
g1293
sg75
(lp1300
S'keep-alive'
p1301
asbasbasbag68
(g84
g70
NtRp1302
(dp1303
g73
(dp1304
sg82
g1053
sg75
(lp1305
g68
(g89
g70
NtRp1306
(dp1307
g73
(dp1308
g93
g94
ssg82
g1302
sg75
(lp1309
S'http_cookie'
p1310
asbag68
(g89
g70
NtRp1311
(dp1312
g73
(dp1313
g100
g101
ssg82
g1302
sg75
(lp1314
S':'
asbag68
(g89
g70
NtRp1315
(dp1316
g73
(dp1317
sg82
g1302
sg75
(lp1318
g68
(g69
g70
NtRp1319
(dp1320
g73
(dp1321
g81
I4
ssg82
g1315
sg75
(lp1322
S'session_id_paideia=127.0.0.1-5296f1e9-849e-4717-b7d4-f5f298041148; session_id_welcome=127.0.0.1-0f1bf67d-abd7-4f3b-9dfa-61414dbdd968; session_id_grades=127.0.0.1-61c0ea3f-8797-4aff-bb5b-97a734e7ddbc; session_id_admin=127.0.0.1-415f1725-a8a3-4383-836a-a1b235a5d231'
p1323
asbasbasbag68
(g84
g70
NtRp1324
(dp1325
g73
(dp1326
sg82
g1053
sg75
(lp1327
g68
(g89
g70
NtRp1328
(dp1329
g73
(dp1330
g93
g94
ssg82
g1324
sg75
(lp1331
S'http_host'
p1332
asbag68
(g89
g70
NtRp1333
(dp1334
g73
(dp1335
g100
g101
ssg82
g1324
sg75
(lp1336
S':'
asbag68
(g89
g70
NtRp1337
(dp1338
g73
(dp1339
sg82
g1324
sg75
(lp1340
g68
(g69
g70
NtRp1341
(dp1342
g73
(dp1343
g81
I4
ssg82
g1337
sg75
(lp1344
S'127.0.0.1:8000'
p1345
asbasbasbag68
(g84
g70
NtRp1346
(dp1347
g73
(dp1348
sg82
g1053
sg75
(lp1349
g68
(g89
g70
NtRp1350
(dp1351
g73
(dp1352
g93
g94
ssg82
g1346
sg75
(lp1353
S'http_referer'
p1354
asbag68
(g89
g70
NtRp1355
(dp1356
g73
(dp1357
g100
g101
ssg82
g1346
sg75
(lp1358
S':'
asbag68
(g89
g70
NtRp1359
(dp1360
g73
(dp1361
sg82
g1346
sg75
(lp1362
g68
(g69
g70
NtRp1363
(dp1364
g73
(dp1365
g81
I4
ssg82
g1359
sg75
(lp1366
S'http://127.0.0.1:8000/grades/default/grades_report/15'
p1367
asbasbasbag68
(g84
g70
NtRp1368
(dp1369
g73
(dp1370
sg82
g1053
sg75
(lp1371
g68
(g89
g70
NtRp1372
(dp1373
g73
(dp1374
g93
g94
ssg82
g1368
sg75
(lp1375
S'http_user_agent'
p1376
asbag68
(g89
g70
NtRp1377
(dp1378
g73
(dp1379
g100
g101
ssg82
g1368
sg75
(lp1380
S':'
asbag68
(g89
g70
NtRp1381
(dp1382
g73
(dp1383
sg82
g1368
sg75
(lp1384
g68
(g69
g70
NtRp1385
(dp1386
g73
(dp1387
g81
I4
ssg82
g1381
sg75
(lp1388
S'Mozilla/5.0 (X11; Linux x86_64; rv:8.0) Gecko/20100101 Firefox/8.0'
p1389
asbasbasbag68
(g84
g70
NtRp1390
(dp1391
g73
(dp1392
sg82
g1053
sg75
(lp1393
g68
(g89
g70
NtRp1394
(dp1395
g73
(dp1396
g93
g94
ssg82
g1390
sg75
(lp1397
S'http_web2py_component_element'
p1398
asbag68
(g89
g70
NtRp1399
(dp1400
g73
(dp1401
g100
g101
ssg82
g1390
sg75
(lp1402
S':'
asbag68
(g89
g70
NtRp1403
(dp1404
g73
(dp1405
sg82
g1390
sg75
(lp1406
g68
(g69
g70
NtRp1407
(dp1408
g73
(dp1409
g81
I4
ssg82
g1403
sg75
(lp1410
g214
asbasbasbag68
(g84
g70
NtRp1411
(dp1412
g73
(dp1413
sg82
g1053
sg75
(lp1414
g68
(g89
g70
NtRp1415
(dp1416
g73
(dp1417
g93
g94
ssg82
g1411
sg75
(lp1418
S'http_web2py_component_location'
p1419
asbag68
(g89
g70
NtRp1420
(dp1421
g73
(dp1422
g100
g101
ssg82
g1411
sg75
(lp1423
S':'
asbag68
(g89
g70
NtRp1424
(dp1425
g73
(dp1426
sg82
g1411
sg75
(lp1427
g68
(g69
g70
NtRp1428
(dp1429
g73
(dp1430
g81
I4
ssg82
g1424
sg75
(lp1431
S'http://127.0.0.1:8000/grades/default/grades_report/15'
p1432
asbasbasbag68
(g84
g70
NtRp1433
(dp1434
g73
(dp1435
sg82
g1053
sg75
(lp1436
g68
(g89
g70
NtRp1437
(dp1438
g73
(dp1439
g93
g94
ssg82
g1433
sg75
(lp1440
S'http_x_requested_with'
p1441
asbag68
(g89
g70
NtRp1442
(dp1443
g73
(dp1444
g100
g101
ssg82
g1433
sg75
(lp1445
S':'
asbag68
(g89
g70
NtRp1446
(dp1447
g73
(dp1448
sg82
g1433
sg75
(lp1449
g68
(g69
g70
NtRp1450
(dp1451
g73
(dp1452
g81
I4
ssg82
g1446
sg75
(lp1453
S'XMLHttpRequest'
p1454
asbasbasbag68
(g84
g70
NtRp1455
(dp1456
g73
(dp1457
sg82
g1053
sg75
(lp1458
g68
(g89
g70
NtRp1459
(dp1460
g73
(dp1461
g93
g94
ssg82
g1455
sg75
(lp1462
S'is_jython'
p1463
asbag68
(g89
g70
NtRp1464
(dp1465
g73
(dp1466
g100
g101
ssg82
g1455
sg75
(lp1467
S':'
asbag68
(g89
g70
NtRp1468
(dp1469
g73
(dp1470
sg82
g1455
sg75
(lp1471
g68
(g69
g70
NtRp1472
(dp1473
g73
(dp1474
g81
I4
ssg82
g1468
sg75
(lp1475
g1191
asbasbasbag68
(g84
g70
NtRp1476
(dp1477
g73
(dp1478
sg82
g1053
sg75
(lp1479
g68
(g89
g70
NtRp1480
(dp1481
g73
(dp1482
g93
g94
ssg82
g1476
sg75
(lp1483
S'path_info'
p1484
asbag68
(g89
g70
NtRp1485
(dp1486
g73
(dp1487
g100
g101
ssg82
g1476
sg75
(lp1488
S':'
asbag68
(g89
g70
NtRp1489
(dp1490
g73
(dp1491
sg82
g1476
sg75
(lp1492
g68
(g69
g70
NtRp1493
(dp1494
g73
(dp1495
g81
I4
ssg82
g1489
sg75
(lp1496
S'/grades/default/grades_report.load/19'
p1497
asbasbasbag68
(g84
g70
NtRp1498
(dp1499
g73
(dp1500
sg82
g1053
sg75
(lp1501
g68
(g89
g70
NtRp1502
(dp1503
g73
(dp1504
g93
g94
ssg82
g1498
sg75
(lp1505
S'query_string'
p1506
asbag68
(g89
g70
NtRp1507
(dp1508
g73
(dp1509
g100
g101
ssg82
g1498
sg75
(lp1510
S':'
asbag68
(g89
g70
NtRp1511
(dp1512
g73
(dp1513
sg82
g1498
sg75
(lp1514
g68
(g69
g70
NtRp1515
(dp1516
g73
(dp1517
g81
I4
ssg82
g1511
sg75
(lp1518
S''
asbasbasbag68
(g84
g70
NtRp1519
(dp1520
g73
(dp1521
sg82
g1053
sg75
(lp1522
g68
(g89
g70
NtRp1523
(dp1524
g73
(dp1525
g93
g94
ssg82
g1519
sg75
(lp1526
S'remote_addr'
p1527
asbag68
(g89
g70
NtRp1528
(dp1529
g73
(dp1530
g100
g101
ssg82
g1519
sg75
(lp1531
S':'
asbag68
(g89
g70
NtRp1532
(dp1533
g73
(dp1534
sg82
g1519
sg75
(lp1535
g68
(g69
g70
NtRp1536
(dp1537
g73
(dp1538
g81
I4
ssg82
g1532
sg75
(lp1539
g236
asbasbasbag68
(g84
g70
NtRp1540
(dp1541
g73
(dp1542
sg82
g1053
sg75
(lp1543
g68
(g89
g70
NtRp1544
(dp1545
g73
(dp1546
g93
g94
ssg82
g1540
sg75
(lp1547
S'remote_port'
p1548
asbag68
(g89
g70
NtRp1549
(dp1550
g73
(dp1551
g100
g101
ssg82
g1540
sg75
(lp1552
S':'
asbag68
(g89
g70
NtRp1553
(dp1554
g73
(dp1555
sg82
g1540
sg75
(lp1556
g68
(g69
g70
NtRp1557
(dp1558
g73
(dp1559
g81
I4
ssg82
g1553
sg75
(lp1560
S'33210'
p1561
asbasbasbag68
(g84
g70
NtRp1562
(dp1563
g73
(dp1564
sg82
g1053
sg75
(lp1565
g68
(g89
g70
NtRp1566
(dp1567
g73
(dp1568
g93
g94
ssg82
g1562
sg75
(lp1569
S'request_method'
p1570
asbag68
(g89
g70
NtRp1571
(dp1572
g73
(dp1573
g100
g101
ssg82
g1562
sg75
(lp1574
S':'
asbag68
(g89
g70
NtRp1575
(dp1576
g73
(dp1577
sg82
g1562
sg75
(lp1578
g68
(g69
g70
NtRp1579
(dp1580
g73
(dp1581
g81
I4
ssg82
g1575
sg75
(lp1582
S'GET'
p1583
asbasbasbag68
(g84
g70
NtRp1584
(dp1585
g73
(dp1586
sg82
g1053
sg75
(lp1587
g68
(g89
g70
NtRp1588
(dp1589
g73
(dp1590
g93
g94
ssg82
g1584
sg75
(lp1591
S'script_name'
p1592
asbag68
(g89
g70
NtRp1593
(dp1594
g73
(dp1595
g100
g101
ssg82
g1584
sg75
(lp1596
S':'
asbag68
(g89
g70
NtRp1597
(dp1598
g73
(dp1599
sg82
g1584
sg75
(lp1600
g68
(g69
g70
NtRp1601
(dp1602
g73
(dp1603
g81
I4
ssg82
g1597
sg75
(lp1604
S''
asbasbasbag68
(g84
g70
NtRp1605
(dp1606
g73
(dp1607
sg82
g1053
sg75
(lp1608
g68
(g89
g70
NtRp1609
(dp1610
g73
(dp1611
g93
g94
ssg82
g1605
sg75
(lp1612
S'server_name'
p1613
asbag68
(g89
g70
NtRp1614
(dp1615
g73
(dp1616
g100
g101
ssg82
g1605
sg75
(lp1617
S':'
asbag68
(g89
g70
NtRp1618
(dp1619
g73
(dp1620
sg82
g1605
sg75
(lp1621
g68
(g69
g70
NtRp1622
(dp1623
g73
(dp1624
g81
I4
ssg82
g1618
sg75
(lp1625
S'uriel'
p1626
asbasbasbag68
(g84
g70
NtRp1627
(dp1628
g73
(dp1629
sg82
g1053
sg75
(lp1630
g68
(g89
g70
NtRp1631
(dp1632
g73
(dp1633
g93
g94
ssg82
g1627
sg75
(lp1634
S'server_port'
p1635
asbag68
(g89
g70
NtRp1636
(dp1637
g73
(dp1638
g100
g101
ssg82
g1627
sg75
(lp1639
S':'
asbag68
(g89
g70
NtRp1640
(dp1641
g73
(dp1642
sg82
g1627
sg75
(lp1643
g68
(g69
g70
NtRp1644
(dp1645
g73
(dp1646
g81
I4
ssg82
g1640
sg75
(lp1647
S'8000'
p1648
asbasbasbag68
(g84
g70
NtRp1649
(dp1650
g73
(dp1651
sg82
g1053
sg75
(lp1652
g68
(g89
g70
NtRp1653
(dp1654
g73
(dp1655
g93
g94
ssg82
g1649
sg75
(lp1656
S'server_protocol'
p1657
asbag68
(g89
g70
NtRp1658
(dp1659
g73
(dp1660
g100
g101
ssg82
g1649
sg75
(lp1661
S':'
asbag68
(g89
g70
NtRp1662
(dp1663
g73
(dp1664
sg82
g1649
sg75
(lp1665
g68
(g69
g70
NtRp1666
(dp1667
g73
(dp1668
g81
I4
ssg82
g1662
sg75
(lp1669
S'HTTP/1.1'
p1670
asbasbasbag68
(g84
g70
NtRp1671
(dp1672
g73
(dp1673
sg82
g1053
sg75
(lp1674
g68
(g89
g70
NtRp1675
(dp1676
g73
(dp1677
g93
g94
ssg82
g1671
sg75
(lp1678
S'server_software'
p1679
asbag68
(g89
g70
NtRp1680
(dp1681
g73
(dp1682
g100
g101
ssg82
g1671
sg75
(lp1683
S':'
asbag68
(g89
g70
NtRp1684
(dp1685
g73
(dp1686
sg82
g1671
sg75
(lp1687
g68
(g69
g70
NtRp1688
(dp1689
g73
(dp1690
g81
I4
ssg82
g1684
sg75
(lp1691
S'Rocket 1.2.4'
p1692
asbasbasbag68
(g84
g70
NtRp1693
(dp1694
g73
(dp1695
sg82
g1053
sg75
(lp1696
g68
(g89
g70
NtRp1697
(dp1698
g73
(dp1699
g93
g94
ssg82
g1693
sg75
(lp1700
S'web2py_crontype'
p1701
asbag68
(g89
g70
NtRp1702
(dp1703
g73
(dp1704
g100
g101
ssg82
g1693
sg75
(lp1705
S':'
asbag68
(g89
g70
NtRp1706
(dp1707
g73
(dp1708
sg82
g1693
sg75
(lp1709
g68
(g69
g70
NtRp1710
(dp1711
g73
(dp1712
g81
I4
ssg82
g1706
sg75
(lp1713
S'hard'
p1714
asbasbasbag68
(g84
g70
NtRp1715
(dp1716
g73
(dp1717
sg82
g1053
sg75
(lp1718
g68
(g89
g70
NtRp1719
(dp1720
g73
(dp1721
g93
g94
ssg82
g1715
sg75
(lp1722
S'web2py_path'
p1723
asbag68
(g89
g70
NtRp1724
(dp1725
g73
(dp1726
g100
g101
ssg82
g1715
sg75
(lp1727
S':'
asbag68
(g89
g70
NtRp1728
(dp1729
g73
(dp1730
sg82
g1715
sg75
(lp1731
g68
(g69
g70
NtRp1732
(dp1733
g73
(dp1734
g81
I4
ssg82
g1728
sg75
(lp1735
g1100
asbasbasbag68
(g84
g70
NtRp1736
(dp1737
g73
(dp1738
sg82
g1053
sg75
(lp1739
g68
(g89
g70
NtRp1740
(dp1741
g73
(dp1742
g93
g94
ssg82
g1736
sg75
(lp1743
S'web2py_version'
p1744
asbag68
(g89
g70
NtRp1745
(dp1746
g73
(dp1747
g100
g101
ssg82
g1736
sg75
(lp1748
S':'
asbag68
(g89
g70
NtRp1749
(dp1750
g73
(dp1751
sg82
g1736
sg75
(lp1752
g68
(g69
g70
NtRp1753
(dp1754
g73
(dp1755
g81
I4
ssg82
g1749
sg75
(lp1756
g68
(g77
g70
NtRp1757
(dp1758
g73
(dp1759
g81
I3
ssg82
Nsg75
(lp1760
g68
(g84
g70
NtRp1761
(dp1762
g73
(dp1763
sg82
g1757
sg75
(lp1764
g68
(g89
g70
NtRp1765
(dp1766
g73
(dp1767
sg82
g1761
sg75
(lp1768
g68
(g69
g70
NtRp1769
(dp1770
g73
(dp1771
g81
I3
ssg82
g1765
sg75
(lp1772
S'1'
asbasbasbag68
(g84
g70
NtRp1773
(dp1774
g73
(dp1775
sg82
g1757
sg75
(lp1776
g68
(g89
g70
NtRp1777
(dp1778
g73
(dp1779
sg82
g1773
sg75
(lp1780
g68
(g69
g70
NtRp1781
(dp1782
g73
(dp1783
g81
I3
ssg82
g1777
sg75
(lp1784
S'99'
p1785
asbasbasbag68
(g84
g70
NtRp1786
(dp1787
g73
(dp1788
sg82
g1757
sg75
(lp1789
g68
(g89
g70
NtRp1790
(dp1791
g73
(dp1792
sg82
g1786
sg75
(lp1793
g68
(g69
g70
NtRp1794
(dp1795
g73
(dp1796
g81
I3
ssg82
g1790
sg75
(lp1797
S'2'
asbasbasbag68
(g84
g70
NtRp1798
(dp1799
g73
(dp1800
sg82
g1757
sg75
(lp1801
g68
(g89
g70
NtRp1802
(dp1803
g73
(dp1804
sg82
g1798
sg75
(lp1805
g68
(g69
g70
NtRp1806
(dp1807
g73
(dp1808
g81
I3
ssg82
g1802
sg75
(lp1809
S'datetime.datetime(2011, 9, 26, 6, 55, 33)'
p1810
asbasbasbag68
(g84
g70
NtRp1811
(dp1812
g73
(dp1813
sg82
g1757
sg75
(lp1814
g68
(g89
g70
NtRp1815
(dp1816
g73
(dp1817
sg82
g1811
sg75
(lp1818
g68
(g69
g70
NtRp1819
(dp1820
g73
(dp1821
g81
I3
ssg82
g1815
sg75
(lp1822
S'stable'
p1823
asbasbasbasbasbasbasbag68
(g84
g70
NtRp1824
(dp1825
g73
(dp1826
sg82
g1053
sg75
(lp1827
g68
(g89
g70
NtRp1828
(dp1829
g73
(dp1830
g93
g94
ssg82
g1824
sg75
(lp1831
S'wsgi_errors'
p1832
asbag68
(g89
g70
NtRp1833
(dp1834
g73
(dp1835
g100
g101
ssg82
g1824
sg75
(lp1836
S':'
asbag68
(g89
g70
NtRp1837
(dp1838
g73
(dp1839
sg82
g1824
sg75
(lp1840
g68
(g69
g70
NtRp1841
(dp1842
g73
(dp1843
g81
I4
ssg82
g1837
sg75
(lp1844
S"<open file '<stderr>', mode 'w' at 0x7f1a4db92270>"
p1845
asbasbasbag68
(g84
g70
NtRp1846
(dp1847
g73
(dp1848
sg82
g1053
sg75
(lp1849
g68
(g89
g70
NtRp1850
(dp1851
g73
(dp1852
g93
g94
ssg82
g1846
sg75
(lp1853
S'wsgi_file_wrapper'
p1854
asbag68
(g89
g70
NtRp1855
(dp1856
g73
(dp1857
g100
g101
ssg82
g1846
sg75
(lp1858
S':'
asbag68
(g89
g70
NtRp1859
(dp1860
g73
(dp1861
sg82
g1846
sg75
(lp1862
g68
(g69
g70
NtRp1863
(dp1864
g73
(dp1865
g81
I4
ssg82
g1859
sg75
(lp1866
S'<class wsgiref.util.FileWrapper at 0x21fc870>'
p1867
asbasbasbag68
(g84
g70
NtRp1868
(dp1869
g73
(dp1870
sg82
g1053
sg75
(lp1871
g68
(g89
g70
NtRp1872
(dp1873
g73
(dp1874
g93
g94
ssg82
g1868
sg75
(lp1875
S'wsgi_input'
p1876
asbag68
(g89
g70
NtRp1877
(dp1878
g73
(dp1879
g100
g101
ssg82
g1868
sg75
(lp1880
S':'
asbag68
(g89
g70
NtRp1881
(dp1882
g73
(dp1883
sg82
g1868
sg75
(lp1884
g68
(g69
g70
NtRp1885
(dp1886
g73
(dp1887
g81
I4
ssg82
g1881
sg75
(lp1888
S'<socket._fileobject object at 0x8524e50>'
p1889
asbasbasbag68
(g84
g70
NtRp1890
(dp1891
g73
(dp1892
sg82
g1053
sg75
(lp1893
g68
(g89
g70
NtRp1894
(dp1895
g73
(dp1896
g93
g94
ssg82
g1890
sg75
(lp1897
S'wsgi_multiprocess'
p1898
asbag68
(g89
g70
NtRp1899
(dp1900
g73
(dp1901
g100
g101
ssg82
g1890
sg75
(lp1902
S':'
asbag68
(g89
g70
NtRp1903
(dp1904
g73
(dp1905
sg82
g1890
sg75
(lp1906
g68
(g69
g70
NtRp1907
(dp1908
g73
(dp1909
g81
I4
ssg82
g1903
sg75
(lp1910
g1191
asbasbasbag68
(g84
g70
NtRp1911
(dp1912
g73
(dp1913
sg82
g1053
sg75
(lp1914
g68
(g89
g70
NtRp1915
(dp1916
g73
(dp1917
g93
g94
ssg82
g1911
sg75
(lp1918
S'wsgi_multithread'
p1919
asbag68
(g89
g70
NtRp1920
(dp1921
g73
(dp1922
g100
g101
ssg82
g1911
sg75
(lp1923
S':'
asbag68
(g89
g70
NtRp1924
(dp1925
g73
(dp1926
sg82
g1911
sg75
(lp1927
g68
(g69
g70
NtRp1928
(dp1929
g73
(dp1930
g81
I4
ssg82
g1924
sg75
(lp1931
g111
asbasbasbag68
(g84
g70
NtRp1932
(dp1933
g73
(dp1934
sg82
g1053
sg75
(lp1935
g68
(g89
g70
NtRp1936
(dp1937
g73
(dp1938
g93
g94
ssg82
g1932
sg75
(lp1939
S'wsgi_run_once'
p1940
asbag68
(g89
g70
NtRp1941
(dp1942
g73
(dp1943
g100
g101
ssg82
g1932
sg75
(lp1944
S':'
asbag68
(g89
g70
NtRp1945
(dp1946
g73
(dp1947
sg82
g1932
sg75
(lp1948
g68
(g69
g70
NtRp1949
(dp1950
g73
(dp1951
g81
I4
ssg82
g1945
sg75
(lp1952
g1191
asbasbasbag68
(g84
g70
NtRp1953
(dp1954
g73
(dp1955
sg82
g1053
sg75
(lp1956
g68
(g89
g70
NtRp1957
(dp1958
g73
(dp1959
g93
g94
ssg82
g1953
sg75
(lp1960
S'wsgi_url_scheme'
p1961
asbag68
(g89
g70
NtRp1962
(dp1963
g73
(dp1964
g100
g101
ssg82
g1953
sg75
(lp1965
S':'
asbag68
(g89
g70
NtRp1966
(dp1967
g73
(dp1968
sg82
g1953
sg75
(lp1969
g68
(g69
g70
NtRp1970
(dp1971
g73
(dp1972
g81
I4
ssg82
g1966
sg75
(lp1973
S'http'
p1974
asbasbasbag68
(g84
g70
NtRp1975
(dp1976
g73
(dp1977
sg82
g1053
sg75
(lp1978
g68
(g89
g70
NtRp1979
(dp1980
g73
(dp1981
g93
g94
ssg82
g1975
sg75
(lp1982
S'wsgi_version'
p1983
asbag68
(g89
g70
NtRp1984
(dp1985
g73
(dp1986
g100
g101
ssg82
g1975
sg75
(lp1987
S':'
asbag68
(g89
g70
NtRp1988
(dp1989
g73
(dp1990
sg82
g1975
sg75
(lp1991
g68
(g69
g70
NtRp1992
(dp1993
g73
(dp1994
g81
I4
ssg82
g1988
sg75
(lp1995
g68
(g77
g70
NtRp1996
(dp1997
g73
(dp1998
g81
I3
ssg82
Nsg75
(lp1999
g68
(g84
g70
NtRp2000
(dp2001
g73
(dp2002
sg82
g1996
sg75
(lp2003
g68
(g89
g70
NtRp2004
(dp2005
g73
(dp2006
sg82
g2000
sg75
(lp2007
g68
(g69
g70
NtRp2008
(dp2009
g73
(dp2010
g81
I3
ssg82
g2004
sg75
(lp2011
S'1'
asbasbasbag68
(g84
g70
NtRp2012
(dp2013
g73
(dp2014
sg82
g1996
sg75
(lp2015
g68
(g89
g70
NtRp2016
(dp2017
g73
(dp2018
sg82
g2012
sg75
(lp2019
g68
(g69
g70
NtRp2020
(dp2021
g73
(dp2022
g81
I3
ssg82
g2016
sg75
(lp2023
S'0'
asbasbasbasbasbasbasbasbasbasbasbag68
(g84
g70
NtRp2024
(dp2025
g73
(dp2026
sg82
g78
sg75
(lp2027
g68
(g89
g70
NtRp2028
(dp2029
g73
(dp2030
g93
g94
ssg82
g2024
sg75
(lp2031
S'extension'
p2032
asbag68
(g89
g70
NtRp2033
(dp2034
g73
(dp2035
g100
g101
ssg82
g2024
sg75
(lp2036
S':'
asbag68
(g89
g70
NtRp2037
(dp2038
g73
(dp2039
sg82
g2024
sg75
(lp2040
g68
(g69
g70
NtRp2041
(dp2042
g73
(dp2043
g81
I5
ssg82
g2037
sg75
(lp2044
S'load'
p2045
asbasbasbag68
(g84
g70
NtRp2046
(dp2047
g73
(dp2048
sg82
g78
sg75
(lp2049
g68
(g89
g70
NtRp2050
(dp2051
g73
(dp2052
g93
g94
ssg82
g2046
sg75
(lp2053
S'folder'
p2054
asbag68
(g89
g70
NtRp2055
(dp2056
g73
(dp2057
g100
g101
ssg82
g2046
sg75
(lp2058
S':'
asbag68
(g89
g70
NtRp2059
(dp2060
g73
(dp2061
sg82
g2046
sg75
(lp2062
g68
(g69
g70
NtRp2063
(dp2064
g73
(dp2065
g81
I5
ssg82
g2059
sg75
(lp2066
S'/home/ian/web2py/applications/grades/'
p2067
asbasbasbag68
(g84
g70
NtRp2068
(dp2069
g73
(dp2070
sg82
g78
sg75
(lp2071
g68
(g89
g70
NtRp2072
(dp2073
g73
(dp2074
g93
g94
ssg82
g2068
sg75
(lp2075
S'function'
p2076
asbag68
(g89
g70
NtRp2077
(dp2078
g73
(dp2079
g100
g101
ssg82
g2068
sg75
(lp2080
S':'
asbag68
(g89
g70
NtRp2081
(dp2082
g73
(dp2083
sg82
g2068
sg75
(lp2084
g68
(g69
g70
NtRp2085
(dp2086
g73
(dp2087
g81
I5
ssg82
g2081
sg75
(lp2088
S'grades_report'
p2089
asbasbasbag68
(g84
g70
NtRp2090
(dp2091
g73
(dp2092
sg82
g78
sg75
(lp2093
g68
(g89
g70
NtRp2094
(dp2095
g73
(dp2096
g93
g94
ssg82
g2090
sg75
(lp2097
S'get_vars'
p2098
asbag68
(g89
g70
NtRp2099
(dp2100
g73
(dp2101
g100
g101
ssg82
g2090
sg75
(lp2102
S':'
asbag68
(g89
g70
NtRp2103
(dp2104
g73
(dp2105
sg82
g2090
sg75
(lp2106
g68
(g69
g70
NtRp2107
(dp2108
g73
(dp2109
g81
I5
ssg82
g2103
sg75
(lp2110
g68
(g77
g70
NtRp2111
(dp2112
g73
(dp2113
g81
I4
ssg82
Nsg75
(lp2114
sbasbasbasbag68
(g84
g70
NtRp2115
(dp2116
g73
(dp2117
sg82
g78
sg75
(lp2118
g68
(g89
g70
NtRp2119
(dp2120
g73
(dp2121
g93
g94
ssg82
g2115
sg75
(lp2122
S'global_settings'
p2123
asbag68
(g89
g70
NtRp2124
(dp2125
g73
(dp2126
g100
g101
ssg82
g2115
sg75
(lp2127
S':'
asbag68
(g89
g70
NtRp2128
(dp2129
g73
(dp2130
sg82
g2115
sg75
(lp2131
g68
(g69
g70
NtRp2132
(dp2133
g73
(dp2134
g81
I5
ssg82
g2128
sg75
(lp2135
g68
(g77
g70
NtRp2136
(dp2137
g73
(dp2138
g81
I4
ssg82
Nsg75
(lp2139
g68
(g84
g70
NtRp2140
(dp2141
g73
(dp2142
sg82
g2136
sg75
(lp2143
g68
(g89
g70
NtRp2144
(dp2145
g73
(dp2146
g93
g94
ssg82
g2140
sg75
(lp2147
g1065
asbag68
(g89
g70
NtRp2148
(dp2149
g73
(dp2150
g100
g101
ssg82
g2140
sg75
(lp2151
S':'
asbag68
(g89
g70
NtRp2152
(dp2153
g73
(dp2154
sg82
g2140
sg75
(lp2155
g68
(g69
g70
NtRp2156
(dp2157
g73
(dp2158
g81
I4
ssg82
g2152
sg75
(lp2159
S"set(['/home/ian/web2py/applications/welcome/', '/home/ian/web2py/applications/grades/', '/home/ian/web2py/applications/admin/'])"
p2160
asbasbasbag68
(g84
g70
NtRp2161
(dp2162
g73
(dp2163
sg82
g2136
sg75
(lp2164
g68
(g89
g70
NtRp2165
(dp2166
g73
(dp2167
g93
g94
ssg82
g2161
sg75
(lp2168
g1087
asbag68
(g89
g70
NtRp2169
(dp2170
g73
(dp2171
g100
g101
ssg82
g2161
sg75
(lp2172
S':'
asbag68
(g89
g70
NtRp2173
(dp2174
g73
(dp2175
sg82
g2161
sg75
(lp2176
g68
(g69
g70
NtRp2177
(dp2178
g73
(dp2179
g81
I4
ssg82
g2173
sg75
(lp2180
g1100
asbasbasbag68
(g84
g70
NtRp2181
(dp2182
g73
(dp2183
sg82
g2136
sg75
(lp2184
g68
(g89
g70
NtRp2185
(dp2186
g73
(dp2187
g93
g94
ssg82
g2181
sg75
(lp2188
g1109
asbag68
(g89
g70
NtRp2189
(dp2190
g73
(dp2191
g100
g101
ssg82
g2181
sg75
(lp2192
S':'
asbag68
(g89
g70
NtRp2193
(dp2194
g73
(dp2195
sg82
g2181
sg75
(lp2196
g68
(g69
g70
NtRp2197
(dp2198
g73
(dp2199
g81
I4
ssg82
g2193
sg75
(lp2200
g68
(g77
g70
NtRp2201
(dp2202
g73
(dp2203
g81
I3
ssg82
Nsg75
(lp2204
sbasbasbasbag68
(g84
g70
NtRp2205
(dp2206
g73
(dp2207
sg82
g2136
sg75
(lp2208
g68
(g89
g70
NtRp2209
(dp2210
g73
(dp2211
g93
g94
ssg82
g2205
sg75
(lp2212
g1134
asbag68
(g89
g70
NtRp2213
(dp2214
g73
(dp2215
g100
g101
ssg82
g2205
sg75
(lp2216
S':'
asbag68
(g89
g70
NtRp2217
(dp2218
g73
(dp2219
sg82
g2205
sg75
(lp2220
g68
(g69
g70
NtRp2221
(dp2222
g73
(dp2223
g81
I4
ssg82
g2217
sg75
(lp2224
S"<Values at 0x2331758: {'verbose': False, 'ip': '127.0.0.1', 'shutdown_timeout': 5, 'taskbar': False, 'nocron': False, 'pid_filename': 'httpserver.pid', 'maxthreads': None, 'softcron': False, 'server_name': 'uriel', 'bpython': False, 'nogui': False, 'port': 8000, 'extcron': False, 'debuglevel': 30, 'test': None, 'folder': '/home/ian/web2py', 'config': '', 'import_models': False, 'winservice': '', 'shell': None, 'run': '', 'log_filename': 'httpserver.log', 'args': [''], 'ssl_ca_certificate': None, 'scheduler': None, 'profiler_filename': None, 'ssl_private_key': '', 'password': '<ask>', 'request_queue_size': 5, 'ssl_certificate': '', 'cronjob': False, 'plain': False, 'quiet': False, 'interfaces': None, 'minthreads': None, 'timeout': 10, 'numthreads': None, 'nobanner': False}>"
p2225
asbasbasbag68
(g84
g70
NtRp2226
(dp2227
g73
(dp2228
sg82
g2136
sg75
(lp2229
g68
(g89
g70
NtRp2230
(dp2231
g73
(dp2232
g93
g94
ssg82
g2226
sg75
(lp2233
g1156
asbag68
(g89
g70
NtRp2234
(dp2235
g73
(dp2236
g100
g101
ssg82
g2226
sg75
(lp2237
S':'
asbag68
(g89
g70
NtRp2238
(dp2239
g73
(dp2240
sg82
g2226
sg75
(lp2241
g68
(g69
g70
NtRp2242
(dp2243
g73
(dp2244
g81
I4
ssg82
g2238
sg75
(lp2245
S'set([])'
p2246
asbasbasbag68
(g84
g70
NtRp2247
(dp2248
g73
(dp2249
sg82
g2136
sg75
(lp2250
g68
(g89
g70
NtRp2251
(dp2252
g73
(dp2253
g93
g94
ssg82
g2247
sg75
(lp2254
g1178
asbag68
(g89
g70
NtRp2255
(dp2256
g73
(dp2257
g100
g101
ssg82
g2247
sg75
(lp2258
S':'
asbag68
(g89
g70
NtRp2259
(dp2260
g73
(dp2261
sg82
g2247
sg75
(lp2262
g68
(g69
g70
NtRp2263
(dp2264
g73
(dp2265
g81
I4
ssg82
g2259
sg75
(lp2266
g1191
asbasbasbag68
(g84
g70
NtRp2267
(dp2268
g73
(dp2269
sg82
g2136
sg75
(lp2270
g68
(g89
g70
NtRp2271
(dp2272
g73
(dp2273
g93
g94
ssg82
g2267
sg75
(lp2274
g1200
asbag68
(g89
g70
NtRp2275
(dp2276
g73
(dp2277
g100
g101
ssg82
g2267
sg75
(lp2278
S':'
asbag68
(g89
g70
NtRp2279
(dp2280
g73
(dp2281
sg82
g2267
sg75
(lp2282
g68
(g69
g70
NtRp2283
(dp2284
g73
(dp2285
g81
I4
ssg82
g2279
sg75
(lp2286
g1213
asbasbasbag68
(g84
g70
NtRp2287
(dp2288
g73
(dp2289
sg82
g2136
sg75
(lp2290
g68
(g89
g70
NtRp2291
(dp2292
g73
(dp2293
g93
g94
ssg82
g2287
sg75
(lp2294
g1463
asbag68
(g89
g70
NtRp2295
(dp2296
g73
(dp2297
g100
g101
ssg82
g2287
sg75
(lp2298
S':'
asbag68
(g89
g70
NtRp2299
(dp2300
g73
(dp2301
sg82
g2287
sg75
(lp2302
g68
(g69
g70
NtRp2303
(dp2304
g73
(dp2305
g81
I4
ssg82
g2299
sg75
(lp2306
g1191
asbasbasbag68
(g84
g70
NtRp2307
(dp2308
g73
(dp2309
sg82
g2136
sg75
(lp2310
g68
(g89
g70
NtRp2311
(dp2312
g73
(dp2313
g93
g94
ssg82
g2307
sg75
(lp2314
g1701
asbag68
(g89
g70
NtRp2315
(dp2316
g73
(dp2317
g100
g101
ssg82
g2307
sg75
(lp2318
S':'
asbag68
(g89
g70
NtRp2319
(dp2320
g73
(dp2321
sg82
g2307
sg75
(lp2322
g68
(g69
g70
NtRp2323
(dp2324
g73
(dp2325
g81
I4
ssg82
g2319
sg75
(lp2326
g1714
asbasbasbag68
(g84
g70
NtRp2327
(dp2328
g73
(dp2329
sg82
g2136
sg75
(lp2330
g68
(g89
g70
NtRp2331
(dp2332
g73
(dp2333
g93
g94
ssg82
g2327
sg75
(lp2334
g1744
asbag68
(g89
g70
NtRp2335
(dp2336
g73
(dp2337
g100
g101
ssg82
g2327
sg75
(lp2338
S':'
asbag68
(g89
g70
NtRp2339
(dp2340
g73
(dp2341
sg82
g2327
sg75
(lp2342
g68
(g69
g70
NtRp2343
(dp2344
g73
(dp2345
g81
I4
ssg82
g2339
sg75
(lp2346
g68
(g77
g70
NtRp2347
(dp2348
g73
(dp2349
g81
I3
ssg82
Nsg75
(lp2350
g68
(g84
g70
NtRp2351
(dp2352
g73
(dp2353
sg82
g2347
sg75
(lp2354
g68
(g89
g70
NtRp2355
(dp2356
g73
(dp2357
sg82
g2351
sg75
(lp2358
g68
(g69
g70
NtRp2359
(dp2360
g73
(dp2361
g81
I3
ssg82
g2355
sg75
(lp2362
S'1'
asbasbasbag68
(g84
g70
NtRp2363
(dp2364
g73
(dp2365
sg82
g2347
sg75
(lp2366
g68
(g89
g70
NtRp2367
(dp2368
g73
(dp2369
sg82
g2363
sg75
(lp2370
g68
(g69
g70
NtRp2371
(dp2372
g73
(dp2373
g81
I3
ssg82
g2367
sg75
(lp2374
S'99'
p2375
asbasbasbag68
(g84
g70
NtRp2376
(dp2377
g73
(dp2378
sg82
g2347
sg75
(lp2379
g68
(g89
g70
NtRp2380
(dp2381
g73
(dp2382
sg82
g2376
sg75
(lp2383
g68
(g69
g70
NtRp2384
(dp2385
g73
(dp2386
g81
I3
ssg82
g2380
sg75
(lp2387
S'2'
asbasbasbag68
(g84
g70
NtRp2388
(dp2389
g73
(dp2390
sg82
g2347
sg75
(lp2391
g68
(g89
g70
NtRp2392
(dp2393
g73
(dp2394
sg82
g2388
sg75
(lp2395
g68
(g69
g70
NtRp2396
(dp2397
g73
(dp2398
g81
I3
ssg82
g2392
sg75
(lp2399
S'datetime.datetime(2011, 9, 26, 6, 55, 33)'
p2400
asbasbasbag68
(g84
g70
NtRp2401
(dp2402
g73
(dp2403
sg82
g2347
sg75
(lp2404
g68
(g89
g70
NtRp2405
(dp2406
g73
(dp2407
sg82
g2401
sg75
(lp2408
g68
(g69
g70
NtRp2409
(dp2410
g73
(dp2411
g81
I3
ssg82
g2405
sg75
(lp2412
g1823
asbasbasbasbasbasbasbasbasbasbasbag68
(g84
g70
NtRp2413
(dp2414
g73
(dp2415
sg82
g78
sg75
(lp2416
g68
(g89
g70
NtRp2417
(dp2418
g73
(dp2419
g93
g94
ssg82
g2413
sg75
(lp2420
S'is_https'
p2421
asbag68
(g89
g70
NtRp2422
(dp2423
g73
(dp2424
g100
g101
ssg82
g2413
sg75
(lp2425
S':'
asbag68
(g89
g70
NtRp2426
(dp2427
g73
(dp2428
sg82
g2413
sg75
(lp2429
g68
(g69
g70
NtRp2430
(dp2431
g73
(dp2432
g81
I5
ssg82
g2426
sg75
(lp2433
g1191
asbasbasbag68
(g84
g70
NtRp2434
(dp2435
g73
(dp2436
sg82
g78
sg75
(lp2437
g68
(g89
g70
NtRp2438
(dp2439
g73
(dp2440
g93
g94
ssg82
g2434
sg75
(lp2441
S'is_local'
p2442
asbag68
(g89
g70
NtRp2443
(dp2444
g73
(dp2445
g100
g101
ssg82
g2434
sg75
(lp2446
S':'
asbag68
(g89
g70
NtRp2447
(dp2448
g73
(dp2449
sg82
g2434
sg75
(lp2450
g68
(g69
g70
NtRp2451
(dp2452
g73
(dp2453
g81
I5
ssg82
g2447
sg75
(lp2454
g111
asbasbasbag68
(g84
g70
NtRp2455
(dp2456
g73
(dp2457
sg82
g78
sg75
(lp2458
g68
(g89
g70
NtRp2459
(dp2460
g73
(dp2461
g93
g94
ssg82
g2455
sg75
(lp2462
S'is_restful'
p2463
asbag68
(g89
g70
NtRp2464
(dp2465
g73
(dp2466
g100
g101
ssg82
g2455
sg75
(lp2467
S':'
asbag68
(g89
g70
NtRp2468
(dp2469
g73
(dp2470
sg82
g2455
sg75
(lp2471
g68
(g69
g70
NtRp2472
(dp2473
g73
(dp2474
g81
I5
ssg82
g2468
sg75
(lp2475
g1191
asbasbasbag68
(g84
g70
NtRp2476
(dp2477
g73
(dp2478
sg82
g78
sg75
(lp2479
g68
(g89
g70
NtRp2480
(dp2481
g73
(dp2482
g93
g94
ssg82
g2476
sg75
(lp2483
S'now'
p2484
asbag68
(g89
g70
NtRp2485
(dp2486
g73
(dp2487
g100
g101
ssg82
g2476
sg75
(lp2488
S':'
asbag68
(g89
g70
NtRp2489
(dp2490
g73
(dp2491
sg82
g2476
sg75
(lp2492
g68
(g69
g70
NtRp2493
(dp2494
g73
(dp2495
g81
I5
ssg82
g2489
sg75
(lp2496
S'datetime.datetime(2011, 11, 3, 17, 27, 37, 72553)'
p2497
asbasbasbag68
(g84
g70
NtRp2498
(dp2499
g73
(dp2500
sg82
g78
sg75
(lp2501
g68
(g89
g70
NtRp2502
(dp2503
g73
(dp2504
g93
g94
ssg82
g2498
sg75
(lp2505
S'post_vars'
p2506
asbag68
(g89
g70
NtRp2507
(dp2508
g73
(dp2509
g100
g101
ssg82
g2498
sg75
(lp2510
S':'
asbag68
(g89
g70
NtRp2511
(dp2512
g73
(dp2513
sg82
g2498
sg75
(lp2514
g68
(g69
g70
NtRp2515
(dp2516
g73
(dp2517
g81
I5
ssg82
g2511
sg75
(lp2518
g68
(g77
g70
NtRp2519
(dp2520
g73
(dp2521
g81
I4
ssg82
Nsg75
(lp2522
sbasbasbasbag68
(g84
g70
NtRp2523
(dp2524
g73
(dp2525
sg82
g78
sg75
(lp2526
g68
(g89
g70
NtRp2527
(dp2528
g73
(dp2529
g93
g94
ssg82
g2523
sg75
(lp2530
S'raw_args'
p2531
asbag68
(g89
g70
NtRp2532
(dp2533
g73
(dp2534
g100
g101
ssg82
g2523
sg75
(lp2535
S':'
asbag68
(g89
g70
NtRp2536
(dp2537
g73
(dp2538
sg82
g2523
sg75
(lp2539
g68
(g69
g70
NtRp2540
(dp2541
g73
(dp2542
g81
I5
ssg82
g2536
sg75
(lp2543
g170
asbasbasbag68
(g84
g70
NtRp2544
(dp2545
g73
(dp2546
sg82
g78
sg75
(lp2547
g68
(g89
g70
NtRp2548
(dp2549
g73
(dp2550
g93
g94
ssg82
g2544
sg75
(lp2551
S'raw_extension'
p2552
asbag68
(g89
g70
NtRp2553
(dp2554
g73
(dp2555
g100
g101
ssg82
g2544
sg75
(lp2556
S':'
asbag68
(g89
g70
NtRp2557
(dp2558
g73
(dp2559
sg82
g2544
sg75
(lp2560
g68
(g69
g70
NtRp2561
(dp2562
g73
(dp2563
g81
I5
ssg82
g2557
sg75
(lp2564
g2045
asbasbasbag68
(g84
g70
NtRp2565
(dp2566
g73
(dp2567
sg82
g78
sg75
(lp2568
g68
(g89
g70
NtRp2569
(dp2570
g73
(dp2571
g93
g94
ssg82
g2565
sg75
(lp2572
S'url'
p2573
asbag68
(g89
g70
NtRp2574
(dp2575
g73
(dp2576
g100
g101
ssg82
g2565
sg75
(lp2577
S':'
asbag68
(g89
g70
NtRp2578
(dp2579
g73
(dp2580
sg82
g2565
sg75
(lp2581
g68
(g69
g70
NtRp2582
(dp2583
g73
(dp2584
g81
I5
ssg82
g2578
sg75
(lp2585
S'/grades/default/grades_report.load/19'
p2586
asbasbasbag68
(g84
g70
NtRp2587
(dp2588
g73
(dp2589
sg82
g78
sg75
(lp2590
g68
(g89
g70
NtRp2591
(dp2592
g73
(dp2593
g93
g94
ssg82
g2587
sg75
(lp2594
S'utcnow'
p2595
asbag68
(g89
g70
NtRp2596
(dp2597
g73
(dp2598
g100
g101
ssg82
g2587
sg75
(lp2599
S':'
asbag68
(g89
g70
NtRp2600
(dp2601
g73
(dp2602
sg82
g2587
sg75
(lp2603
g68
(g69
g70
NtRp2604
(dp2605
g73
(dp2606
g81
I5
ssg82
g2600
sg75
(lp2607
S'datetime.datetime(2011, 11, 3, 21, 27, 37, 72606)'
p2608
asbasbasbag68
(g84
g70
NtRp2609
(dp2610
g73
(dp2611
sg82
g78
sg75
(lp2612
g68
(g89
g70
NtRp2613
(dp2614
g73
(dp2615
g93
g94
ssg82
g2609
sg75
(lp2616
S'uuid'
p2617
asbag68
(g89
g70
NtRp2618
(dp2619
g73
(dp2620
g100
g101
ssg82
g2609
sg75
(lp2621
S':'
asbag68
(g89
g70
NtRp2622
(dp2623
g73
(dp2624
sg82
g2609
sg75
(lp2625
g68
(g69
g70
NtRp2626
(dp2627
g73
(dp2628
g81
I5
ssg82
g2622
sg75
(lp2629
S'grades/127.0.0.1.2011-11-03.17-27-37.b89b585d-5e0e-4e5d-80a3-438d7a7ce942'
p2630
asbasbasbag68
(g84
g70
NtRp2631
(dp2632
g73
(dp2633
sg82
g78
sg75
(lp2634
g68
(g89
g70
NtRp2635
(dp2636
g73
(dp2637
g93
g94
ssg82
g2631
sg75
(lp2638
S'vars'
p2639
asbag68
(g89
g70
NtRp2640
(dp2641
g73
(dp2642
g100
g101
ssg82
g2631
sg75
(lp2643
S':'
asbag68
(g89
g70
NtRp2644
(dp2645
g73
(dp2646
sg82
g2631
sg75
(lp2647
g68
(g69
g70
NtRp2648
(dp2649
g73
(dp2650
g81
I5
ssg82
g2644
sg75
(lp2651
g68
(g77
g70
NtRp2652
(dp2653
g73
(dp2654
g81
I4
ssg82
Nsg75
(lp2655
sbasbasbasbag68
(g84
g70
NtRp2656
(dp2657
g73
(dp2658
sg82
g78
sg75
(lp2659
g68
(g89
g70
NtRp2660
(dp2661
g73
(dp2662
g93
g94
ssg82
g2656
sg75
(lp2663
S'wsgi'
p2664
asbag68
(g89
g70
NtRp2665
(dp2666
g73
(dp2667
g100
g101
ssg82
g2656
sg75
(lp2668
S':'
asbag68
(g89
g70
NtRp2669
(dp2670
g73
(dp2671
sg82
g2656
sg75
(lp2672
g68
(g69
g70
NtRp2673
(dp2674
g73
(dp2675
g81
I5
ssg82
g2669
sg75
(lp2676
g68
(g77
g70
NtRp2677
(dp2678
g73
(dp2679
g81
I4
ssg82
Nsg75
(lp2680
g68
(g84
g70
NtRp2681
(dp2682
g73
(dp2683
sg82
g2677
sg75
(lp2684
g68
(g89
g70
NtRp2685
(dp2686
g73
(dp2687
g93
g94
ssg82
g2681
sg75
(lp2688
S'environ'
p2689
asbag68
(g89
g70
NtRp2690
(dp2691
g73
(dp2692
g100
g101
ssg82
g2681
sg75
(lp2693
S':'
asbag68
(g89
g70
NtRp2694
(dp2695
g73
(dp2696
sg82
g2681
sg75
(lp2697
g68
(g69
g70
NtRp2698
(dp2699
g73
(dp2700
g81
I4
ssg82
g2694
sg75
(lp2701
g68
(g77
g70
NtRp2702
(dp2703
g73
(dp2704
g81
I3
ssg82
Nsg75
(lp2705
g68
(g84
g70
NtRp2706
(dp2707
g73
(dp2708
sg82
g2702
sg75
(lp2709
g68
(g89
g70
NtRp2710
(dp2711
g73
(dp2712
g93
g94
ssg82
g2706
sg75
(lp2713
S'HTTP_ACCEPT'
p2714
asbag68
(g89
g70
NtRp2715
(dp2716
g73
(dp2717
g100
g101
ssg82
g2706
sg75
(lp2718
S':'
asbag68
(g89
g70
NtRp2719
(dp2720
g73
(dp2721
sg82
g2706
sg75
(lp2722
g68
(g69
g70
NtRp2723
(dp2724
g73
(dp2725
g81
I3
ssg82
g2719
sg75
(lp2726
g1235
asbasbasbag68
(g84
g70
NtRp2727
(dp2728
g73
(dp2729
sg82
g2702
sg75
(lp2730
g68
(g89
g70
NtRp2731
(dp2732
g73
(dp2733
g93
g94
ssg82
g2727
sg75
(lp2734
S'HTTP_ACCEPT_ENCODING'
p2735
asbag68
(g89
g70
NtRp2736
(dp2737
g73
(dp2738
g100
g101
ssg82
g2727
sg75
(lp2739
S':'
asbag68
(g89
g70
NtRp2740
(dp2741
g73
(dp2742
sg82
g2727
sg75
(lp2743
g68
(g69
g70
NtRp2744
(dp2745
g73
(dp2746
g81
I3
ssg82
g2740
sg75
(lp2747
g1257
asbasbasbag68
(g84
g70
NtRp2748
(dp2749
g73
(dp2750
sg82
g2702
sg75
(lp2751
g68
(g89
g70
NtRp2752
(dp2753
g73
(dp2754
g93
g94
ssg82
g2748
sg75
(lp2755
S'HTTP_ACCEPT_LANGUAGE'
p2756
asbag68
(g89
g70
NtRp2757
(dp2758
g73
(dp2759
g100
g101
ssg82
g2748
sg75
(lp2760
S':'
asbag68
(g89
g70
NtRp2761
(dp2762
g73
(dp2763
sg82
g2748
sg75
(lp2764
g68
(g69
g70
NtRp2765
(dp2766
g73
(dp2767
g81
I3
ssg82
g2761
sg75
(lp2768
g1279
asbasbasbag68
(g84
g70
NtRp2769
(dp2770
g73
(dp2771
sg82
g2702
sg75
(lp2772
g68
(g89
g70
NtRp2773
(dp2774
g73
(dp2775
g93
g94
ssg82
g2769
sg75
(lp2776
S'HTTP_CONNECTION'
p2777
asbag68
(g89
g70
NtRp2778
(dp2779
g73
(dp2780
g100
g101
ssg82
g2769
sg75
(lp2781
S':'
asbag68
(g89
g70
NtRp2782
(dp2783
g73
(dp2784
sg82
g2769
sg75
(lp2785
g68
(g69
g70
NtRp2786
(dp2787
g73
(dp2788
g81
I3
ssg82
g2782
sg75
(lp2789
g1301
asbasbasbag68
(g84
g70
NtRp2790
(dp2791
g73
(dp2792
sg82
g2702
sg75
(lp2793
g68
(g89
g70
NtRp2794
(dp2795
g73
(dp2796
g93
g94
ssg82
g2790
sg75
(lp2797
S'HTTP_COOKIE'
p2798
asbag68
(g89
g70
NtRp2799
(dp2800
g73
(dp2801
g100
g101
ssg82
g2790
sg75
(lp2802
S':'
asbag68
(g89
g70
NtRp2803
(dp2804
g73
(dp2805
sg82
g2790
sg75
(lp2806
g68
(g69
g70
NtRp2807
(dp2808
g73
(dp2809
g81
I3
ssg82
g2803
sg75
(lp2810
g1323
asbasbasbag68
(g84
g70
NtRp2811
(dp2812
g73
(dp2813
sg82
g2702
sg75
(lp2814
g68
(g89
g70
NtRp2815
(dp2816
g73
(dp2817
g93
g94
ssg82
g2811
sg75
(lp2818
S'HTTP_HOST'
p2819
asbag68
(g89
g70
NtRp2820
(dp2821
g73
(dp2822
g100
g101
ssg82
g2811
sg75
(lp2823
S':'
asbag68
(g89
g70
NtRp2824
(dp2825
g73
(dp2826
sg82
g2811
sg75
(lp2827
g68
(g69
g70
NtRp2828
(dp2829
g73
(dp2830
g81
I3
ssg82
g2824
sg75
(lp2831
g1345
asbasbasbag68
(g84
g70
NtRp2832
(dp2833
g73
(dp2834
sg82
g2702
sg75
(lp2835
g68
(g89
g70
NtRp2836
(dp2837
g73
(dp2838
g93
g94
ssg82
g2832
sg75
(lp2839
S'HTTP_REFERER'
p2840
asbag68
(g89
g70
NtRp2841
(dp2842
g73
(dp2843
g100
g101
ssg82
g2832
sg75
(lp2844
S':'
asbag68
(g89
g70
NtRp2845
(dp2846
g73
(dp2847
sg82
g2832
sg75
(lp2848
g68
(g69
g70
NtRp2849
(dp2850
g73
(dp2851
g81
I3
ssg82
g2845
sg75
(lp2852
g1367
asbasbasbag68
(g84
g70
NtRp2853
(dp2854
g73
(dp2855
sg82
g2702
sg75
(lp2856
g68
(g89
g70
NtRp2857
(dp2858
g73
(dp2859
g93
g94
ssg82
g2853
sg75
(lp2860
S'HTTP_USER_AGENT'
p2861
asbag68
(g89
g70
NtRp2862
(dp2863
g73
(dp2864
g100
g101
ssg82
g2853
sg75
(lp2865
S':'
asbag68
(g89
g70
NtRp2866
(dp2867
g73
(dp2868
sg82
g2853
sg75
(lp2869
g68
(g69
g70
NtRp2870
(dp2871
g73
(dp2872
g81
I3
ssg82
g2866
sg75
(lp2873
g1389
asbasbasbag68
(g84
g70
NtRp2874
(dp2875
g73
(dp2876
sg82
g2702
sg75
(lp2877
g68
(g89
g70
NtRp2878
(dp2879
g73
(dp2880
g93
g94
ssg82
g2874
sg75
(lp2881
S'HTTP_WEB2PY_COMPONENT_ELEMENT'
p2882
asbag68
(g89
g70
NtRp2883
(dp2884
g73
(dp2885
g100
g101
ssg82
g2874
sg75
(lp2886
S':'
asbag68
(g89
g70
NtRp2887
(dp2888
g73
(dp2889
sg82
g2874
sg75
(lp2890
g68
(g69
g70
NtRp2891
(dp2892
g73
(dp2893
g81
I3
ssg82
g2887
sg75
(lp2894
g214
asbasbasbag68
(g84
g70
NtRp2895
(dp2896
g73
(dp2897
sg82
g2702
sg75
(lp2898
g68
(g89
g70
NtRp2899
(dp2900
g73
(dp2901
g93
g94
ssg82
g2895
sg75
(lp2902
S'HTTP_WEB2PY_COMPONENT_LOCATION'
p2903
asbag68
(g89
g70
NtRp2904
(dp2905
g73
(dp2906
g100
g101
ssg82
g2895
sg75
(lp2907
S':'
asbag68
(g89
g70
NtRp2908
(dp2909
g73
(dp2910
sg82
g2895
sg75
(lp2911
g68
(g69
g70
NtRp2912
(dp2913
g73
(dp2914
g81
I3
ssg82
g2908
sg75
(lp2915
g1432
asbasbasbag68
(g84
g70
NtRp2916
(dp2917
g73
(dp2918
sg82
g2702
sg75
(lp2919
g68
(g89
g70
NtRp2920
(dp2921
g73
(dp2922
g93
g94
ssg82
g2916
sg75
(lp2923
S'HTTP_X_REQUESTED_WITH'
p2924
asbag68
(g89
g70
NtRp2925
(dp2926
g73
(dp2927
g100
g101
ssg82
g2916
sg75
(lp2928
S':'
asbag68
(g89
g70
NtRp2929
(dp2930
g73
(dp2931
sg82
g2916
sg75
(lp2932
g68
(g69
g70
NtRp2933
(dp2934
g73
(dp2935
g81
I3
ssg82
g2929
sg75
(lp2936
g1454
asbasbasbag68
(g84
g70
NtRp2937
(dp2938
g73
(dp2939
sg82
g2702
sg75
(lp2940
g68
(g89
g70
NtRp2941
(dp2942
g73
(dp2943
g93
g94
ssg82
g2937
sg75
(lp2944
S'PATH_INFO'
p2945
asbag68
(g89
g70
NtRp2946
(dp2947
g73
(dp2948
g100
g101
ssg82
g2937
sg75
(lp2949
S':'
asbag68
(g89
g70
NtRp2950
(dp2951
g73
(dp2952
sg82
g2937
sg75
(lp2953
g68
(g69
g70
NtRp2954
(dp2955
g73
(dp2956
g81
I3
ssg82
g2950
sg75
(lp2957
g1497
asbasbasbag68
(g84
g70
NtRp2958
(dp2959
g73
(dp2960
sg82
g2702
sg75
(lp2961
g68
(g89
g70
NtRp2962
(dp2963
g73
(dp2964
g93
g94
ssg82
g2958
sg75
(lp2965
S'QUERY_STRING'
p2966
asbag68
(g89
g70
NtRp2967
(dp2968
g73
(dp2969
g100
g101
ssg82
g2958
sg75
(lp2970
S':'
asbag68
(g89
g70
NtRp2971
(dp2972
g73
(dp2973
sg82
g2958
sg75
(lp2974
g68
(g69
g70
NtRp2975
(dp2976
g73
(dp2977
g81
I3
ssg82
g2971
sg75
(lp2978
S''
asbasbasbag68
(g84
g70
NtRp2979
(dp2980
g73
(dp2981
sg82
g2702
sg75
(lp2982
g68
(g89
g70
NtRp2983
(dp2984
g73
(dp2985
g93
g94
ssg82
g2979
sg75
(lp2986
S'REMOTE_ADDR'
p2987
asbag68
(g89
g70
NtRp2988
(dp2989
g73
(dp2990
g100
g101
ssg82
g2979
sg75
(lp2991
S':'
asbag68
(g89
g70
NtRp2992
(dp2993
g73
(dp2994
sg82
g2979
sg75
(lp2995
g68
(g69
g70
NtRp2996
(dp2997
g73
(dp2998
g81
I3
ssg82
g2992
sg75
(lp2999
g236
asbasbasbag68
(g84
g70
NtRp3000
(dp3001
g73
(dp3002
sg82
g2702
sg75
(lp3003
g68
(g89
g70
NtRp3004
(dp3005
g73
(dp3006
g93
g94
ssg82
g3000
sg75
(lp3007
S'REMOTE_PORT'
p3008
asbag68
(g89
g70
NtRp3009
(dp3010
g73
(dp3011
g100
g101
ssg82
g3000
sg75
(lp3012
S':'
asbag68
(g89
g70
NtRp3013
(dp3014
g73
(dp3015
sg82
g3000
sg75
(lp3016
g68
(g69
g70
NtRp3017
(dp3018
g73
(dp3019
g81
I3
ssg82
g3013
sg75
(lp3020
g1561
asbasbasbag68
(g84
g70
NtRp3021
(dp3022
g73
(dp3023
sg82
g2702
sg75
(lp3024
g68
(g89
g70
NtRp3025
(dp3026
g73
(dp3027
g93
g94
ssg82
g3021
sg75
(lp3028
S'REQUEST_METHOD'
p3029
asbag68
(g89
g70
NtRp3030
(dp3031
g73
(dp3032
g100
g101
ssg82
g3021
sg75
(lp3033
S':'
asbag68
(g89
g70
NtRp3034
(dp3035
g73
(dp3036
sg82
g3021
sg75
(lp3037
g68
(g69
g70
NtRp3038
(dp3039
g73
(dp3040
g81
I3
ssg82
g3034
sg75
(lp3041
g1583
asbasbasbag68
(g84
g70
NtRp3042
(dp3043
g73
(dp3044
sg82
g2702
sg75
(lp3045
g68
(g89
g70
NtRp3046
(dp3047
g73
(dp3048
g93
g94
ssg82
g3042
sg75
(lp3049
S'SCRIPT_NAME'
p3050
asbag68
(g89
g70
NtRp3051
(dp3052
g73
(dp3053
g100
g101
ssg82
g3042
sg75
(lp3054
S':'
asbag68
(g89
g70
NtRp3055
(dp3056
g73
(dp3057
sg82
g3042
sg75
(lp3058
g68
(g69
g70
NtRp3059
(dp3060
g73
(dp3061
g81
I3
ssg82
g3055
sg75
(lp3062
S''
asbasbasbag68
(g84
g70
NtRp3063
(dp3064
g73
(dp3065
sg82
g2702
sg75
(lp3066
g68
(g89
g70
NtRp3067
(dp3068
g73
(dp3069
g93
g94
ssg82
g3063
sg75
(lp3070
S'SERVER_NAME'
p3071
asbag68
(g89
g70
NtRp3072
(dp3073
g73
(dp3074
g100
g101
ssg82
g3063
sg75
(lp3075
S':'
asbag68
(g89
g70
NtRp3076
(dp3077
g73
(dp3078
sg82
g3063
sg75
(lp3079
g68
(g69
g70
NtRp3080
(dp3081
g73
(dp3082
g81
I3
ssg82
g3076
sg75
(lp3083
g1626
asbasbasbag68
(g84
g70
NtRp3084
(dp3085
g73
(dp3086
sg82
g2702
sg75
(lp3087
g68
(g89
g70
NtRp3088
(dp3089
g73
(dp3090
g93
g94
ssg82
g3084
sg75
(lp3091
S'SERVER_PORT'
p3092
asbag68
(g89
g70
NtRp3093
(dp3094
g73
(dp3095
g100
g101
ssg82
g3084
sg75
(lp3096
S':'
asbag68
(g89
g70
NtRp3097
(dp3098
g73
(dp3099
sg82
g3084
sg75
(lp3100
g68
(g69
g70
NtRp3101
(dp3102
g73
(dp3103
g81
I3
ssg82
g3097
sg75
(lp3104
g1648
asbasbasbag68
(g84
g70
NtRp3105
(dp3106
g73
(dp3107
sg82
g2702
sg75
(lp3108
g68
(g89
g70
NtRp3109
(dp3110
g73
(dp3111
g93
g94
ssg82
g3105
sg75
(lp3112
S'SERVER_PROTOCOL'
p3113
asbag68
(g89
g70
NtRp3114
(dp3115
g73
(dp3116
g100
g101
ssg82
g3105
sg75
(lp3117
S':'
asbag68
(g89
g70
NtRp3118
(dp3119
g73
(dp3120
sg82
g3105
sg75
(lp3121
g68
(g69
g70
NtRp3122
(dp3123
g73
(dp3124
g81
I3
ssg82
g3118
sg75
(lp3125
g1670
asbasbasbag68
(g84
g70
NtRp3126
(dp3127
g73
(dp3128
sg82
g2702
sg75
(lp3129
g68
(g89
g70
NtRp3130
(dp3131
g73
(dp3132
g93
g94
ssg82
g3126
sg75
(lp3133
S'SERVER_SOFTWARE'
p3134
asbag68
(g89
g70
NtRp3135
(dp3136
g73
(dp3137
g100
g101
ssg82
g3126
sg75
(lp3138
S':'
asbag68
(g89
g70
NtRp3139
(dp3140
g73
(dp3141
sg82
g3126
sg75
(lp3142
g68
(g69
g70
NtRp3143
(dp3144
g73
(dp3145
g81
I3
ssg82
g3139
sg75
(lp3146
g1692
asbasbasbag68
(g84
g70
NtRp3147
(dp3148
g73
(dp3149
sg82
g2702
sg75
(lp3150
g68
(g89
g70
NtRp3151
(dp3152
g73
(dp3153
g93
g94
ssg82
g3147
sg75
(lp3154
S'wsgi.errors'
p3155
asbag68
(g89
g70
NtRp3156
(dp3157
g73
(dp3158
g100
g101
ssg82
g3147
sg75
(lp3159
S':'
asbag68
(g89
g70
NtRp3160
(dp3161
g73
(dp3162
sg82
g3147
sg75
(lp3163
g68
(g69
g70
NtRp3164
(dp3165
g73
(dp3166
g81
I3
ssg82
g3160
sg75
(lp3167
S"<open file '<stderr>', mode 'w' at 0x7f1a4db92270>"
p3168
asbasbasbag68
(g84
g70
NtRp3169
(dp3170
g73
(dp3171
sg82
g2702
sg75
(lp3172
g68
(g89
g70
NtRp3173
(dp3174
g73
(dp3175
g93
g94
ssg82
g3169
sg75
(lp3176
S'wsgi.file_wrapper'
p3177
asbag68
(g89
g70
NtRp3178
(dp3179
g73
(dp3180
g100
g101
ssg82
g3169
sg75
(lp3181
S':'
asbag68
(g89
g70
NtRp3182
(dp3183
g73
(dp3184
sg82
g3169
sg75
(lp3185
g68
(g69
g70
NtRp3186
(dp3187
g73
(dp3188
g81
I3
ssg82
g3182
sg75
(lp3189
S'<class wsgiref.util.FileWrapper at 0x21fc870>'
p3190
asbasbasbag68
(g84
g70
NtRp3191
(dp3192
g73
(dp3193
sg82
g2702
sg75
(lp3194
g68
(g89
g70
NtRp3195
(dp3196
g73
(dp3197
g93
g94
ssg82
g3191
sg75
(lp3198
S'wsgi.input'
p3199
asbag68
(g89
g70
NtRp3200
(dp3201
g73
(dp3202
g100
g101
ssg82
g3191
sg75
(lp3203
S':'
asbag68
(g89
g70
NtRp3204
(dp3205
g73
(dp3206
sg82
g3191
sg75
(lp3207
g68
(g69
g70
NtRp3208
(dp3209
g73
(dp3210
g81
I3
ssg82
g3204
sg75
(lp3211
S'<cStringIO.StringO object at 0x8dd7650>'
p3212
asbasbasbag68
(g84
g70
NtRp3213
(dp3214
g73
(dp3215
sg82
g2702
sg75
(lp3216
g68
(g89
g70
NtRp3217
(dp3218
g73
(dp3219
g93
g94
ssg82
g3213
sg75
(lp3220
S'wsgi.multiprocess'
p3221
asbag68
(g89
g70
NtRp3222
(dp3223
g73
(dp3224
g100
g101
ssg82
g3213
sg75
(lp3225
S':'
asbag68
(g89
g70
NtRp3226
(dp3227
g73
(dp3228
sg82
g3213
sg75
(lp3229
g68
(g69
g70
NtRp3230
(dp3231
g73
(dp3232
g81
I3
ssg82
g3226
sg75
(lp3233
g1191
asbasbasbag68
(g84
g70
NtRp3234
(dp3235
g73
(dp3236
sg82
g2702
sg75
(lp3237
g68
(g89
g70
NtRp3238
(dp3239
g73
(dp3240
g93
g94
ssg82
g3234
sg75
(lp3241
S'wsgi.multithread'
p3242
asbag68
(g89
g70
NtRp3243
(dp3244
g73
(dp3245
g100
g101
ssg82
g3234
sg75
(lp3246
S':'
asbag68
(g89
g70
NtRp3247
(dp3248
g73
(dp3249
sg82
g3234
sg75
(lp3250
g68
(g69
g70
NtRp3251
(dp3252
g73
(dp3253
g81
I3
ssg82
g3247
sg75
(lp3254
g111
asbasbasbag68
(g84
g70
NtRp3255
(dp3256
g73
(dp3257
sg82
g2702
sg75
(lp3258
g68
(g89
g70
NtRp3259
(dp3260
g73
(dp3261
g93
g94
ssg82
g3255
sg75
(lp3262
S'wsgi.run_once'
p3263
asbag68
(g89
g70
NtRp3264
(dp3265
g73
(dp3266
g100
g101
ssg82
g3255
sg75
(lp3267
S':'
asbag68
(g89
g70
NtRp3268
(dp3269
g73
(dp3270
sg82
g3255
sg75
(lp3271
g68
(g69
g70
NtRp3272
(dp3273
g73
(dp3274
g81
I3
ssg82
g3268
sg75
(lp3275
g1191
asbasbasbag68
(g84
g70
NtRp3276
(dp3277
g73
(dp3278
sg82
g2702
sg75
(lp3279
g68
(g89
g70
NtRp3280
(dp3281
g73
(dp3282
g93
g94
ssg82
g3276
sg75
(lp3283
S'wsgi.url_scheme'
p3284
asbag68
(g89
g70
NtRp3285
(dp3286
g73
(dp3287
g100
g101
ssg82
g3276
sg75
(lp3288
S':'
asbag68
(g89
g70
NtRp3289
(dp3290
g73
(dp3291
sg82
g3276
sg75
(lp3292
g68
(g69
g70
NtRp3293
(dp3294
g73
(dp3295
g81
I3
ssg82
g3289
sg75
(lp3296
g1974
asbasbasbag68
(g84
g70
NtRp3297
(dp3298
g73
(dp3299
sg82
g2702
sg75
(lp3300
g68
(g89
g70
NtRp3301
(dp3302
g73
(dp3303
g93
g94
ssg82
g3297
sg75
(lp3304
S'wsgi.version'
p3305
asbag68
(g89
g70
NtRp3306
(dp3307
g73
(dp3308
g100
g101
ssg82
g3297
sg75
(lp3309
S':'
asbag68
(g89
g70
NtRp3310
(dp3311
g73
(dp3312
sg82
g3297
sg75
(lp3313
g68
(g69
g70
NtRp3314
(dp3315
g73
(dp3316
g81
I3
ssg82
g3310
sg75
(lp3317
S'1'
asbasbasbasbasbasbasbasbasbasbasbasbasbsS'frames'
p3318
(lp3319
(dp3320
S'file'
p3321
S'/home/ian/web2py/gluon/restricted.py'
p3322
sS'dump'
p3323
(dp3324
S'code'
p3325
S'\'for c in grades:\\n    response.write(\\\'\\\\n<h3>\\\', es...t.args[0])+1)), _class="nextnav" cid=\\\'viewpane\\\'))\''
p3326
sS'layer'
p3327
S"'/home/ian/web2py/applications/grades/views/default/grades_report.load'"
p3328
sS'global compile2'
p3329
S'<function compile2>'
p3330
sS'ccode'
p3331
S'undefined'
p3332
ssS'lnum'
p3333
I193
sS'lines'
p3334
(dp3335
I192
S'        else:'
p3336
sI193
S'            ccode = compile2(code,layer)'
p3337
sI194
S'        exec ccode in environment'
p3338
sI195
S'    except HTTP:'
p3339
sI196
S'        raise'
p3340
sI197
S'    except Exception, error:'
p3341
sI188
S"    environment['__file__'] = layer"
p3342
sI189
S'    try:'
p3343
sI190
S'        if type(code) == types.CodeType:'
p3344
sI191
S'            ccode = code'
p3345
ssS'call'
p3346
S'(code=\'for c in grades:\\n    response.write(\\\'\\\\n<h3>\\\', es...t.args[0])+1)), _class="nextnav" cid=\\\'viewpane\\\'))\', environment={\'A\': <class \'gluon.html.A\'>, \'Auth\': <class \'gluon.tools.Auth\'>, \'B\': <class \'gluon.html.B\'>, \'BEAUTIFY\': <class \'gluon.html.BEAUTIFY\'>, \'BODY\': <class \'gluon.html.BODY\'>, \'BR\': <class \'gluon.html.BR\'>, \'BUTTON\': <class \'gluon.html.BUTTON\'>, \'CAT\': <class \'gluon.html.CAT\'>, \'CENTER\': <class \'gluon.html.CENTER\'>, \'CLEANUP\': <class \'gluon.validators.CLEANUP\'>, ...}, layer=\'/home/ian/web2py/applications/grades/views/default/grades_report.load\')'
p3347
sS'func'
p3348
S'restricted'
p3349
sa(dp3350
g3321
S'/home/ian/web2py/gluon/restricted.py'
p3351
sg3323
(dp3352
S'builtincompile'
p3353
S'<built-in function compile>'
p3354
sS'code'
p3355
S'\'for c in grades:\\n    response.write(\\\'\\\\n<h3>\\\', es...t.args[0])+1)), _class="nextnav" cid=\\\'viewpane\\\'))\''
p3356
sS'code.rstrip'
p3357
S'<built-in method rstrip of str object>'
p3358
sS').replace'
p3359
g3332
sS'layer'
p3360
S"'/home/ian/web2py/applications/grades/views/default/grades_report.load'"
p3361
ssg3333
I179
sg3334
(dp3362
I174
S''
sI175
S'def compile2(code,layer):'
p3363
sI176
S'    """'
p3364
sI177
S"    The +'\\n' is necessary else compile fails when code ends in a comment."
p3365
sI178
S'    """'
p3366
sI179
S"    return compile(code.rstrip().replace('\\r\\n','\\n')+'\\n', layer, 'exec')"
p3367
sI180
S''
sI181
S"def restricted(code, environment=None, layer='Unknown'):"
p3368
sI182
S'    """'
p3369
sI183
S'    runs code in environment and returns the output. if an exception occurs'
p3370
ssg3346
S'(code=\'for c in grades:\\n    response.write(\\\'\\\\n<h3>\\\', es...t.args[0])+1)), _class="nextnav" cid=\\\'viewpane\\\'))\', layer=\'/home/ian/web2py/applications/grades/views/default/grades_report.load\')'
p3371
sg3348
S'compile2'
p3372
sasS'pyver'
p3373
S'Python 2.7.2+: /usr/bin/python2.7'
p3374
sS'session'
p3375
g68
(g69
g70
NtRp3376
(dp3377
g73
(dp3378
sg75
(lp3379
g68
(g77
g70
NtRp3380
(dp3381
g73
(dp3382
g81
I5
ssg82
Nsg75
(lp3383
g68
(g84
g70
NtRp3384
(dp3385
g73
(dp3386
sg82
g3380
sg75
(lp3387
g68
(g89
g70
NtRp3388
(dp3389
g73
(dp3390
g93
g94
ssg82
g3384
sg75
(lp3391
S'auth'
p3392
asbag68
(g89
g70
NtRp3393
(dp3394
g73
(dp3395
g100
g101
ssg82
g3384
sg75
(lp3396
S':'
asbag68
(g89
g70
NtRp3397
(dp3398
g73
(dp3399
sg82
g3384
sg75
(lp3400
g68
(g69
g70
NtRp3401
(dp3402
g73
(dp3403
g81
I5
ssg82
g3397
sg75
(lp3404
g68
(g77
g70
NtRp3405
(dp3406
g73
(dp3407
g81
I4
ssg82
Nsg75
(lp3408
g68
(g84
g70
NtRp3409
(dp3410
g73
(dp3411
sg82
g3405
sg75
(lp3412
g68
(g89
g70
NtRp3413
(dp3414
g73
(dp3415
g93
g94
ssg82
g3409
sg75
(lp3416
S'expiration'
p3417
asbag68
(g89
g70
NtRp3418
(dp3419
g73
(dp3420
g100
g101
ssg82
g3409
sg75
(lp3421
S':'
asbag68
(g89
g70
NtRp3422
(dp3423
g73
(dp3424
sg82
g3409
sg75
(lp3425
g68
(g69
g70
NtRp3426
(dp3427
g73
(dp3428
g81
I4
ssg82
g3422
sg75
(lp3429
S'2592000'
p3430
asbasbasbag68
(g84
g70
NtRp3431
(dp3432
g73
(dp3433
sg82
g3405
sg75
(lp3434
g68
(g89
g70
NtRp3435
(dp3436
g73
(dp3437
g93
g94
ssg82
g3431
sg75
(lp3438
S'hmac_key'
p3439
asbag68
(g89
g70
NtRp3440
(dp3441
g73
(dp3442
g100
g101
ssg82
g3431
sg75
(lp3443
S':'
asbag68
(g89
g70
NtRp3444
(dp3445
g73
(dp3446
sg82
g3431
sg75
(lp3447
g68
(g69
g70
NtRp3448
(dp3449
g73
(dp3450
g81
I4
ssg82
g3444
sg75
(lp3451
S'7662103e-e580-4791-b95a-39c18813d8df'
p3452
asbasbasbag68
(g84
g70
NtRp3453
(dp3454
g73
(dp3455
sg82
g3405
sg75
(lp3456
g68
(g89
g70
NtRp3457
(dp3458
g73
(dp3459
g93
g94
ssg82
g3453
sg75
(lp3460
S'last_visit'
p3461
asbag68
(g89
g70
NtRp3462
(dp3463
g73
(dp3464
g100
g101
ssg82
g3453
sg75
(lp3465
S':'
asbag68
(g89
g70
NtRp3466
(dp3467
g73
(dp3468
sg82
g3453
sg75
(lp3469
g68
(g69
g70
NtRp3470
(dp3471
g73
(dp3472
g81
I4
ssg82
g3466
sg75
(lp3473
S'datetime.datetime(2011, 11, 3, 16, 16, 8, 558332)'
p3474
asbasbasbag68
(g84
g70
NtRp3475
(dp3476
g73
(dp3477
sg82
g3405
sg75
(lp3478
g68
(g89
g70
NtRp3479
(dp3480
g73
(dp3481
g93
g94
ssg82
g3475
sg75
(lp3482
S'remember'
p3483
asbag68
(g89
g70
NtRp3484
(dp3485
g73
(dp3486
g100
g101
ssg82
g3475
sg75
(lp3487
S':'
asbag68
(g89
g70
NtRp3488
(dp3489
g73
(dp3490
sg82
g3475
sg75
(lp3491
g68
(g69
g70
NtRp3492
(dp3493
g73
(dp3494
g81
I4
ssg82
g3488
sg75
(lp3495
g1191
asbasbasbag68
(g84
g70
NtRp3496
(dp3497
g73
(dp3498
sg82
g3405
sg75
(lp3499
g68
(g89
g70
NtRp3500
(dp3501
g73
(dp3502
g93
g94
ssg82
g3496
sg75
(lp3503
S'user'
p3504
asbag68
(g89
g70
NtRp3505
(dp3506
g73
(dp3507
g100
g101
ssg82
g3496
sg75
(lp3508
S':'
asbag68
(g89
g70
NtRp3509
(dp3510
g73
(dp3511
sg82
g3496
sg75
(lp3512
g68
(g69
g70
NtRp3513
(dp3514
g73
(dp3515
g81
I4
ssg82
g3509
sg75
(lp3516
g68
(g77
g70
NtRp3517
(dp3518
g73
(dp3519
g81
I3
ssg82
Nsg75
(lp3520
g68
(g84
g70
NtRp3521
(dp3522
g73
(dp3523
sg82
g3517
sg75
(lp3524
g68
(g89
g70
NtRp3525
(dp3526
g73
(dp3527
g93
g94
ssg82
g3521
sg75
(lp3528
S'email'
p3529
asbag68
(g89
g70
NtRp3530
(dp3531
g73
(dp3532
g100
g101
ssg82
g3521
sg75
(lp3533
S':'
asbag68
(g89
g70
NtRp3534
(dp3535
g73
(dp3536
sg82
g3521
sg75
(lp3537
g68
(g69
g70
NtRp3538
(dp3539
g73
(dp3540
g81
I3
ssg82
g3534
sg75
(lp3541
S'scottianw@gmail.com'
p3542
asbasbasbag68
(g84
g70
NtRp3543
(dp3544
g73
(dp3545
sg82
g3517
sg75
(lp3546
g68
(g89
g70
NtRp3547
(dp3548
g73
(dp3549
g93
g94
ssg82
g3543
sg75
(lp3550
S'first_name'
p3551
asbag68
(g89
g70
NtRp3552
(dp3553
g73
(dp3554
g100
g101
ssg82
g3543
sg75
(lp3555
S':'
asbag68
(g89
g70
NtRp3556
(dp3557
g73
(dp3558
sg82
g3543
sg75
(lp3559
g68
(g69
g70
NtRp3560
(dp3561
g73
(dp3562
g81
I3
ssg82
g3556
sg75
(lp3563
S'Ian'
p3564
asbasbasbag68
(g84
g70
NtRp3565
(dp3566
g73
(dp3567
sg82
g3517
sg75
(lp3568
g68
(g89
g70
NtRp3569
(dp3570
g73
(dp3571
g93
g94
ssg82
g3565
sg75
(lp3572
S'id'
p3573
asbag68
(g89
g70
NtRp3574
(dp3575
g73
(dp3576
g100
g101
ssg82
g3565
sg75
(lp3577
S':'
asbag68
(g89
g70
NtRp3578
(dp3579
g73
(dp3580
sg82
g3565
sg75
(lp3581
g68
(g69
g70
NtRp3582
(dp3583
g73
(dp3584
g81
I3
ssg82
g3578
sg75
(lp3585
S'11'
p3586
asbasbasbag68
(g84
g70
NtRp3587
(dp3588
g73
(dp3589
sg82
g3517
sg75
(lp3590
g68
(g89
g70
NtRp3591
(dp3592
g73
(dp3593
g93
g94
ssg82
g3587
sg75
(lp3594
S'last_name'
p3595
asbag68
(g89
g70
NtRp3596
(dp3597
g73
(dp3598
g100
g101
ssg82
g3587
sg75
(lp3599
S':'
asbag68
(g89
g70
NtRp3600
(dp3601
g73
(dp3602
sg82
g3587
sg75
(lp3603
g68
(g69
g70
NtRp3604
(dp3605
g73
(dp3606
g81
I3
ssg82
g3600
sg75
(lp3607
S'Scott'
p3608
asbasbasbag68
(g84
g70
NtRp3609
(dp3610
g73
(dp3611
sg82
g3517
sg75
(lp3612
g68
(g89
g70
NtRp3613
(dp3614
g73
(dp3615
g93
g94
ssg82
g3609
sg75
(lp3616
S'password'
p3617
asbag68
(g89
g70
NtRp3618
(dp3619
g73
(dp3620
g100
g101
ssg82
g3609
sg75
(lp3621
S':'
asbag68
(g89
g70
NtRp3622
(dp3623
g73
(dp3624
sg82
g3609
sg75
(lp3625
g68
(g69
g70
NtRp3626
(dp3627
g73
(dp3628
g81
I3
ssg82
g3622
sg75
(lp3629
S'351bc855a8ae4839e89ee60d2f279ed9'
p3630
asbasbasbag68
(g84
g70
NtRp3631
(dp3632
g73
(dp3633
sg82
g3517
sg75
(lp3634
g68
(g89
g70
NtRp3635
(dp3636
g73
(dp3637
g93
g94
ssg82
g3631
sg75
(lp3638
S'registration_key'
p3639
asbag68
(g89
g70
NtRp3640
(dp3641
g73
(dp3642
g100
g101
ssg82
g3631
sg75
(lp3643
S':'
asbag68
(g89
g70
NtRp3644
(dp3645
g73
(dp3646
sg82
g3631
sg75
(lp3647
g68
(g69
g70
NtRp3648
(dp3649
g73
(dp3650
g81
I3
ssg82
g3644
sg75
(lp3651
S''
asbasbasbag68
(g84
g70
NtRp3652
(dp3653
g73
(dp3654
sg82
g3517
sg75
(lp3655
g68
(g89
g70
NtRp3656
(dp3657
g73
(dp3658
g93
g94
ssg82
g3652
sg75
(lp3659
S'reset_password_key'
p3660
asbag68
(g89
g70
NtRp3661
(dp3662
g73
(dp3663
g100
g101
ssg82
g3652
sg75
(lp3664
S':'
asbag68
(g89
g70
NtRp3665
(dp3666
g73
(dp3667
sg82
g3652
sg75
(lp3668
g68
(g69
g70
NtRp3669
(dp3670
g73
(dp3671
g81
I3
ssg82
g3665
sg75
(lp3672
S''
asbasbasbasbasbasbasbasbasbasbasbag68
(g84
g70
NtRp3673
(dp3674
g73
(dp3675
sg82
g3380
sg75
(lp3676
g68
(g89
g70
NtRp3677
(dp3678
g73
(dp3679
g93
g94
ssg82
g3673
sg75
(lp3680
S'debug'
p3681
asbag68
(g89
g70
NtRp3682
(dp3683
g73
(dp3684
g100
g101
ssg82
g3673
sg75
(lp3685
S':'
asbag68
(g89
g70
NtRp3686
(dp3687
g73
(dp3688
sg82
g3673
sg75
(lp3689
g68
(g69
g70
NtRp3690
(dp3691
g73
(dp3692
g81
I5
ssg82
g3686
sg75
(lp3693
g170
asbasbasbasbasbsS'etype'
p3694
S"<type 'exceptions.SyntaxError'>"
p3695
sS'date'
p3696
S'Thu Nov  3 17:27:37 2011'
p3697
sS'response'
p3698
g68
(g69
g70
NtRp3699
(dp3700
g73
(dp3701
sg75
(lp3702
g68
(g77
g70
NtRp3703
(dp3704
g73
(dp3705
g81
I5
ssg82
Nsg75
(lp3706
g68
(g84
g70
NtRp3707
(dp3708
g73
(dp3709
sg82
g3703
sg75
(lp3710
g68
(g89
g70
NtRp3711
(dp3712
g73
(dp3713
g93
g94
ssg82
g3707
sg75
(lp3714
g179
asbag68
(g89
g70
NtRp3715
(dp3716
g73
(dp3717
g100
g101
ssg82
g3707
sg75
(lp3718
S':'
asbag68
(g89
g70
NtRp3719
(dp3720
g73
(dp3721
sg82
g3707
sg75
(lp3722
g68
(g69
g70
NtRp3723
(dp3724
g73
(dp3725
g81
I5
ssg82
g3719
sg75
(lp3726
S'<cStringIO.StringO object at 0x8de86c0>'
p3727
asbasbasbag68
(g84
g70
NtRp3728
(dp3729
g73
(dp3730
sg82
g3703
sg75
(lp3731
g68
(g89
g70
NtRp3732
(dp3733
g73
(dp3734
g93
g94
ssg82
g3728
sg75
(lp3735
g267
asbag68
(g89
g70
NtRp3736
(dp3737
g73
(dp3738
g100
g101
ssg82
g3728
sg75
(lp3739
S':'
asbag68
(g89
g70
NtRp3740
(dp3741
g73
(dp3742
sg82
g3728
sg75
(lp3743
g68
(g69
g70
NtRp3744
(dp3745
g73
(dp3746
g81
I5
ssg82
g3740
sg75
(lp3747
g68
(g77
g70
NtRp3748
(dp3749
g73
(dp3750
g81
I4
ssg82
Nsg75
(lp3751
g68
(g84
g70
NtRp3752
(dp3753
g73
(dp3754
sg82
g3748
sg75
(lp3755
g68
(g89
g70
NtRp3756
(dp3757
g73
(dp3758
g93
g94
ssg82
g3752
sg75
(lp3759
S'session_id_grades'
p3760
asbag68
(g89
g70
NtRp3761
(dp3762
g73
(dp3763
g100
g101
ssg82
g3752
sg75
(lp3764
S':'
asbag68
(g89
g70
NtRp3765
(dp3766
g73
(dp3767
sg82
g3752
sg75
(lp3768
g68
(g69
g70
NtRp3769
(dp3770
g73
(dp3771
g81
I4
ssg82
g3765
sg75
(lp3772
g68
(g77
g70
NtRp3773
(dp3774
g73
(dp3775
g81
I3
ssg82
Nsg75
(lp3776
g68
(g84
g70
NtRp3777
(dp3778
g73
(dp3779
sg82
g3773
sg75
(lp3780
g68
(g89
g70
NtRp3781
(dp3782
g73
(dp3783
g93
g94
ssg82
g3777
sg75
(lp3784
g317
asbag68
(g89
g70
NtRp3785
(dp3786
g73
(dp3787
g100
g101
ssg82
g3777
sg75
(lp3788
S':'
asbag68
(g89
g70
NtRp3789
(dp3790
g73
(dp3791
sg82
g3777
sg75
(lp3792
g68
(g69
g70
NtRp3793
(dp3794
g73
(dp3795
g81
I3
ssg82
g3789
sg75
(lp3796
S''
asbasbasbag68
(g84
g70
NtRp3797
(dp3798
g73
(dp3799
sg82
g3773
sg75
(lp3800
g68
(g89
g70
NtRp3801
(dp3802
g73
(dp3803
g93
g94
ssg82
g3797
sg75
(lp3804
g338
asbag68
(g89
g70
NtRp3805
(dp3806
g73
(dp3807
g100
g101
ssg82
g3797
sg75
(lp3808
S':'
asbag68
(g89
g70
NtRp3809
(dp3810
g73
(dp3811
sg82
g3797
sg75
(lp3812
g68
(g69
g70
NtRp3813
(dp3814
g73
(dp3815
g81
I3
ssg82
g3809
sg75
(lp3816
S''
asbasbasbag68
(g84
g70
NtRp3817
(dp3818
g73
(dp3819
sg82
g3773
sg75
(lp3820
g68
(g89
g70
NtRp3821
(dp3822
g73
(dp3823
g93
g94
ssg82
g3817
sg75
(lp3824
g359
asbag68
(g89
g70
NtRp3825
(dp3826
g73
(dp3827
g100
g101
ssg82
g3817
sg75
(lp3828
S':'
asbag68
(g89
g70
NtRp3829
(dp3830
g73
(dp3831
sg82
g3817
sg75
(lp3832
g68
(g69
g70
NtRp3833
(dp3834
g73
(dp3835
g81
I3
ssg82
g3829
sg75
(lp3836
S''
asbasbasbag68
(g84
g70
NtRp3837
(dp3838
g73
(dp3839
sg82
g3773
sg75
(lp3840
g68
(g89
g70
NtRp3841
(dp3842
g73
(dp3843
g93
g94
ssg82
g3837
sg75
(lp3844
g380
asbag68
(g89
g70
NtRp3845
(dp3846
g73
(dp3847
g100
g101
ssg82
g3837
sg75
(lp3848
S':'
asbag68
(g89
g70
NtRp3849
(dp3850
g73
(dp3851
sg82
g3837
sg75
(lp3852
g68
(g69
g70
NtRp3853
(dp3854
g73
(dp3855
g81
I3
ssg82
g3849
sg75
(lp3856
S''
asbasbasbag68
(g84
g70
NtRp3857
(dp3858
g73
(dp3859
sg82
g3773
sg75
(lp3860
g68
(g89
g70
NtRp3861
(dp3862
g73
(dp3863
g93
g94
ssg82
g3857
sg75
(lp3864
g401
asbag68
(g89
g70
NtRp3865
(dp3866
g73
(dp3867
g100
g101
ssg82
g3857
sg75
(lp3868
S':'
asbag68
(g89
g70
NtRp3869
(dp3870
g73
(dp3871
sg82
g3857
sg75
(lp3872
g68
(g69
g70
NtRp3873
(dp3874
g73
(dp3875
g81
I3
ssg82
g3869
sg75
(lp3876
S''
asbasbasbag68
(g84
g70
NtRp3877
(dp3878
g73
(dp3879
sg82
g3773
sg75
(lp3880
g68
(g89
g70
NtRp3881
(dp3882
g73
(dp3883
g93
g94
ssg82
g3877
sg75
(lp3884
g422
asbag68
(g89
g70
NtRp3885
(dp3886
g73
(dp3887
g100
g101
ssg82
g3877
sg75
(lp3888
S':'
asbag68
(g89
g70
NtRp3889
(dp3890
g73
(dp3891
sg82
g3877
sg75
(lp3892
g68
(g69
g70
NtRp3893
(dp3894
g73
(dp3895
g81
I3
ssg82
g3889
sg75
(lp3896
S'/'
asbasbasbag68
(g84
g70
NtRp3897
(dp3898
g73
(dp3899
sg82
g3773
sg75
(lp3900
g68
(g89
g70
NtRp3901
(dp3902
g73
(dp3903
g93
g94
ssg82
g3897
sg75
(lp3904
g443
asbag68
(g89
g70
NtRp3905
(dp3906
g73
(dp3907
g100
g101
ssg82
g3897
sg75
(lp3908
S':'
asbag68
(g89
g70
NtRp3909
(dp3910
g73
(dp3911
sg82
g3897
sg75
(lp3912
g68
(g69
g70
NtRp3913
(dp3914
g73
(dp3915
g81
I3
ssg82
g3909
sg75
(lp3916
S''
asbasbasbag68
(g84
g70
NtRp3917
(dp3918
g73
(dp3919
sg82
g3773
sg75
(lp3920
g68
(g89
g70
NtRp3921
(dp3922
g73
(dp3923
g93
g94
ssg82
g3917
sg75
(lp3924
g464
asbag68
(g89
g70
NtRp3925
(dp3926
g73
(dp3927
g100
g101
ssg82
g3917
sg75
(lp3928
S':'
asbag68
(g89
g70
NtRp3929
(dp3930
g73
(dp3931
sg82
g3917
sg75
(lp3932
g68
(g69
g70
NtRp3933
(dp3934
g73
(dp3935
g81
I3
ssg82
g3929
sg75
(lp3936
S''
asbasbasbasbasbasbasbasbasbasbasbag68
(g84
g70
NtRp3937
(dp3938
g73
(dp3939
sg82
g3703
sg75
(lp3940
g68
(g89
g70
NtRp3941
(dp3942
g73
(dp3943
g93
g94
ssg82
g3937
sg75
(lp3944
S'files'
p3945
asbag68
(g89
g70
NtRp3946
(dp3947
g73
(dp3948
g100
g101
ssg82
g3937
sg75
(lp3949
S':'
asbag68
(g89
g70
NtRp3950
(dp3951
g73
(dp3952
sg82
g3937
sg75
(lp3953
g68
(g69
g70
NtRp3954
(dp3955
g73
(dp3956
g81
I5
ssg82
g3950
sg75
(lp3957
g68
(g77
g70
NtRp3958
(dp3959
g73
(dp3960
g81
I4
ssg82
Nsg75
(lp3961
sbasbasbasbag68
(g84
g70
NtRp3962
(dp3963
g73
(dp3964
sg82
g3703
sg75
(lp3965
g68
(g89
g70
NtRp3966
(dp3967
g73
(dp3968
g93
g94
ssg82
g3962
sg75
(lp3969
S'flash'
p3970
asbag68
(g89
g70
NtRp3971
(dp3972
g73
(dp3973
g100
g101
ssg82
g3962
sg75
(lp3974
S':'
asbag68
(g89
g70
NtRp3975
(dp3976
g73
(dp3977
sg82
g3962
sg75
(lp3978
g68
(g69
g70
NtRp3979
(dp3980
g73
(dp3981
g81
I5
ssg82
g3975
sg75
(lp3982
S''
asbasbasbag68
(g84
g70
NtRp3983
(dp3984
g73
(dp3985
sg82
g3703
sg75
(lp3986
g68
(g89
g70
NtRp3987
(dp3988
g73
(dp3989
g93
g94
ssg82
g3983
sg75
(lp3990
S'generic_patterns'
p3991
asbag68
(g89
g70
NtRp3992
(dp3993
g73
(dp3994
g100
g101
ssg82
g3983
sg75
(lp3995
S':'
asbag68
(g89
g70
NtRp3996
(dp3997
g73
(dp3998
sg82
g3983
sg75
(lp3999
g68
(g69
g70
NtRp4000
(dp4001
g73
(dp4002
g81
I5
ssg82
g3996
sg75
(lp4003
g68
(g77
g70
NtRp4004
(dp4005
g73
(dp4006
g81
I4
ssg82
Nsg75
(lp4007
g68
(g84
g70
NtRp4008
(dp4009
g73
(dp4010
sg82
g4004
sg75
(lp4011
g68
(g89
g70
NtRp4012
(dp4013
g73
(dp4014
sg82
g4008
sg75
(lp4015
g68
(g69
g70
NtRp4016
(dp4017
g73
(dp4018
g81
I4
ssg82
g4012
sg75
(lp4019
S'*'
asbasbasbasbasbasbasbag68
(g84
g70
NtRp4020
(dp4021
g73
(dp4022
sg82
g3703
sg75
(lp4023
g68
(g89
g70
NtRp4024
(dp4025
g73
(dp4026
g93
g94
ssg82
g4020
sg75
(lp4027
S'headers'
p4028
asbag68
(g89
g70
NtRp4029
(dp4030
g73
(dp4031
g100
g101
ssg82
g4020
sg75
(lp4032
S':'
asbag68
(g89
g70
NtRp4033
(dp4034
g73
(dp4035
sg82
g4020
sg75
(lp4036
g68
(g69
g70
NtRp4037
(dp4038
g73
(dp4039
g81
I5
ssg82
g4033
sg75
(lp4040
g68
(g77
g70
NtRp4041
(dp4042
g73
(dp4043
g81
I4
ssg82
Nsg75
(lp4044
g68
(g84
g70
NtRp4045
(dp4046
g73
(dp4047
sg82
g4041
sg75
(lp4048
g68
(g89
g70
NtRp4049
(dp4050
g73
(dp4051
g93
g94
ssg82
g4045
sg75
(lp4052
S'Cache-Control'
p4053
asbag68
(g89
g70
NtRp4054
(dp4055
g73
(dp4056
g100
g101
ssg82
g4045
sg75
(lp4057
S':'
asbag68
(g89
g70
NtRp4058
(dp4059
g73
(dp4060
sg82
g4045
sg75
(lp4061
g68
(g69
g70
NtRp4062
(dp4063
g73
(dp4064
g81
I4
ssg82
g4058
sg75
(lp4065
S'no-store, no-cache, must-revalidate, post-check=0, pre-check=0'
p4066
asbasbasbag68
(g84
g70
NtRp4067
(dp4068
g73
(dp4069
sg82
g4041
sg75
(lp4070
g68
(g89
g70
NtRp4071
(dp4072
g73
(dp4073
g93
g94
ssg82
g4067
sg75
(lp4074
S'Content-Type'
p4075
asbag68
(g89
g70
NtRp4076
(dp4077
g73
(dp4078
g100
g101
ssg82
g4067
sg75
(lp4079
S':'
asbag68
(g89
g70
NtRp4080
(dp4081
g73
(dp4082
sg82
g4067
sg75
(lp4083
g68
(g69
g70
NtRp4084
(dp4085
g73
(dp4086
g81
I4
ssg82
g4080
sg75
(lp4087
S'text/html; charset=utf-8'
p4088
asbasbasbag68
(g84
g70
NtRp4089
(dp4090
g73
(dp4091
sg82
g4041
sg75
(lp4092
g68
(g89
g70
NtRp4093
(dp4094
g73
(dp4095
g93
g94
ssg82
g4089
sg75
(lp4096
S'Expires'
p4097
asbag68
(g89
g70
NtRp4098
(dp4099
g73
(dp4100
g100
g101
ssg82
g4089
sg75
(lp4101
S':'
asbag68
(g89
g70
NtRp4102
(dp4103
g73
(dp4104
sg82
g4089
sg75
(lp4105
g68
(g69
g70
NtRp4106
(dp4107
g73
(dp4108
g81
I4
ssg82
g4102
sg75
(lp4109
S'Thu, 03 Nov 2011 21:27:37 GMT'
p4110
asbasbasbag68
(g84
g70
NtRp4111
(dp4112
g73
(dp4113
sg82
g4041
sg75
(lp4114
g68
(g89
g70
NtRp4115
(dp4116
g73
(dp4117
g93
g94
ssg82
g4111
sg75
(lp4118
S'Pragma'
p4119
asbag68
(g89
g70
NtRp4120
(dp4121
g73
(dp4122
g100
g101
ssg82
g4111
sg75
(lp4123
S':'
asbag68
(g89
g70
NtRp4124
(dp4125
g73
(dp4126
sg82
g4111
sg75
(lp4127
g68
(g69
g70
NtRp4128
(dp4129
g73
(dp4130
g81
I4
ssg82
g4124
sg75
(lp4131
S'no-cache'
p4132
asbasbasbag68
(g84
g70
NtRp4133
(dp4134
g73
(dp4135
sg82
g4041
sg75
(lp4136
g68
(g89
g70
NtRp4137
(dp4138
g73
(dp4139
g93
g94
ssg82
g4133
sg75
(lp4140
S'X-Powered-By'
p4141
asbag68
(g89
g70
NtRp4142
(dp4143
g73
(dp4144
g100
g101
ssg82
g4133
sg75
(lp4145
S':'
asbag68
(g89
g70
NtRp4146
(dp4147
g73
(dp4148
sg82
g4133
sg75
(lp4149
g68
(g69
g70
NtRp4150
(dp4151
g73
(dp4152
g81
I4
ssg82
g4146
sg75
(lp4153
S'web2py'
p4154
asbasbasbasbasbasbasbag68
(g84
g70
NtRp4155
(dp4156
g73
(dp4157
sg82
g3703
sg75
(lp4158
g68
(g89
g70
NtRp4159
(dp4160
g73
(dp4161
g93
g94
ssg82
g4155
sg75
(lp4162
S'menu'
p4163
asbag68
(g89
g70
NtRp4164
(dp4165
g73
(dp4166
g100
g101
ssg82
g4155
sg75
(lp4167
S':'
asbag68
(g89
g70
NtRp4168
(dp4169
g73
(dp4170
sg82
g4155
sg75
(lp4171
g68
(g69
g70
NtRp4172
(dp4173
g73
(dp4174
g81
I5
ssg82
g4168
sg75
(lp4175
g68
(g77
g70
NtRp4176
(dp4177
g73
(dp4178
g81
I4
ssg82
Nsg75
(lp4179
g68
(g84
g70
NtRp4180
(dp4181
g73
(dp4182
sg82
g4176
sg75
(lp4183
g68
(g89
g70
NtRp4184
(dp4185
g73
(dp4186
sg82
g4180
sg75
(lp4187
g68
(g69
g70
NtRp4188
(dp4189
g73
(dp4190
g81
I4
ssg82
g4184
sg75
(lp4191
g68
(g77
g70
NtRp4192
(dp4193
g73
(dp4194
g81
I3
ssg82
Nsg75
(lp4195
g68
(g84
g70
NtRp4196
(dp4197
g73
(dp4198
sg82
g4192
sg75
(lp4199
g68
(g89
g70
NtRp4200
(dp4201
g73
(dp4202
sg82
g4196
sg75
(lp4203
g68
(g69
g70
NtRp4204
(dp4205
g73
(dp4206
g81
I3
ssg82
g4200
sg75
(lp4207
cgluon.languages
lazyT_unpickle
p4208
(S't\x05\x00\x00\x00Index'
tRp4209
asbasbasbag68
(g84
g70
NtRp4210
(dp4211
g73
(dp4212
sg82
g4192
sg75
(lp4213
g68
(g89
g70
NtRp4214
(dp4215
g73
(dp4216
sg82
g4210
sg75
(lp4217
g68
(g69
g70
NtRp4218
(dp4219
g73
(dp4220
g81
I3
ssg82
g4214
sg75
(lp4221
g1191
asbasbasbag68
(g84
g70
NtRp4222
(dp4223
g73
(dp4224
sg82
g4192
sg75
(lp4225
g68
(g89
g70
NtRp4226
(dp4227
g73
(dp4228
sg82
g4222
sg75
(lp4229
g68
(g69
g70
NtRp4230
(dp4231
g73
(dp4232
g81
I3
ssg82
g4226
sg75
(lp4233
S'/grades/default/index.load'
p4234
asbasbasbag68
(g84
g70
NtRp4235
(dp4236
g73
(dp4237
sg82
g4192
sg75
(lp4238
g68
(g89
g70
NtRp4239
(dp4240
g73
(dp4241
sg82
g4235
sg75
(lp4242
g68
(g69
g70
NtRp4243
(dp4244
g73
(dp4245
g81
I3
ssg82
g4239
sg75
(lp4246
g68
(g77
g70
NtRp4247
(dp4248
g73
(dp4249
g81
I2
ssg82
Nsg75
(lp4250
sbasbasbasbasbasbasbasbag68
(g84
g70
NtRp4251
(dp4252
g73
(dp4253
sg82
g4176
sg75
(lp4254
g68
(g89
g70
NtRp4255
(dp4256
g73
(dp4257
sg82
g4251
sg75
(lp4258
g68
(g69
g70
NtRp4259
(dp4260
g73
(dp4261
g81
I4
ssg82
g4255
sg75
(lp4262
g68
(g77
g70
NtRp4263
(dp4264
g73
(dp4265
g81
I3
ssg82
Nsg75
(lp4266
g68
(g84
g70
NtRp4267
(dp4268
g73
(dp4269
sg82
g4263
sg75
(lp4270
g68
(g89
g70
NtRp4271
(dp4272
g73
(dp4273
sg82
g4267
sg75
(lp4274
g68
(g69
g70
NtRp4275
(dp4276
g73
(dp4277
g81
I3
ssg82
g4271
sg75
(lp4278
g4208
(S't\x06\x00\x00\x00Grades'
tRp4279
asbasbasbag68
(g84
g70
NtRp4280
(dp4281
g73
(dp4282
sg82
g4263
sg75
(lp4283
g68
(g89
g70
NtRp4284
(dp4285
g73
(dp4286
sg82
g4280
sg75
(lp4287
g68
(g69
g70
NtRp4288
(dp4289
g73
(dp4290
g81
I3
ssg82
g4284
sg75
(lp4291
g1191
asbasbasbag68
(g84
g70
NtRp4292
(dp4293
g73
(dp4294
sg82
g4263
sg75
(lp4295
g68
(g89
g70
NtRp4296
(dp4297
g73
(dp4298
sg82
g4292
sg75
(lp4299
g68
(g69
g70
NtRp4300
(dp4301
g73
(dp4302
g81
I3
ssg82
g4296
sg75
(lp4303
S'/grades/default/grades_manage.load'
p4304
asbasbasbag68
(g84
g70
NtRp4305
(dp4306
g73
(dp4307
sg82
g4263
sg75
(lp4308
g68
(g89
g70
NtRp4309
(dp4310
g73
(dp4311
sg82
g4305
sg75
(lp4312
g68
(g69
g70
NtRp4313
(dp4314
g73
(dp4315
g81
I3
ssg82
g4309
sg75
(lp4316
g68
(g77
g70
NtRp4317
(dp4318
g73
(dp4319
g81
I2
ssg82
Nsg75
(lp4320
sbasbasbasbasbasbasbasbag68
(g84
g70
NtRp4321
(dp4322
g73
(dp4323
sg82
g4176
sg75
(lp4324
g68
(g89
g70
NtRp4325
(dp4326
g73
(dp4327
sg82
g4321
sg75
(lp4328
g68
(g69
g70
NtRp4329
(dp4330
g73
(dp4331
g81
I4
ssg82
g4325
sg75
(lp4332
g68
(g77
g70
NtRp4333
(dp4334
g73
(dp4335
g81
I3
ssg82
Nsg75
(lp4336
g68
(g84
g70
NtRp4337
(dp4338
g73
(dp4339
sg82
g4333
sg75
(lp4340
g68
(g89
g70
NtRp4341
(dp4342
g73
(dp4343
sg82
g4337
sg75
(lp4344
g68
(g69
g70
NtRp4345
(dp4346
g73
(dp4347
g81
I3
ssg82
g4341
sg75
(lp4348
g4208
(S't\x07\x00\x00\x00Classes'
tRp4349
asbasbasbag68
(g84
g70
NtRp4350
(dp4351
g73
(dp4352
sg82
g4333
sg75
(lp4353
g68
(g89
g70
NtRp4354
(dp4355
g73
(dp4356
sg82
g4350
sg75
(lp4357
g68
(g69
g70
NtRp4358
(dp4359
g73
(dp4360
g81
I3
ssg82
g4354
sg75
(lp4361
g1191
asbasbasbag68
(g84
g70
NtRp4362
(dp4363
g73
(dp4364
sg82
g4333
sg75
(lp4365
g68
(g89
g70
NtRp4366
(dp4367
g73
(dp4368
sg82
g4362
sg75
(lp4369
g68
(g69
g70
NtRp4370
(dp4371
g73
(dp4372
g81
I3
ssg82
g4366
sg75
(lp4373
S'/grades/default/classes_manage.load'
p4374
asbasbasbag68
(g84
g70
NtRp4375
(dp4376
g73
(dp4377
sg82
g4333
sg75
(lp4378
g68
(g89
g70
NtRp4379
(dp4380
g73
(dp4381
sg82
g4375
sg75
(lp4382
g68
(g69
g70
NtRp4383
(dp4384
g73
(dp4385
g81
I3
ssg82
g4379
sg75
(lp4386
g68
(g77
g70
NtRp4387
(dp4388
g73
(dp4389
g81
I2
ssg82
Nsg75
(lp4390
sbasbasbasbasbasbasbasbasbasbasbasbag68
(g84
g70
NtRp4391
(dp4392
g73
(dp4393
sg82
g3703
sg75
(lp4394
g68
(g89
g70
NtRp4395
(dp4396
g73
(dp4397
g93
g94
ssg82
g4391
sg75
(lp4398
S'meta'
p4399
asbag68
(g89
g70
NtRp4400
(dp4401
g73
(dp4402
g100
g101
ssg82
g4391
sg75
(lp4403
S':'
asbag68
(g89
g70
NtRp4404
(dp4405
g73
(dp4406
sg82
g4391
sg75
(lp4407
g68
(g69
g70
NtRp4408
(dp4409
g73
(dp4410
g81
I5
ssg82
g4404
sg75
(lp4411
g68
(g77
g70
NtRp4412
(dp4413
g73
(dp4414
g81
I4
ssg82
Nsg75
(lp4415
g68
(g84
g70
NtRp4416
(dp4417
g73
(dp4418
sg82
g4412
sg75
(lp4419
g68
(g89
g70
NtRp4420
(dp4421
g73
(dp4422
g93
g94
ssg82
g4416
sg75
(lp4423
S'author'
p4424
asbag68
(g89
g70
NtRp4425
(dp4426
g73
(dp4427
g100
g101
ssg82
g4416
sg75
(lp4428
S':'
asbag68
(g89
g70
NtRp4429
(dp4430
g73
(dp4431
sg82
g4416
sg75
(lp4432
g68
(g69
g70
NtRp4433
(dp4434
g73
(dp4435
g81
I4
ssg82
g4429
sg75
(lp4436
S'Ian W. Scott <scottianw@gmail.com>'
p4437
asbasbasbag68
(g84
g70
NtRp4438
(dp4439
g73
(dp4440
sg82
g4412
sg75
(lp4441
g68
(g89
g70
NtRp4442
(dp4443
g73
(dp4444
g93
g94
ssg82
g4438
sg75
(lp4445
S'description'
p4446
asbag68
(g89
g70
NtRp4447
(dp4448
g73
(dp4449
g100
g101
ssg82
g4438
sg75
(lp4450
S':'
asbag68
(g89
g70
NtRp4451
(dp4452
g73
(dp4453
sg82
g4438
sg75
(lp4454
g68
(g69
g70
NtRp4455
(dp4456
g73
(dp4457
g81
I4
ssg82
g4451
sg75
(lp4458
S''
asbasbasbag68
(g84
g70
NtRp4459
(dp4460
g73
(dp4461
sg82
g4412
sg75
(lp4462
g68
(g89
g70
NtRp4463
(dp4464
g73
(dp4465
g93
g94
ssg82
g4459
sg75
(lp4466
S'keywords'
p4467
asbag68
(g89
g70
NtRp4468
(dp4469
g73
(dp4470
g100
g101
ssg82
g4459
sg75
(lp4471
S':'
asbag68
(g89
g70
NtRp4472
(dp4473
g73
(dp4474
sg82
g4459
sg75
(lp4475
g68
(g69
g70
NtRp4476
(dp4477
g73
(dp4478
g81
I4
ssg82
g4472
sg75
(lp4479
S''
asbasbasbasbasbasbasbag68
(g84
g70
NtRp4480
(dp4481
g73
(dp4482
sg82
g3703
sg75
(lp4483
g68
(g89
g70
NtRp4484
(dp4485
g73
(dp4486
g93
g94
ssg82
g4480
sg75
(lp4487
S'postprocessing'
p4488
asbag68
(g89
g70
NtRp4489
(dp4490
g73
(dp4491
g100
g101
ssg82
g4480
sg75
(lp4492
S':'
asbag68
(g89
g70
NtRp4493
(dp4494
g73
(dp4495
sg82
g4480
sg75
(lp4496
g68
(g69
g70
NtRp4497
(dp4498
g73
(dp4499
g81
I5
ssg82
g4493
sg75
(lp4500
g68
(g77
g70
NtRp4501
(dp4502
g73
(dp4503
g81
I4
ssg82
Nsg75
(lp4504
sbasbasbasbag68
(g84
g70
NtRp4505
(dp4506
g73
(dp4507
sg82
g3703
sg75
(lp4508
g68
(g89
g70
NtRp4509
(dp4510
g73
(dp4511
g93
g94
ssg82
g4505
sg75
(lp4512
S'session_file'
p4513
asbag68
(g89
g70
NtRp4514
(dp4515
g73
(dp4516
g100
g101
ssg82
g4505
sg75
(lp4517
S':'
asbag68
(g89
g70
NtRp4518
(dp4519
g73
(dp4520
sg82
g4505
sg75
(lp4521
g68
(g69
g70
NtRp4522
(dp4523
g73
(dp4524
g81
I5
ssg82
g4518
sg75
(lp4525
S"<open file '/home/ian/web2py/applications/grades/sessions/127.0.0.1-61c0ea3f-8797-4aff-bb5b-97a734e7ddbc', mode 'rb+' at 0x75b8ae0>"
p4526
asbasbasbag68
(g84
g70
NtRp4527
(dp4528
g73
(dp4529
sg82
g3703
sg75
(lp4530
g68
(g89
g70
NtRp4531
(dp4532
g73
(dp4533
g93
g94
ssg82
g4527
sg75
(lp4534
S'session_filename'
p4535
asbag68
(g89
g70
NtRp4536
(dp4537
g73
(dp4538
g100
g101
ssg82
g4527
sg75
(lp4539
S':'
asbag68
(g89
g70
NtRp4540
(dp4541
g73
(dp4542
sg82
g4527
sg75
(lp4543
g68
(g69
g70
NtRp4544
(dp4545
g73
(dp4546
g81
I5
ssg82
g4540
sg75
(lp4547
S'/home/ian/web2py/applications/grades/sessions/127.0.0.1-61c0ea3f-8797-4aff-bb5b-97a734e7ddbc'
p4548
asbasbasbag68
(g84
g70
NtRp4549
(dp4550
g73
(dp4551
sg82
g3703
sg75
(lp4552
g68
(g89
g70
NtRp4553
(dp4554
g73
(dp4555
g93
g94
ssg82
g4549
sg75
(lp4556
S'session_id'
p4557
asbag68
(g89
g70
NtRp4558
(dp4559
g73
(dp4560
g100
g101
ssg82
g4549
sg75
(lp4561
S':'
asbag68
(g89
g70
NtRp4562
(dp4563
g73
(dp4564
sg82
g4549
sg75
(lp4565
g68
(g69
g70
NtRp4566
(dp4567
g73
(dp4568
g81
I5
ssg82
g4562
sg75
(lp4569
S'127.0.0.1-61c0ea3f-8797-4aff-bb5b-97a734e7ddbc'
p4570
asbasbasbag68
(g84
g70
NtRp4571
(dp4572
g73
(dp4573
sg82
g3703
sg75
(lp4574
g68
(g89
g70
NtRp4575
(dp4576
g73
(dp4577
g93
g94
ssg82
g4571
sg75
(lp4578
S'session_id_name'
p4579
asbag68
(g89
g70
NtRp4580
(dp4581
g73
(dp4582
g100
g101
ssg82
g4571
sg75
(lp4583
S':'
asbag68
(g89
g70
NtRp4584
(dp4585
g73
(dp4586
sg82
g4571
sg75
(lp4587
g68
(g69
g70
NtRp4588
(dp4589
g73
(dp4590
g81
I5
ssg82
g4584
sg75
(lp4591
g3760
asbasbasbag68
(g84
g70
NtRp4592
(dp4593
g73
(dp4594
sg82
g3703
sg75
(lp4595
g68
(g89
g70
NtRp4596
(dp4597
g73
(dp4598
g93
g94
ssg82
g4592
sg75
(lp4599
S'session_locked'
p4600
asbag68
(g89
g70
NtRp4601
(dp4602
g73
(dp4603
g100
g101
ssg82
g4592
sg75
(lp4604
S':'
asbag68
(g89
g70
NtRp4605
(dp4606
g73
(dp4607
sg82
g4592
sg75
(lp4608
g68
(g69
g70
NtRp4609
(dp4610
g73
(dp4611
g81
I5
ssg82
g4605
sg75
(lp4612
g111
asbasbasbag68
(g84
g70
NtRp4613
(dp4614
g73
(dp4615
sg82
g3703
sg75
(lp4616
g68
(g89
g70
NtRp4617
(dp4618
g73
(dp4619
g93
g94
ssg82
g4613
sg75
(lp4620
S'session_new'
p4621
asbag68
(g89
g70
NtRp4622
(dp4623
g73
(dp4624
g100
g101
ssg82
g4613
sg75
(lp4625
S':'
asbag68
(g89
g70
NtRp4626
(dp4627
g73
(dp4628
sg82
g4613
sg75
(lp4629
g68
(g69
g70
NtRp4630
(dp4631
g73
(dp4632
g81
I5
ssg82
g4626
sg75
(lp4633
g1191
asbasbasbag68
(g84
g70
NtRp4634
(dp4635
g73
(dp4636
sg82
g3703
sg75
(lp4637
g68
(g89
g70
NtRp4638
(dp4639
g73
(dp4640
g93
g94
ssg82
g4634
sg75
(lp4641
S'status'
p4642
asbag68
(g89
g70
NtRp4643
(dp4644
g73
(dp4645
g100
g101
ssg82
g4634
sg75
(lp4646
S':'
asbag68
(g89
g70
NtRp4647
(dp4648
g73
(dp4649
sg82
g4634
sg75
(lp4650
g68
(g69
g70
NtRp4651
(dp4652
g73
(dp4653
g81
I5
ssg82
g4647
sg75
(lp4654
S'200'
p4655
asbasbasbag68
(g84
g70
NtRp4656
(dp4657
g73
(dp4658
sg82
g3703
sg75
(lp4659
g68
(g89
g70
NtRp4660
(dp4661
g73
(dp4662
g93
g94
ssg82
g4656
sg75
(lp4663
S'subtitle'
p4664
asbag68
(g89
g70
NtRp4665
(dp4666
g73
(dp4667
g100
g101
ssg82
g4656
sg75
(lp4668
S':'
asbag68
(g89
g70
NtRp4669
(dp4670
g73
(dp4671
sg82
g4656
sg75
(lp4672
g68
(g69
g70
NtRp4673
(dp4674
g73
(dp4675
g81
I5
ssg82
g4669
sg75
(lp4676
S'a platform for easy submission of peer grades'
p4677
asbasbasbag68
(g84
g70
NtRp4678
(dp4679
g73
(dp4680
sg82
g3703
sg75
(lp4681
g68
(g89
g70
NtRp4682
(dp4683
g73
(dp4684
g93
g94
ssg82
g4678
sg75
(lp4685
S'title'
p4686
asbag68
(g89
g70
NtRp4687
(dp4688
g73
(dp4689
g100
g101
ssg82
g4678
sg75
(lp4690
S':'
asbag68
(g89
g70
NtRp4691
(dp4692
g73
(dp4693
sg82
g4678
sg75
(lp4694
g68
(g69
g70
NtRp4695
(dp4696
g73
(dp4697
g81
I5
ssg82
g4691
sg75
(lp4698
S'Grades'
p4699
asbasbasbag68
(g84
g70
NtRp4700
(dp4701
g73
(dp4702
sg82
g3703
sg75
(lp4703
g68
(g89
g70
NtRp4704
(dp4705
g73
(dp4706
g93
g94
ssg82
g4700
sg75
(lp4707
g2617
asbag68
(g89
g70
NtRp4708
(dp4709
g73
(dp4710
g100
g101
ssg82
g4700
sg75
(lp4711
S':'
asbag68
(g89
g70
NtRp4712
(dp4713
g73
(dp4714
sg82
g4700
sg75
(lp4715
g68
(g69
g70
NtRp4716
(dp4717
g73
(dp4718
g81
I5
ssg82
g4712
sg75
(lp4719
g2630
asbasbasbag68
(g84
g70
NtRp4720
(dp4721
g73
(dp4722
sg82
g3703
sg75
(lp4723
g68
(g89
g70
NtRp4724
(dp4725
g73
(dp4726
g93
g94
ssg82
g4720
sg75
(lp4727
S'view'
p4728
asbag68
(g89
g70
NtRp4729
(dp4730
g73
(dp4731
g100
g101
ssg82
g4720
sg75
(lp4732
S':'
asbag68
(g89
g70
NtRp4733
(dp4734
g73
(dp4735
sg82
g4720
sg75
(lp4736
g68
(g69
g70
NtRp4737
(dp4738
g73
(dp4739
g81
I5
ssg82
g4733
sg75
(lp4740
S'default/grades_report.load'
p4741
asbasbasbasbasbsS'locals'
p4742
(dp4743
g3
S"'/home/ian/web2py/applications/grades/views/default/grades_report.load'"
p4744
sg5
S'\'for c in grades:\\n    response.write(\\\'\\\\n<h3>\\\', es...t.args[0])+1)), _class="nextnav" cid=\\\'viewpane\\\'))\''
p4745
sssS'traceback'
p4746
S'Traceback (most recent call last):\n  File "/home/ian/web2py/gluon/restricted.py", line 193, in restricted\n    ccode = compile2(code,layer)\n  File "/home/ian/web2py/gluon/restricted.py", line 179, in compile2\n    return compile(code.rstrip().replace(\'\\r\\n\',\'\\n\')+\'\\n\', layer, \'exec\')\n  File "/home/ian/web2py/applications/grades/views/default/grades_report.load", line 21\n    response.write(A(\'previous student\', _href=URL(\'grades_report.load\', args=(int(request.args[0])-1)), _class="prevnav" cid=\'viewpane\'))\n                                                                                                                            ^\nSyntaxError: invalid syntax\n'
p4747
s.