(dp1
S'output'
p2
S''
sS'layer'
p3
S'/home/ian/web2py/applications/grades/views/default/user.html'
p4
sS'code'
p5
S'response.write(\'<!DOCTYPE html>\\n<html lang="\', escape=False)\nresponse.write(T.accepted_language or \'en\')\nresponse.write(\'" class="no-js"><!-- no-js need it for modernzr -->\\n  <head>\\n    \\n    <meta charset="utf-8" />        \\n    <!-- www.phpied.com/conditional-comments-block-downloads/ -->\\n    <!--[if IE]><![endif]-->    \\n    <!-- Always force latest IE rendering engine \\n     (even in intranet) & Chrome Frame \\n     Remove this if you use the .htaccess -->\\n    <meta http-equiv="X-UA-Compatible" content="IE=edge,chrome=1">\\n    \\n    <title>\', escape=False)\nresponse.write(response.title or request.application)\nresponse.write(\'</title>\\n    \\n    <!-- http://dev.w3.org/html5/markup/meta.name.html -->\\n    <meta name="application-name" content="\', escape=False)\nresponse.write(request.application)\nresponse.write(\'" /> \\n    \\n    <!-- Speaking of Google, don\\\'t forget to set your site up: \\n     http://google.com/webmasters -->\\n    <meta name="google-site-verification" content="" />\\n    \\n    <!--  Mobile Viewport Fix\\n      j.mp/mobileviewport & davidbcalhoun.com/2010/viewport-metatag \\n      device-width: Occupy full width of the screen in its current orientation\\n      initial-scale = 1.0 retains dimensions instead of zooming out if page height > device height\\n      maximum-scale = 1.0 retains dimensions instead of zooming in if page width < device width\\n      -->\\n    <meta name="viewport" content="width=device-width, initial-scale=1.0, maximum-scale=1.0">\\n    \\n    <!-- Place favicon.ico and apple-touch-icon.png in the root of your domain and delete these references -->\\n    <link rel="shortcut icon" href="\', escape=False)\nresponse.write(URL(\'static\',\'favicon.ico\'))\nresponse.write(\'" type="image/x-icon">\\n    <link rel="apple-touch-icon" href="\', escape=False)\nresponse.write(URL(\'static\',\'favicon.png\'))\nresponse.write(\'">\\n\\n    <!-- For the less-enabled mobile browsers like Opera Mini -->\\n    <link rel="stylesheet" media="handheld" href="\', escape=False)\nresponse.write(URL(\'static\',\'css/handheld.css\'))\nresponse.write(\'">\\n    \\n    <!-- All JavaScript at the bottom, except for Modernizr which enables HTML5 elements & feature detects -->\\n    <script src="\', escape=False)\nresponse.write(URL(\'static\',\'js/modernizr-1.7.min.js\'))\nresponse.write(\'"></script>\\n    \\n    \', escape=False)\n#------  require CSS and JS files for this page (read info in base.css) ------\nresponse.write(\'\\n\\t\', escape=False)\nresponse.files.append(URL(\'static\',\'css/base.css\'))\nresponse.write(\'\\n\\t\', escape=False)\nresponse.files.append(URL(\'static\',\'css/grades_theme.css\'))\nresponse.write(\'\\n    \', escape=False)\nresponse.files.append(URL(\'static\',\'css/two_pane.css\'))\nresponse.write(\'\\n    \', escape=False)\nresponse.files.append(URL(\'static\',\'css/superfish.css\'))\nresponse.write(\'\\n    \', escape=False)\nresponse.files.append(URL(\'static\',\'js/superfish.js\'))\nresponse.write(\'\\n    \', escape=False)\n#------ include web2py specific js code (jquery, calendar, form stuff) ------\nresponse.write(\'\\n    \', escape=False)\nresponse.files.insert(0,URL(\'static\',\'js/jquery.js\'))\nresponse.files.insert(1,URL(\'static\',\'css/anytime.css\'))\nresponse.files.insert(2,URL(\'static\',\'js/anytime.js\'))\nresponse.include_meta()\nresponse.include_files()\nresponse.write(\'\\n<script type="text/javascript"><!--\\n    // These variables are used by the web2py_ajax_init function in web2py_ajax.js (which is loaded below).\\n    var w2p_ajax_confirm_message = "\', escape=False)\nresponse.write(T(\'Are you sure you want to delete this object?\'))\nresponse.write(\'";\\n    var w2p_ajax_date_format = "\', escape=False)\nresponse.write(T(\'%Y-%m-%d\'))\nresponse.write(\'";\\n    var w2p_ajax_datetime_format = "\', escape=False)\nresponse.write(T(\'%Y-%m-%d %H:%M:%S\'))\nresponse.write(\'";\\n    //--></script>\\n    <script src="\', escape=False)\nresponse.write(URL(\'static\',\'js/web2py_ajax.js\'))\nresponse.write(\'" type="text/javascript"></script>\\n\', escape=False)\nresponse.write(\'\\n\\n    \', escape=False)\n#using sidebars need to know what sidebar you want to use\n#prior of using it, because of static width size of content, you can use\n#left_sidebar, right_sidebar, both or none (False left and right)\nleft_sidebar_enabled = globals().get(\'left_sidebar_enabled\',False)\nright_sidebar_enabled = globals().get(\'right_sidebar_enabled\',False)\nif left_sidebar_enabled and right_sidebar_enabled: width_content=\'63%\'\nelif left_sidebar_enabled != right_sidebar_enabled: width_content=\'740px\'\nelse: width_content=\'100%\'\nif left_sidebar_enabled: left_sidebar_style = \'style="display: block;"\'\nelse: left_sidebar_style = \'style="display: none;"\'\nif right_sidebar_enabled: right_sidebar_style = \'style="display: block;"\'\nelse: right_sidebar_style = \'style="display: none;"\'\nstyle_content = \'style="width: %s"\' % width_content\nresponse.write(\'\\n    \\n    <!--use html5shiv to let IE see new html entities and give them block style so that they are treated properly--> \\n    <!--[if IE]>\\n        <script src="http://html5shiv.googlecode.com/svn/trunk/html5.js"></script>\\n    <![endif]-->\\n    <style>\\n      article, aside, details, figcaption, figure, footer, header,\\n      hgroup, menu, nav, section { display: block; }\\n    </style>\\n      \\n    \\n  </head>\\n  \\n  <!-- paulirish.com/2008/conditional-stylesheets-vs-css-hacks-answer-neither/ -->  \\n  <!--[if lt IE 7 ]> <body class="ie6"> <![endif]-->\\n  <!--[if IE 7 ]>    <body class="ie7"> <![endif]-->\\n  <!--[if IE 8 ]>    <body class="ie8"> <![endif]-->\\n  <!--[if IE 9 ]>    <body class="ie9"> <![endif]-->\\n  <!--[if (gt IE 9)|!(IE)]><!--> <body> <!--<![endif]-->\\n    \\n    <div class="flash">\', escape=False)\nresponse.write(response.flash or \'\')\nresponse.write("</div> <!-- notification div -->                           \\n\\n\\t<div id=\'modal_frame\'></div>\\n    \\n    <header>\\n        \\n      ", escape=False)\nresponse.write(\' <!-- this is default header -->\\n      \', escape=False)\ntry:\n    response.write(auth.navbar(action=URL(\'default\',\'user\')))\nexcept:pass\nresponse.write(\'               \\n      <h1 id="appname">\', escape=False)\nresponse.write(A(request.application.capitalize(), _href=URL(\'default\', \'index\')))\nresponse.write(\'</h1>\\n      <div style="clear: both;"></div><!-- Clear the divs -->\\n      \', escape=False)\nresponse.write(\'                \\n                             \\n    </header>\\n    \\n    <div id="page" class="\', escape=False)\nresponse.write(request.controller)\nresponse.write(\' \', escape=False)\nresponse.write(request.function)\nresponse.write(\'">    \\n\\n      \', escape=False)\nif left_sidebar_enabled:\n    response.write(\'\\n          <div id="left_sidebar" \', escape=False)\n    response.write(XML(left_sidebar_style))\n    response.write(\' >\\n            <div style="padding: 4px;">\\n          \', escape=False)\n    response.write(\'Content Left Sidebar\', escape=False)\n    response.write(\'       \\n            </div>\\n          </div><!-- left_sidebar -->\\n      \', escape=False)\n    pass\nresponse.write(\'\\n\\n      <!-- content of other views-->\\n      \', escape=False)\nresponse.write(\'\\n<h2>\', escape=False)\nresponse.write(T( request.args(0).replace(\'_\',\' \').capitalize() ))\nresponse.write(\'</h2>\\n<div id="web2py_user_form">\\n\', escape=False)\nresponse.write(form)\nresponse.write(\'\\n\', escape=False)\nif request.args(0)==\'login\':\n    response.write(\'\\n\', escape=False)\n    if not \'register\' in auth.settings.actions_disabled:\n        response.write(\'\\n<br/><a href="\', escape=False)\n        response.write(URL(r=request,args=\'register\'))\n        response.write(\'">register</a>\\n\', escape=False)\n        pass\n    response.write(\'\\n\', escape=False)\n    if not \'request_reset_password\' in auth.settings.actions_disabled:\n        response.write(\'\\n<br/><a href="\', escape=False)\n        response.write(URL(r=request,args=\'request_reset_password\'))\n        response.write(\'">lost password</a>\\n\', escape=False)\n        pass\n    response.write(\'\\n\', escape=False)\n    pass\nresponse.write(\'\\n\\n\', escape=False)\nif request.args(0) == \'profile\':\n    response.write(\'\\n    How am I doing so far?\\n    <ul>\\n    \', escape=False)\n    for l in courselist:\n        response.write(\'\\n        \', escape=False)\n        for k,v in l.items():\n            response.write(\'\\n            \', escape=False)\n            response.write(LI(k\': \' + str(v)))\n            response.write(\'\\n        \', escape=False)\n            pass\n        response.write(\'\\n    \', escape=False)\n        pass\n    response.write(\'\\n    </ul>\\n\', escape=False)\n    pass\nresponse.write(\'\\n</div>\\n\\n<script language="javascript">\\n<!--\\n jQuery("#web2py_user_form input:visible:enabled:first").focus();\\n//-->\\n</script> \\n\', escape=False)\nresponse.write(\' \\n      <!-- content -->\\n\\n      \', escape=False)\nif right_sidebar_enabled:\n    response.write(\'\\n          <div id="right_sidebar" \', escape=False)\n    response.write(XML(right_sidebar_style))\n    response.write(\' >\\n            <div style="padding: 4px;">\\n              \', escape=False)\n    response.write(\'Content Right Sidebar\', escape=False)\n    response.write(\'\\n            </div>\\n          </div><!-- right_sidebar -->\\n      \', escape=False)\n    pass\nresponse.write(\'\\n       \\n      <div style="clear: both;"></div><!-- Clear the divs -->                         \\n    \\n    </div><!--page-->\\n    \\n    <footer>\\n      \', escape=False)\nresponse.write(\' <!-- this is default footer -->\\n      <a href="http://www.web2py.com/" >\\n        <img src="\', escape=False)\nresponse.write(URL(\'static\',\'images/poweredby.png\'))\nresponse.write(\'"/>\\n      </a>\\n      \', escape=False)\nresponse.write(T(\'Copyright\'))\nresponse.write(\' &#169; Ian W. Scott 2011 (licensed under GPL 3.0)               \\n      <div style="clear: both;"></div><!-- Clear the divs -->\\n      \', escape=False)\nresponse.write(\'\\n    </footer>           \\n\\n\\t\', escape=False)\nif session.debug:\n    response.write(\'\\n\\t\\t\', escape=False)\n    response.write(DIV(session.debug, _class="debug"))\n    response.write(\'\\n\\t\', escape=False)\n    pass\nresponse.write(\'\\n\\n    <!--[if lt IE 7 ]>\\n    <script src="\', escape=False)\nresponse.write(URL(\'static\',\'js/dd_belatedpng.js\'))\nresponse.write(\'"></script>\\n    <script> DD_belatedPNG.fix(\\\'img, .png_bg\\\'); //fix any <img> or .png_bg background-images </script>\\n    <![endif]-->\\n    \\n    <!-- asynchronous google analytics: mathiasbynens.be/notes/async-analytics-snippet \\n     change the UA-XXXXX-X to be your site\\\'s ID -->\\n    <!--   \\n       <script>\\n         var _gaq = [[\\\'_setAccount\\\', \\\'UA-XXXXX-X\\\'], [\\\'_trackPageview\\\']];\\n         (function(d, t) {\\n         var g = d.createElement(t),\\n         s = d.getElementsByTagName(t)[0];\\n         g.async = true;\\n         g.src = \\\'//www.google-analytics.com/ga.js\\\';\\n         s.parentNode.insertBefore(g, s);\\n         })(document, \\\'script\\\');\\n       </script>\\n       -->    \\n  </body>\\n</html>\\n\', escape=False)'
p6
sS'snapshot'
p7
(dp8
S'exception'
p9
(dp10
S'__getslice__'
p11
S"<method-wrapper '__getslice__' of exceptions.SyntaxError object>"
p12
sS'text'
p13
S'"            response.write(LI(k\': \' + str(v)))\\n"'
p14
sS'__str__'
p15
S"<method-wrapper '__str__' of exceptions.SyntaxError object>"
p16
sS'__reduce__'
p17
S'<built-in method __reduce__ of exceptions.SyntaxError object>'
p18
sS'__dict__'
p19
S'{}'
p20
sS'__sizeof__'
p21
S'<built-in method __sizeof__ of exceptions.SyntaxError object>'
p22
sS'__init__'
p23
S"<method-wrapper '__init__' of exceptions.SyntaxError object>"
p24
sS'__setattr__'
p25
S"<method-wrapper '__setattr__' of exceptions.SyntaxError object>"
p26
sS'__reduce_ex__'
p27
S'<built-in method __reduce_ex__ of exceptions.SyntaxError object>'
p28
sS'__new__'
p29
S'<built-in method __new__ of type object>'
p30
sS'__format__'
p31
S'<built-in method __format__ of exceptions.SyntaxError object>'
p32
sS'__class__'
p33
S"<type 'exceptions.SyntaxError'>"
p34
sS'filename'
p35
S"'/home/ian/web2py/applications/grades/views/default/user.html'"
p36
sS'lineno'
p37
S'108'
p38
sS'msg'
p39
S"'invalid syntax'"
p40
sS'__doc__'
p41
S"'Invalid syntax.'"
p42
sS'__getitem__'
p43
S"<method-wrapper '__getitem__' of exceptions.SyntaxError object>"
p44
sS'__setstate__'
p45
S'<built-in method __setstate__ of exceptions.SyntaxError object>'
p46
sS'__getattribute__'
p47
S"<method-wrapper '__getattribute__' of exceptions.SyntaxError object>"
p48
sS'print_file_and_line'
p49
S'None'
p50
sS'args'
p51
S'(\'invalid syntax\', (\'/home/ian/web2py/applications/grades/views/default/user.html\', 108, 35, "            response.write(LI(k\': \' + str(v)))\\n"))'
p52
sS'__subclasshook__'
p53
S'<built-in method __subclasshook__ of type object>'
p54
sS'offset'
p55
S'35'
p56
sS'__unicode__'
p57
S'<built-in method __unicode__ of exceptions.SyntaxError object>'
p58
sS'__delattr__'
p59
S"<method-wrapper '__delattr__' of exceptions.SyntaxError object>"
p60
sS'__repr__'
p61
S"<method-wrapper '__repr__' of exceptions.SyntaxError object>"
p62
sS'__hash__'
p63
S"<method-wrapper '__hash__' of exceptions.SyntaxError object>"
p64
ssS'evalue'
p65
S'invalid syntax (user.html, line 108)'
p66
sS'request'
p67
ccopy_reg
_reconstructor
p68
(cgluon.html
BEAUTIFY
p69
c__builtin__
object
p70
NtRp71
(dp72
S'attributes'
p73
(dp74
sS'components'
p75
(lp76
g68
(cgluon.html
TABLE
p77
g70
NtRp78
(dp79
g73
(dp80
S'level'
p81
I5
ssS'parent'
p82
Nsg75
(lp83
g68
(cgluon.html
TR
p84
g70
NtRp85
(dp86
g73
(dp87
sg82
g78
sg75
(lp88
g68
(cgluon.html
TD
p89
g70
NtRp90
(dp91
g73
(dp92
S'_style'
p93
S'font-weight:bold;'
p94
ssg82
g85
sg75
(lp95
S'ajax'
p96
asbag68
(g89
g70
NtRp97
(dp98
g73
(dp99
S'_valign'
p100
S'top'
p101
ssg82
g85
sg75
(lp102
S':'
asbag68
(g89
g70
NtRp103
(dp104
g73
(dp105
sg82
g85
sg75
(lp106
g68
(g69
g70
NtRp107
(dp108
g73
(dp109
g81
I5
ssg82
g103
sg75
(lp110
S'False'
p111
asbasbasbag68
(g84
g70
NtRp112
(dp113
g73
(dp114
sg82
g78
sg75
(lp115
g68
(g89
g70
NtRp116
(dp117
g73
(dp118
g93
g94
ssg82
g112
sg75
(lp119
S'application'
p120
asbag68
(g89
g70
NtRp121
(dp122
g73
(dp123
g100
g101
ssg82
g112
sg75
(lp124
S':'
asbag68
(g89
g70
NtRp125
(dp126
g73
(dp127
sg82
g112
sg75
(lp128
g68
(g69
g70
NtRp129
(dp130
g73
(dp131
g81
I5
ssg82
g125
sg75
(lp132
S'grades'
p133
asbasbasbag68
(g84
g70
NtRp134
(dp135
g73
(dp136
sg82
g78
sg75
(lp137
g68
(g89
g70
NtRp138
(dp139
g73
(dp140
g93
g94
ssg82
g134
sg75
(lp141
g51
asbag68
(g89
g70
NtRp142
(dp143
g73
(dp144
g100
g101
ssg82
g134
sg75
(lp145
S':'
asbag68
(g89
g70
NtRp146
(dp147
g73
(dp148
sg82
g134
sg75
(lp149
g68
(g69
g70
NtRp150
(dp151
g73
(dp152
g81
I5
ssg82
g146
sg75
(lp153
g68
(g77
g70
NtRp154
(dp155
g73
(dp156
g81
I4
ssg82
Nsg75
(lp157
g68
(g84
g70
NtRp158
(dp159
g73
(dp160
sg82
g154
sg75
(lp161
g68
(g89
g70
NtRp162
(dp163
g73
(dp164
sg82
g158
sg75
(lp165
g68
(g69
g70
NtRp166
(dp167
g73
(dp168
g81
I4
ssg82
g162
sg75
(lp169
S'profile'
p170
asbasbasbasbasbasbasbag68
(g84
g70
NtRp171
(dp172
g73
(dp173
sg82
g78
sg75
(lp174
g68
(g89
g70
NtRp175
(dp176
g73
(dp177
g93
g94
ssg82
g171
sg75
(lp178
S'body'
p179
asbag68
(g89
g70
NtRp180
(dp181
g73
(dp182
g100
g101
ssg82
g171
sg75
(lp183
S':'
asbag68
(g89
g70
NtRp184
(dp185
g73
(dp186
sg82
g171
sg75
(lp187
g68
(g69
g70
NtRp188
(dp189
g73
(dp190
g81
I5
ssg82
g184
sg75
(lp191
S'<cStringIO.StringO object at 0x38c2180>'
p192
asbasbasbag68
(g84
g70
NtRp193
(dp194
g73
(dp195
sg82
g78
sg75
(lp196
g68
(g89
g70
NtRp197
(dp198
g73
(dp199
g93
g94
ssg82
g193
sg75
(lp200
S'client'
p201
asbag68
(g89
g70
NtRp202
(dp203
g73
(dp204
g100
g101
ssg82
g193
sg75
(lp205
S':'
asbag68
(g89
g70
NtRp206
(dp207
g73
(dp208
sg82
g193
sg75
(lp209
g68
(g69
g70
NtRp210
(dp211
g73
(dp212
g81
I5
ssg82
g206
sg75
(lp213
S'127.0.0.1'
p214
asbasbasbag68
(g84
g70
NtRp215
(dp216
g73
(dp217
sg82
g78
sg75
(lp218
g68
(g89
g70
NtRp219
(dp220
g73
(dp221
g93
g94
ssg82
g215
sg75
(lp222
S'controller'
p223
asbag68
(g89
g70
NtRp224
(dp225
g73
(dp226
g100
g101
ssg82
g215
sg75
(lp227
S':'
asbag68
(g89
g70
NtRp228
(dp229
g73
(dp230
sg82
g215
sg75
(lp231
g68
(g69
g70
NtRp232
(dp233
g73
(dp234
g81
I5
ssg82
g228
sg75
(lp235
S'default'
p236
asbasbasbag68
(g84
g70
NtRp237
(dp238
g73
(dp239
sg82
g78
sg75
(lp240
g68
(g89
g70
NtRp241
(dp242
g73
(dp243
g93
g94
ssg82
g237
sg75
(lp244
S'cookies'
p245
asbag68
(g89
g70
NtRp246
(dp247
g73
(dp248
g100
g101
ssg82
g237
sg75
(lp249
S':'
asbag68
(g89
g70
NtRp250
(dp251
g73
(dp252
sg82
g237
sg75
(lp253
g68
(g69
g70
NtRp254
(dp255
g73
(dp256
g81
I5
ssg82
g250
sg75
(lp257
g68
(g77
g70
NtRp258
(dp259
g73
(dp260
g81
I4
ssg82
Nsg75
(lp261
g68
(g84
g70
NtRp262
(dp263
g73
(dp264
sg82
g258
sg75
(lp265
g68
(g89
g70
NtRp266
(dp267
g73
(dp268
g93
g94
ssg82
g262
sg75
(lp269
S'session_id_admin'
p270
asbag68
(g89
g70
NtRp271
(dp272
g73
(dp273
g100
g101
ssg82
g262
sg75
(lp274
S':'
asbag68
(g89
g70
NtRp275
(dp276
g73
(dp277
sg82
g262
sg75
(lp278
g68
(g69
g70
NtRp279
(dp280
g73
(dp281
g81
I4
ssg82
g275
sg75
(lp282
g68
(g77
g70
NtRp283
(dp284
g73
(dp285
g81
I3
ssg82
Nsg75
(lp286
g68
(g84
g70
NtRp287
(dp288
g73
(dp289
sg82
g283
sg75
(lp290
g68
(g89
g70
NtRp291
(dp292
g73
(dp293
g93
g94
ssg82
g287
sg75
(lp294
S'comment'
p295
asbag68
(g89
g70
NtRp296
(dp297
g73
(dp298
g100
g101
ssg82
g287
sg75
(lp299
S':'
asbag68
(g89
g70
NtRp300
(dp301
g73
(dp302
sg82
g287
sg75
(lp303
g68
(g69
g70
NtRp304
(dp305
g73
(dp306
g81
I3
ssg82
g300
sg75
(lp307
S''
asbasbasbag68
(g84
g70
NtRp308
(dp309
g73
(dp310
sg82
g283
sg75
(lp311
g68
(g89
g70
NtRp312
(dp313
g73
(dp314
g93
g94
ssg82
g308
sg75
(lp315
S'domain'
p316
asbag68
(g89
g70
NtRp317
(dp318
g73
(dp319
g100
g101
ssg82
g308
sg75
(lp320
S':'
asbag68
(g89
g70
NtRp321
(dp322
g73
(dp323
sg82
g308
sg75
(lp324
g68
(g69
g70
NtRp325
(dp326
g73
(dp327
g81
I3
ssg82
g321
sg75
(lp328
S''
asbasbasbag68
(g84
g70
NtRp329
(dp330
g73
(dp331
sg82
g283
sg75
(lp332
g68
(g89
g70
NtRp333
(dp334
g73
(dp335
g93
g94
ssg82
g329
sg75
(lp336
S'expires'
p337
asbag68
(g89
g70
NtRp338
(dp339
g73
(dp340
g100
g101
ssg82
g329
sg75
(lp341
S':'
asbag68
(g89
g70
NtRp342
(dp343
g73
(dp344
sg82
g329
sg75
(lp345
g68
(g69
g70
NtRp346
(dp347
g73
(dp348
g81
I3
ssg82
g342
sg75
(lp349
S''
asbasbasbag68
(g84
g70
NtRp350
(dp351
g73
(dp352
sg82
g283
sg75
(lp353
g68
(g89
g70
NtRp354
(dp355
g73
(dp356
g93
g94
ssg82
g350
sg75
(lp357
S'httponly'
p358
asbag68
(g89
g70
NtRp359
(dp360
g73
(dp361
g100
g101
ssg82
g350
sg75
(lp362
S':'
asbag68
(g89
g70
NtRp363
(dp364
g73
(dp365
sg82
g350
sg75
(lp366
g68
(g69
g70
NtRp367
(dp368
g73
(dp369
g81
I3
ssg82
g363
sg75
(lp370
S''
asbasbasbag68
(g84
g70
NtRp371
(dp372
g73
(dp373
sg82
g283
sg75
(lp374
g68
(g89
g70
NtRp375
(dp376
g73
(dp377
g93
g94
ssg82
g371
sg75
(lp378
S'max-age'
p379
asbag68
(g89
g70
NtRp380
(dp381
g73
(dp382
g100
g101
ssg82
g371
sg75
(lp383
S':'
asbag68
(g89
g70
NtRp384
(dp385
g73
(dp386
sg82
g371
sg75
(lp387
g68
(g69
g70
NtRp388
(dp389
g73
(dp390
g81
I3
ssg82
g384
sg75
(lp391
S''
asbasbasbag68
(g84
g70
NtRp392
(dp393
g73
(dp394
sg82
g283
sg75
(lp395
g68
(g89
g70
NtRp396
(dp397
g73
(dp398
g93
g94
ssg82
g392
sg75
(lp399
S'path'
p400
asbag68
(g89
g70
NtRp401
(dp402
g73
(dp403
g100
g101
ssg82
g392
sg75
(lp404
S':'
asbag68
(g89
g70
NtRp405
(dp406
g73
(dp407
sg82
g392
sg75
(lp408
g68
(g69
g70
NtRp409
(dp410
g73
(dp411
g81
I3
ssg82
g405
sg75
(lp412
S''
asbasbasbag68
(g84
g70
NtRp413
(dp414
g73
(dp415
sg82
g283
sg75
(lp416
g68
(g89
g70
NtRp417
(dp418
g73
(dp419
g93
g94
ssg82
g413
sg75
(lp420
S'secure'
p421
asbag68
(g89
g70
NtRp422
(dp423
g73
(dp424
g100
g101
ssg82
g413
sg75
(lp425
S':'
asbag68
(g89
g70
NtRp426
(dp427
g73
(dp428
sg82
g413
sg75
(lp429
g68
(g69
g70
NtRp430
(dp431
g73
(dp432
g81
I3
ssg82
g426
sg75
(lp433
S''
asbasbasbag68
(g84
g70
NtRp434
(dp435
g73
(dp436
sg82
g283
sg75
(lp437
g68
(g89
g70
NtRp438
(dp439
g73
(dp440
g93
g94
ssg82
g434
sg75
(lp441
S'version'
p442
asbag68
(g89
g70
NtRp443
(dp444
g73
(dp445
g100
g101
ssg82
g434
sg75
(lp446
S':'
asbag68
(g89
g70
NtRp447
(dp448
g73
(dp449
sg82
g434
sg75
(lp450
g68
(g69
g70
NtRp451
(dp452
g73
(dp453
g81
I3
ssg82
g447
sg75
(lp454
S''
asbasbasbasbasbasbasbag68
(g84
g70
NtRp455
(dp456
g73
(dp457
sg82
g258
sg75
(lp458
g68
(g89
g70
NtRp459
(dp460
g73
(dp461
g93
g94
ssg82
g455
sg75
(lp462
S'session_id_grades'
p463
asbag68
(g89
g70
NtRp464
(dp465
g73
(dp466
g100
g101
ssg82
g455
sg75
(lp467
S':'
asbag68
(g89
g70
NtRp468
(dp469
g73
(dp470
sg82
g455
sg75
(lp471
g68
(g69
g70
NtRp472
(dp473
g73
(dp474
g81
I4
ssg82
g468
sg75
(lp475
g68
(g77
g70
NtRp476
(dp477
g73
(dp478
g81
I3
ssg82
Nsg75
(lp479
g68
(g84
g70
NtRp480
(dp481
g73
(dp482
sg82
g476
sg75
(lp483
g68
(g89
g70
NtRp484
(dp485
g73
(dp486
g93
g94
ssg82
g480
sg75
(lp487
g295
asbag68
(g89
g70
NtRp488
(dp489
g73
(dp490
g100
g101
ssg82
g480
sg75
(lp491
S':'
asbag68
(g89
g70
NtRp492
(dp493
g73
(dp494
sg82
g480
sg75
(lp495
g68
(g69
g70
NtRp496
(dp497
g73
(dp498
g81
I3
ssg82
g492
sg75
(lp499
S''
asbasbasbag68
(g84
g70
NtRp500
(dp501
g73
(dp502
sg82
g476
sg75
(lp503
g68
(g89
g70
NtRp504
(dp505
g73
(dp506
g93
g94
ssg82
g500
sg75
(lp507
g316
asbag68
(g89
g70
NtRp508
(dp509
g73
(dp510
g100
g101
ssg82
g500
sg75
(lp511
S':'
asbag68
(g89
g70
NtRp512
(dp513
g73
(dp514
sg82
g500
sg75
(lp515
g68
(g69
g70
NtRp516
(dp517
g73
(dp518
g81
I3
ssg82
g512
sg75
(lp519
S''
asbasbasbag68
(g84
g70
NtRp520
(dp521
g73
(dp522
sg82
g476
sg75
(lp523
g68
(g89
g70
NtRp524
(dp525
g73
(dp526
g93
g94
ssg82
g520
sg75
(lp527
g337
asbag68
(g89
g70
NtRp528
(dp529
g73
(dp530
g100
g101
ssg82
g520
sg75
(lp531
S':'
asbag68
(g89
g70
NtRp532
(dp533
g73
(dp534
sg82
g520
sg75
(lp535
g68
(g69
g70
NtRp536
(dp537
g73
(dp538
g81
I3
ssg82
g532
sg75
(lp539
S''
asbasbasbag68
(g84
g70
NtRp540
(dp541
g73
(dp542
sg82
g476
sg75
(lp543
g68
(g89
g70
NtRp544
(dp545
g73
(dp546
g93
g94
ssg82
g540
sg75
(lp547
g358
asbag68
(g89
g70
NtRp548
(dp549
g73
(dp550
g100
g101
ssg82
g540
sg75
(lp551
S':'
asbag68
(g89
g70
NtRp552
(dp553
g73
(dp554
sg82
g540
sg75
(lp555
g68
(g69
g70
NtRp556
(dp557
g73
(dp558
g81
I3
ssg82
g552
sg75
(lp559
S''
asbasbasbag68
(g84
g70
NtRp560
(dp561
g73
(dp562
sg82
g476
sg75
(lp563
g68
(g89
g70
NtRp564
(dp565
g73
(dp566
g93
g94
ssg82
g560
sg75
(lp567
g379
asbag68
(g89
g70
NtRp568
(dp569
g73
(dp570
g100
g101
ssg82
g560
sg75
(lp571
S':'
asbag68
(g89
g70
NtRp572
(dp573
g73
(dp574
sg82
g560
sg75
(lp575
g68
(g69
g70
NtRp576
(dp577
g73
(dp578
g81
I3
ssg82
g572
sg75
(lp579
S''
asbasbasbag68
(g84
g70
NtRp580
(dp581
g73
(dp582
sg82
g476
sg75
(lp583
g68
(g89
g70
NtRp584
(dp585
g73
(dp586
g93
g94
ssg82
g580
sg75
(lp587
g400
asbag68
(g89
g70
NtRp588
(dp589
g73
(dp590
g100
g101
ssg82
g580
sg75
(lp591
S':'
asbag68
(g89
g70
NtRp592
(dp593
g73
(dp594
sg82
g580
sg75
(lp595
g68
(g69
g70
NtRp596
(dp597
g73
(dp598
g81
I3
ssg82
g592
sg75
(lp599
S''
asbasbasbag68
(g84
g70
NtRp600
(dp601
g73
(dp602
sg82
g476
sg75
(lp603
g68
(g89
g70
NtRp604
(dp605
g73
(dp606
g93
g94
ssg82
g600
sg75
(lp607
g421
asbag68
(g89
g70
NtRp608
(dp609
g73
(dp610
g100
g101
ssg82
g600
sg75
(lp611
S':'
asbag68
(g89
g70
NtRp612
(dp613
g73
(dp614
sg82
g600
sg75
(lp615
g68
(g69
g70
NtRp616
(dp617
g73
(dp618
g81
I3
ssg82
g612
sg75
(lp619
S''
asbasbasbag68
(g84
g70
NtRp620
(dp621
g73
(dp622
sg82
g476
sg75
(lp623
g68
(g89
g70
NtRp624
(dp625
g73
(dp626
g93
g94
ssg82
g620
sg75
(lp627
g442
asbag68
(g89
g70
NtRp628
(dp629
g73
(dp630
g100
g101
ssg82
g620
sg75
(lp631
S':'
asbag68
(g89
g70
NtRp632
(dp633
g73
(dp634
sg82
g620
sg75
(lp635
g68
(g69
g70
NtRp636
(dp637
g73
(dp638
g81
I3
ssg82
g632
sg75
(lp639
S''
asbasbasbasbasbasbasbag68
(g84
g70
NtRp640
(dp641
g73
(dp642
sg82
g258
sg75
(lp643
g68
(g89
g70
NtRp644
(dp645
g73
(dp646
g93
g94
ssg82
g640
sg75
(lp647
S'session_id_paideia'
p648
asbag68
(g89
g70
NtRp649
(dp650
g73
(dp651
g100
g101
ssg82
g640
sg75
(lp652
S':'
asbag68
(g89
g70
NtRp653
(dp654
g73
(dp655
sg82
g640
sg75
(lp656
g68
(g69
g70
NtRp657
(dp658
g73
(dp659
g81
I4
ssg82
g653
sg75
(lp660
g68
(g77
g70
NtRp661
(dp662
g73
(dp663
g81
I3
ssg82
Nsg75
(lp664
g68
(g84
g70
NtRp665
(dp666
g73
(dp667
sg82
g661
sg75
(lp668
g68
(g89
g70
NtRp669
(dp670
g73
(dp671
g93
g94
ssg82
g665
sg75
(lp672
g295
asbag68
(g89
g70
NtRp673
(dp674
g73
(dp675
g100
g101
ssg82
g665
sg75
(lp676
S':'
asbag68
(g89
g70
NtRp677
(dp678
g73
(dp679
sg82
g665
sg75
(lp680
g68
(g69
g70
NtRp681
(dp682
g73
(dp683
g81
I3
ssg82
g677
sg75
(lp684
S''
asbasbasbag68
(g84
g70
NtRp685
(dp686
g73
(dp687
sg82
g661
sg75
(lp688
g68
(g89
g70
NtRp689
(dp690
g73
(dp691
g93
g94
ssg82
g685
sg75
(lp692
g316
asbag68
(g89
g70
NtRp693
(dp694
g73
(dp695
g100
g101
ssg82
g685
sg75
(lp696
S':'
asbag68
(g89
g70
NtRp697
(dp698
g73
(dp699
sg82
g685
sg75
(lp700
g68
(g69
g70
NtRp701
(dp702
g73
(dp703
g81
I3
ssg82
g697
sg75
(lp704
S''
asbasbasbag68
(g84
g70
NtRp705
(dp706
g73
(dp707
sg82
g661
sg75
(lp708
g68
(g89
g70
NtRp709
(dp710
g73
(dp711
g93
g94
ssg82
g705
sg75
(lp712
g337
asbag68
(g89
g70
NtRp713
(dp714
g73
(dp715
g100
g101
ssg82
g705
sg75
(lp716
S':'
asbag68
(g89
g70
NtRp717
(dp718
g73
(dp719
sg82
g705
sg75
(lp720
g68
(g69
g70
NtRp721
(dp722
g73
(dp723
g81
I3
ssg82
g717
sg75
(lp724
S''
asbasbasbag68
(g84
g70
NtRp725
(dp726
g73
(dp727
sg82
g661
sg75
(lp728
g68
(g89
g70
NtRp729
(dp730
g73
(dp731
g93
g94
ssg82
g725
sg75
(lp732
g358
asbag68
(g89
g70
NtRp733
(dp734
g73
(dp735
g100
g101
ssg82
g725
sg75
(lp736
S':'
asbag68
(g89
g70
NtRp737
(dp738
g73
(dp739
sg82
g725
sg75
(lp740
g68
(g69
g70
NtRp741
(dp742
g73
(dp743
g81
I3
ssg82
g737
sg75
(lp744
S''
asbasbasbag68
(g84
g70
NtRp745
(dp746
g73
(dp747
sg82
g661
sg75
(lp748
g68
(g89
g70
NtRp749
(dp750
g73
(dp751
g93
g94
ssg82
g745
sg75
(lp752
g379
asbag68
(g89
g70
NtRp753
(dp754
g73
(dp755
g100
g101
ssg82
g745
sg75
(lp756
S':'
asbag68
(g89
g70
NtRp757
(dp758
g73
(dp759
sg82
g745
sg75
(lp760
g68
(g69
g70
NtRp761
(dp762
g73
(dp763
g81
I3
ssg82
g757
sg75
(lp764
S''
asbasbasbag68
(g84
g70
NtRp765
(dp766
g73
(dp767
sg82
g661
sg75
(lp768
g68
(g89
g70
NtRp769
(dp770
g73
(dp771
g93
g94
ssg82
g765
sg75
(lp772
g400
asbag68
(g89
g70
NtRp773
(dp774
g73
(dp775
g100
g101
ssg82
g765
sg75
(lp776
S':'
asbag68
(g89
g70
NtRp777
(dp778
g73
(dp779
sg82
g765
sg75
(lp780
g68
(g69
g70
NtRp781
(dp782
g73
(dp783
g81
I3
ssg82
g777
sg75
(lp784
S''
asbasbasbag68
(g84
g70
NtRp785
(dp786
g73
(dp787
sg82
g661
sg75
(lp788
g68
(g89
g70
NtRp789
(dp790
g73
(dp791
g93
g94
ssg82
g785
sg75
(lp792
g421
asbag68
(g89
g70
NtRp793
(dp794
g73
(dp795
g100
g101
ssg82
g785
sg75
(lp796
S':'
asbag68
(g89
g70
NtRp797
(dp798
g73
(dp799
sg82
g785
sg75
(lp800
g68
(g69
g70
NtRp801
(dp802
g73
(dp803
g81
I3
ssg82
g797
sg75
(lp804
S''
asbasbasbag68
(g84
g70
NtRp805
(dp806
g73
(dp807
sg82
g661
sg75
(lp808
g68
(g89
g70
NtRp809
(dp810
g73
(dp811
g93
g94
ssg82
g805
sg75
(lp812
g442
asbag68
(g89
g70
NtRp813
(dp814
g73
(dp815
g100
g101
ssg82
g805
sg75
(lp816
S':'
asbag68
(g89
g70
NtRp817
(dp818
g73
(dp819
sg82
g805
sg75
(lp820
g68
(g69
g70
NtRp821
(dp822
g73
(dp823
g81
I3
ssg82
g817
sg75
(lp824
S''
asbasbasbasbasbasbasbag68
(g84
g70
NtRp825
(dp826
g73
(dp827
sg82
g258
sg75
(lp828
g68
(g89
g70
NtRp829
(dp830
g73
(dp831
g93
g94
ssg82
g825
sg75
(lp832
S'session_id_welcome'
p833
asbag68
(g89
g70
NtRp834
(dp835
g73
(dp836
g100
g101
ssg82
g825
sg75
(lp837
S':'
asbag68
(g89
g70
NtRp838
(dp839
g73
(dp840
sg82
g825
sg75
(lp841
g68
(g69
g70
NtRp842
(dp843
g73
(dp844
g81
I4
ssg82
g838
sg75
(lp845
g68
(g77
g70
NtRp846
(dp847
g73
(dp848
g81
I3
ssg82
Nsg75
(lp849
g68
(g84
g70
NtRp850
(dp851
g73
(dp852
sg82
g846
sg75
(lp853
g68
(g89
g70
NtRp854
(dp855
g73
(dp856
g93
g94
ssg82
g850
sg75
(lp857
g295
asbag68
(g89
g70
NtRp858
(dp859
g73
(dp860
g100
g101
ssg82
g850
sg75
(lp861
S':'
asbag68
(g89
g70
NtRp862
(dp863
g73
(dp864
sg82
g850
sg75
(lp865
g68
(g69
g70
NtRp866
(dp867
g73
(dp868
g81
I3
ssg82
g862
sg75
(lp869
S''
asbasbasbag68
(g84
g70
NtRp870
(dp871
g73
(dp872
sg82
g846
sg75
(lp873
g68
(g89
g70
NtRp874
(dp875
g73
(dp876
g93
g94
ssg82
g870
sg75
(lp877
g316
asbag68
(g89
g70
NtRp878
(dp879
g73
(dp880
g100
g101
ssg82
g870
sg75
(lp881
S':'
asbag68
(g89
g70
NtRp882
(dp883
g73
(dp884
sg82
g870
sg75
(lp885
g68
(g69
g70
NtRp886
(dp887
g73
(dp888
g81
I3
ssg82
g882
sg75
(lp889
S''
asbasbasbag68
(g84
g70
NtRp890
(dp891
g73
(dp892
sg82
g846
sg75
(lp893
g68
(g89
g70
NtRp894
(dp895
g73
(dp896
g93
g94
ssg82
g890
sg75
(lp897
g337
asbag68
(g89
g70
NtRp898
(dp899
g73
(dp900
g100
g101
ssg82
g890
sg75
(lp901
S':'
asbag68
(g89
g70
NtRp902
(dp903
g73
(dp904
sg82
g890
sg75
(lp905
g68
(g69
g70
NtRp906
(dp907
g73
(dp908
g81
I3
ssg82
g902
sg75
(lp909
S''
asbasbasbag68
(g84
g70
NtRp910
(dp911
g73
(dp912
sg82
g846
sg75
(lp913
g68
(g89
g70
NtRp914
(dp915
g73
(dp916
g93
g94
ssg82
g910
sg75
(lp917
g358
asbag68
(g89
g70
NtRp918
(dp919
g73
(dp920
g100
g101
ssg82
g910
sg75
(lp921
S':'
asbag68
(g89
g70
NtRp922
(dp923
g73
(dp924
sg82
g910
sg75
(lp925
g68
(g69
g70
NtRp926
(dp927
g73
(dp928
g81
I3
ssg82
g922
sg75
(lp929
S''
asbasbasbag68
(g84
g70
NtRp930
(dp931
g73
(dp932
sg82
g846
sg75
(lp933
g68
(g89
g70
NtRp934
(dp935
g73
(dp936
g93
g94
ssg82
g930
sg75
(lp937
g379
asbag68
(g89
g70
NtRp938
(dp939
g73
(dp940
g100
g101
ssg82
g930
sg75
(lp941
S':'
asbag68
(g89
g70
NtRp942
(dp943
g73
(dp944
sg82
g930
sg75
(lp945
g68
(g69
g70
NtRp946
(dp947
g73
(dp948
g81
I3
ssg82
g942
sg75
(lp949
S''
asbasbasbag68
(g84
g70
NtRp950
(dp951
g73
(dp952
sg82
g846
sg75
(lp953
g68
(g89
g70
NtRp954
(dp955
g73
(dp956
g93
g94
ssg82
g950
sg75
(lp957
g400
asbag68
(g89
g70
NtRp958
(dp959
g73
(dp960
g100
g101
ssg82
g950
sg75
(lp961
S':'
asbag68
(g89
g70
NtRp962
(dp963
g73
(dp964
sg82
g950
sg75
(lp965
g68
(g69
g70
NtRp966
(dp967
g73
(dp968
g81
I3
ssg82
g962
sg75
(lp969
S''
asbasbasbag68
(g84
g70
NtRp970
(dp971
g73
(dp972
sg82
g846
sg75
(lp973
g68
(g89
g70
NtRp974
(dp975
g73
(dp976
g93
g94
ssg82
g970
sg75
(lp977
g421
asbag68
(g89
g70
NtRp978
(dp979
g73
(dp980
g100
g101
ssg82
g970
sg75
(lp981
S':'
asbag68
(g89
g70
NtRp982
(dp983
g73
(dp984
sg82
g970
sg75
(lp985
g68
(g69
g70
NtRp986
(dp987
g73
(dp988
g81
I3
ssg82
g982
sg75
(lp989
S''
asbasbasbag68
(g84
g70
NtRp990
(dp991
g73
(dp992
sg82
g846
sg75
(lp993
g68
(g89
g70
NtRp994
(dp995
g73
(dp996
g93
g94
ssg82
g990
sg75
(lp997
g442
asbag68
(g89
g70
NtRp998
(dp999
g73
(dp1000
g100
g101
ssg82
g990
sg75
(lp1001
S':'
asbag68
(g89
g70
NtRp1002
(dp1003
g73
(dp1004
sg82
g990
sg75
(lp1005
g68
(g69
g70
NtRp1006
(dp1007
g73
(dp1008
g81
I3
ssg82
g1002
sg75
(lp1009
S''
asbasbasbasbasbasbasbasbasbasbasbag68
(g84
g70
NtRp1010
(dp1011
g73
(dp1012
sg82
g78
sg75
(lp1013
g68
(g89
g70
NtRp1014
(dp1015
g73
(dp1016
g93
g94
ssg82
g1010
sg75
(lp1017
S'env'
p1018
asbag68
(g89
g70
NtRp1019
(dp1020
g73
(dp1021
g100
g101
ssg82
g1010
sg75
(lp1022
S':'
asbag68
(g89
g70
NtRp1023
(dp1024
g73
(dp1025
sg82
g1010
sg75
(lp1026
g68
(g69
g70
NtRp1027
(dp1028
g73
(dp1029
g81
I5
ssg82
g1023
sg75
(lp1030
g68
(g77
g70
NtRp1031
(dp1032
g73
(dp1033
g81
I4
ssg82
Nsg75
(lp1034
g68
(g84
g70
NtRp1035
(dp1036
g73
(dp1037
sg82
g1031
sg75
(lp1038
g68
(g89
g70
NtRp1039
(dp1040
g73
(dp1041
g93
g94
ssg82
g1035
sg75
(lp1042
S'app_folders'
p1043
asbag68
(g89
g70
NtRp1044
(dp1045
g73
(dp1046
g100
g101
ssg82
g1035
sg75
(lp1047
S':'
asbag68
(g89
g70
NtRp1048
(dp1049
g73
(dp1050
sg82
g1035
sg75
(lp1051
g68
(g69
g70
NtRp1052
(dp1053
g73
(dp1054
g81
I4
ssg82
g1048
sg75
(lp1055
S"set(['/home/ian/web2py/applications/welcome/', '/home/ian/web2py/applications/grades/', '/home/ian/web2py/applications/admin/'])"
p1056
asbasbasbag68
(g84
g70
NtRp1057
(dp1058
g73
(dp1059
sg82
g1031
sg75
(lp1060
g68
(g89
g70
NtRp1061
(dp1062
g73
(dp1063
g93
g94
ssg82
g1057
sg75
(lp1064
S'applications_parent'
p1065
asbag68
(g89
g70
NtRp1066
(dp1067
g73
(dp1068
g100
g101
ssg82
g1057
sg75
(lp1069
S':'
asbag68
(g89
g70
NtRp1070
(dp1071
g73
(dp1072
sg82
g1057
sg75
(lp1073
g68
(g69
g70
NtRp1074
(dp1075
g73
(dp1076
g81
I4
ssg82
g1070
sg75
(lp1077
S'/home/ian/web2py'
p1078
asbasbasbag68
(g84
g70
NtRp1079
(dp1080
g73
(dp1081
sg82
g1031
sg75
(lp1082
g68
(g89
g70
NtRp1083
(dp1084
g73
(dp1085
g93
g94
ssg82
g1079
sg75
(lp1086
S'cmd_args'
p1087
asbag68
(g89
g70
NtRp1088
(dp1089
g73
(dp1090
g100
g101
ssg82
g1079
sg75
(lp1091
S':'
asbag68
(g89
g70
NtRp1092
(dp1093
g73
(dp1094
sg82
g1079
sg75
(lp1095
g68
(g69
g70
NtRp1096
(dp1097
g73
(dp1098
g81
I4
ssg82
g1092
sg75
(lp1099
g68
(g77
g70
NtRp1100
(dp1101
g73
(dp1102
g81
I3
ssg82
Nsg75
(lp1103
sbasbasbasbag68
(g84
g70
NtRp1104
(dp1105
g73
(dp1106
sg82
g1031
sg75
(lp1107
g68
(g89
g70
NtRp1108
(dp1109
g73
(dp1110
g93
g94
ssg82
g1104
sg75
(lp1111
S'cmd_options'
p1112
asbag68
(g89
g70
NtRp1113
(dp1114
g73
(dp1115
g100
g101
ssg82
g1104
sg75
(lp1116
S':'
asbag68
(g89
g70
NtRp1117
(dp1118
g73
(dp1119
sg82
g1104
sg75
(lp1120
g68
(g69
g70
NtRp1121
(dp1122
g73
(dp1123
g81
I4
ssg82
g1117
sg75
(lp1124
S"<Values at 0x1ffe758: {'verbose': False, 'ip': '127.0.0.1', 'shutdown_timeout': 5, 'taskbar': False, 'nocron': False, 'pid_filename': 'httpserver.pid', 'maxthreads': None, 'softcron': False, 'server_name': 'uriel', 'bpython': False, 'nogui': False, 'port': 8000, 'extcron': False, 'debuglevel': 30, 'test': None, 'folder': '/home/ian/web2py', 'config': '', 'import_models': False, 'winservice': '', 'shell': None, 'run': '', 'log_filename': 'httpserver.log', 'args': [''], 'ssl_ca_certificate': None, 'scheduler': None, 'profiler_filename': None, 'ssl_private_key': '', 'password': '<ask>', 'request_queue_size': 5, 'ssl_certificate': '', 'cronjob': False, 'plain': False, 'quiet': False, 'interfaces': None, 'minthreads': None, 'timeout': 10, 'numthreads': None, 'nobanner': False}>"
p1125
asbasbasbag68
(g84
g70
NtRp1126
(dp1127
g73
(dp1128
sg82
g1031
sg75
(lp1129
g68
(g89
g70
NtRp1130
(dp1131
g73
(dp1132
g93
g94
ssg82
g1126
sg75
(lp1133
S'db_sessions'
p1134
asbag68
(g89
g70
NtRp1135
(dp1136
g73
(dp1137
g100
g101
ssg82
g1126
sg75
(lp1138
S':'
asbag68
(g89
g70
NtRp1139
(dp1140
g73
(dp1141
sg82
g1126
sg75
(lp1142
g68
(g69
g70
NtRp1143
(dp1144
g73
(dp1145
g81
I4
ssg82
g1139
sg75
(lp1146
S'set([])'
p1147
asbasbasbag68
(g84
g70
NtRp1148
(dp1149
g73
(dp1150
sg82
g1031
sg75
(lp1151
g68
(g89
g70
NtRp1152
(dp1153
g73
(dp1154
g93
g94
ssg82
g1148
sg75
(lp1155
S'debugging'
p1156
asbag68
(g89
g70
NtRp1157
(dp1158
g73
(dp1159
g100
g101
ssg82
g1148
sg75
(lp1160
S':'
asbag68
(g89
g70
NtRp1161
(dp1162
g73
(dp1163
sg82
g1148
sg75
(lp1164
g68
(g69
g70
NtRp1165
(dp1166
g73
(dp1167
g81
I4
ssg82
g1161
sg75
(lp1168
g111
asbasbasbag68
(g84
g70
NtRp1169
(dp1170
g73
(dp1171
sg82
g1031
sg75
(lp1172
g68
(g89
g70
NtRp1173
(dp1174
g73
(dp1175
g93
g94
ssg82
g1169
sg75
(lp1176
S'gluon_parent'
p1177
asbag68
(g89
g70
NtRp1178
(dp1179
g73
(dp1180
g100
g101
ssg82
g1169
sg75
(lp1181
S':'
asbag68
(g89
g70
NtRp1182
(dp1183
g73
(dp1184
sg82
g1169
sg75
(lp1185
g68
(g69
g70
NtRp1186
(dp1187
g73
(dp1188
g81
I4
ssg82
g1182
sg75
(lp1189
S'/home/ian/web2py'
p1190
asbasbasbag68
(g84
g70
NtRp1191
(dp1192
g73
(dp1193
sg82
g1031
sg75
(lp1194
g68
(g89
g70
NtRp1195
(dp1196
g73
(dp1197
g93
g94
ssg82
g1191
sg75
(lp1198
S'http_accept'
p1199
asbag68
(g89
g70
NtRp1200
(dp1201
g73
(dp1202
g100
g101
ssg82
g1191
sg75
(lp1203
S':'
asbag68
(g89
g70
NtRp1204
(dp1205
g73
(dp1206
sg82
g1191
sg75
(lp1207
g68
(g69
g70
NtRp1208
(dp1209
g73
(dp1210
g81
I4
ssg82
g1204
sg75
(lp1211
S'text/html,application/xhtml+xml,application/xml;q=0.9,*/*;q=0.8'
p1212
asbasbasbag68
(g84
g70
NtRp1213
(dp1214
g73
(dp1215
sg82
g1031
sg75
(lp1216
g68
(g89
g70
NtRp1217
(dp1218
g73
(dp1219
g93
g94
ssg82
g1213
sg75
(lp1220
S'http_accept_encoding'
p1221
asbag68
(g89
g70
NtRp1222
(dp1223
g73
(dp1224
g100
g101
ssg82
g1213
sg75
(lp1225
S':'
asbag68
(g89
g70
NtRp1226
(dp1227
g73
(dp1228
sg82
g1213
sg75
(lp1229
g68
(g69
g70
NtRp1230
(dp1231
g73
(dp1232
g81
I4
ssg82
g1226
sg75
(lp1233
S'gzip, deflate'
p1234
asbasbasbag68
(g84
g70
NtRp1235
(dp1236
g73
(dp1237
sg82
g1031
sg75
(lp1238
g68
(g89
g70
NtRp1239
(dp1240
g73
(dp1241
g93
g94
ssg82
g1235
sg75
(lp1242
S'http_accept_language'
p1243
asbag68
(g89
g70
NtRp1244
(dp1245
g73
(dp1246
g100
g101
ssg82
g1235
sg75
(lp1247
S':'
asbag68
(g89
g70
NtRp1248
(dp1249
g73
(dp1250
sg82
g1235
sg75
(lp1251
g68
(g69
g70
NtRp1252
(dp1253
g73
(dp1254
g81
I4
ssg82
g1248
sg75
(lp1255
S'en-us,en;q=0.5'
p1256
asbasbasbag68
(g84
g70
NtRp1257
(dp1258
g73
(dp1259
sg82
g1031
sg75
(lp1260
g68
(g89
g70
NtRp1261
(dp1262
g73
(dp1263
g93
g94
ssg82
g1257
sg75
(lp1264
S'http_cache_control'
p1265
asbag68
(g89
g70
NtRp1266
(dp1267
g73
(dp1268
g100
g101
ssg82
g1257
sg75
(lp1269
S':'
asbag68
(g89
g70
NtRp1270
(dp1271
g73
(dp1272
sg82
g1257
sg75
(lp1273
g68
(g69
g70
NtRp1274
(dp1275
g73
(dp1276
g81
I4
ssg82
g1270
sg75
(lp1277
S'max-age=0'
p1278
asbasbasbag68
(g84
g70
NtRp1279
(dp1280
g73
(dp1281
sg82
g1031
sg75
(lp1282
g68
(g89
g70
NtRp1283
(dp1284
g73
(dp1285
g93
g94
ssg82
g1279
sg75
(lp1286
S'http_connection'
p1287
asbag68
(g89
g70
NtRp1288
(dp1289
g73
(dp1290
g100
g101
ssg82
g1279
sg75
(lp1291
S':'
asbag68
(g89
g70
NtRp1292
(dp1293
g73
(dp1294
sg82
g1279
sg75
(lp1295
g68
(g69
g70
NtRp1296
(dp1297
g73
(dp1298
g81
I4
ssg82
g1292
sg75
(lp1299
S'keep-alive'
p1300
asbasbasbag68
(g84
g70
NtRp1301
(dp1302
g73
(dp1303
sg82
g1031
sg75
(lp1304
g68
(g89
g70
NtRp1305
(dp1306
g73
(dp1307
g93
g94
ssg82
g1301
sg75
(lp1308
S'http_cookie'
p1309
asbag68
(g89
g70
NtRp1310
(dp1311
g73
(dp1312
g100
g101
ssg82
g1301
sg75
(lp1313
S':'
asbag68
(g89
g70
NtRp1314
(dp1315
g73
(dp1316
sg82
g1301
sg75
(lp1317
g68
(g69
g70
NtRp1318
(dp1319
g73
(dp1320
g81
I4
ssg82
g1314
sg75
(lp1321
S'session_id_paideia=127.0.0.1-5296f1e9-849e-4717-b7d4-f5f298041148; session_id_welcome=127.0.0.1-cbd9183f-89a3-433a-9c7b-93d2c556d545; session_id_grades=127.0.0.1-7e779f51-d72f-4159-aa81-826b4f2d26c1; session_id_admin=127.0.0.1-0a4d4364-3576-4988-bc56-f95aeecb4481'
p1322
asbasbasbag68
(g84
g70
NtRp1323
(dp1324
g73
(dp1325
sg82
g1031
sg75
(lp1326
g68
(g89
g70
NtRp1327
(dp1328
g73
(dp1329
g93
g94
ssg82
g1323
sg75
(lp1330
S'http_host'
p1331
asbag68
(g89
g70
NtRp1332
(dp1333
g73
(dp1334
g100
g101
ssg82
g1323
sg75
(lp1335
S':'
asbag68
(g89
g70
NtRp1336
(dp1337
g73
(dp1338
sg82
g1323
sg75
(lp1339
g68
(g69
g70
NtRp1340
(dp1341
g73
(dp1342
g81
I4
ssg82
g1336
sg75
(lp1343
S'127.0.0.1:8000'
p1344
asbasbasbag68
(g84
g70
NtRp1345
(dp1346
g73
(dp1347
sg82
g1031
sg75
(lp1348
g68
(g89
g70
NtRp1349
(dp1350
g73
(dp1351
g93
g94
ssg82
g1345
sg75
(lp1352
S'http_referer'
p1353
asbag68
(g89
g70
NtRp1354
(dp1355
g73
(dp1356
g100
g101
ssg82
g1345
sg75
(lp1357
S':'
asbag68
(g89
g70
NtRp1358
(dp1359
g73
(dp1360
sg82
g1345
sg75
(lp1361
g68
(g69
g70
NtRp1362
(dp1363
g73
(dp1364
g81
I4
ssg82
g1358
sg75
(lp1365
S'http://127.0.0.1:8000/grades/default/create_grade/2'
p1366
asbasbasbag68
(g84
g70
NtRp1367
(dp1368
g73
(dp1369
sg82
g1031
sg75
(lp1370
g68
(g89
g70
NtRp1371
(dp1372
g73
(dp1373
g93
g94
ssg82
g1367
sg75
(lp1374
S'http_user_agent'
p1375
asbag68
(g89
g70
NtRp1376
(dp1377
g73
(dp1378
g100
g101
ssg82
g1367
sg75
(lp1379
S':'
asbag68
(g89
g70
NtRp1380
(dp1381
g73
(dp1382
sg82
g1367
sg75
(lp1383
g68
(g69
g70
NtRp1384
(dp1385
g73
(dp1386
g81
I4
ssg82
g1380
sg75
(lp1387
S'Mozilla/5.0 (X11; Linux x86_64; rv:8.0) Gecko/20100101 Firefox/8.0'
p1388
asbasbasbag68
(g84
g70
NtRp1389
(dp1390
g73
(dp1391
sg82
g1031
sg75
(lp1392
g68
(g89
g70
NtRp1393
(dp1394
g73
(dp1395
g93
g94
ssg82
g1389
sg75
(lp1396
S'is_jython'
p1397
asbag68
(g89
g70
NtRp1398
(dp1399
g73
(dp1400
g100
g101
ssg82
g1389
sg75
(lp1401
S':'
asbag68
(g89
g70
NtRp1402
(dp1403
g73
(dp1404
sg82
g1389
sg75
(lp1405
g68
(g69
g70
NtRp1406
(dp1407
g73
(dp1408
g81
I4
ssg82
g1402
sg75
(lp1409
g111
asbasbasbag68
(g84
g70
NtRp1410
(dp1411
g73
(dp1412
sg82
g1031
sg75
(lp1413
g68
(g89
g70
NtRp1414
(dp1415
g73
(dp1416
g93
g94
ssg82
g1410
sg75
(lp1417
S'path_info'
p1418
asbag68
(g89
g70
NtRp1419
(dp1420
g73
(dp1421
g100
g101
ssg82
g1410
sg75
(lp1422
S':'
asbag68
(g89
g70
NtRp1423
(dp1424
g73
(dp1425
sg82
g1410
sg75
(lp1426
g68
(g69
g70
NtRp1427
(dp1428
g73
(dp1429
g81
I4
ssg82
g1423
sg75
(lp1430
S'/grades/default/user/profile'
p1431
asbasbasbag68
(g84
g70
NtRp1432
(dp1433
g73
(dp1434
sg82
g1031
sg75
(lp1435
g68
(g89
g70
NtRp1436
(dp1437
g73
(dp1438
g93
g94
ssg82
g1432
sg75
(lp1439
S'query_string'
p1440
asbag68
(g89
g70
NtRp1441
(dp1442
g73
(dp1443
g100
g101
ssg82
g1432
sg75
(lp1444
S':'
asbag68
(g89
g70
NtRp1445
(dp1446
g73
(dp1447
sg82
g1432
sg75
(lp1448
g68
(g69
g70
NtRp1449
(dp1450
g73
(dp1451
g81
I4
ssg82
g1445
sg75
(lp1452
S''
asbasbasbag68
(g84
g70
NtRp1453
(dp1454
g73
(dp1455
sg82
g1031
sg75
(lp1456
g68
(g89
g70
NtRp1457
(dp1458
g73
(dp1459
g93
g94
ssg82
g1453
sg75
(lp1460
S'remote_addr'
p1461
asbag68
(g89
g70
NtRp1462
(dp1463
g73
(dp1464
g100
g101
ssg82
g1453
sg75
(lp1465
S':'
asbag68
(g89
g70
NtRp1466
(dp1467
g73
(dp1468
sg82
g1453
sg75
(lp1469
g68
(g69
g70
NtRp1470
(dp1471
g73
(dp1472
g81
I4
ssg82
g1466
sg75
(lp1473
g214
asbasbasbag68
(g84
g70
NtRp1474
(dp1475
g73
(dp1476
sg82
g1031
sg75
(lp1477
g68
(g89
g70
NtRp1478
(dp1479
g73
(dp1480
g93
g94
ssg82
g1474
sg75
(lp1481
S'remote_port'
p1482
asbag68
(g89
g70
NtRp1483
(dp1484
g73
(dp1485
g100
g101
ssg82
g1474
sg75
(lp1486
S':'
asbag68
(g89
g70
NtRp1487
(dp1488
g73
(dp1489
sg82
g1474
sg75
(lp1490
g68
(g69
g70
NtRp1491
(dp1492
g73
(dp1493
g81
I4
ssg82
g1487
sg75
(lp1494
S'32889'
p1495
asbasbasbag68
(g84
g70
NtRp1496
(dp1497
g73
(dp1498
sg82
g1031
sg75
(lp1499
g68
(g89
g70
NtRp1500
(dp1501
g73
(dp1502
g93
g94
ssg82
g1496
sg75
(lp1503
S'request_method'
p1504
asbag68
(g89
g70
NtRp1505
(dp1506
g73
(dp1507
g100
g101
ssg82
g1496
sg75
(lp1508
S':'
asbag68
(g89
g70
NtRp1509
(dp1510
g73
(dp1511
sg82
g1496
sg75
(lp1512
g68
(g69
g70
NtRp1513
(dp1514
g73
(dp1515
g81
I4
ssg82
g1509
sg75
(lp1516
S'GET'
p1517
asbasbasbag68
(g84
g70
NtRp1518
(dp1519
g73
(dp1520
sg82
g1031
sg75
(lp1521
g68
(g89
g70
NtRp1522
(dp1523
g73
(dp1524
g93
g94
ssg82
g1518
sg75
(lp1525
S'script_name'
p1526
asbag68
(g89
g70
NtRp1527
(dp1528
g73
(dp1529
g100
g101
ssg82
g1518
sg75
(lp1530
S':'
asbag68
(g89
g70
NtRp1531
(dp1532
g73
(dp1533
sg82
g1518
sg75
(lp1534
g68
(g69
g70
NtRp1535
(dp1536
g73
(dp1537
g81
I4
ssg82
g1531
sg75
(lp1538
S''
asbasbasbag68
(g84
g70
NtRp1539
(dp1540
g73
(dp1541
sg82
g1031
sg75
(lp1542
g68
(g89
g70
NtRp1543
(dp1544
g73
(dp1545
g93
g94
ssg82
g1539
sg75
(lp1546
S'server_name'
p1547
asbag68
(g89
g70
NtRp1548
(dp1549
g73
(dp1550
g100
g101
ssg82
g1539
sg75
(lp1551
S':'
asbag68
(g89
g70
NtRp1552
(dp1553
g73
(dp1554
sg82
g1539
sg75
(lp1555
g68
(g69
g70
NtRp1556
(dp1557
g73
(dp1558
g81
I4
ssg82
g1552
sg75
(lp1559
S'uriel'
p1560
asbasbasbag68
(g84
g70
NtRp1561
(dp1562
g73
(dp1563
sg82
g1031
sg75
(lp1564
g68
(g89
g70
NtRp1565
(dp1566
g73
(dp1567
g93
g94
ssg82
g1561
sg75
(lp1568
S'server_port'
p1569
asbag68
(g89
g70
NtRp1570
(dp1571
g73
(dp1572
g100
g101
ssg82
g1561
sg75
(lp1573
S':'
asbag68
(g89
g70
NtRp1574
(dp1575
g73
(dp1576
sg82
g1561
sg75
(lp1577
g68
(g69
g70
NtRp1578
(dp1579
g73
(dp1580
g81
I4
ssg82
g1574
sg75
(lp1581
S'8000'
p1582
asbasbasbag68
(g84
g70
NtRp1583
(dp1584
g73
(dp1585
sg82
g1031
sg75
(lp1586
g68
(g89
g70
NtRp1587
(dp1588
g73
(dp1589
g93
g94
ssg82
g1583
sg75
(lp1590
S'server_protocol'
p1591
asbag68
(g89
g70
NtRp1592
(dp1593
g73
(dp1594
g100
g101
ssg82
g1583
sg75
(lp1595
S':'
asbag68
(g89
g70
NtRp1596
(dp1597
g73
(dp1598
sg82
g1583
sg75
(lp1599
g68
(g69
g70
NtRp1600
(dp1601
g73
(dp1602
g81
I4
ssg82
g1596
sg75
(lp1603
S'HTTP/1.1'
p1604
asbasbasbag68
(g84
g70
NtRp1605
(dp1606
g73
(dp1607
sg82
g1031
sg75
(lp1608
g68
(g89
g70
NtRp1609
(dp1610
g73
(dp1611
g93
g94
ssg82
g1605
sg75
(lp1612
S'server_software'
p1613
asbag68
(g89
g70
NtRp1614
(dp1615
g73
(dp1616
g100
g101
ssg82
g1605
sg75
(lp1617
S':'
asbag68
(g89
g70
NtRp1618
(dp1619
g73
(dp1620
sg82
g1605
sg75
(lp1621
g68
(g69
g70
NtRp1622
(dp1623
g73
(dp1624
g81
I4
ssg82
g1618
sg75
(lp1625
S'Rocket 1.2.4'
p1626
asbasbasbag68
(g84
g70
NtRp1627
(dp1628
g73
(dp1629
sg82
g1031
sg75
(lp1630
g68
(g89
g70
NtRp1631
(dp1632
g73
(dp1633
g93
g94
ssg82
g1627
sg75
(lp1634
S'web2py_crontype'
p1635
asbag68
(g89
g70
NtRp1636
(dp1637
g73
(dp1638
g100
g101
ssg82
g1627
sg75
(lp1639
S':'
asbag68
(g89
g70
NtRp1640
(dp1641
g73
(dp1642
sg82
g1627
sg75
(lp1643
g68
(g69
g70
NtRp1644
(dp1645
g73
(dp1646
g81
I4
ssg82
g1640
sg75
(lp1647
S'hard'
p1648
asbasbasbag68
(g84
g70
NtRp1649
(dp1650
g73
(dp1651
sg82
g1031
sg75
(lp1652
g68
(g89
g70
NtRp1653
(dp1654
g73
(dp1655
g93
g94
ssg82
g1649
sg75
(lp1656
S'web2py_path'
p1657
asbag68
(g89
g70
NtRp1658
(dp1659
g73
(dp1660
g100
g101
ssg82
g1649
sg75
(lp1661
S':'
asbag68
(g89
g70
NtRp1662
(dp1663
g73
(dp1664
sg82
g1649
sg75
(lp1665
g68
(g69
g70
NtRp1666
(dp1667
g73
(dp1668
g81
I4
ssg82
g1662
sg75
(lp1669
g1078
asbasbasbag68
(g84
g70
NtRp1670
(dp1671
g73
(dp1672
sg82
g1031
sg75
(lp1673
g68
(g89
g70
NtRp1674
(dp1675
g73
(dp1676
g93
g94
ssg82
g1670
sg75
(lp1677
S'web2py_version'
p1678
asbag68
(g89
g70
NtRp1679
(dp1680
g73
(dp1681
g100
g101
ssg82
g1670
sg75
(lp1682
S':'
asbag68
(g89
g70
NtRp1683
(dp1684
g73
(dp1685
sg82
g1670
sg75
(lp1686
g68
(g69
g70
NtRp1687
(dp1688
g73
(dp1689
g81
I4
ssg82
g1683
sg75
(lp1690
g68
(g77
g70
NtRp1691
(dp1692
g73
(dp1693
g81
I3
ssg82
Nsg75
(lp1694
g68
(g84
g70
NtRp1695
(dp1696
g73
(dp1697
sg82
g1691
sg75
(lp1698
g68
(g89
g70
NtRp1699
(dp1700
g73
(dp1701
sg82
g1695
sg75
(lp1702
g68
(g69
g70
NtRp1703
(dp1704
g73
(dp1705
g81
I3
ssg82
g1699
sg75
(lp1706
S'1'
asbasbasbag68
(g84
g70
NtRp1707
(dp1708
g73
(dp1709
sg82
g1691
sg75
(lp1710
g68
(g89
g70
NtRp1711
(dp1712
g73
(dp1713
sg82
g1707
sg75
(lp1714
g68
(g69
g70
NtRp1715
(dp1716
g73
(dp1717
g81
I3
ssg82
g1711
sg75
(lp1718
S'99'
p1719
asbasbasbag68
(g84
g70
NtRp1720
(dp1721
g73
(dp1722
sg82
g1691
sg75
(lp1723
g68
(g89
g70
NtRp1724
(dp1725
g73
(dp1726
sg82
g1720
sg75
(lp1727
g68
(g69
g70
NtRp1728
(dp1729
g73
(dp1730
g81
I3
ssg82
g1724
sg75
(lp1731
S'2'
asbasbasbag68
(g84
g70
NtRp1732
(dp1733
g73
(dp1734
sg82
g1691
sg75
(lp1735
g68
(g89
g70
NtRp1736
(dp1737
g73
(dp1738
sg82
g1732
sg75
(lp1739
g68
(g69
g70
NtRp1740
(dp1741
g73
(dp1742
g81
I3
ssg82
g1736
sg75
(lp1743
S'datetime.datetime(2011, 9, 26, 6, 55, 33)'
p1744
asbasbasbag68
(g84
g70
NtRp1745
(dp1746
g73
(dp1747
sg82
g1691
sg75
(lp1748
g68
(g89
g70
NtRp1749
(dp1750
g73
(dp1751
sg82
g1745
sg75
(lp1752
g68
(g69
g70
NtRp1753
(dp1754
g73
(dp1755
g81
I3
ssg82
g1749
sg75
(lp1756
S'stable'
p1757
asbasbasbasbasbasbasbag68
(g84
g70
NtRp1758
(dp1759
g73
(dp1760
sg82
g1031
sg75
(lp1761
g68
(g89
g70
NtRp1762
(dp1763
g73
(dp1764
g93
g94
ssg82
g1758
sg75
(lp1765
S'wsgi_errors'
p1766
asbag68
(g89
g70
NtRp1767
(dp1768
g73
(dp1769
g100
g101
ssg82
g1758
sg75
(lp1770
S':'
asbag68
(g89
g70
NtRp1771
(dp1772
g73
(dp1773
sg82
g1758
sg75
(lp1774
g68
(g69
g70
NtRp1775
(dp1776
g73
(dp1777
g81
I4
ssg82
g1771
sg75
(lp1778
S"<open file '<stderr>', mode 'w' at 0x7f9678b3d270>"
p1779
asbasbasbag68
(g84
g70
NtRp1780
(dp1781
g73
(dp1782
sg82
g1031
sg75
(lp1783
g68
(g89
g70
NtRp1784
(dp1785
g73
(dp1786
g93
g94
ssg82
g1780
sg75
(lp1787
S'wsgi_file_wrapper'
p1788
asbag68
(g89
g70
NtRp1789
(dp1790
g73
(dp1791
g100
g101
ssg82
g1780
sg75
(lp1792
S':'
asbag68
(g89
g70
NtRp1793
(dp1794
g73
(dp1795
sg82
g1780
sg75
(lp1796
g68
(g69
g70
NtRp1797
(dp1798
g73
(dp1799
g81
I4
ssg82
g1793
sg75
(lp1800
S'<class wsgiref.util.FileWrapper at 0x1ec9870>'
p1801
asbasbasbag68
(g84
g70
NtRp1802
(dp1803
g73
(dp1804
sg82
g1031
sg75
(lp1805
g68
(g89
g70
NtRp1806
(dp1807
g73
(dp1808
g93
g94
ssg82
g1802
sg75
(lp1809
S'wsgi_input'
p1810
asbag68
(g89
g70
NtRp1811
(dp1812
g73
(dp1813
g100
g101
ssg82
g1802
sg75
(lp1814
S':'
asbag68
(g89
g70
NtRp1815
(dp1816
g73
(dp1817
sg82
g1802
sg75
(lp1818
g68
(g69
g70
NtRp1819
(dp1820
g73
(dp1821
g81
I4
ssg82
g1815
sg75
(lp1822
S'<socket._fileobject object at 0x319f450>'
p1823
asbasbasbag68
(g84
g70
NtRp1824
(dp1825
g73
(dp1826
sg82
g1031
sg75
(lp1827
g68
(g89
g70
NtRp1828
(dp1829
g73
(dp1830
g93
g94
ssg82
g1824
sg75
(lp1831
S'wsgi_multiprocess'
p1832
asbag68
(g89
g70
NtRp1833
(dp1834
g73
(dp1835
g100
g101
ssg82
g1824
sg75
(lp1836
S':'
asbag68
(g89
g70
NtRp1837
(dp1838
g73
(dp1839
sg82
g1824
sg75
(lp1840
g68
(g69
g70
NtRp1841
(dp1842
g73
(dp1843
g81
I4
ssg82
g1837
sg75
(lp1844
g111
asbasbasbag68
(g84
g70
NtRp1845
(dp1846
g73
(dp1847
sg82
g1031
sg75
(lp1848
g68
(g89
g70
NtRp1849
(dp1850
g73
(dp1851
g93
g94
ssg82
g1845
sg75
(lp1852
S'wsgi_multithread'
p1853
asbag68
(g89
g70
NtRp1854
(dp1855
g73
(dp1856
g100
g101
ssg82
g1845
sg75
(lp1857
S':'
asbag68
(g89
g70
NtRp1858
(dp1859
g73
(dp1860
sg82
g1845
sg75
(lp1861
g68
(g69
g70
NtRp1862
(dp1863
g73
(dp1864
g81
I4
ssg82
g1858
sg75
(lp1865
S'True'
p1866
asbasbasbag68
(g84
g70
NtRp1867
(dp1868
g73
(dp1869
sg82
g1031
sg75
(lp1870
g68
(g89
g70
NtRp1871
(dp1872
g73
(dp1873
g93
g94
ssg82
g1867
sg75
(lp1874
S'wsgi_run_once'
p1875
asbag68
(g89
g70
NtRp1876
(dp1877
g73
(dp1878
g100
g101
ssg82
g1867
sg75
(lp1879
S':'
asbag68
(g89
g70
NtRp1880
(dp1881
g73
(dp1882
sg82
g1867
sg75
(lp1883
g68
(g69
g70
NtRp1884
(dp1885
g73
(dp1886
g81
I4
ssg82
g1880
sg75
(lp1887
g111
asbasbasbag68
(g84
g70
NtRp1888
(dp1889
g73
(dp1890
sg82
g1031
sg75
(lp1891
g68
(g89
g70
NtRp1892
(dp1893
g73
(dp1894
g93
g94
ssg82
g1888
sg75
(lp1895
S'wsgi_url_scheme'
p1896
asbag68
(g89
g70
NtRp1897
(dp1898
g73
(dp1899
g100
g101
ssg82
g1888
sg75
(lp1900
S':'
asbag68
(g89
g70
NtRp1901
(dp1902
g73
(dp1903
sg82
g1888
sg75
(lp1904
g68
(g69
g70
NtRp1905
(dp1906
g73
(dp1907
g81
I4
ssg82
g1901
sg75
(lp1908
S'http'
p1909
asbasbasbag68
(g84
g70
NtRp1910
(dp1911
g73
(dp1912
sg82
g1031
sg75
(lp1913
g68
(g89
g70
NtRp1914
(dp1915
g73
(dp1916
g93
g94
ssg82
g1910
sg75
(lp1917
S'wsgi_version'
p1918
asbag68
(g89
g70
NtRp1919
(dp1920
g73
(dp1921
g100
g101
ssg82
g1910
sg75
(lp1922
S':'
asbag68
(g89
g70
NtRp1923
(dp1924
g73
(dp1925
sg82
g1910
sg75
(lp1926
g68
(g69
g70
NtRp1927
(dp1928
g73
(dp1929
g81
I4
ssg82
g1923
sg75
(lp1930
g68
(g77
g70
NtRp1931
(dp1932
g73
(dp1933
g81
I3
ssg82
Nsg75
(lp1934
g68
(g84
g70
NtRp1935
(dp1936
g73
(dp1937
sg82
g1931
sg75
(lp1938
g68
(g89
g70
NtRp1939
(dp1940
g73
(dp1941
sg82
g1935
sg75
(lp1942
g68
(g69
g70
NtRp1943
(dp1944
g73
(dp1945
g81
I3
ssg82
g1939
sg75
(lp1946
S'1'
asbasbasbag68
(g84
g70
NtRp1947
(dp1948
g73
(dp1949
sg82
g1931
sg75
(lp1950
g68
(g89
g70
NtRp1951
(dp1952
g73
(dp1953
sg82
g1947
sg75
(lp1954
g68
(g69
g70
NtRp1955
(dp1956
g73
(dp1957
g81
I3
ssg82
g1951
sg75
(lp1958
S'0'
asbasbasbasbasbasbasbasbasbasbasbag68
(g84
g70
NtRp1959
(dp1960
g73
(dp1961
sg82
g78
sg75
(lp1962
g68
(g89
g70
NtRp1963
(dp1964
g73
(dp1965
g93
g94
ssg82
g1959
sg75
(lp1966
S'extension'
p1967
asbag68
(g89
g70
NtRp1968
(dp1969
g73
(dp1970
g100
g101
ssg82
g1959
sg75
(lp1971
S':'
asbag68
(g89
g70
NtRp1972
(dp1973
g73
(dp1974
sg82
g1959
sg75
(lp1975
g68
(g69
g70
NtRp1976
(dp1977
g73
(dp1978
g81
I5
ssg82
g1972
sg75
(lp1979
S'html'
p1980
asbasbasbag68
(g84
g70
NtRp1981
(dp1982
g73
(dp1983
sg82
g78
sg75
(lp1984
g68
(g89
g70
NtRp1985
(dp1986
g73
(dp1987
g93
g94
ssg82
g1981
sg75
(lp1988
S'folder'
p1989
asbag68
(g89
g70
NtRp1990
(dp1991
g73
(dp1992
g100
g101
ssg82
g1981
sg75
(lp1993
S':'
asbag68
(g89
g70
NtRp1994
(dp1995
g73
(dp1996
sg82
g1981
sg75
(lp1997
g68
(g69
g70
NtRp1998
(dp1999
g73
(dp2000
g81
I5
ssg82
g1994
sg75
(lp2001
S'/home/ian/web2py/applications/grades/'
p2002
asbasbasbag68
(g84
g70
NtRp2003
(dp2004
g73
(dp2005
sg82
g78
sg75
(lp2006
g68
(g89
g70
NtRp2007
(dp2008
g73
(dp2009
g93
g94
ssg82
g2003
sg75
(lp2010
S'function'
p2011
asbag68
(g89
g70
NtRp2012
(dp2013
g73
(dp2014
g100
g101
ssg82
g2003
sg75
(lp2015
S':'
asbag68
(g89
g70
NtRp2016
(dp2017
g73
(dp2018
sg82
g2003
sg75
(lp2019
g68
(g69
g70
NtRp2020
(dp2021
g73
(dp2022
g81
I5
ssg82
g2016
sg75
(lp2023
S'user'
p2024
asbasbasbag68
(g84
g70
NtRp2025
(dp2026
g73
(dp2027
sg82
g78
sg75
(lp2028
g68
(g89
g70
NtRp2029
(dp2030
g73
(dp2031
g93
g94
ssg82
g2025
sg75
(lp2032
S'get_vars'
p2033
asbag68
(g89
g70
NtRp2034
(dp2035
g73
(dp2036
g100
g101
ssg82
g2025
sg75
(lp2037
S':'
asbag68
(g89
g70
NtRp2038
(dp2039
g73
(dp2040
sg82
g2025
sg75
(lp2041
g68
(g69
g70
NtRp2042
(dp2043
g73
(dp2044
g81
I5
ssg82
g2038
sg75
(lp2045
g68
(g77
g70
NtRp2046
(dp2047
g73
(dp2048
g81
I4
ssg82
Nsg75
(lp2049
sbasbasbasbag68
(g84
g70
NtRp2050
(dp2051
g73
(dp2052
sg82
g78
sg75
(lp2053
g68
(g89
g70
NtRp2054
(dp2055
g73
(dp2056
g93
g94
ssg82
g2050
sg75
(lp2057
S'global_settings'
p2058
asbag68
(g89
g70
NtRp2059
(dp2060
g73
(dp2061
g100
g101
ssg82
g2050
sg75
(lp2062
S':'
asbag68
(g89
g70
NtRp2063
(dp2064
g73
(dp2065
sg82
g2050
sg75
(lp2066
g68
(g69
g70
NtRp2067
(dp2068
g73
(dp2069
g81
I5
ssg82
g2063
sg75
(lp2070
g68
(g77
g70
NtRp2071
(dp2072
g73
(dp2073
g81
I4
ssg82
Nsg75
(lp2074
g68
(g84
g70
NtRp2075
(dp2076
g73
(dp2077
sg82
g2071
sg75
(lp2078
g68
(g89
g70
NtRp2079
(dp2080
g73
(dp2081
g93
g94
ssg82
g2075
sg75
(lp2082
g1043
asbag68
(g89
g70
NtRp2083
(dp2084
g73
(dp2085
g100
g101
ssg82
g2075
sg75
(lp2086
S':'
asbag68
(g89
g70
NtRp2087
(dp2088
g73
(dp2089
sg82
g2075
sg75
(lp2090
g68
(g69
g70
NtRp2091
(dp2092
g73
(dp2093
g81
I4
ssg82
g2087
sg75
(lp2094
S"set(['/home/ian/web2py/applications/welcome/', '/home/ian/web2py/applications/grades/', '/home/ian/web2py/applications/admin/'])"
p2095
asbasbasbag68
(g84
g70
NtRp2096
(dp2097
g73
(dp2098
sg82
g2071
sg75
(lp2099
g68
(g89
g70
NtRp2100
(dp2101
g73
(dp2102
g93
g94
ssg82
g2096
sg75
(lp2103
g1065
asbag68
(g89
g70
NtRp2104
(dp2105
g73
(dp2106
g100
g101
ssg82
g2096
sg75
(lp2107
S':'
asbag68
(g89
g70
NtRp2108
(dp2109
g73
(dp2110
sg82
g2096
sg75
(lp2111
g68
(g69
g70
NtRp2112
(dp2113
g73
(dp2114
g81
I4
ssg82
g2108
sg75
(lp2115
g1078
asbasbasbag68
(g84
g70
NtRp2116
(dp2117
g73
(dp2118
sg82
g2071
sg75
(lp2119
g68
(g89
g70
NtRp2120
(dp2121
g73
(dp2122
g93
g94
ssg82
g2116
sg75
(lp2123
g1087
asbag68
(g89
g70
NtRp2124
(dp2125
g73
(dp2126
g100
g101
ssg82
g2116
sg75
(lp2127
S':'
asbag68
(g89
g70
NtRp2128
(dp2129
g73
(dp2130
sg82
g2116
sg75
(lp2131
g68
(g69
g70
NtRp2132
(dp2133
g73
(dp2134
g81
I4
ssg82
g2128
sg75
(lp2135
g68
(g77
g70
NtRp2136
(dp2137
g73
(dp2138
g81
I3
ssg82
Nsg75
(lp2139
sbasbasbasbag68
(g84
g70
NtRp2140
(dp2141
g73
(dp2142
sg82
g2071
sg75
(lp2143
g68
(g89
g70
NtRp2144
(dp2145
g73
(dp2146
g93
g94
ssg82
g2140
sg75
(lp2147
g1112
asbag68
(g89
g70
NtRp2148
(dp2149
g73
(dp2150
g100
g101
ssg82
g2140
sg75
(lp2151
S':'
asbag68
(g89
g70
NtRp2152
(dp2153
g73
(dp2154
sg82
g2140
sg75
(lp2155
g68
(g69
g70
NtRp2156
(dp2157
g73
(dp2158
g81
I4
ssg82
g2152
sg75
(lp2159
S"<Values at 0x1ffe758: {'verbose': False, 'ip': '127.0.0.1', 'shutdown_timeout': 5, 'taskbar': False, 'nocron': False, 'pid_filename': 'httpserver.pid', 'maxthreads': None, 'softcron': False, 'server_name': 'uriel', 'bpython': False, 'nogui': False, 'port': 8000, 'extcron': False, 'debuglevel': 30, 'test': None, 'folder': '/home/ian/web2py', 'config': '', 'import_models': False, 'winservice': '', 'shell': None, 'run': '', 'log_filename': 'httpserver.log', 'args': [''], 'ssl_ca_certificate': None, 'scheduler': None, 'profiler_filename': None, 'ssl_private_key': '', 'password': '<ask>', 'request_queue_size': 5, 'ssl_certificate': '', 'cronjob': False, 'plain': False, 'quiet': False, 'interfaces': None, 'minthreads': None, 'timeout': 10, 'numthreads': None, 'nobanner': False}>"
p2160
asbasbasbag68
(g84
g70
NtRp2161
(dp2162
g73
(dp2163
sg82
g2071
sg75
(lp2164
g68
(g89
g70
NtRp2165
(dp2166
g73
(dp2167
g93
g94
ssg82
g2161
sg75
(lp2168
g1134
asbag68
(g89
g70
NtRp2169
(dp2170
g73
(dp2171
g100
g101
ssg82
g2161
sg75
(lp2172
S':'
asbag68
(g89
g70
NtRp2173
(dp2174
g73
(dp2175
sg82
g2161
sg75
(lp2176
g68
(g69
g70
NtRp2177
(dp2178
g73
(dp2179
g81
I4
ssg82
g2173
sg75
(lp2180
S'set([])'
p2181
asbasbasbag68
(g84
g70
NtRp2182
(dp2183
g73
(dp2184
sg82
g2071
sg75
(lp2185
g68
(g89
g70
NtRp2186
(dp2187
g73
(dp2188
g93
g94
ssg82
g2182
sg75
(lp2189
g1156
asbag68
(g89
g70
NtRp2190
(dp2191
g73
(dp2192
g100
g101
ssg82
g2182
sg75
(lp2193
S':'
asbag68
(g89
g70
NtRp2194
(dp2195
g73
(dp2196
sg82
g2182
sg75
(lp2197
g68
(g69
g70
NtRp2198
(dp2199
g73
(dp2200
g81
I4
ssg82
g2194
sg75
(lp2201
g111
asbasbasbag68
(g84
g70
NtRp2202
(dp2203
g73
(dp2204
sg82
g2071
sg75
(lp2205
g68
(g89
g70
NtRp2206
(dp2207
g73
(dp2208
g93
g94
ssg82
g2202
sg75
(lp2209
g1177
asbag68
(g89
g70
NtRp2210
(dp2211
g73
(dp2212
g100
g101
ssg82
g2202
sg75
(lp2213
S':'
asbag68
(g89
g70
NtRp2214
(dp2215
g73
(dp2216
sg82
g2202
sg75
(lp2217
g68
(g69
g70
NtRp2218
(dp2219
g73
(dp2220
g81
I4
ssg82
g2214
sg75
(lp2221
g1190
asbasbasbag68
(g84
g70
NtRp2222
(dp2223
g73
(dp2224
sg82
g2071
sg75
(lp2225
g68
(g89
g70
NtRp2226
(dp2227
g73
(dp2228
g93
g94
ssg82
g2222
sg75
(lp2229
g1397
asbag68
(g89
g70
NtRp2230
(dp2231
g73
(dp2232
g100
g101
ssg82
g2222
sg75
(lp2233
S':'
asbag68
(g89
g70
NtRp2234
(dp2235
g73
(dp2236
sg82
g2222
sg75
(lp2237
g68
(g69
g70
NtRp2238
(dp2239
g73
(dp2240
g81
I4
ssg82
g2234
sg75
(lp2241
g111
asbasbasbag68
(g84
g70
NtRp2242
(dp2243
g73
(dp2244
sg82
g2071
sg75
(lp2245
g68
(g89
g70
NtRp2246
(dp2247
g73
(dp2248
g93
g94
ssg82
g2242
sg75
(lp2249
g1635
asbag68
(g89
g70
NtRp2250
(dp2251
g73
(dp2252
g100
g101
ssg82
g2242
sg75
(lp2253
S':'
asbag68
(g89
g70
NtRp2254
(dp2255
g73
(dp2256
sg82
g2242
sg75
(lp2257
g68
(g69
g70
NtRp2258
(dp2259
g73
(dp2260
g81
I4
ssg82
g2254
sg75
(lp2261
g1648
asbasbasbag68
(g84
g70
NtRp2262
(dp2263
g73
(dp2264
sg82
g2071
sg75
(lp2265
g68
(g89
g70
NtRp2266
(dp2267
g73
(dp2268
g93
g94
ssg82
g2262
sg75
(lp2269
g1678
asbag68
(g89
g70
NtRp2270
(dp2271
g73
(dp2272
g100
g101
ssg82
g2262
sg75
(lp2273
S':'
asbag68
(g89
g70
NtRp2274
(dp2275
g73
(dp2276
sg82
g2262
sg75
(lp2277
g68
(g69
g70
NtRp2278
(dp2279
g73
(dp2280
g81
I4
ssg82
g2274
sg75
(lp2281
g68
(g77
g70
NtRp2282
(dp2283
g73
(dp2284
g81
I3
ssg82
Nsg75
(lp2285
g68
(g84
g70
NtRp2286
(dp2287
g73
(dp2288
sg82
g2282
sg75
(lp2289
g68
(g89
g70
NtRp2290
(dp2291
g73
(dp2292
sg82
g2286
sg75
(lp2293
g68
(g69
g70
NtRp2294
(dp2295
g73
(dp2296
g81
I3
ssg82
g2290
sg75
(lp2297
S'1'
asbasbasbag68
(g84
g70
NtRp2298
(dp2299
g73
(dp2300
sg82
g2282
sg75
(lp2301
g68
(g89
g70
NtRp2302
(dp2303
g73
(dp2304
sg82
g2298
sg75
(lp2305
g68
(g69
g70
NtRp2306
(dp2307
g73
(dp2308
g81
I3
ssg82
g2302
sg75
(lp2309
S'99'
p2310
asbasbasbag68
(g84
g70
NtRp2311
(dp2312
g73
(dp2313
sg82
g2282
sg75
(lp2314
g68
(g89
g70
NtRp2315
(dp2316
g73
(dp2317
sg82
g2311
sg75
(lp2318
g68
(g69
g70
NtRp2319
(dp2320
g73
(dp2321
g81
I3
ssg82
g2315
sg75
(lp2322
S'2'
asbasbasbag68
(g84
g70
NtRp2323
(dp2324
g73
(dp2325
sg82
g2282
sg75
(lp2326
g68
(g89
g70
NtRp2327
(dp2328
g73
(dp2329
sg82
g2323
sg75
(lp2330
g68
(g69
g70
NtRp2331
(dp2332
g73
(dp2333
g81
I3
ssg82
g2327
sg75
(lp2334
S'datetime.datetime(2011, 9, 26, 6, 55, 33)'
p2335
asbasbasbag68
(g84
g70
NtRp2336
(dp2337
g73
(dp2338
sg82
g2282
sg75
(lp2339
g68
(g89
g70
NtRp2340
(dp2341
g73
(dp2342
sg82
g2336
sg75
(lp2343
g68
(g69
g70
NtRp2344
(dp2345
g73
(dp2346
g81
I3
ssg82
g2340
sg75
(lp2347
g1757
asbasbasbasbasbasbasbasbasbasbasbag68
(g84
g70
NtRp2348
(dp2349
g73
(dp2350
sg82
g78
sg75
(lp2351
g68
(g89
g70
NtRp2352
(dp2353
g73
(dp2354
g93
g94
ssg82
g2348
sg75
(lp2355
S'is_https'
p2356
asbag68
(g89
g70
NtRp2357
(dp2358
g73
(dp2359
g100
g101
ssg82
g2348
sg75
(lp2360
S':'
asbag68
(g89
g70
NtRp2361
(dp2362
g73
(dp2363
sg82
g2348
sg75
(lp2364
g68
(g69
g70
NtRp2365
(dp2366
g73
(dp2367
g81
I5
ssg82
g2361
sg75
(lp2368
g111
asbasbasbag68
(g84
g70
NtRp2369
(dp2370
g73
(dp2371
sg82
g78
sg75
(lp2372
g68
(g89
g70
NtRp2373
(dp2374
g73
(dp2375
g93
g94
ssg82
g2369
sg75
(lp2376
S'is_local'
p2377
asbag68
(g89
g70
NtRp2378
(dp2379
g73
(dp2380
g100
g101
ssg82
g2369
sg75
(lp2381
S':'
asbag68
(g89
g70
NtRp2382
(dp2383
g73
(dp2384
sg82
g2369
sg75
(lp2385
g68
(g69
g70
NtRp2386
(dp2387
g73
(dp2388
g81
I5
ssg82
g2382
sg75
(lp2389
g1866
asbasbasbag68
(g84
g70
NtRp2390
(dp2391
g73
(dp2392
sg82
g78
sg75
(lp2393
g68
(g89
g70
NtRp2394
(dp2395
g73
(dp2396
g93
g94
ssg82
g2390
sg75
(lp2397
S'is_restful'
p2398
asbag68
(g89
g70
NtRp2399
(dp2400
g73
(dp2401
g100
g101
ssg82
g2390
sg75
(lp2402
S':'
asbag68
(g89
g70
NtRp2403
(dp2404
g73
(dp2405
sg82
g2390
sg75
(lp2406
g68
(g69
g70
NtRp2407
(dp2408
g73
(dp2409
g81
I5
ssg82
g2403
sg75
(lp2410
g111
asbasbasbag68
(g84
g70
NtRp2411
(dp2412
g73
(dp2413
sg82
g78
sg75
(lp2414
g68
(g89
g70
NtRp2415
(dp2416
g73
(dp2417
g93
g94
ssg82
g2411
sg75
(lp2418
S'now'
p2419
asbag68
(g89
g70
NtRp2420
(dp2421
g73
(dp2422
g100
g101
ssg82
g2411
sg75
(lp2423
S':'
asbag68
(g89
g70
NtRp2424
(dp2425
g73
(dp2426
sg82
g2411
sg75
(lp2427
g68
(g69
g70
NtRp2428
(dp2429
g73
(dp2430
g81
I5
ssg82
g2424
sg75
(lp2431
S'datetime.datetime(2011, 11, 9, 13, 38, 6, 886017)'
p2432
asbasbasbag68
(g84
g70
NtRp2433
(dp2434
g73
(dp2435
sg82
g78
sg75
(lp2436
g68
(g89
g70
NtRp2437
(dp2438
g73
(dp2439
g93
g94
ssg82
g2433
sg75
(lp2440
S'post_vars'
p2441
asbag68
(g89
g70
NtRp2442
(dp2443
g73
(dp2444
g100
g101
ssg82
g2433
sg75
(lp2445
S':'
asbag68
(g89
g70
NtRp2446
(dp2447
g73
(dp2448
sg82
g2433
sg75
(lp2449
g68
(g69
g70
NtRp2450
(dp2451
g73
(dp2452
g81
I5
ssg82
g2446
sg75
(lp2453
g68
(g77
g70
NtRp2454
(dp2455
g73
(dp2456
g81
I4
ssg82
Nsg75
(lp2457
sbasbasbasbag68
(g84
g70
NtRp2458
(dp2459
g73
(dp2460
sg82
g78
sg75
(lp2461
g68
(g89
g70
NtRp2462
(dp2463
g73
(dp2464
g93
g94
ssg82
g2458
sg75
(lp2465
S'raw_args'
p2466
asbag68
(g89
g70
NtRp2467
(dp2468
g73
(dp2469
g100
g101
ssg82
g2458
sg75
(lp2470
S':'
asbag68
(g89
g70
NtRp2471
(dp2472
g73
(dp2473
sg82
g2458
sg75
(lp2474
g68
(g69
g70
NtRp2475
(dp2476
g73
(dp2477
g81
I5
ssg82
g2471
sg75
(lp2478
g170
asbasbasbag68
(g84
g70
NtRp2479
(dp2480
g73
(dp2481
sg82
g78
sg75
(lp2482
g68
(g89
g70
NtRp2483
(dp2484
g73
(dp2485
g93
g94
ssg82
g2479
sg75
(lp2486
S'url'
p2487
asbag68
(g89
g70
NtRp2488
(dp2489
g73
(dp2490
g100
g101
ssg82
g2479
sg75
(lp2491
S':'
asbag68
(g89
g70
NtRp2492
(dp2493
g73
(dp2494
sg82
g2479
sg75
(lp2495
g68
(g69
g70
NtRp2496
(dp2497
g73
(dp2498
g81
I5
ssg82
g2492
sg75
(lp2499
S'/grades/default/user/profile'
p2500
asbasbasbag68
(g84
g70
NtRp2501
(dp2502
g73
(dp2503
sg82
g78
sg75
(lp2504
g68
(g89
g70
NtRp2505
(dp2506
g73
(dp2507
g93
g94
ssg82
g2501
sg75
(lp2508
S'utcnow'
p2509
asbag68
(g89
g70
NtRp2510
(dp2511
g73
(dp2512
g100
g101
ssg82
g2501
sg75
(lp2513
S':'
asbag68
(g89
g70
NtRp2514
(dp2515
g73
(dp2516
sg82
g2501
sg75
(lp2517
g68
(g69
g70
NtRp2518
(dp2519
g73
(dp2520
g81
I5
ssg82
g2514
sg75
(lp2521
S'datetime.datetime(2011, 11, 9, 18, 38, 6, 886078)'
p2522
asbasbasbag68
(g84
g70
NtRp2523
(dp2524
g73
(dp2525
sg82
g78
sg75
(lp2526
g68
(g89
g70
NtRp2527
(dp2528
g73
(dp2529
g93
g94
ssg82
g2523
sg75
(lp2530
S'uuid'
p2531
asbag68
(g89
g70
NtRp2532
(dp2533
g73
(dp2534
g100
g101
ssg82
g2523
sg75
(lp2535
S':'
asbag68
(g89
g70
NtRp2536
(dp2537
g73
(dp2538
sg82
g2523
sg75
(lp2539
g68
(g69
g70
NtRp2540
(dp2541
g73
(dp2542
g81
I5
ssg82
g2536
sg75
(lp2543
S'grades/127.0.0.1.2011-11-09.13-38-06.db7a2f8e-1daa-4229-aaa7-e50909da31c4'
p2544
asbasbasbag68
(g84
g70
NtRp2545
(dp2546
g73
(dp2547
sg82
g78
sg75
(lp2548
g68
(g89
g70
NtRp2549
(dp2550
g73
(dp2551
g93
g94
ssg82
g2545
sg75
(lp2552
S'vars'
p2553
asbag68
(g89
g70
NtRp2554
(dp2555
g73
(dp2556
g100
g101
ssg82
g2545
sg75
(lp2557
S':'
asbag68
(g89
g70
NtRp2558
(dp2559
g73
(dp2560
sg82
g2545
sg75
(lp2561
g68
(g69
g70
NtRp2562
(dp2563
g73
(dp2564
g81
I5
ssg82
g2558
sg75
(lp2565
g68
(g77
g70
NtRp2566
(dp2567
g73
(dp2568
g81
I4
ssg82
Nsg75
(lp2569
sbasbasbasbag68
(g84
g70
NtRp2570
(dp2571
g73
(dp2572
sg82
g78
sg75
(lp2573
g68
(g89
g70
NtRp2574
(dp2575
g73
(dp2576
g93
g94
ssg82
g2570
sg75
(lp2577
S'wsgi'
p2578
asbag68
(g89
g70
NtRp2579
(dp2580
g73
(dp2581
g100
g101
ssg82
g2570
sg75
(lp2582
S':'
asbag68
(g89
g70
NtRp2583
(dp2584
g73
(dp2585
sg82
g2570
sg75
(lp2586
g68
(g69
g70
NtRp2587
(dp2588
g73
(dp2589
g81
I5
ssg82
g2583
sg75
(lp2590
g68
(g77
g70
NtRp2591
(dp2592
g73
(dp2593
g81
I4
ssg82
Nsg75
(lp2594
g68
(g84
g70
NtRp2595
(dp2596
g73
(dp2597
sg82
g2591
sg75
(lp2598
g68
(g89
g70
NtRp2599
(dp2600
g73
(dp2601
g93
g94
ssg82
g2595
sg75
(lp2602
S'environ'
p2603
asbag68
(g89
g70
NtRp2604
(dp2605
g73
(dp2606
g100
g101
ssg82
g2595
sg75
(lp2607
S':'
asbag68
(g89
g70
NtRp2608
(dp2609
g73
(dp2610
sg82
g2595
sg75
(lp2611
g68
(g69
g70
NtRp2612
(dp2613
g73
(dp2614
g81
I4
ssg82
g2608
sg75
(lp2615
g68
(g77
g70
NtRp2616
(dp2617
g73
(dp2618
g81
I3
ssg82
Nsg75
(lp2619
g68
(g84
g70
NtRp2620
(dp2621
g73
(dp2622
sg82
g2616
sg75
(lp2623
g68
(g89
g70
NtRp2624
(dp2625
g73
(dp2626
g93
g94
ssg82
g2620
sg75
(lp2627
S'HTTP_ACCEPT'
p2628
asbag68
(g89
g70
NtRp2629
(dp2630
g73
(dp2631
g100
g101
ssg82
g2620
sg75
(lp2632
S':'
asbag68
(g89
g70
NtRp2633
(dp2634
g73
(dp2635
sg82
g2620
sg75
(lp2636
g68
(g69
g70
NtRp2637
(dp2638
g73
(dp2639
g81
I3
ssg82
g2633
sg75
(lp2640
g1212
asbasbasbag68
(g84
g70
NtRp2641
(dp2642
g73
(dp2643
sg82
g2616
sg75
(lp2644
g68
(g89
g70
NtRp2645
(dp2646
g73
(dp2647
g93
g94
ssg82
g2641
sg75
(lp2648
S'HTTP_ACCEPT_ENCODING'
p2649
asbag68
(g89
g70
NtRp2650
(dp2651
g73
(dp2652
g100
g101
ssg82
g2641
sg75
(lp2653
S':'
asbag68
(g89
g70
NtRp2654
(dp2655
g73
(dp2656
sg82
g2641
sg75
(lp2657
g68
(g69
g70
NtRp2658
(dp2659
g73
(dp2660
g81
I3
ssg82
g2654
sg75
(lp2661
g1234
asbasbasbag68
(g84
g70
NtRp2662
(dp2663
g73
(dp2664
sg82
g2616
sg75
(lp2665
g68
(g89
g70
NtRp2666
(dp2667
g73
(dp2668
g93
g94
ssg82
g2662
sg75
(lp2669
S'HTTP_ACCEPT_LANGUAGE'
p2670
asbag68
(g89
g70
NtRp2671
(dp2672
g73
(dp2673
g100
g101
ssg82
g2662
sg75
(lp2674
S':'
asbag68
(g89
g70
NtRp2675
(dp2676
g73
(dp2677
sg82
g2662
sg75
(lp2678
g68
(g69
g70
NtRp2679
(dp2680
g73
(dp2681
g81
I3
ssg82
g2675
sg75
(lp2682
g1256
asbasbasbag68
(g84
g70
NtRp2683
(dp2684
g73
(dp2685
sg82
g2616
sg75
(lp2686
g68
(g89
g70
NtRp2687
(dp2688
g73
(dp2689
g93
g94
ssg82
g2683
sg75
(lp2690
S'HTTP_CACHE_CONTROL'
p2691
asbag68
(g89
g70
NtRp2692
(dp2693
g73
(dp2694
g100
g101
ssg82
g2683
sg75
(lp2695
S':'
asbag68
(g89
g70
NtRp2696
(dp2697
g73
(dp2698
sg82
g2683
sg75
(lp2699
g68
(g69
g70
NtRp2700
(dp2701
g73
(dp2702
g81
I3
ssg82
g2696
sg75
(lp2703
g1278
asbasbasbag68
(g84
g70
NtRp2704
(dp2705
g73
(dp2706
sg82
g2616
sg75
(lp2707
g68
(g89
g70
NtRp2708
(dp2709
g73
(dp2710
g93
g94
ssg82
g2704
sg75
(lp2711
S'HTTP_CONNECTION'
p2712
asbag68
(g89
g70
NtRp2713
(dp2714
g73
(dp2715
g100
g101
ssg82
g2704
sg75
(lp2716
S':'
asbag68
(g89
g70
NtRp2717
(dp2718
g73
(dp2719
sg82
g2704
sg75
(lp2720
g68
(g69
g70
NtRp2721
(dp2722
g73
(dp2723
g81
I3
ssg82
g2717
sg75
(lp2724
g1300
asbasbasbag68
(g84
g70
NtRp2725
(dp2726
g73
(dp2727
sg82
g2616
sg75
(lp2728
g68
(g89
g70
NtRp2729
(dp2730
g73
(dp2731
g93
g94
ssg82
g2725
sg75
(lp2732
S'HTTP_COOKIE'
p2733
asbag68
(g89
g70
NtRp2734
(dp2735
g73
(dp2736
g100
g101
ssg82
g2725
sg75
(lp2737
S':'
asbag68
(g89
g70
NtRp2738
(dp2739
g73
(dp2740
sg82
g2725
sg75
(lp2741
g68
(g69
g70
NtRp2742
(dp2743
g73
(dp2744
g81
I3
ssg82
g2738
sg75
(lp2745
g1322
asbasbasbag68
(g84
g70
NtRp2746
(dp2747
g73
(dp2748
sg82
g2616
sg75
(lp2749
g68
(g89
g70
NtRp2750
(dp2751
g73
(dp2752
g93
g94
ssg82
g2746
sg75
(lp2753
S'HTTP_HOST'
p2754
asbag68
(g89
g70
NtRp2755
(dp2756
g73
(dp2757
g100
g101
ssg82
g2746
sg75
(lp2758
S':'
asbag68
(g89
g70
NtRp2759
(dp2760
g73
(dp2761
sg82
g2746
sg75
(lp2762
g68
(g69
g70
NtRp2763
(dp2764
g73
(dp2765
g81
I3
ssg82
g2759
sg75
(lp2766
g1344
asbasbasbag68
(g84
g70
NtRp2767
(dp2768
g73
(dp2769
sg82
g2616
sg75
(lp2770
g68
(g89
g70
NtRp2771
(dp2772
g73
(dp2773
g93
g94
ssg82
g2767
sg75
(lp2774
S'HTTP_REFERER'
p2775
asbag68
(g89
g70
NtRp2776
(dp2777
g73
(dp2778
g100
g101
ssg82
g2767
sg75
(lp2779
S':'
asbag68
(g89
g70
NtRp2780
(dp2781
g73
(dp2782
sg82
g2767
sg75
(lp2783
g68
(g69
g70
NtRp2784
(dp2785
g73
(dp2786
g81
I3
ssg82
g2780
sg75
(lp2787
g1366
asbasbasbag68
(g84
g70
NtRp2788
(dp2789
g73
(dp2790
sg82
g2616
sg75
(lp2791
g68
(g89
g70
NtRp2792
(dp2793
g73
(dp2794
g93
g94
ssg82
g2788
sg75
(lp2795
S'HTTP_USER_AGENT'
p2796
asbag68
(g89
g70
NtRp2797
(dp2798
g73
(dp2799
g100
g101
ssg82
g2788
sg75
(lp2800
S':'
asbag68
(g89
g70
NtRp2801
(dp2802
g73
(dp2803
sg82
g2788
sg75
(lp2804
g68
(g69
g70
NtRp2805
(dp2806
g73
(dp2807
g81
I3
ssg82
g2801
sg75
(lp2808
g1388
asbasbasbag68
(g84
g70
NtRp2809
(dp2810
g73
(dp2811
sg82
g2616
sg75
(lp2812
g68
(g89
g70
NtRp2813
(dp2814
g73
(dp2815
g93
g94
ssg82
g2809
sg75
(lp2816
S'PATH_INFO'
p2817
asbag68
(g89
g70
NtRp2818
(dp2819
g73
(dp2820
g100
g101
ssg82
g2809
sg75
(lp2821
S':'
asbag68
(g89
g70
NtRp2822
(dp2823
g73
(dp2824
sg82
g2809
sg75
(lp2825
g68
(g69
g70
NtRp2826
(dp2827
g73
(dp2828
g81
I3
ssg82
g2822
sg75
(lp2829
g1431
asbasbasbag68
(g84
g70
NtRp2830
(dp2831
g73
(dp2832
sg82
g2616
sg75
(lp2833
g68
(g89
g70
NtRp2834
(dp2835
g73
(dp2836
g93
g94
ssg82
g2830
sg75
(lp2837
S'QUERY_STRING'
p2838
asbag68
(g89
g70
NtRp2839
(dp2840
g73
(dp2841
g100
g101
ssg82
g2830
sg75
(lp2842
S':'
asbag68
(g89
g70
NtRp2843
(dp2844
g73
(dp2845
sg82
g2830
sg75
(lp2846
g68
(g69
g70
NtRp2847
(dp2848
g73
(dp2849
g81
I3
ssg82
g2843
sg75
(lp2850
S''
asbasbasbag68
(g84
g70
NtRp2851
(dp2852
g73
(dp2853
sg82
g2616
sg75
(lp2854
g68
(g89
g70
NtRp2855
(dp2856
g73
(dp2857
g93
g94
ssg82
g2851
sg75
(lp2858
S'REMOTE_ADDR'
p2859
asbag68
(g89
g70
NtRp2860
(dp2861
g73
(dp2862
g100
g101
ssg82
g2851
sg75
(lp2863
S':'
asbag68
(g89
g70
NtRp2864
(dp2865
g73
(dp2866
sg82
g2851
sg75
(lp2867
g68
(g69
g70
NtRp2868
(dp2869
g73
(dp2870
g81
I3
ssg82
g2864
sg75
(lp2871
g214
asbasbasbag68
(g84
g70
NtRp2872
(dp2873
g73
(dp2874
sg82
g2616
sg75
(lp2875
g68
(g89
g70
NtRp2876
(dp2877
g73
(dp2878
g93
g94
ssg82
g2872
sg75
(lp2879
S'REMOTE_PORT'
p2880
asbag68
(g89
g70
NtRp2881
(dp2882
g73
(dp2883
g100
g101
ssg82
g2872
sg75
(lp2884
S':'
asbag68
(g89
g70
NtRp2885
(dp2886
g73
(dp2887
sg82
g2872
sg75
(lp2888
g68
(g69
g70
NtRp2889
(dp2890
g73
(dp2891
g81
I3
ssg82
g2885
sg75
(lp2892
g1495
asbasbasbag68
(g84
g70
NtRp2893
(dp2894
g73
(dp2895
sg82
g2616
sg75
(lp2896
g68
(g89
g70
NtRp2897
(dp2898
g73
(dp2899
g93
g94
ssg82
g2893
sg75
(lp2900
S'REQUEST_METHOD'
p2901
asbag68
(g89
g70
NtRp2902
(dp2903
g73
(dp2904
g100
g101
ssg82
g2893
sg75
(lp2905
S':'
asbag68
(g89
g70
NtRp2906
(dp2907
g73
(dp2908
sg82
g2893
sg75
(lp2909
g68
(g69
g70
NtRp2910
(dp2911
g73
(dp2912
g81
I3
ssg82
g2906
sg75
(lp2913
g1517
asbasbasbag68
(g84
g70
NtRp2914
(dp2915
g73
(dp2916
sg82
g2616
sg75
(lp2917
g68
(g89
g70
NtRp2918
(dp2919
g73
(dp2920
g93
g94
ssg82
g2914
sg75
(lp2921
S'SCRIPT_NAME'
p2922
asbag68
(g89
g70
NtRp2923
(dp2924
g73
(dp2925
g100
g101
ssg82
g2914
sg75
(lp2926
S':'
asbag68
(g89
g70
NtRp2927
(dp2928
g73
(dp2929
sg82
g2914
sg75
(lp2930
g68
(g69
g70
NtRp2931
(dp2932
g73
(dp2933
g81
I3
ssg82
g2927
sg75
(lp2934
S''
asbasbasbag68
(g84
g70
NtRp2935
(dp2936
g73
(dp2937
sg82
g2616
sg75
(lp2938
g68
(g89
g70
NtRp2939
(dp2940
g73
(dp2941
g93
g94
ssg82
g2935
sg75
(lp2942
S'SERVER_NAME'
p2943
asbag68
(g89
g70
NtRp2944
(dp2945
g73
(dp2946
g100
g101
ssg82
g2935
sg75
(lp2947
S':'
asbag68
(g89
g70
NtRp2948
(dp2949
g73
(dp2950
sg82
g2935
sg75
(lp2951
g68
(g69
g70
NtRp2952
(dp2953
g73
(dp2954
g81
I3
ssg82
g2948
sg75
(lp2955
g1560
asbasbasbag68
(g84
g70
NtRp2956
(dp2957
g73
(dp2958
sg82
g2616
sg75
(lp2959
g68
(g89
g70
NtRp2960
(dp2961
g73
(dp2962
g93
g94
ssg82
g2956
sg75
(lp2963
S'SERVER_PORT'
p2964
asbag68
(g89
g70
NtRp2965
(dp2966
g73
(dp2967
g100
g101
ssg82
g2956
sg75
(lp2968
S':'
asbag68
(g89
g70
NtRp2969
(dp2970
g73
(dp2971
sg82
g2956
sg75
(lp2972
g68
(g69
g70
NtRp2973
(dp2974
g73
(dp2975
g81
I3
ssg82
g2969
sg75
(lp2976
g1582
asbasbasbag68
(g84
g70
NtRp2977
(dp2978
g73
(dp2979
sg82
g2616
sg75
(lp2980
g68
(g89
g70
NtRp2981
(dp2982
g73
(dp2983
g93
g94
ssg82
g2977
sg75
(lp2984
S'SERVER_PROTOCOL'
p2985
asbag68
(g89
g70
NtRp2986
(dp2987
g73
(dp2988
g100
g101
ssg82
g2977
sg75
(lp2989
S':'
asbag68
(g89
g70
NtRp2990
(dp2991
g73
(dp2992
sg82
g2977
sg75
(lp2993
g68
(g69
g70
NtRp2994
(dp2995
g73
(dp2996
g81
I3
ssg82
g2990
sg75
(lp2997
g1604
asbasbasbag68
(g84
g70
NtRp2998
(dp2999
g73
(dp3000
sg82
g2616
sg75
(lp3001
g68
(g89
g70
NtRp3002
(dp3003
g73
(dp3004
g93
g94
ssg82
g2998
sg75
(lp3005
S'SERVER_SOFTWARE'
p3006
asbag68
(g89
g70
NtRp3007
(dp3008
g73
(dp3009
g100
g101
ssg82
g2998
sg75
(lp3010
S':'
asbag68
(g89
g70
NtRp3011
(dp3012
g73
(dp3013
sg82
g2998
sg75
(lp3014
g68
(g69
g70
NtRp3015
(dp3016
g73
(dp3017
g81
I3
ssg82
g3011
sg75
(lp3018
g1626
asbasbasbag68
(g84
g70
NtRp3019
(dp3020
g73
(dp3021
sg82
g2616
sg75
(lp3022
g68
(g89
g70
NtRp3023
(dp3024
g73
(dp3025
g93
g94
ssg82
g3019
sg75
(lp3026
S'wsgi.errors'
p3027
asbag68
(g89
g70
NtRp3028
(dp3029
g73
(dp3030
g100
g101
ssg82
g3019
sg75
(lp3031
S':'
asbag68
(g89
g70
NtRp3032
(dp3033
g73
(dp3034
sg82
g3019
sg75
(lp3035
g68
(g69
g70
NtRp3036
(dp3037
g73
(dp3038
g81
I3
ssg82
g3032
sg75
(lp3039
S"<open file '<stderr>', mode 'w' at 0x7f9678b3d270>"
p3040
asbasbasbag68
(g84
g70
NtRp3041
(dp3042
g73
(dp3043
sg82
g2616
sg75
(lp3044
g68
(g89
g70
NtRp3045
(dp3046
g73
(dp3047
g93
g94
ssg82
g3041
sg75
(lp3048
S'wsgi.file_wrapper'
p3049
asbag68
(g89
g70
NtRp3050
(dp3051
g73
(dp3052
g100
g101
ssg82
g3041
sg75
(lp3053
S':'
asbag68
(g89
g70
NtRp3054
(dp3055
g73
(dp3056
sg82
g3041
sg75
(lp3057
g68
(g69
g70
NtRp3058
(dp3059
g73
(dp3060
g81
I3
ssg82
g3054
sg75
(lp3061
S'<class wsgiref.util.FileWrapper at 0x1ec9870>'
p3062
asbasbasbag68
(g84
g70
NtRp3063
(dp3064
g73
(dp3065
sg82
g2616
sg75
(lp3066
g68
(g89
g70
NtRp3067
(dp3068
g73
(dp3069
g93
g94
ssg82
g3063
sg75
(lp3070
S'wsgi.input'
p3071
asbag68
(g89
g70
NtRp3072
(dp3073
g73
(dp3074
g100
g101
ssg82
g3063
sg75
(lp3075
S':'
asbag68
(g89
g70
NtRp3076
(dp3077
g73
(dp3078
sg82
g3063
sg75
(lp3079
g68
(g69
g70
NtRp3080
(dp3081
g73
(dp3082
g81
I3
ssg82
g3076
sg75
(lp3083
S'<cStringIO.StringO object at 0x38c2180>'
p3084
asbasbasbag68
(g84
g70
NtRp3085
(dp3086
g73
(dp3087
sg82
g2616
sg75
(lp3088
g68
(g89
g70
NtRp3089
(dp3090
g73
(dp3091
g93
g94
ssg82
g3085
sg75
(lp3092
S'wsgi.multiprocess'
p3093
asbag68
(g89
g70
NtRp3094
(dp3095
g73
(dp3096
g100
g101
ssg82
g3085
sg75
(lp3097
S':'
asbag68
(g89
g70
NtRp3098
(dp3099
g73
(dp3100
sg82
g3085
sg75
(lp3101
g68
(g69
g70
NtRp3102
(dp3103
g73
(dp3104
g81
I3
ssg82
g3098
sg75
(lp3105
g111
asbasbasbag68
(g84
g70
NtRp3106
(dp3107
g73
(dp3108
sg82
g2616
sg75
(lp3109
g68
(g89
g70
NtRp3110
(dp3111
g73
(dp3112
g93
g94
ssg82
g3106
sg75
(lp3113
S'wsgi.multithread'
p3114
asbag68
(g89
g70
NtRp3115
(dp3116
g73
(dp3117
g100
g101
ssg82
g3106
sg75
(lp3118
S':'
asbag68
(g89
g70
NtRp3119
(dp3120
g73
(dp3121
sg82
g3106
sg75
(lp3122
g68
(g69
g70
NtRp3123
(dp3124
g73
(dp3125
g81
I3
ssg82
g3119
sg75
(lp3126
g1866
asbasbasbag68
(g84
g70
NtRp3127
(dp3128
g73
(dp3129
sg82
g2616
sg75
(lp3130
g68
(g89
g70
NtRp3131
(dp3132
g73
(dp3133
g93
g94
ssg82
g3127
sg75
(lp3134
S'wsgi.run_once'
p3135
asbag68
(g89
g70
NtRp3136
(dp3137
g73
(dp3138
g100
g101
ssg82
g3127
sg75
(lp3139
S':'
asbag68
(g89
g70
NtRp3140
(dp3141
g73
(dp3142
sg82
g3127
sg75
(lp3143
g68
(g69
g70
NtRp3144
(dp3145
g73
(dp3146
g81
I3
ssg82
g3140
sg75
(lp3147
g111
asbasbasbag68
(g84
g70
NtRp3148
(dp3149
g73
(dp3150
sg82
g2616
sg75
(lp3151
g68
(g89
g70
NtRp3152
(dp3153
g73
(dp3154
g93
g94
ssg82
g3148
sg75
(lp3155
S'wsgi.url_scheme'
p3156
asbag68
(g89
g70
NtRp3157
(dp3158
g73
(dp3159
g100
g101
ssg82
g3148
sg75
(lp3160
S':'
asbag68
(g89
g70
NtRp3161
(dp3162
g73
(dp3163
sg82
g3148
sg75
(lp3164
g68
(g69
g70
NtRp3165
(dp3166
g73
(dp3167
g81
I3
ssg82
g3161
sg75
(lp3168
g1909
asbasbasbag68
(g84
g70
NtRp3169
(dp3170
g73
(dp3171
sg82
g2616
sg75
(lp3172
g68
(g89
g70
NtRp3173
(dp3174
g73
(dp3175
g93
g94
ssg82
g3169
sg75
(lp3176
S'wsgi.version'
p3177
asbag68
(g89
g70
NtRp3178
(dp3179
g73
(dp3180
g100
g101
ssg82
g3169
sg75
(lp3181
S':'
asbag68
(g89
g70
NtRp3182
(dp3183
g73
(dp3184
sg82
g3169
sg75
(lp3185
g68
(g69
g70
NtRp3186
(dp3187
g73
(dp3188
g81
I3
ssg82
g3182
sg75
(lp3189
S'1'
asbasbasbasbasbasbasbasbasbasbasbasbasbsS'frames'
p3190
(lp3191
(dp3192
S'file'
p3193
S'/home/ian/web2py/gluon/restricted.py'
p3194
sS'dump'
p3195
(dp3196
S'code'
p3197
S'\'response.write(\\\'<!DOCTYPE html>\\\\n<html lang="\\\', ...    -->    \\\\n  </body>\\\\n</html>\\\\n\\\', escape=False)\''
p3198
sS'layer'
p3199
S"'/home/ian/web2py/applications/grades/views/default/user.html'"
p3200
sS'global compile2'
p3201
S'<function compile2>'
p3202
sS'ccode'
p3203
S'undefined'
p3204
ssS'lnum'
p3205
I193
sS'lines'
p3206
(dp3207
I192
S'        else:'
p3208
sI193
S'            ccode = compile2(code,layer)'
p3209
sI194
S'        exec ccode in environment'
p3210
sI195
S'    except HTTP:'
p3211
sI196
S'        raise'
p3212
sI197
S'    except Exception, error:'
p3213
sI188
S"    environment['__file__'] = layer"
p3214
sI189
S'    try:'
p3215
sI190
S'        if type(code) == types.CodeType:'
p3216
sI191
S'            ccode = code'
p3217
ssS'call'
p3218
S'(code=\'response.write(\\\'<!DOCTYPE html>\\\\n<html lang="\\\', ...    -->    \\\\n  </body>\\\\n</html>\\\\n\\\', escape=False)\', environment={\'A\': <class \'gluon.html.A\'>, \'Auth\': <class \'gluon.tools.Auth\'>, \'B\': <class \'gluon.html.B\'>, \'BEAUTIFY\': <class \'gluon.html.BEAUTIFY\'>, \'BODY\': <class \'gluon.html.BODY\'>, \'BR\': <class \'gluon.html.BR\'>, \'BUTTON\': <class \'gluon.html.BUTTON\'>, \'CAT\': <class \'gluon.html.CAT\'>, \'CENTER\': <class \'gluon.html.CENTER\'>, \'CLEANUP\': <class \'gluon.validators.CLEANUP\'>, ...}, layer=\'/home/ian/web2py/applications/grades/views/default/user.html\')'
p3219
sS'func'
p3220
S'restricted'
p3221
sa(dp3222
g3193
S'/home/ian/web2py/gluon/restricted.py'
p3223
sg3195
(dp3224
S'builtincompile'
p3225
S'<built-in function compile>'
p3226
sS'code'
p3227
S'\'response.write(\\\'<!DOCTYPE html>\\\\n<html lang="\\\', ...    -->    \\\\n  </body>\\\\n</html>\\\\n\\\', escape=False)\''
p3228
sS'code.rstrip'
p3229
S'<built-in method rstrip of str object>'
p3230
sS').replace'
p3231
g3204
sS'layer'
p3232
S"'/home/ian/web2py/applications/grades/views/default/user.html'"
p3233
ssg3205
I179
sg3206
(dp3234
I174
S''
sI175
S'def compile2(code,layer):'
p3235
sI176
S'    """'
p3236
sI177
S"    The +'\\n' is necessary else compile fails when code ends in a comment."
p3237
sI178
S'    """'
p3238
sI179
S"    return compile(code.rstrip().replace('\\r\\n','\\n')+'\\n', layer, 'exec')"
p3239
sI180
S''
sI181
S"def restricted(code, environment=None, layer='Unknown'):"
p3240
sI182
S'    """'
p3241
sI183
S'    runs code in environment and returns the output. if an exception occurs'
p3242
ssg3218
S'(code=\'response.write(\\\'<!DOCTYPE html>\\\\n<html lang="\\\', ...    -->    \\\\n  </body>\\\\n</html>\\\\n\\\', escape=False)\', layer=\'/home/ian/web2py/applications/grades/views/default/user.html\')'
p3243
sg3220
S'compile2'
p3244
sasS'pyver'
p3245
S'Python 2.7.2+: /usr/bin/python2.7'
p3246
sS'session'
p3247
g68
(g69
g70
NtRp3248
(dp3249
g73
(dp3250
sg75
(lp3251
g68
(g77
g70
NtRp3252
(dp3253
g73
(dp3254
g81
I5
ssg82
Nsg75
(lp3255
g68
(g84
g70
NtRp3256
(dp3257
g73
(dp3258
sg82
g3252
sg75
(lp3259
g68
(g89
g70
NtRp3260
(dp3261
g73
(dp3262
g93
g94
ssg82
g3256
sg75
(lp3263
S'auth'
p3264
asbag68
(g89
g70
NtRp3265
(dp3266
g73
(dp3267
g100
g101
ssg82
g3256
sg75
(lp3268
S':'
asbag68
(g89
g70
NtRp3269
(dp3270
g73
(dp3271
sg82
g3256
sg75
(lp3272
g68
(g69
g70
NtRp3273
(dp3274
g73
(dp3275
g81
I5
ssg82
g3269
sg75
(lp3276
g68
(g77
g70
NtRp3277
(dp3278
g73
(dp3279
g81
I4
ssg82
Nsg75
(lp3280
g68
(g84
g70
NtRp3281
(dp3282
g73
(dp3283
sg82
g3277
sg75
(lp3284
g68
(g89
g70
NtRp3285
(dp3286
g73
(dp3287
g93
g94
ssg82
g3281
sg75
(lp3288
S'expiration'
p3289
asbag68
(g89
g70
NtRp3290
(dp3291
g73
(dp3292
g100
g101
ssg82
g3281
sg75
(lp3293
S':'
asbag68
(g89
g70
NtRp3294
(dp3295
g73
(dp3296
sg82
g3281
sg75
(lp3297
g68
(g69
g70
NtRp3298
(dp3299
g73
(dp3300
g81
I4
ssg82
g3294
sg75
(lp3301
S'2592000'
p3302
asbasbasbag68
(g84
g70
NtRp3303
(dp3304
g73
(dp3305
sg82
g3277
sg75
(lp3306
g68
(g89
g70
NtRp3307
(dp3308
g73
(dp3309
g93
g94
ssg82
g3303
sg75
(lp3310
S'hmac_key'
p3311
asbag68
(g89
g70
NtRp3312
(dp3313
g73
(dp3314
g100
g101
ssg82
g3303
sg75
(lp3315
S':'
asbag68
(g89
g70
NtRp3316
(dp3317
g73
(dp3318
sg82
g3303
sg75
(lp3319
g68
(g69
g70
NtRp3320
(dp3321
g73
(dp3322
g81
I4
ssg82
g3316
sg75
(lp3323
S'9b7ebcac-3930-4d2e-b821-147c95f7c4c2'
p3324
asbasbasbag68
(g84
g70
NtRp3325
(dp3326
g73
(dp3327
sg82
g3277
sg75
(lp3328
g68
(g89
g70
NtRp3329
(dp3330
g73
(dp3331
g93
g94
ssg82
g3325
sg75
(lp3332
S'last_visit'
p3333
asbag68
(g89
g70
NtRp3334
(dp3335
g73
(dp3336
g100
g101
ssg82
g3325
sg75
(lp3337
S':'
asbag68
(g89
g70
NtRp3338
(dp3339
g73
(dp3340
sg82
g3325
sg75
(lp3341
g68
(g69
g70
NtRp3342
(dp3343
g73
(dp3344
g81
I4
ssg82
g3338
sg75
(lp3345
S'datetime.datetime(2011, 11, 6, 15, 31, 56, 972407)'
p3346
asbasbasbag68
(g84
g70
NtRp3347
(dp3348
g73
(dp3349
sg82
g3277
sg75
(lp3350
g68
(g89
g70
NtRp3351
(dp3352
g73
(dp3353
g93
g94
ssg82
g3347
sg75
(lp3354
S'remember'
p3355
asbag68
(g89
g70
NtRp3356
(dp3357
g73
(dp3358
g100
g101
ssg82
g3347
sg75
(lp3359
S':'
asbag68
(g89
g70
NtRp3360
(dp3361
g73
(dp3362
sg82
g3347
sg75
(lp3363
g68
(g69
g70
NtRp3364
(dp3365
g73
(dp3366
g81
I4
ssg82
g3360
sg75
(lp3367
g111
asbasbasbag68
(g84
g70
NtRp3368
(dp3369
g73
(dp3370
sg82
g3277
sg75
(lp3371
g68
(g89
g70
NtRp3372
(dp3373
g73
(dp3374
g93
g94
ssg82
g3368
sg75
(lp3375
S'user'
p3376
asbag68
(g89
g70
NtRp3377
(dp3378
g73
(dp3379
g100
g101
ssg82
g3368
sg75
(lp3380
S':'
asbag68
(g89
g70
NtRp3381
(dp3382
g73
(dp3383
sg82
g3368
sg75
(lp3384
g68
(g69
g70
NtRp3385
(dp3386
g73
(dp3387
g81
I4
ssg82
g3381
sg75
(lp3388
g68
(g77
g70
NtRp3389
(dp3390
g73
(dp3391
g81
I3
ssg82
Nsg75
(lp3392
g68
(g84
g70
NtRp3393
(dp3394
g73
(dp3395
sg82
g3389
sg75
(lp3396
g68
(g89
g70
NtRp3397
(dp3398
g73
(dp3399
g93
g94
ssg82
g3393
sg75
(lp3400
S'email'
p3401
asbag68
(g89
g70
NtRp3402
(dp3403
g73
(dp3404
g100
g101
ssg82
g3393
sg75
(lp3405
S':'
asbag68
(g89
g70
NtRp3406
(dp3407
g73
(dp3408
sg82
g3393
sg75
(lp3409
g68
(g69
g70
NtRp3410
(dp3411
g73
(dp3412
g81
I3
ssg82
g3406
sg75
(lp3413
S'scottianw@gmail.com'
p3414
asbasbasbag68
(g84
g70
NtRp3415
(dp3416
g73
(dp3417
sg82
g3389
sg75
(lp3418
g68
(g89
g70
NtRp3419
(dp3420
g73
(dp3421
g93
g94
ssg82
g3415
sg75
(lp3422
S'first_name'
p3423
asbag68
(g89
g70
NtRp3424
(dp3425
g73
(dp3426
g100
g101
ssg82
g3415
sg75
(lp3427
S':'
asbag68
(g89
g70
NtRp3428
(dp3429
g73
(dp3430
sg82
g3415
sg75
(lp3431
g68
(g69
g70
NtRp3432
(dp3433
g73
(dp3434
g81
I3
ssg82
g3428
sg75
(lp3435
S'Ian'
p3436
asbasbasbag68
(g84
g70
NtRp3437
(dp3438
g73
(dp3439
sg82
g3389
sg75
(lp3440
g68
(g89
g70
NtRp3441
(dp3442
g73
(dp3443
g93
g94
ssg82
g3437
sg75
(lp3444
S'id'
p3445
asbag68
(g89
g70
NtRp3446
(dp3447
g73
(dp3448
g100
g101
ssg82
g3437
sg75
(lp3449
S':'
asbag68
(g89
g70
NtRp3450
(dp3451
g73
(dp3452
sg82
g3437
sg75
(lp3453
g68
(g69
g70
NtRp3454
(dp3455
g73
(dp3456
g81
I3
ssg82
g3450
sg75
(lp3457
S'11'
p3458
asbasbasbag68
(g84
g70
NtRp3459
(dp3460
g73
(dp3461
sg82
g3389
sg75
(lp3462
g68
(g89
g70
NtRp3463
(dp3464
g73
(dp3465
g93
g94
ssg82
g3459
sg75
(lp3466
S'last_name'
p3467
asbag68
(g89
g70
NtRp3468
(dp3469
g73
(dp3470
g100
g101
ssg82
g3459
sg75
(lp3471
S':'
asbag68
(g89
g70
NtRp3472
(dp3473
g73
(dp3474
sg82
g3459
sg75
(lp3475
g68
(g69
g70
NtRp3476
(dp3477
g73
(dp3478
g81
I3
ssg82
g3472
sg75
(lp3479
S'Scott'
p3480
asbasbasbag68
(g84
g70
NtRp3481
(dp3482
g73
(dp3483
sg82
g3389
sg75
(lp3484
g68
(g89
g70
NtRp3485
(dp3486
g73
(dp3487
g93
g94
ssg82
g3481
sg75
(lp3488
S'password'
p3489
asbag68
(g89
g70
NtRp3490
(dp3491
g73
(dp3492
g100
g101
ssg82
g3481
sg75
(lp3493
S':'
asbag68
(g89
g70
NtRp3494
(dp3495
g73
(dp3496
sg82
g3481
sg75
(lp3497
g68
(g69
g70
NtRp3498
(dp3499
g73
(dp3500
g81
I3
ssg82
g3494
sg75
(lp3501
S'351bc855a8ae4839e89ee60d2f279ed9'
p3502
asbasbasbag68
(g84
g70
NtRp3503
(dp3504
g73
(dp3505
sg82
g3389
sg75
(lp3506
g68
(g89
g70
NtRp3507
(dp3508
g73
(dp3509
g93
g94
ssg82
g3503
sg75
(lp3510
S'registration_key'
p3511
asbag68
(g89
g70
NtRp3512
(dp3513
g73
(dp3514
g100
g101
ssg82
g3503
sg75
(lp3515
S':'
asbag68
(g89
g70
NtRp3516
(dp3517
g73
(dp3518
sg82
g3503
sg75
(lp3519
g68
(g69
g70
NtRp3520
(dp3521
g73
(dp3522
g81
I3
ssg82
g3516
sg75
(lp3523
S''
asbasbasbag68
(g84
g70
NtRp3524
(dp3525
g73
(dp3526
sg82
g3389
sg75
(lp3527
g68
(g89
g70
NtRp3528
(dp3529
g73
(dp3530
g93
g94
ssg82
g3524
sg75
(lp3531
S'reset_password_key'
p3532
asbag68
(g89
g70
NtRp3533
(dp3534
g73
(dp3535
g100
g101
ssg82
g3524
sg75
(lp3536
S':'
asbag68
(g89
g70
NtRp3537
(dp3538
g73
(dp3539
sg82
g3524
sg75
(lp3540
g68
(g69
g70
NtRp3541
(dp3542
g73
(dp3543
g81
I3
ssg82
g3537
sg75
(lp3544
S''
asbasbasbasbasbasbasbasbasbasbasbasbasbsS'etype'
p3545
S"<type 'exceptions.SyntaxError'>"
p3546
sS'date'
p3547
S'Wed Nov  9 13:38:06 2011'
p3548
sS'response'
p3549
g68
(g69
g70
NtRp3550
(dp3551
g73
(dp3552
sg75
(lp3553
g68
(g77
g70
NtRp3554
(dp3555
g73
(dp3556
g81
I5
ssg82
Nsg75
(lp3557
g68
(g84
g70
NtRp3558
(dp3559
g73
(dp3560
sg82
g3554
sg75
(lp3561
g68
(g89
g70
NtRp3562
(dp3563
g73
(dp3564
g93
g94
ssg82
g3558
sg75
(lp3565
g179
asbag68
(g89
g70
NtRp3566
(dp3567
g73
(dp3568
g100
g101
ssg82
g3558
sg75
(lp3569
S':'
asbag68
(g89
g70
NtRp3570
(dp3571
g73
(dp3572
sg82
g3558
sg75
(lp3573
g68
(g69
g70
NtRp3574
(dp3575
g73
(dp3576
g81
I5
ssg82
g3570
sg75
(lp3577
S'<cStringIO.StringO object at 0x38e29d0>'
p3578
asbasbasbag68
(g84
g70
NtRp3579
(dp3580
g73
(dp3581
sg82
g3554
sg75
(lp3582
g68
(g89
g70
NtRp3583
(dp3584
g73
(dp3585
g93
g94
ssg82
g3579
sg75
(lp3586
g245
asbag68
(g89
g70
NtRp3587
(dp3588
g73
(dp3589
g100
g101
ssg82
g3579
sg75
(lp3590
S':'
asbag68
(g89
g70
NtRp3591
(dp3592
g73
(dp3593
sg82
g3579
sg75
(lp3594
g68
(g69
g70
NtRp3595
(dp3596
g73
(dp3597
g81
I5
ssg82
g3591
sg75
(lp3598
g68
(g77
g70
NtRp3599
(dp3600
g73
(dp3601
g81
I4
ssg82
Nsg75
(lp3602
g68
(g84
g70
NtRp3603
(dp3604
g73
(dp3605
sg82
g3599
sg75
(lp3606
g68
(g89
g70
NtRp3607
(dp3608
g73
(dp3609
g93
g94
ssg82
g3603
sg75
(lp3610
S'session_id_grades'
p3611
asbag68
(g89
g70
NtRp3612
(dp3613
g73
(dp3614
g100
g101
ssg82
g3603
sg75
(lp3615
S':'
asbag68
(g89
g70
NtRp3616
(dp3617
g73
(dp3618
sg82
g3603
sg75
(lp3619
g68
(g69
g70
NtRp3620
(dp3621
g73
(dp3622
g81
I4
ssg82
g3616
sg75
(lp3623
g68
(g77
g70
NtRp3624
(dp3625
g73
(dp3626
g81
I3
ssg82
Nsg75
(lp3627
g68
(g84
g70
NtRp3628
(dp3629
g73
(dp3630
sg82
g3624
sg75
(lp3631
g68
(g89
g70
NtRp3632
(dp3633
g73
(dp3634
g93
g94
ssg82
g3628
sg75
(lp3635
g295
asbag68
(g89
g70
NtRp3636
(dp3637
g73
(dp3638
g100
g101
ssg82
g3628
sg75
(lp3639
S':'
asbag68
(g89
g70
NtRp3640
(dp3641
g73
(dp3642
sg82
g3628
sg75
(lp3643
g68
(g69
g70
NtRp3644
(dp3645
g73
(dp3646
g81
I3
ssg82
g3640
sg75
(lp3647
S''
asbasbasbag68
(g84
g70
NtRp3648
(dp3649
g73
(dp3650
sg82
g3624
sg75
(lp3651
g68
(g89
g70
NtRp3652
(dp3653
g73
(dp3654
g93
g94
ssg82
g3648
sg75
(lp3655
g316
asbag68
(g89
g70
NtRp3656
(dp3657
g73
(dp3658
g100
g101
ssg82
g3648
sg75
(lp3659
S':'
asbag68
(g89
g70
NtRp3660
(dp3661
g73
(dp3662
sg82
g3648
sg75
(lp3663
g68
(g69
g70
NtRp3664
(dp3665
g73
(dp3666
g81
I3
ssg82
g3660
sg75
(lp3667
S''
asbasbasbag68
(g84
g70
NtRp3668
(dp3669
g73
(dp3670
sg82
g3624
sg75
(lp3671
g68
(g89
g70
NtRp3672
(dp3673
g73
(dp3674
g93
g94
ssg82
g3668
sg75
(lp3675
g337
asbag68
(g89
g70
NtRp3676
(dp3677
g73
(dp3678
g100
g101
ssg82
g3668
sg75
(lp3679
S':'
asbag68
(g89
g70
NtRp3680
(dp3681
g73
(dp3682
sg82
g3668
sg75
(lp3683
g68
(g69
g70
NtRp3684
(dp3685
g73
(dp3686
g81
I3
ssg82
g3680
sg75
(lp3687
S''
asbasbasbag68
(g84
g70
NtRp3688
(dp3689
g73
(dp3690
sg82
g3624
sg75
(lp3691
g68
(g89
g70
NtRp3692
(dp3693
g73
(dp3694
g93
g94
ssg82
g3688
sg75
(lp3695
g358
asbag68
(g89
g70
NtRp3696
(dp3697
g73
(dp3698
g100
g101
ssg82
g3688
sg75
(lp3699
S':'
asbag68
(g89
g70
NtRp3700
(dp3701
g73
(dp3702
sg82
g3688
sg75
(lp3703
g68
(g69
g70
NtRp3704
(dp3705
g73
(dp3706
g81
I3
ssg82
g3700
sg75
(lp3707
S''
asbasbasbag68
(g84
g70
NtRp3708
(dp3709
g73
(dp3710
sg82
g3624
sg75
(lp3711
g68
(g89
g70
NtRp3712
(dp3713
g73
(dp3714
g93
g94
ssg82
g3708
sg75
(lp3715
g379
asbag68
(g89
g70
NtRp3716
(dp3717
g73
(dp3718
g100
g101
ssg82
g3708
sg75
(lp3719
S':'
asbag68
(g89
g70
NtRp3720
(dp3721
g73
(dp3722
sg82
g3708
sg75
(lp3723
g68
(g69
g70
NtRp3724
(dp3725
g73
(dp3726
g81
I3
ssg82
g3720
sg75
(lp3727
S''
asbasbasbag68
(g84
g70
NtRp3728
(dp3729
g73
(dp3730
sg82
g3624
sg75
(lp3731
g68
(g89
g70
NtRp3732
(dp3733
g73
(dp3734
g93
g94
ssg82
g3728
sg75
(lp3735
g400
asbag68
(g89
g70
NtRp3736
(dp3737
g73
(dp3738
g100
g101
ssg82
g3728
sg75
(lp3739
S':'
asbag68
(g89
g70
NtRp3740
(dp3741
g73
(dp3742
sg82
g3728
sg75
(lp3743
g68
(g69
g70
NtRp3744
(dp3745
g73
(dp3746
g81
I3
ssg82
g3740
sg75
(lp3747
S'/'
asbasbasbag68
(g84
g70
NtRp3748
(dp3749
g73
(dp3750
sg82
g3624
sg75
(lp3751
g68
(g89
g70
NtRp3752
(dp3753
g73
(dp3754
g93
g94
ssg82
g3748
sg75
(lp3755
g421
asbag68
(g89
g70
NtRp3756
(dp3757
g73
(dp3758
g100
g101
ssg82
g3748
sg75
(lp3759
S':'
asbag68
(g89
g70
NtRp3760
(dp3761
g73
(dp3762
sg82
g3748
sg75
(lp3763
g68
(g69
g70
NtRp3764
(dp3765
g73
(dp3766
g81
I3
ssg82
g3760
sg75
(lp3767
S''
asbasbasbag68
(g84
g70
NtRp3768
(dp3769
g73
(dp3770
sg82
g3624
sg75
(lp3771
g68
(g89
g70
NtRp3772
(dp3773
g73
(dp3774
g93
g94
ssg82
g3768
sg75
(lp3775
g442
asbag68
(g89
g70
NtRp3776
(dp3777
g73
(dp3778
g100
g101
ssg82
g3768
sg75
(lp3779
S':'
asbag68
(g89
g70
NtRp3780
(dp3781
g73
(dp3782
sg82
g3768
sg75
(lp3783
g68
(g69
g70
NtRp3784
(dp3785
g73
(dp3786
g81
I3
ssg82
g3780
sg75
(lp3787
S''
asbasbasbasbasbasbasbasbasbasbasbag68
(g84
g70
NtRp3788
(dp3789
g73
(dp3790
sg82
g3554
sg75
(lp3791
g68
(g89
g70
NtRp3792
(dp3793
g73
(dp3794
g93
g94
ssg82
g3788
sg75
(lp3795
S'files'
p3796
asbag68
(g89
g70
NtRp3797
(dp3798
g73
(dp3799
g100
g101
ssg82
g3788
sg75
(lp3800
S':'
asbag68
(g89
g70
NtRp3801
(dp3802
g73
(dp3803
sg82
g3788
sg75
(lp3804
g68
(g69
g70
NtRp3805
(dp3806
g73
(dp3807
g81
I5
ssg82
g3801
sg75
(lp3808
g68
(g77
g70
NtRp3809
(dp3810
g73
(dp3811
g81
I4
ssg82
Nsg75
(lp3812
sbasbasbasbag68
(g84
g70
NtRp3813
(dp3814
g73
(dp3815
sg82
g3554
sg75
(lp3816
g68
(g89
g70
NtRp3817
(dp3818
g73
(dp3819
g93
g94
ssg82
g3813
sg75
(lp3820
S'flash'
p3821
asbag68
(g89
g70
NtRp3822
(dp3823
g73
(dp3824
g100
g101
ssg82
g3813
sg75
(lp3825
S':'
asbag68
(g89
g70
NtRp3826
(dp3827
g73
(dp3828
sg82
g3813
sg75
(lp3829
g68
(g69
g70
NtRp3830
(dp3831
g73
(dp3832
g81
I5
ssg82
g3826
sg75
(lp3833
S''
asbasbasbag68
(g84
g70
NtRp3834
(dp3835
g73
(dp3836
sg82
g3554
sg75
(lp3837
g68
(g89
g70
NtRp3838
(dp3839
g73
(dp3840
g93
g94
ssg82
g3834
sg75
(lp3841
S'generic_patterns'
p3842
asbag68
(g89
g70
NtRp3843
(dp3844
g73
(dp3845
g100
g101
ssg82
g3834
sg75
(lp3846
S':'
asbag68
(g89
g70
NtRp3847
(dp3848
g73
(dp3849
sg82
g3834
sg75
(lp3850
g68
(g69
g70
NtRp3851
(dp3852
g73
(dp3853
g81
I5
ssg82
g3847
sg75
(lp3854
g68
(g77
g70
NtRp3855
(dp3856
g73
(dp3857
g81
I4
ssg82
Nsg75
(lp3858
g68
(g84
g70
NtRp3859
(dp3860
g73
(dp3861
sg82
g3855
sg75
(lp3862
g68
(g89
g70
NtRp3863
(dp3864
g73
(dp3865
sg82
g3859
sg75
(lp3866
g68
(g69
g70
NtRp3867
(dp3868
g73
(dp3869
g81
I4
ssg82
g3863
sg75
(lp3870
S'*'
asbasbasbasbasbasbasbag68
(g84
g70
NtRp3871
(dp3872
g73
(dp3873
sg82
g3554
sg75
(lp3874
g68
(g89
g70
NtRp3875
(dp3876
g73
(dp3877
g93
g94
ssg82
g3871
sg75
(lp3878
S'headers'
p3879
asbag68
(g89
g70
NtRp3880
(dp3881
g73
(dp3882
g100
g101
ssg82
g3871
sg75
(lp3883
S':'
asbag68
(g89
g70
NtRp3884
(dp3885
g73
(dp3886
sg82
g3871
sg75
(lp3887
g68
(g69
g70
NtRp3888
(dp3889
g73
(dp3890
g81
I5
ssg82
g3884
sg75
(lp3891
g68
(g77
g70
NtRp3892
(dp3893
g73
(dp3894
g81
I4
ssg82
Nsg75
(lp3895
g68
(g84
g70
NtRp3896
(dp3897
g73
(dp3898
sg82
g3892
sg75
(lp3899
g68
(g89
g70
NtRp3900
(dp3901
g73
(dp3902
g93
g94
ssg82
g3896
sg75
(lp3903
S'Cache-Control'
p3904
asbag68
(g89
g70
NtRp3905
(dp3906
g73
(dp3907
g100
g101
ssg82
g3896
sg75
(lp3908
S':'
asbag68
(g89
g70
NtRp3909
(dp3910
g73
(dp3911
sg82
g3896
sg75
(lp3912
g68
(g69
g70
NtRp3913
(dp3914
g73
(dp3915
g81
I4
ssg82
g3909
sg75
(lp3916
S'no-store, no-cache, must-revalidate, post-check=0, pre-check=0'
p3917
asbasbasbag68
(g84
g70
NtRp3918
(dp3919
g73
(dp3920
sg82
g3892
sg75
(lp3921
g68
(g89
g70
NtRp3922
(dp3923
g73
(dp3924
g93
g94
ssg82
g3918
sg75
(lp3925
S'Content-Type'
p3926
asbag68
(g89
g70
NtRp3927
(dp3928
g73
(dp3929
g100
g101
ssg82
g3918
sg75
(lp3930
S':'
asbag68
(g89
g70
NtRp3931
(dp3932
g73
(dp3933
sg82
g3918
sg75
(lp3934
g68
(g69
g70
NtRp3935
(dp3936
g73
(dp3937
g81
I4
ssg82
g3931
sg75
(lp3938
S'text/html; charset=utf-8'
p3939
asbasbasbag68
(g84
g70
NtRp3940
(dp3941
g73
(dp3942
sg82
g3892
sg75
(lp3943
g68
(g89
g70
NtRp3944
(dp3945
g73
(dp3946
g93
g94
ssg82
g3940
sg75
(lp3947
S'Expires'
p3948
asbag68
(g89
g70
NtRp3949
(dp3950
g73
(dp3951
g100
g101
ssg82
g3940
sg75
(lp3952
S':'
asbag68
(g89
g70
NtRp3953
(dp3954
g73
(dp3955
sg82
g3940
sg75
(lp3956
g68
(g69
g70
NtRp3957
(dp3958
g73
(dp3959
g81
I4
ssg82
g3953
sg75
(lp3960
S'Wed, 09 Nov 2011 18:38:06 GMT'
p3961
asbasbasbag68
(g84
g70
NtRp3962
(dp3963
g73
(dp3964
sg82
g3892
sg75
(lp3965
g68
(g89
g70
NtRp3966
(dp3967
g73
(dp3968
g93
g94
ssg82
g3962
sg75
(lp3969
S'Pragma'
p3970
asbag68
(g89
g70
NtRp3971
(dp3972
g73
(dp3973
g100
g101
ssg82
g3962
sg75
(lp3974
S':'
asbag68
(g89
g70
NtRp3975
(dp3976
g73
(dp3977
sg82
g3962
sg75
(lp3978
g68
(g69
g70
NtRp3979
(dp3980
g73
(dp3981
g81
I4
ssg82
g3975
sg75
(lp3982
S'no-cache'
p3983
asbasbasbag68
(g84
g70
NtRp3984
(dp3985
g73
(dp3986
sg82
g3892
sg75
(lp3987
g68
(g89
g70
NtRp3988
(dp3989
g73
(dp3990
g93
g94
ssg82
g3984
sg75
(lp3991
S'X-Powered-By'
p3992
asbag68
(g89
g70
NtRp3993
(dp3994
g73
(dp3995
g100
g101
ssg82
g3984
sg75
(lp3996
S':'
asbag68
(g89
g70
NtRp3997
(dp3998
g73
(dp3999
sg82
g3984
sg75
(lp4000
g68
(g69
g70
NtRp4001
(dp4002
g73
(dp4003
g81
I4
ssg82
g3997
sg75
(lp4004
S'web2py'
p4005
asbasbasbasbasbasbasbag68
(g84
g70
NtRp4006
(dp4007
g73
(dp4008
sg82
g3554
sg75
(lp4009
g68
(g89
g70
NtRp4010
(dp4011
g73
(dp4012
g93
g94
ssg82
g4006
sg75
(lp4013
S'menu'
p4014
asbag68
(g89
g70
NtRp4015
(dp4016
g73
(dp4017
g100
g101
ssg82
g4006
sg75
(lp4018
S':'
asbag68
(g89
g70
NtRp4019
(dp4020
g73
(dp4021
sg82
g4006
sg75
(lp4022
g68
(g69
g70
NtRp4023
(dp4024
g73
(dp4025
g81
I5
ssg82
g4019
sg75
(lp4026
g68
(g77
g70
NtRp4027
(dp4028
g73
(dp4029
g81
I4
ssg82
Nsg75
(lp4030
g68
(g84
g70
NtRp4031
(dp4032
g73
(dp4033
sg82
g4027
sg75
(lp4034
g68
(g89
g70
NtRp4035
(dp4036
g73
(dp4037
sg82
g4031
sg75
(lp4038
g68
(g69
g70
NtRp4039
(dp4040
g73
(dp4041
g81
I4
ssg82
g4035
sg75
(lp4042
g68
(g77
g70
NtRp4043
(dp4044
g73
(dp4045
g81
I3
ssg82
Nsg75
(lp4046
g68
(g84
g70
NtRp4047
(dp4048
g73
(dp4049
sg82
g4043
sg75
(lp4050
g68
(g89
g70
NtRp4051
(dp4052
g73
(dp4053
sg82
g4047
sg75
(lp4054
g68
(g69
g70
NtRp4055
(dp4056
g73
(dp4057
g81
I3
ssg82
g4051
sg75
(lp4058
cgluon.languages
lazyT_unpickle
p4059
(S't\x05\x00\x00\x00Index'
tRp4060
asbasbasbag68
(g84
g70
NtRp4061
(dp4062
g73
(dp4063
sg82
g4043
sg75
(lp4064
g68
(g89
g70
NtRp4065
(dp4066
g73
(dp4067
sg82
g4061
sg75
(lp4068
g68
(g69
g70
NtRp4069
(dp4070
g73
(dp4071
g81
I3
ssg82
g4065
sg75
(lp4072
g111
asbasbasbag68
(g84
g70
NtRp4073
(dp4074
g73
(dp4075
sg82
g4043
sg75
(lp4076
g68
(g89
g70
NtRp4077
(dp4078
g73
(dp4079
sg82
g4073
sg75
(lp4080
g68
(g69
g70
NtRp4081
(dp4082
g73
(dp4083
g81
I3
ssg82
g4077
sg75
(lp4084
S'/grades/default/index'
p4085
asbasbasbag68
(g84
g70
NtRp4086
(dp4087
g73
(dp4088
sg82
g4043
sg75
(lp4089
g68
(g89
g70
NtRp4090
(dp4091
g73
(dp4092
sg82
g4086
sg75
(lp4093
g68
(g69
g70
NtRp4094
(dp4095
g73
(dp4096
g81
I3
ssg82
g4090
sg75
(lp4097
g68
(g77
g70
NtRp4098
(dp4099
g73
(dp4100
g81
I2
ssg82
Nsg75
(lp4101
sbasbasbasbasbasbasbasbag68
(g84
g70
NtRp4102
(dp4103
g73
(dp4104
sg82
g4027
sg75
(lp4105
g68
(g89
g70
NtRp4106
(dp4107
g73
(dp4108
sg82
g4102
sg75
(lp4109
g68
(g69
g70
NtRp4110
(dp4111
g73
(dp4112
g81
I4
ssg82
g4106
sg75
(lp4113
g68
(g77
g70
NtRp4114
(dp4115
g73
(dp4116
g81
I3
ssg82
Nsg75
(lp4117
g68
(g84
g70
NtRp4118
(dp4119
g73
(dp4120
sg82
g4114
sg75
(lp4121
g68
(g89
g70
NtRp4122
(dp4123
g73
(dp4124
sg82
g4118
sg75
(lp4125
g68
(g69
g70
NtRp4126
(dp4127
g73
(dp4128
g81
I3
ssg82
g4122
sg75
(lp4129
g4059
(S't\x06\x00\x00\x00Grades'
tRp4130
asbasbasbag68
(g84
g70
NtRp4131
(dp4132
g73
(dp4133
sg82
g4114
sg75
(lp4134
g68
(g89
g70
NtRp4135
(dp4136
g73
(dp4137
sg82
g4131
sg75
(lp4138
g68
(g69
g70
NtRp4139
(dp4140
g73
(dp4141
g81
I3
ssg82
g4135
sg75
(lp4142
g111
asbasbasbag68
(g84
g70
NtRp4143
(dp4144
g73
(dp4145
sg82
g4114
sg75
(lp4146
g68
(g89
g70
NtRp4147
(dp4148
g73
(dp4149
sg82
g4143
sg75
(lp4150
g68
(g69
g70
NtRp4151
(dp4152
g73
(dp4153
g81
I3
ssg82
g4147
sg75
(lp4154
S'/grades/default/grades_manage'
p4155
asbasbasbag68
(g84
g70
NtRp4156
(dp4157
g73
(dp4158
sg82
g4114
sg75
(lp4159
g68
(g89
g70
NtRp4160
(dp4161
g73
(dp4162
sg82
g4156
sg75
(lp4163
g68
(g69
g70
NtRp4164
(dp4165
g73
(dp4166
g81
I3
ssg82
g4160
sg75
(lp4167
g68
(g77
g70
NtRp4168
(dp4169
g73
(dp4170
g81
I2
ssg82
Nsg75
(lp4171
sbasbasbasbasbasbasbasbag68
(g84
g70
NtRp4172
(dp4173
g73
(dp4174
sg82
g4027
sg75
(lp4175
g68
(g89
g70
NtRp4176
(dp4177
g73
(dp4178
sg82
g4172
sg75
(lp4179
g68
(g69
g70
NtRp4180
(dp4181
g73
(dp4182
g81
I4
ssg82
g4176
sg75
(lp4183
g68
(g77
g70
NtRp4184
(dp4185
g73
(dp4186
g81
I3
ssg82
Nsg75
(lp4187
g68
(g84
g70
NtRp4188
(dp4189
g73
(dp4190
sg82
g4184
sg75
(lp4191
g68
(g89
g70
NtRp4192
(dp4193
g73
(dp4194
sg82
g4188
sg75
(lp4195
g68
(g69
g70
NtRp4196
(dp4197
g73
(dp4198
g81
I3
ssg82
g4192
sg75
(lp4199
g4059
(S't\x07\x00\x00\x00Classes'
tRp4200
asbasbasbag68
(g84
g70
NtRp4201
(dp4202
g73
(dp4203
sg82
g4184
sg75
(lp4204
g68
(g89
g70
NtRp4205
(dp4206
g73
(dp4207
sg82
g4201
sg75
(lp4208
g68
(g69
g70
NtRp4209
(dp4210
g73
(dp4211
g81
I3
ssg82
g4205
sg75
(lp4212
g111
asbasbasbag68
(g84
g70
NtRp4213
(dp4214
g73
(dp4215
sg82
g4184
sg75
(lp4216
g68
(g89
g70
NtRp4217
(dp4218
g73
(dp4219
sg82
g4213
sg75
(lp4220
g68
(g69
g70
NtRp4221
(dp4222
g73
(dp4223
g81
I3
ssg82
g4217
sg75
(lp4224
S'/grades/default/classes_manage'
p4225
asbasbasbag68
(g84
g70
NtRp4226
(dp4227
g73
(dp4228
sg82
g4184
sg75
(lp4229
g68
(g89
g70
NtRp4230
(dp4231
g73
(dp4232
sg82
g4226
sg75
(lp4233
g68
(g69
g70
NtRp4234
(dp4235
g73
(dp4236
g81
I3
ssg82
g4230
sg75
(lp4237
g68
(g77
g70
NtRp4238
(dp4239
g73
(dp4240
g81
I2
ssg82
Nsg75
(lp4241
sbasbasbasbasbasbasbasbasbasbasbasbag68
(g84
g70
NtRp4242
(dp4243
g73
(dp4244
sg82
g3554
sg75
(lp4245
g68
(g89
g70
NtRp4246
(dp4247
g73
(dp4248
g93
g94
ssg82
g4242
sg75
(lp4249
S'meta'
p4250
asbag68
(g89
g70
NtRp4251
(dp4252
g73
(dp4253
g100
g101
ssg82
g4242
sg75
(lp4254
S':'
asbag68
(g89
g70
NtRp4255
(dp4256
g73
(dp4257
sg82
g4242
sg75
(lp4258
g68
(g69
g70
NtRp4259
(dp4260
g73
(dp4261
g81
I5
ssg82
g4255
sg75
(lp4262
g68
(g77
g70
NtRp4263
(dp4264
g73
(dp4265
g81
I4
ssg82
Nsg75
(lp4266
g68
(g84
g70
NtRp4267
(dp4268
g73
(dp4269
sg82
g4263
sg75
(lp4270
g68
(g89
g70
NtRp4271
(dp4272
g73
(dp4273
g93
g94
ssg82
g4267
sg75
(lp4274
S'author'
p4275
asbag68
(g89
g70
NtRp4276
(dp4277
g73
(dp4278
g100
g101
ssg82
g4267
sg75
(lp4279
S':'
asbag68
(g89
g70
NtRp4280
(dp4281
g73
(dp4282
sg82
g4267
sg75
(lp4283
g68
(g69
g70
NtRp4284
(dp4285
g73
(dp4286
g81
I4
ssg82
g4280
sg75
(lp4287
S'Ian W. Scott <scottianw@gmail.com>'
p4288
asbasbasbag68
(g84
g70
NtRp4289
(dp4290
g73
(dp4291
sg82
g4263
sg75
(lp4292
g68
(g89
g70
NtRp4293
(dp4294
g73
(dp4295
g93
g94
ssg82
g4289
sg75
(lp4296
S'description'
p4297
asbag68
(g89
g70
NtRp4298
(dp4299
g73
(dp4300
g100
g101
ssg82
g4289
sg75
(lp4301
S':'
asbag68
(g89
g70
NtRp4302
(dp4303
g73
(dp4304
sg82
g4289
sg75
(lp4305
g68
(g69
g70
NtRp4306
(dp4307
g73
(dp4308
g81
I4
ssg82
g4302
sg75
(lp4309
S''
asbasbasbag68
(g84
g70
NtRp4310
(dp4311
g73
(dp4312
sg82
g4263
sg75
(lp4313
g68
(g89
g70
NtRp4314
(dp4315
g73
(dp4316
g93
g94
ssg82
g4310
sg75
(lp4317
S'keywords'
p4318
asbag68
(g89
g70
NtRp4319
(dp4320
g73
(dp4321
g100
g101
ssg82
g4310
sg75
(lp4322
S':'
asbag68
(g89
g70
NtRp4323
(dp4324
g73
(dp4325
sg82
g4310
sg75
(lp4326
g68
(g69
g70
NtRp4327
(dp4328
g73
(dp4329
g81
I4
ssg82
g4323
sg75
(lp4330
S''
asbasbasbasbasbasbasbag68
(g84
g70
NtRp4331
(dp4332
g73
(dp4333
sg82
g3554
sg75
(lp4334
g68
(g89
g70
NtRp4335
(dp4336
g73
(dp4337
g93
g94
ssg82
g4331
sg75
(lp4338
S'postprocessing'
p4339
asbag68
(g89
g70
NtRp4340
(dp4341
g73
(dp4342
g100
g101
ssg82
g4331
sg75
(lp4343
S':'
asbag68
(g89
g70
NtRp4344
(dp4345
g73
(dp4346
sg82
g4331
sg75
(lp4347
g68
(g69
g70
NtRp4348
(dp4349
g73
(dp4350
g81
I5
ssg82
g4344
sg75
(lp4351
g68
(g77
g70
NtRp4352
(dp4353
g73
(dp4354
g81
I4
ssg82
Nsg75
(lp4355
sbasbasbasbag68
(g84
g70
NtRp4356
(dp4357
g73
(dp4358
sg82
g3554
sg75
(lp4359
g68
(g89
g70
NtRp4360
(dp4361
g73
(dp4362
g93
g94
ssg82
g4356
sg75
(lp4363
S'session_file'
p4364
asbag68
(g89
g70
NtRp4365
(dp4366
g73
(dp4367
g100
g101
ssg82
g4356
sg75
(lp4368
S':'
asbag68
(g89
g70
NtRp4369
(dp4370
g73
(dp4371
sg82
g4356
sg75
(lp4372
g68
(g69
g70
NtRp4373
(dp4374
g73
(dp4375
g81
I5
ssg82
g4369
sg75
(lp4376
S"<open file '/home/ian/web2py/applications/grades/sessions/127.0.0.1-7e779f51-d72f-4159-aa81-826b4f2d26c1', mode 'rb+' at 0x24f7d20>"
p4377
asbasbasbag68
(g84
g70
NtRp4378
(dp4379
g73
(dp4380
sg82
g3554
sg75
(lp4381
g68
(g89
g70
NtRp4382
(dp4383
g73
(dp4384
g93
g94
ssg82
g4378
sg75
(lp4385
S'session_filename'
p4386
asbag68
(g89
g70
NtRp4387
(dp4388
g73
(dp4389
g100
g101
ssg82
g4378
sg75
(lp4390
S':'
asbag68
(g89
g70
NtRp4391
(dp4392
g73
(dp4393
sg82
g4378
sg75
(lp4394
g68
(g69
g70
NtRp4395
(dp4396
g73
(dp4397
g81
I5
ssg82
g4391
sg75
(lp4398
S'/home/ian/web2py/applications/grades/sessions/127.0.0.1-7e779f51-d72f-4159-aa81-826b4f2d26c1'
p4399
asbasbasbag68
(g84
g70
NtRp4400
(dp4401
g73
(dp4402
sg82
g3554
sg75
(lp4403
g68
(g89
g70
NtRp4404
(dp4405
g73
(dp4406
g93
g94
ssg82
g4400
sg75
(lp4407
S'session_id'
p4408
asbag68
(g89
g70
NtRp4409
(dp4410
g73
(dp4411
g100
g101
ssg82
g4400
sg75
(lp4412
S':'
asbag68
(g89
g70
NtRp4413
(dp4414
g73
(dp4415
sg82
g4400
sg75
(lp4416
g68
(g69
g70
NtRp4417
(dp4418
g73
(dp4419
g81
I5
ssg82
g4413
sg75
(lp4420
S'127.0.0.1-7e779f51-d72f-4159-aa81-826b4f2d26c1'
p4421
asbasbasbag68
(g84
g70
NtRp4422
(dp4423
g73
(dp4424
sg82
g3554
sg75
(lp4425
g68
(g89
g70
NtRp4426
(dp4427
g73
(dp4428
g93
g94
ssg82
g4422
sg75
(lp4429
S'session_id_name'
p4430
asbag68
(g89
g70
NtRp4431
(dp4432
g73
(dp4433
g100
g101
ssg82
g4422
sg75
(lp4434
S':'
asbag68
(g89
g70
NtRp4435
(dp4436
g73
(dp4437
sg82
g4422
sg75
(lp4438
g68
(g69
g70
NtRp4439
(dp4440
g73
(dp4441
g81
I5
ssg82
g4435
sg75
(lp4442
g3611
asbasbasbag68
(g84
g70
NtRp4443
(dp4444
g73
(dp4445
sg82
g3554
sg75
(lp4446
g68
(g89
g70
NtRp4447
(dp4448
g73
(dp4449
g93
g94
ssg82
g4443
sg75
(lp4450
S'session_locked'
p4451
asbag68
(g89
g70
NtRp4452
(dp4453
g73
(dp4454
g100
g101
ssg82
g4443
sg75
(lp4455
S':'
asbag68
(g89
g70
NtRp4456
(dp4457
g73
(dp4458
sg82
g4443
sg75
(lp4459
g68
(g69
g70
NtRp4460
(dp4461
g73
(dp4462
g81
I5
ssg82
g4456
sg75
(lp4463
g1866
asbasbasbag68
(g84
g70
NtRp4464
(dp4465
g73
(dp4466
sg82
g3554
sg75
(lp4467
g68
(g89
g70
NtRp4468
(dp4469
g73
(dp4470
g93
g94
ssg82
g4464
sg75
(lp4471
S'session_new'
p4472
asbag68
(g89
g70
NtRp4473
(dp4474
g73
(dp4475
g100
g101
ssg82
g4464
sg75
(lp4476
S':'
asbag68
(g89
g70
NtRp4477
(dp4478
g73
(dp4479
sg82
g4464
sg75
(lp4480
g68
(g69
g70
NtRp4481
(dp4482
g73
(dp4483
g81
I5
ssg82
g4477
sg75
(lp4484
g111
asbasbasbag68
(g84
g70
NtRp4485
(dp4486
g73
(dp4487
sg82
g3554
sg75
(lp4488
g68
(g89
g70
NtRp4489
(dp4490
g73
(dp4491
g93
g94
ssg82
g4485
sg75
(lp4492
S'status'
p4493
asbag68
(g89
g70
NtRp4494
(dp4495
g73
(dp4496
g100
g101
ssg82
g4485
sg75
(lp4497
S':'
asbag68
(g89
g70
NtRp4498
(dp4499
g73
(dp4500
sg82
g4485
sg75
(lp4501
g68
(g69
g70
NtRp4502
(dp4503
g73
(dp4504
g81
I5
ssg82
g4498
sg75
(lp4505
S'200'
p4506
asbasbasbag68
(g84
g70
NtRp4507
(dp4508
g73
(dp4509
sg82
g3554
sg75
(lp4510
g68
(g89
g70
NtRp4511
(dp4512
g73
(dp4513
g93
g94
ssg82
g4507
sg75
(lp4514
S'subtitle'
p4515
asbag68
(g89
g70
NtRp4516
(dp4517
g73
(dp4518
g100
g101
ssg82
g4507
sg75
(lp4519
S':'
asbag68
(g89
g70
NtRp4520
(dp4521
g73
(dp4522
sg82
g4507
sg75
(lp4523
g68
(g69
g70
NtRp4524
(dp4525
g73
(dp4526
g81
I5
ssg82
g4520
sg75
(lp4527
S'a platform for easy submission of peer grades'
p4528
asbasbasbag68
(g84
g70
NtRp4529
(dp4530
g73
(dp4531
sg82
g3554
sg75
(lp4532
g68
(g89
g70
NtRp4533
(dp4534
g73
(dp4535
g93
g94
ssg82
g4529
sg75
(lp4536
S'title'
p4537
asbag68
(g89
g70
NtRp4538
(dp4539
g73
(dp4540
g100
g101
ssg82
g4529
sg75
(lp4541
S':'
asbag68
(g89
g70
NtRp4542
(dp4543
g73
(dp4544
sg82
g4529
sg75
(lp4545
g68
(g69
g70
NtRp4546
(dp4547
g73
(dp4548
g81
I5
ssg82
g4542
sg75
(lp4549
S'Grades'
p4550
asbasbasbag68
(g84
g70
NtRp4551
(dp4552
g73
(dp4553
sg82
g3554
sg75
(lp4554
g68
(g89
g70
NtRp4555
(dp4556
g73
(dp4557
g93
g94
ssg82
g4551
sg75
(lp4558
g2531
asbag68
(g89
g70
NtRp4559
(dp4560
g73
(dp4561
g100
g101
ssg82
g4551
sg75
(lp4562
S':'
asbag68
(g89
g70
NtRp4563
(dp4564
g73
(dp4565
sg82
g4551
sg75
(lp4566
g68
(g69
g70
NtRp4567
(dp4568
g73
(dp4569
g81
I5
ssg82
g4563
sg75
(lp4570
g2544
asbasbasbag68
(g84
g70
NtRp4571
(dp4572
g73
(dp4573
sg82
g3554
sg75
(lp4574
g68
(g89
g70
NtRp4575
(dp4576
g73
(dp4577
g93
g94
ssg82
g4571
sg75
(lp4578
S'view'
p4579
asbag68
(g89
g70
NtRp4580
(dp4581
g73
(dp4582
g100
g101
ssg82
g4571
sg75
(lp4583
S':'
asbag68
(g89
g70
NtRp4584
(dp4585
g73
(dp4586
sg82
g4571
sg75
(lp4587
g68
(g69
g70
NtRp4588
(dp4589
g73
(dp4590
g81
I5
ssg82
g4584
sg75
(lp4591
S'default/user.html'
p4592
asbasbasbasbasbsS'locals'
p4593
(dp4594
g3
S"'/home/ian/web2py/applications/grades/views/default/user.html'"
p4595
sg5
S'\'response.write(\\\'<!DOCTYPE html>\\\\n<html lang="\\\', ...    -->    \\\\n  </body>\\\\n</html>\\\\n\\\', escape=False)\''
p4596
sssS'traceback'
p4597
S'Traceback (most recent call last):\n  File "/home/ian/web2py/gluon/restricted.py", line 193, in restricted\n    ccode = compile2(code,layer)\n  File "/home/ian/web2py/gluon/restricted.py", line 179, in compile2\n    return compile(code.rstrip().replace(\'\\r\\n\',\'\\n\')+\'\\n\', layer, \'exec\')\n  File "/home/ian/web2py/applications/grades/views/default/user.html", line 108\n    response.write(LI(k\': \' + str(v)))\n                          ^\nSyntaxError: invalid syntax\n'
p4598
s.