(dp1
S'output'
p2
S''
sS'layer'
p3
S'/home/ian/web2py/applications/grades/controllers/default.py'
p4
sS'code'
p5
S"# -*- coding: utf-8 -*-\nfrom gluon import * \nimport datetime\n\n### required - do no delete\ndef user(): return dict(form=auth())\ndef download(): return response.download(request,db)\ndef call(): return service()\n### end requires\ndef index():\n    courses = db(db.courses.id > 0).select()\n    return dict(courses = courses)\n\ndef error():\n    return dict()\n\n@auth.requires_membership(role='administrators')\ndef grades_manage():\n    form = SQLFORM.smartgrid(db.grades,onupdate=auth.archive)\n    return locals()\n\n@auth.requires_membership(role='administrators')\ndef classes_manage():\n    form = SQLFORM.smartgrid(db.courses,onupdate=auth.archive)\n    return locals()\n\n@auth.requires_login()\ndef create_grade():\n    form = crud.create(db.grades)\n    return dict(form = form)\n\n@auth.requires_membership(role='administrators')\ndef grades_report():\n    student_list = db(db.auth_user.id > 0).select()\n    students = {}\n    for s in student_list:\n        sindex = s.id\n        slast = s.last_name\n        sfirst = s.first_name\n        students[sindex] = slast + ', ' + sfirst\n    u = request.args[0]\n    n = db.auth_user[u]\n    student = n.last_name + ', ' + n.first_name\n    gradelist = db(db.grades.name == u).select()\n    session.debug = request.args[0]\n    g = {}\n    for r in gradelist:\n        the_date = r.class_date\n        c = db(db.courses.id == r.course).select().first()\n        the_course = c.course_name\n        if the_course in g:\n            dates = g[the_course]\n            if the_date in dates:\n                dates[the_date].append(r.grade)\n            else:\n                dates[the_date] = [r.grade]                \n        else:\n            l = [r.grade]\n            the_date = r.class_date\n            g[r.course] = dict(the_date = l)\n    return dict(grades = g, students = students, student = student)                \nresponse._vars=response._caller(grades_report)\n"
p6
sS'snapshot'
p7
(dp8
S'exception'
p9
(dp10
S'__hash__'
p11
S"<method-wrapper '__hash__' of exceptions.IndexError object>"
p12
sS'__setattr__'
p13
S"<method-wrapper '__setattr__' of exceptions.IndexError object>"
p14
sS'__reduce_ex__'
p15
S'<built-in method __reduce_ex__ of exceptions.IndexError object>'
p16
sS'__getslice__'
p17
S"<method-wrapper '__getslice__' of exceptions.IndexError object>"
p18
sS'__getitem__'
p19
S"<method-wrapper '__getitem__' of exceptions.IndexError object>"
p20
sS'__setstate__'
p21
S'<built-in method __setstate__ of exceptions.IndexError object>'
p22
sS'args'
p23
S"('list index out of range',)"
p24
sS'__reduce__'
p25
S'<built-in method __reduce__ of exceptions.IndexError object>'
p26
sS'__str__'
p27
S"<method-wrapper '__str__' of exceptions.IndexError object>"
p28
sS'__format__'
p29
S'<built-in method __format__ of exceptions.IndexError object>'
p30
sS'__getattribute__'
p31
S"<method-wrapper '__getattribute__' of exceptions.IndexError object>"
p32
sS'__class__'
p33
S"<type 'exceptions.IndexError'>"
p34
sS'__unicode__'
p35
S'<built-in method __unicode__ of exceptions.IndexError object>'
p36
sS'__delattr__'
p37
S"<method-wrapper '__delattr__' of exceptions.IndexError object>"
p38
sS'__subclasshook__'
p39
S'<built-in method __subclasshook__ of type object>'
p40
sS'__repr__'
p41
S"<method-wrapper '__repr__' of exceptions.IndexError object>"
p42
sS'__dict__'
p43
S'{}'
p44
sS'__sizeof__'
p45
S'<built-in method __sizeof__ of exceptions.IndexError object>'
p46
sS'__doc__'
p47
S"'Sequence index out of range.'"
p48
sS'__init__'
p49
S"<method-wrapper '__init__' of exceptions.IndexError object>"
p50
sS'__new__'
p51
S'<built-in method __new__ of type object>'
p52
ssS'evalue'
p53
S'list index out of range'
p54
sS'request'
p55
ccopy_reg
_reconstructor
p56
(cgluon.html
BEAUTIFY
p57
c__builtin__
object
p58
NtRp59
(dp60
S'attributes'
p61
(dp62
sS'components'
p63
(lp64
g56
(cgluon.html
TABLE
p65
g58
NtRp66
(dp67
g61
(dp68
S'level'
p69
I5
ssS'parent'
p70
Nsg63
(lp71
g56
(cgluon.html
TR
p72
g58
NtRp73
(dp74
g61
(dp75
sg70
g66
sg63
(lp76
g56
(cgluon.html
TD
p77
g58
NtRp78
(dp79
g61
(dp80
S'_style'
p81
S'font-weight:bold;'
p82
ssg70
g73
sg63
(lp83
S'ajax'
p84
asbag56
(g77
g58
NtRp85
(dp86
g61
(dp87
S'_valign'
p88
S'top'
p89
ssg70
g73
sg63
(lp90
S':'
asbag56
(g77
g58
NtRp91
(dp92
g61
(dp93
sg70
g73
sg63
(lp94
g56
(g57
g58
NtRp95
(dp96
g61
(dp97
g69
I5
ssg70
g91
sg63
(lp98
S'True'
p99
asbasbasbag56
(g72
g58
NtRp100
(dp101
g61
(dp102
sg70
g66
sg63
(lp103
g56
(g77
g58
NtRp104
(dp105
g61
(dp106
g81
g82
ssg70
g100
sg63
(lp107
S'application'
p108
asbag56
(g77
g58
NtRp109
(dp110
g61
(dp111
g88
g89
ssg70
g100
sg63
(lp112
S':'
asbag56
(g77
g58
NtRp113
(dp114
g61
(dp115
sg70
g100
sg63
(lp116
g56
(g57
g58
NtRp117
(dp118
g61
(dp119
g69
I5
ssg70
g113
sg63
(lp120
S'grades'
p121
asbasbasbag56
(g72
g58
NtRp122
(dp123
g61
(dp124
sg70
g66
sg63
(lp125
g56
(g77
g58
NtRp126
(dp127
g61
(dp128
g81
g82
ssg70
g122
sg63
(lp129
g23
asbag56
(g77
g58
NtRp130
(dp131
g61
(dp132
g88
g89
ssg70
g122
sg63
(lp133
S':'
asbag56
(g77
g58
NtRp134
(dp135
g61
(dp136
sg70
g122
sg63
(lp137
g56
(g57
g58
NtRp138
(dp139
g61
(dp140
g69
I5
ssg70
g134
sg63
(lp141
g56
(g65
g58
NtRp142
(dp143
g61
(dp144
g69
I4
ssg70
Nsg63
(lp145
sbasbasbasbag56
(g72
g58
NtRp146
(dp147
g61
(dp148
sg70
g66
sg63
(lp149
g56
(g77
g58
NtRp150
(dp151
g61
(dp152
g81
g82
ssg70
g146
sg63
(lp153
S'body'
p154
asbag56
(g77
g58
NtRp155
(dp156
g61
(dp157
g88
g89
ssg70
g146
sg63
(lp158
S':'
asbag56
(g77
g58
NtRp159
(dp160
g61
(dp161
sg70
g146
sg63
(lp162
g56
(g57
g58
NtRp163
(dp164
g61
(dp165
g69
I5
ssg70
g159
sg63
(lp166
S'<cStringIO.StringO object at 0x8bd0260>'
p167
asbasbasbag56
(g72
g58
NtRp168
(dp169
g61
(dp170
sg70
g66
sg63
(lp171
g56
(g77
g58
NtRp172
(dp173
g61
(dp174
g81
g82
ssg70
g168
sg63
(lp175
S'cid'
p176
asbag56
(g77
g58
NtRp177
(dp178
g61
(dp179
g88
g89
ssg70
g168
sg63
(lp180
S':'
asbag56
(g77
g58
NtRp181
(dp182
g61
(dp183
sg70
g168
sg63
(lp184
g56
(g57
g58
NtRp185
(dp186
g61
(dp187
g69
I5
ssg70
g181
sg63
(lp188
S'c969174057742'
p189
asbasbasbag56
(g72
g58
NtRp190
(dp191
g61
(dp192
sg70
g66
sg63
(lp193
g56
(g77
g58
NtRp194
(dp195
g61
(dp196
g81
g82
ssg70
g190
sg63
(lp197
S'client'
p198
asbag56
(g77
g58
NtRp199
(dp200
g61
(dp201
g88
g89
ssg70
g190
sg63
(lp202
S':'
asbag56
(g77
g58
NtRp203
(dp204
g61
(dp205
sg70
g190
sg63
(lp206
g56
(g57
g58
NtRp207
(dp208
g61
(dp209
g69
I5
ssg70
g203
sg63
(lp210
S'127.0.0.1'
p211
asbasbasbag56
(g72
g58
NtRp212
(dp213
g61
(dp214
sg70
g66
sg63
(lp215
g56
(g77
g58
NtRp216
(dp217
g61
(dp218
g81
g82
ssg70
g212
sg63
(lp219
S'controller'
p220
asbag56
(g77
g58
NtRp221
(dp222
g61
(dp223
g88
g89
ssg70
g212
sg63
(lp224
S':'
asbag56
(g77
g58
NtRp225
(dp226
g61
(dp227
sg70
g212
sg63
(lp228
g56
(g57
g58
NtRp229
(dp230
g61
(dp231
g69
I5
ssg70
g225
sg63
(lp232
S'default'
p233
asbasbasbag56
(g72
g58
NtRp234
(dp235
g61
(dp236
sg70
g66
sg63
(lp237
g56
(g77
g58
NtRp238
(dp239
g61
(dp240
g81
g82
ssg70
g234
sg63
(lp241
S'cookies'
p242
asbag56
(g77
g58
NtRp243
(dp244
g61
(dp245
g88
g89
ssg70
g234
sg63
(lp246
S':'
asbag56
(g77
g58
NtRp247
(dp248
g61
(dp249
sg70
g234
sg63
(lp250
g56
(g57
g58
NtRp251
(dp252
g61
(dp253
g69
I5
ssg70
g247
sg63
(lp254
g56
(g65
g58
NtRp255
(dp256
g61
(dp257
g69
I4
ssg70
Nsg63
(lp258
g56
(g72
g58
NtRp259
(dp260
g61
(dp261
sg70
g255
sg63
(lp262
g56
(g77
g58
NtRp263
(dp264
g61
(dp265
g81
g82
ssg70
g259
sg63
(lp266
S'session_id_grades'
p267
asbag56
(g77
g58
NtRp268
(dp269
g61
(dp270
g88
g89
ssg70
g259
sg63
(lp271
S':'
asbag56
(g77
g58
NtRp272
(dp273
g61
(dp274
sg70
g259
sg63
(lp275
g56
(g57
g58
NtRp276
(dp277
g61
(dp278
g69
I4
ssg70
g272
sg63
(lp279
g56
(g65
g58
NtRp280
(dp281
g61
(dp282
g69
I3
ssg70
Nsg63
(lp283
g56
(g72
g58
NtRp284
(dp285
g61
(dp286
sg70
g280
sg63
(lp287
g56
(g77
g58
NtRp288
(dp289
g61
(dp290
g81
g82
ssg70
g284
sg63
(lp291
S'comment'
p292
asbag56
(g77
g58
NtRp293
(dp294
g61
(dp295
g88
g89
ssg70
g284
sg63
(lp296
S':'
asbag56
(g77
g58
NtRp297
(dp298
g61
(dp299
sg70
g284
sg63
(lp300
g56
(g57
g58
NtRp301
(dp302
g61
(dp303
g69
I3
ssg70
g297
sg63
(lp304
S''
asbasbasbag56
(g72
g58
NtRp305
(dp306
g61
(dp307
sg70
g280
sg63
(lp308
g56
(g77
g58
NtRp309
(dp310
g61
(dp311
g81
g82
ssg70
g305
sg63
(lp312
S'domain'
p313
asbag56
(g77
g58
NtRp314
(dp315
g61
(dp316
g88
g89
ssg70
g305
sg63
(lp317
S':'
asbag56
(g77
g58
NtRp318
(dp319
g61
(dp320
sg70
g305
sg63
(lp321
g56
(g57
g58
NtRp322
(dp323
g61
(dp324
g69
I3
ssg70
g318
sg63
(lp325
S''
asbasbasbag56
(g72
g58
NtRp326
(dp327
g61
(dp328
sg70
g280
sg63
(lp329
g56
(g77
g58
NtRp330
(dp331
g61
(dp332
g81
g82
ssg70
g326
sg63
(lp333
S'expires'
p334
asbag56
(g77
g58
NtRp335
(dp336
g61
(dp337
g88
g89
ssg70
g326
sg63
(lp338
S':'
asbag56
(g77
g58
NtRp339
(dp340
g61
(dp341
sg70
g326
sg63
(lp342
g56
(g57
g58
NtRp343
(dp344
g61
(dp345
g69
I3
ssg70
g339
sg63
(lp346
S''
asbasbasbag56
(g72
g58
NtRp347
(dp348
g61
(dp349
sg70
g280
sg63
(lp350
g56
(g77
g58
NtRp351
(dp352
g61
(dp353
g81
g82
ssg70
g347
sg63
(lp354
S'httponly'
p355
asbag56
(g77
g58
NtRp356
(dp357
g61
(dp358
g88
g89
ssg70
g347
sg63
(lp359
S':'
asbag56
(g77
g58
NtRp360
(dp361
g61
(dp362
sg70
g347
sg63
(lp363
g56
(g57
g58
NtRp364
(dp365
g61
(dp366
g69
I3
ssg70
g360
sg63
(lp367
S''
asbasbasbag56
(g72
g58
NtRp368
(dp369
g61
(dp370
sg70
g280
sg63
(lp371
g56
(g77
g58
NtRp372
(dp373
g61
(dp374
g81
g82
ssg70
g368
sg63
(lp375
S'max-age'
p376
asbag56
(g77
g58
NtRp377
(dp378
g61
(dp379
g88
g89
ssg70
g368
sg63
(lp380
S':'
asbag56
(g77
g58
NtRp381
(dp382
g61
(dp383
sg70
g368
sg63
(lp384
g56
(g57
g58
NtRp385
(dp386
g61
(dp387
g69
I3
ssg70
g381
sg63
(lp388
S''
asbasbasbag56
(g72
g58
NtRp389
(dp390
g61
(dp391
sg70
g280
sg63
(lp392
g56
(g77
g58
NtRp393
(dp394
g61
(dp395
g81
g82
ssg70
g389
sg63
(lp396
S'path'
p397
asbag56
(g77
g58
NtRp398
(dp399
g61
(dp400
g88
g89
ssg70
g389
sg63
(lp401
S':'
asbag56
(g77
g58
NtRp402
(dp403
g61
(dp404
sg70
g389
sg63
(lp405
g56
(g57
g58
NtRp406
(dp407
g61
(dp408
g69
I3
ssg70
g402
sg63
(lp409
S''
asbasbasbag56
(g72
g58
NtRp410
(dp411
g61
(dp412
sg70
g280
sg63
(lp413
g56
(g77
g58
NtRp414
(dp415
g61
(dp416
g81
g82
ssg70
g410
sg63
(lp417
S'secure'
p418
asbag56
(g77
g58
NtRp419
(dp420
g61
(dp421
g88
g89
ssg70
g410
sg63
(lp422
S':'
asbag56
(g77
g58
NtRp423
(dp424
g61
(dp425
sg70
g410
sg63
(lp426
g56
(g57
g58
NtRp427
(dp428
g61
(dp429
g69
I3
ssg70
g423
sg63
(lp430
S''
asbasbasbag56
(g72
g58
NtRp431
(dp432
g61
(dp433
sg70
g280
sg63
(lp434
g56
(g77
g58
NtRp435
(dp436
g61
(dp437
g81
g82
ssg70
g431
sg63
(lp438
S'version'
p439
asbag56
(g77
g58
NtRp440
(dp441
g61
(dp442
g88
g89
ssg70
g431
sg63
(lp443
S':'
asbag56
(g77
g58
NtRp444
(dp445
g61
(dp446
sg70
g431
sg63
(lp447
g56
(g57
g58
NtRp448
(dp449
g61
(dp450
g69
I3
ssg70
g444
sg63
(lp451
S''
asbasbasbasbasbasbasbag56
(g72
g58
NtRp452
(dp453
g61
(dp454
sg70
g255
sg63
(lp455
g56
(g77
g58
NtRp456
(dp457
g61
(dp458
g81
g82
ssg70
g452
sg63
(lp459
S'session_id_paideia'
p460
asbag56
(g77
g58
NtRp461
(dp462
g61
(dp463
g88
g89
ssg70
g452
sg63
(lp464
S':'
asbag56
(g77
g58
NtRp465
(dp466
g61
(dp467
sg70
g452
sg63
(lp468
g56
(g57
g58
NtRp469
(dp470
g61
(dp471
g69
I4
ssg70
g465
sg63
(lp472
g56
(g65
g58
NtRp473
(dp474
g61
(dp475
g69
I3
ssg70
Nsg63
(lp476
g56
(g72
g58
NtRp477
(dp478
g61
(dp479
sg70
g473
sg63
(lp480
g56
(g77
g58
NtRp481
(dp482
g61
(dp483
g81
g82
ssg70
g477
sg63
(lp484
g292
asbag56
(g77
g58
NtRp485
(dp486
g61
(dp487
g88
g89
ssg70
g477
sg63
(lp488
S':'
asbag56
(g77
g58
NtRp489
(dp490
g61
(dp491
sg70
g477
sg63
(lp492
g56
(g57
g58
NtRp493
(dp494
g61
(dp495
g69
I3
ssg70
g489
sg63
(lp496
S''
asbasbasbag56
(g72
g58
NtRp497
(dp498
g61
(dp499
sg70
g473
sg63
(lp500
g56
(g77
g58
NtRp501
(dp502
g61
(dp503
g81
g82
ssg70
g497
sg63
(lp504
g313
asbag56
(g77
g58
NtRp505
(dp506
g61
(dp507
g88
g89
ssg70
g497
sg63
(lp508
S':'
asbag56
(g77
g58
NtRp509
(dp510
g61
(dp511
sg70
g497
sg63
(lp512
g56
(g57
g58
NtRp513
(dp514
g61
(dp515
g69
I3
ssg70
g509
sg63
(lp516
S''
asbasbasbag56
(g72
g58
NtRp517
(dp518
g61
(dp519
sg70
g473
sg63
(lp520
g56
(g77
g58
NtRp521
(dp522
g61
(dp523
g81
g82
ssg70
g517
sg63
(lp524
g334
asbag56
(g77
g58
NtRp525
(dp526
g61
(dp527
g88
g89
ssg70
g517
sg63
(lp528
S':'
asbag56
(g77
g58
NtRp529
(dp530
g61
(dp531
sg70
g517
sg63
(lp532
g56
(g57
g58
NtRp533
(dp534
g61
(dp535
g69
I3
ssg70
g529
sg63
(lp536
S''
asbasbasbag56
(g72
g58
NtRp537
(dp538
g61
(dp539
sg70
g473
sg63
(lp540
g56
(g77
g58
NtRp541
(dp542
g61
(dp543
g81
g82
ssg70
g537
sg63
(lp544
g355
asbag56
(g77
g58
NtRp545
(dp546
g61
(dp547
g88
g89
ssg70
g537
sg63
(lp548
S':'
asbag56
(g77
g58
NtRp549
(dp550
g61
(dp551
sg70
g537
sg63
(lp552
g56
(g57
g58
NtRp553
(dp554
g61
(dp555
g69
I3
ssg70
g549
sg63
(lp556
S''
asbasbasbag56
(g72
g58
NtRp557
(dp558
g61
(dp559
sg70
g473
sg63
(lp560
g56
(g77
g58
NtRp561
(dp562
g61
(dp563
g81
g82
ssg70
g557
sg63
(lp564
g376
asbag56
(g77
g58
NtRp565
(dp566
g61
(dp567
g88
g89
ssg70
g557
sg63
(lp568
S':'
asbag56
(g77
g58
NtRp569
(dp570
g61
(dp571
sg70
g557
sg63
(lp572
g56
(g57
g58
NtRp573
(dp574
g61
(dp575
g69
I3
ssg70
g569
sg63
(lp576
S''
asbasbasbag56
(g72
g58
NtRp577
(dp578
g61
(dp579
sg70
g473
sg63
(lp580
g56
(g77
g58
NtRp581
(dp582
g61
(dp583
g81
g82
ssg70
g577
sg63
(lp584
g397
asbag56
(g77
g58
NtRp585
(dp586
g61
(dp587
g88
g89
ssg70
g577
sg63
(lp588
S':'
asbag56
(g77
g58
NtRp589
(dp590
g61
(dp591
sg70
g577
sg63
(lp592
g56
(g57
g58
NtRp593
(dp594
g61
(dp595
g69
I3
ssg70
g589
sg63
(lp596
S''
asbasbasbag56
(g72
g58
NtRp597
(dp598
g61
(dp599
sg70
g473
sg63
(lp600
g56
(g77
g58
NtRp601
(dp602
g61
(dp603
g81
g82
ssg70
g597
sg63
(lp604
g418
asbag56
(g77
g58
NtRp605
(dp606
g61
(dp607
g88
g89
ssg70
g597
sg63
(lp608
S':'
asbag56
(g77
g58
NtRp609
(dp610
g61
(dp611
sg70
g597
sg63
(lp612
g56
(g57
g58
NtRp613
(dp614
g61
(dp615
g69
I3
ssg70
g609
sg63
(lp616
S''
asbasbasbag56
(g72
g58
NtRp617
(dp618
g61
(dp619
sg70
g473
sg63
(lp620
g56
(g77
g58
NtRp621
(dp622
g61
(dp623
g81
g82
ssg70
g617
sg63
(lp624
g439
asbag56
(g77
g58
NtRp625
(dp626
g61
(dp627
g88
g89
ssg70
g617
sg63
(lp628
S':'
asbag56
(g77
g58
NtRp629
(dp630
g61
(dp631
sg70
g617
sg63
(lp632
g56
(g57
g58
NtRp633
(dp634
g61
(dp635
g69
I3
ssg70
g629
sg63
(lp636
S''
asbasbasbasbasbasbasbag56
(g72
g58
NtRp637
(dp638
g61
(dp639
sg70
g255
sg63
(lp640
g56
(g77
g58
NtRp641
(dp642
g61
(dp643
g81
g82
ssg70
g637
sg63
(lp644
S'session_id_welcome'
p645
asbag56
(g77
g58
NtRp646
(dp647
g61
(dp648
g88
g89
ssg70
g637
sg63
(lp649
S':'
asbag56
(g77
g58
NtRp650
(dp651
g61
(dp652
sg70
g637
sg63
(lp653
g56
(g57
g58
NtRp654
(dp655
g61
(dp656
g69
I4
ssg70
g650
sg63
(lp657
g56
(g65
g58
NtRp658
(dp659
g61
(dp660
g69
I3
ssg70
Nsg63
(lp661
g56
(g72
g58
NtRp662
(dp663
g61
(dp664
sg70
g658
sg63
(lp665
g56
(g77
g58
NtRp666
(dp667
g61
(dp668
g81
g82
ssg70
g662
sg63
(lp669
g292
asbag56
(g77
g58
NtRp670
(dp671
g61
(dp672
g88
g89
ssg70
g662
sg63
(lp673
S':'
asbag56
(g77
g58
NtRp674
(dp675
g61
(dp676
sg70
g662
sg63
(lp677
g56
(g57
g58
NtRp678
(dp679
g61
(dp680
g69
I3
ssg70
g674
sg63
(lp681
S''
asbasbasbag56
(g72
g58
NtRp682
(dp683
g61
(dp684
sg70
g658
sg63
(lp685
g56
(g77
g58
NtRp686
(dp687
g61
(dp688
g81
g82
ssg70
g682
sg63
(lp689
g313
asbag56
(g77
g58
NtRp690
(dp691
g61
(dp692
g88
g89
ssg70
g682
sg63
(lp693
S':'
asbag56
(g77
g58
NtRp694
(dp695
g61
(dp696
sg70
g682
sg63
(lp697
g56
(g57
g58
NtRp698
(dp699
g61
(dp700
g69
I3
ssg70
g694
sg63
(lp701
S''
asbasbasbag56
(g72
g58
NtRp702
(dp703
g61
(dp704
sg70
g658
sg63
(lp705
g56
(g77
g58
NtRp706
(dp707
g61
(dp708
g81
g82
ssg70
g702
sg63
(lp709
g334
asbag56
(g77
g58
NtRp710
(dp711
g61
(dp712
g88
g89
ssg70
g702
sg63
(lp713
S':'
asbag56
(g77
g58
NtRp714
(dp715
g61
(dp716
sg70
g702
sg63
(lp717
g56
(g57
g58
NtRp718
(dp719
g61
(dp720
g69
I3
ssg70
g714
sg63
(lp721
S''
asbasbasbag56
(g72
g58
NtRp722
(dp723
g61
(dp724
sg70
g658
sg63
(lp725
g56
(g77
g58
NtRp726
(dp727
g61
(dp728
g81
g82
ssg70
g722
sg63
(lp729
g355
asbag56
(g77
g58
NtRp730
(dp731
g61
(dp732
g88
g89
ssg70
g722
sg63
(lp733
S':'
asbag56
(g77
g58
NtRp734
(dp735
g61
(dp736
sg70
g722
sg63
(lp737
g56
(g57
g58
NtRp738
(dp739
g61
(dp740
g69
I3
ssg70
g734
sg63
(lp741
S''
asbasbasbag56
(g72
g58
NtRp742
(dp743
g61
(dp744
sg70
g658
sg63
(lp745
g56
(g77
g58
NtRp746
(dp747
g61
(dp748
g81
g82
ssg70
g742
sg63
(lp749
g376
asbag56
(g77
g58
NtRp750
(dp751
g61
(dp752
g88
g89
ssg70
g742
sg63
(lp753
S':'
asbag56
(g77
g58
NtRp754
(dp755
g61
(dp756
sg70
g742
sg63
(lp757
g56
(g57
g58
NtRp758
(dp759
g61
(dp760
g69
I3
ssg70
g754
sg63
(lp761
S''
asbasbasbag56
(g72
g58
NtRp762
(dp763
g61
(dp764
sg70
g658
sg63
(lp765
g56
(g77
g58
NtRp766
(dp767
g61
(dp768
g81
g82
ssg70
g762
sg63
(lp769
g397
asbag56
(g77
g58
NtRp770
(dp771
g61
(dp772
g88
g89
ssg70
g762
sg63
(lp773
S':'
asbag56
(g77
g58
NtRp774
(dp775
g61
(dp776
sg70
g762
sg63
(lp777
g56
(g57
g58
NtRp778
(dp779
g61
(dp780
g69
I3
ssg70
g774
sg63
(lp781
S''
asbasbasbag56
(g72
g58
NtRp782
(dp783
g61
(dp784
sg70
g658
sg63
(lp785
g56
(g77
g58
NtRp786
(dp787
g61
(dp788
g81
g82
ssg70
g782
sg63
(lp789
g418
asbag56
(g77
g58
NtRp790
(dp791
g61
(dp792
g88
g89
ssg70
g782
sg63
(lp793
S':'
asbag56
(g77
g58
NtRp794
(dp795
g61
(dp796
sg70
g782
sg63
(lp797
g56
(g57
g58
NtRp798
(dp799
g61
(dp800
g69
I3
ssg70
g794
sg63
(lp801
S''
asbasbasbag56
(g72
g58
NtRp802
(dp803
g61
(dp804
sg70
g658
sg63
(lp805
g56
(g77
g58
NtRp806
(dp807
g61
(dp808
g81
g82
ssg70
g802
sg63
(lp809
g439
asbag56
(g77
g58
NtRp810
(dp811
g61
(dp812
g88
g89
ssg70
g802
sg63
(lp813
S':'
asbag56
(g77
g58
NtRp814
(dp815
g61
(dp816
sg70
g802
sg63
(lp817
g56
(g57
g58
NtRp818
(dp819
g61
(dp820
g69
I3
ssg70
g814
sg63
(lp821
S''
asbasbasbasbasbasbasbasbasbasbasbag56
(g72
g58
NtRp822
(dp823
g61
(dp824
sg70
g66
sg63
(lp825
g56
(g77
g58
NtRp826
(dp827
g61
(dp828
g81
g82
ssg70
g822
sg63
(lp829
S'env'
p830
asbag56
(g77
g58
NtRp831
(dp832
g61
(dp833
g88
g89
ssg70
g822
sg63
(lp834
S':'
asbag56
(g77
g58
NtRp835
(dp836
g61
(dp837
sg70
g822
sg63
(lp838
g56
(g57
g58
NtRp839
(dp840
g61
(dp841
g69
I5
ssg70
g835
sg63
(lp842
g56
(g65
g58
NtRp843
(dp844
g61
(dp845
g69
I4
ssg70
Nsg63
(lp846
g56
(g72
g58
NtRp847
(dp848
g61
(dp849
sg70
g843
sg63
(lp850
g56
(g77
g58
NtRp851
(dp852
g61
(dp853
g81
g82
ssg70
g847
sg63
(lp854
S'app_folders'
p855
asbag56
(g77
g58
NtRp856
(dp857
g61
(dp858
g88
g89
ssg70
g847
sg63
(lp859
S':'
asbag56
(g77
g58
NtRp860
(dp861
g61
(dp862
sg70
g847
sg63
(lp863
g56
(g57
g58
NtRp864
(dp865
g61
(dp866
g69
I4
ssg70
g860
sg63
(lp867
S"set(['/home/ian/web2py/applications/welcome/', '/home/ian/web2py/applications/grades/'])"
p868
asbasbasbag56
(g72
g58
NtRp869
(dp870
g61
(dp871
sg70
g843
sg63
(lp872
g56
(g77
g58
NtRp873
(dp874
g61
(dp875
g81
g82
ssg70
g869
sg63
(lp876
S'applications_parent'
p877
asbag56
(g77
g58
NtRp878
(dp879
g61
(dp880
g88
g89
ssg70
g869
sg63
(lp881
S':'
asbag56
(g77
g58
NtRp882
(dp883
g61
(dp884
sg70
g869
sg63
(lp885
g56
(g57
g58
NtRp886
(dp887
g61
(dp888
g69
I4
ssg70
g882
sg63
(lp889
S'/home/ian/web2py'
p890
asbasbasbag56
(g72
g58
NtRp891
(dp892
g61
(dp893
sg70
g843
sg63
(lp894
g56
(g77
g58
NtRp895
(dp896
g61
(dp897
g81
g82
ssg70
g891
sg63
(lp898
S'cmd_args'
p899
asbag56
(g77
g58
NtRp900
(dp901
g61
(dp902
g88
g89
ssg70
g891
sg63
(lp903
S':'
asbag56
(g77
g58
NtRp904
(dp905
g61
(dp906
sg70
g891
sg63
(lp907
g56
(g57
g58
NtRp908
(dp909
g61
(dp910
g69
I4
ssg70
g904
sg63
(lp911
g56
(g65
g58
NtRp912
(dp913
g61
(dp914
g69
I3
ssg70
Nsg63
(lp915
sbasbasbasbag56
(g72
g58
NtRp916
(dp917
g61
(dp918
sg70
g843
sg63
(lp919
g56
(g77
g58
NtRp920
(dp921
g61
(dp922
g81
g82
ssg70
g916
sg63
(lp923
S'cmd_options'
p924
asbag56
(g77
g58
NtRp925
(dp926
g61
(dp927
g88
g89
ssg70
g916
sg63
(lp928
S':'
asbag56
(g77
g58
NtRp929
(dp930
g61
(dp931
sg70
g916
sg63
(lp932
g56
(g57
g58
NtRp933
(dp934
g61
(dp935
g69
I4
ssg70
g929
sg63
(lp936
S"<Values at 0x2331758: {'verbose': False, 'ip': '127.0.0.1', 'shutdown_timeout': 5, 'taskbar': False, 'nocron': False, 'pid_filename': 'httpserver.pid', 'maxthreads': None, 'softcron': False, 'server_name': 'uriel', 'bpython': False, 'nogui': False, 'port': 8000, 'extcron': False, 'debuglevel': 30, 'test': None, 'folder': '/home/ian/web2py', 'config': '', 'import_models': False, 'winservice': '', 'shell': None, 'run': '', 'log_filename': 'httpserver.log', 'args': [''], 'ssl_ca_certificate': None, 'scheduler': None, 'profiler_filename': None, 'ssl_private_key': '', 'password': '<ask>', 'request_queue_size': 5, 'ssl_certificate': '', 'cronjob': False, 'plain': False, 'quiet': False, 'interfaces': None, 'minthreads': None, 'timeout': 10, 'numthreads': None, 'nobanner': False}>"
p937
asbasbasbag56
(g72
g58
NtRp938
(dp939
g61
(dp940
sg70
g843
sg63
(lp941
g56
(g77
g58
NtRp942
(dp943
g61
(dp944
g81
g82
ssg70
g938
sg63
(lp945
S'db_sessions'
p946
asbag56
(g77
g58
NtRp947
(dp948
g61
(dp949
g88
g89
ssg70
g938
sg63
(lp950
S':'
asbag56
(g77
g58
NtRp951
(dp952
g61
(dp953
sg70
g938
sg63
(lp954
g56
(g57
g58
NtRp955
(dp956
g61
(dp957
g69
I4
ssg70
g951
sg63
(lp958
S'set([])'
p959
asbasbasbag56
(g72
g58
NtRp960
(dp961
g61
(dp962
sg70
g843
sg63
(lp963
g56
(g77
g58
NtRp964
(dp965
g61
(dp966
g81
g82
ssg70
g960
sg63
(lp967
S'debugging'
p968
asbag56
(g77
g58
NtRp969
(dp970
g61
(dp971
g88
g89
ssg70
g960
sg63
(lp972
S':'
asbag56
(g77
g58
NtRp973
(dp974
g61
(dp975
sg70
g960
sg63
(lp976
g56
(g57
g58
NtRp977
(dp978
g61
(dp979
g69
I4
ssg70
g973
sg63
(lp980
S'False'
p981
asbasbasbag56
(g72
g58
NtRp982
(dp983
g61
(dp984
sg70
g843
sg63
(lp985
g56
(g77
g58
NtRp986
(dp987
g61
(dp988
g81
g82
ssg70
g982
sg63
(lp989
S'gluon_parent'
p990
asbag56
(g77
g58
NtRp991
(dp992
g61
(dp993
g88
g89
ssg70
g982
sg63
(lp994
S':'
asbag56
(g77
g58
NtRp995
(dp996
g61
(dp997
sg70
g982
sg63
(lp998
g56
(g57
g58
NtRp999
(dp1000
g61
(dp1001
g69
I4
ssg70
g995
sg63
(lp1002
S'/home/ian/web2py'
p1003
asbasbasbag56
(g72
g58
NtRp1004
(dp1005
g61
(dp1006
sg70
g843
sg63
(lp1007
g56
(g77
g58
NtRp1008
(dp1009
g61
(dp1010
g81
g82
ssg70
g1004
sg63
(lp1011
S'http_accept'
p1012
asbag56
(g77
g58
NtRp1013
(dp1014
g61
(dp1015
g88
g89
ssg70
g1004
sg63
(lp1016
S':'
asbag56
(g77
g58
NtRp1017
(dp1018
g61
(dp1019
sg70
g1004
sg63
(lp1020
g56
(g57
g58
NtRp1021
(dp1022
g61
(dp1023
g69
I4
ssg70
g1017
sg63
(lp1024
S'*/*'
p1025
asbasbasbag56
(g72
g58
NtRp1026
(dp1027
g61
(dp1028
sg70
g843
sg63
(lp1029
g56
(g77
g58
NtRp1030
(dp1031
g61
(dp1032
g81
g82
ssg70
g1026
sg63
(lp1033
S'http_accept_encoding'
p1034
asbag56
(g77
g58
NtRp1035
(dp1036
g61
(dp1037
g88
g89
ssg70
g1026
sg63
(lp1038
S':'
asbag56
(g77
g58
NtRp1039
(dp1040
g61
(dp1041
sg70
g1026
sg63
(lp1042
g56
(g57
g58
NtRp1043
(dp1044
g61
(dp1045
g69
I4
ssg70
g1039
sg63
(lp1046
S'gzip, deflate'
p1047
asbasbasbag56
(g72
g58
NtRp1048
(dp1049
g61
(dp1050
sg70
g843
sg63
(lp1051
g56
(g77
g58
NtRp1052
(dp1053
g61
(dp1054
g81
g82
ssg70
g1048
sg63
(lp1055
S'http_accept_language'
p1056
asbag56
(g77
g58
NtRp1057
(dp1058
g61
(dp1059
g88
g89
ssg70
g1048
sg63
(lp1060
S':'
asbag56
(g77
g58
NtRp1061
(dp1062
g61
(dp1063
sg70
g1048
sg63
(lp1064
g56
(g57
g58
NtRp1065
(dp1066
g61
(dp1067
g69
I4
ssg70
g1061
sg63
(lp1068
S'en-us,en;q=0.5'
p1069
asbasbasbag56
(g72
g58
NtRp1070
(dp1071
g61
(dp1072
sg70
g843
sg63
(lp1073
g56
(g77
g58
NtRp1074
(dp1075
g61
(dp1076
g81
g82
ssg70
g1070
sg63
(lp1077
S'http_connection'
p1078
asbag56
(g77
g58
NtRp1079
(dp1080
g61
(dp1081
g88
g89
ssg70
g1070
sg63
(lp1082
S':'
asbag56
(g77
g58
NtRp1083
(dp1084
g61
(dp1085
sg70
g1070
sg63
(lp1086
g56
(g57
g58
NtRp1087
(dp1088
g61
(dp1089
g69
I4
ssg70
g1083
sg63
(lp1090
S'keep-alive'
p1091
asbasbasbag56
(g72
g58
NtRp1092
(dp1093
g61
(dp1094
sg70
g843
sg63
(lp1095
g56
(g77
g58
NtRp1096
(dp1097
g61
(dp1098
g81
g82
ssg70
g1092
sg63
(lp1099
S'http_cookie'
p1100
asbag56
(g77
g58
NtRp1101
(dp1102
g61
(dp1103
g88
g89
ssg70
g1092
sg63
(lp1104
S':'
asbag56
(g77
g58
NtRp1105
(dp1106
g61
(dp1107
sg70
g1092
sg63
(lp1108
g56
(g57
g58
NtRp1109
(dp1110
g61
(dp1111
g69
I4
ssg70
g1105
sg63
(lp1112
S'session_id_paideia=127.0.0.1-5296f1e9-849e-4717-b7d4-f5f298041148; session_id_welcome=127.0.0.1-0f1bf67d-abd7-4f3b-9dfa-61414dbdd968; session_id_grades=127.0.0.1-61c0ea3f-8797-4aff-bb5b-97a734e7ddbc'
p1113
asbasbasbag56
(g72
g58
NtRp1114
(dp1115
g61
(dp1116
sg70
g843
sg63
(lp1117
g56
(g77
g58
NtRp1118
(dp1119
g61
(dp1120
g81
g82
ssg70
g1114
sg63
(lp1121
S'http_host'
p1122
asbag56
(g77
g58
NtRp1123
(dp1124
g61
(dp1125
g88
g89
ssg70
g1114
sg63
(lp1126
S':'
asbag56
(g77
g58
NtRp1127
(dp1128
g61
(dp1129
sg70
g1114
sg63
(lp1130
g56
(g57
g58
NtRp1131
(dp1132
g61
(dp1133
g69
I4
ssg70
g1127
sg63
(lp1134
S'127.0.0.1:8000'
p1135
asbasbasbag56
(g72
g58
NtRp1136
(dp1137
g61
(dp1138
sg70
g843
sg63
(lp1139
g56
(g77
g58
NtRp1140
(dp1141
g61
(dp1142
g81
g82
ssg70
g1136
sg63
(lp1143
S'http_referer'
p1144
asbag56
(g77
g58
NtRp1145
(dp1146
g61
(dp1147
g88
g89
ssg70
g1136
sg63
(lp1148
S':'
asbag56
(g77
g58
NtRp1149
(dp1150
g61
(dp1151
sg70
g1136
sg63
(lp1152
g56
(g57
g58
NtRp1153
(dp1154
g61
(dp1155
g69
I4
ssg70
g1149
sg63
(lp1156
S'http://127.0.0.1:8000/grades/default/grades_report/15'
p1157
asbasbasbag56
(g72
g58
NtRp1158
(dp1159
g61
(dp1160
sg70
g843
sg63
(lp1161
g56
(g77
g58
NtRp1162
(dp1163
g61
(dp1164
g81
g82
ssg70
g1158
sg63
(lp1165
S'http_user_agent'
p1166
asbag56
(g77
g58
NtRp1167
(dp1168
g61
(dp1169
g88
g89
ssg70
g1158
sg63
(lp1170
S':'
asbag56
(g77
g58
NtRp1171
(dp1172
g61
(dp1173
sg70
g1158
sg63
(lp1174
g56
(g57
g58
NtRp1175
(dp1176
g61
(dp1177
g69
I4
ssg70
g1171
sg63
(lp1178
S'Mozilla/5.0 (X11; Linux x86_64; rv:8.0) Gecko/20100101 Firefox/8.0'
p1179
asbasbasbag56
(g72
g58
NtRp1180
(dp1181
g61
(dp1182
sg70
g843
sg63
(lp1183
g56
(g77
g58
NtRp1184
(dp1185
g61
(dp1186
g81
g82
ssg70
g1180
sg63
(lp1187
S'http_web2py_component_element'
p1188
asbag56
(g77
g58
NtRp1189
(dp1190
g61
(dp1191
g88
g89
ssg70
g1180
sg63
(lp1192
S':'
asbag56
(g77
g58
NtRp1193
(dp1194
g61
(dp1195
sg70
g1180
sg63
(lp1196
g56
(g57
g58
NtRp1197
(dp1198
g61
(dp1199
g69
I4
ssg70
g1193
sg63
(lp1200
g189
asbasbasbag56
(g72
g58
NtRp1201
(dp1202
g61
(dp1203
sg70
g843
sg63
(lp1204
g56
(g77
g58
NtRp1205
(dp1206
g61
(dp1207
g81
g82
ssg70
g1201
sg63
(lp1208
S'http_web2py_component_location'
p1209
asbag56
(g77
g58
NtRp1210
(dp1211
g61
(dp1212
g88
g89
ssg70
g1201
sg63
(lp1213
S':'
asbag56
(g77
g58
NtRp1214
(dp1215
g61
(dp1216
sg70
g1201
sg63
(lp1217
g56
(g57
g58
NtRp1218
(dp1219
g61
(dp1220
g69
I4
ssg70
g1214
sg63
(lp1221
S'http://127.0.0.1:8000/grades/default/grades_report/15'
p1222
asbasbasbag56
(g72
g58
NtRp1223
(dp1224
g61
(dp1225
sg70
g843
sg63
(lp1226
g56
(g77
g58
NtRp1227
(dp1228
g61
(dp1229
g81
g82
ssg70
g1223
sg63
(lp1230
S'http_x_requested_with'
p1231
asbag56
(g77
g58
NtRp1232
(dp1233
g61
(dp1234
g88
g89
ssg70
g1223
sg63
(lp1235
S':'
asbag56
(g77
g58
NtRp1236
(dp1237
g61
(dp1238
sg70
g1223
sg63
(lp1239
g56
(g57
g58
NtRp1240
(dp1241
g61
(dp1242
g69
I4
ssg70
g1236
sg63
(lp1243
S'XMLHttpRequest'
p1244
asbasbasbag56
(g72
g58
NtRp1245
(dp1246
g61
(dp1247
sg70
g843
sg63
(lp1248
g56
(g77
g58
NtRp1249
(dp1250
g61
(dp1251
g81
g82
ssg70
g1245
sg63
(lp1252
S'is_jython'
p1253
asbag56
(g77
g58
NtRp1254
(dp1255
g61
(dp1256
g88
g89
ssg70
g1245
sg63
(lp1257
S':'
asbag56
(g77
g58
NtRp1258
(dp1259
g61
(dp1260
sg70
g1245
sg63
(lp1261
g56
(g57
g58
NtRp1262
(dp1263
g61
(dp1264
g69
I4
ssg70
g1258
sg63
(lp1265
g981
asbasbasbag56
(g72
g58
NtRp1266
(dp1267
g61
(dp1268
sg70
g843
sg63
(lp1269
g56
(g77
g58
NtRp1270
(dp1271
g61
(dp1272
g81
g82
ssg70
g1266
sg63
(lp1273
S'path_info'
p1274
asbag56
(g77
g58
NtRp1275
(dp1276
g61
(dp1277
g88
g89
ssg70
g1266
sg63
(lp1278
S':'
asbag56
(g77
g58
NtRp1279
(dp1280
g61
(dp1281
sg70
g1266
sg63
(lp1282
g56
(g57
g58
NtRp1283
(dp1284
g61
(dp1285
g69
I4
ssg70
g1279
sg63
(lp1286
S'/grades/default/grades_report.load'
p1287
asbasbasbag56
(g72
g58
NtRp1288
(dp1289
g61
(dp1290
sg70
g843
sg63
(lp1291
g56
(g77
g58
NtRp1292
(dp1293
g61
(dp1294
g81
g82
ssg70
g1288
sg63
(lp1295
S'query_string'
p1296
asbag56
(g77
g58
NtRp1297
(dp1298
g61
(dp1299
g88
g89
ssg70
g1288
sg63
(lp1300
S':'
asbag56
(g77
g58
NtRp1301
(dp1302
g61
(dp1303
sg70
g1288
sg63
(lp1304
g56
(g57
g58
NtRp1305
(dp1306
g61
(dp1307
g69
I4
ssg70
g1301
sg63
(lp1308
S''
asbasbasbag56
(g72
g58
NtRp1309
(dp1310
g61
(dp1311
sg70
g843
sg63
(lp1312
g56
(g77
g58
NtRp1313
(dp1314
g61
(dp1315
g81
g82
ssg70
g1309
sg63
(lp1316
S'remote_addr'
p1317
asbag56
(g77
g58
NtRp1318
(dp1319
g61
(dp1320
g88
g89
ssg70
g1309
sg63
(lp1321
S':'
asbag56
(g77
g58
NtRp1322
(dp1323
g61
(dp1324
sg70
g1309
sg63
(lp1325
g56
(g57
g58
NtRp1326
(dp1327
g61
(dp1328
g69
I4
ssg70
g1322
sg63
(lp1329
g211
asbasbasbag56
(g72
g58
NtRp1330
(dp1331
g61
(dp1332
sg70
g843
sg63
(lp1333
g56
(g77
g58
NtRp1334
(dp1335
g61
(dp1336
g81
g82
ssg70
g1330
sg63
(lp1337
S'remote_port'
p1338
asbag56
(g77
g58
NtRp1339
(dp1340
g61
(dp1341
g88
g89
ssg70
g1330
sg63
(lp1342
S':'
asbag56
(g77
g58
NtRp1343
(dp1344
g61
(dp1345
sg70
g1330
sg63
(lp1346
g56
(g57
g58
NtRp1347
(dp1348
g61
(dp1349
g69
I4
ssg70
g1343
sg63
(lp1350
S'60856'
p1351
asbasbasbag56
(g72
g58
NtRp1352
(dp1353
g61
(dp1354
sg70
g843
sg63
(lp1355
g56
(g77
g58
NtRp1356
(dp1357
g61
(dp1358
g81
g82
ssg70
g1352
sg63
(lp1359
S'request_method'
p1360
asbag56
(g77
g58
NtRp1361
(dp1362
g61
(dp1363
g88
g89
ssg70
g1352
sg63
(lp1364
S':'
asbag56
(g77
g58
NtRp1365
(dp1366
g61
(dp1367
sg70
g1352
sg63
(lp1368
g56
(g57
g58
NtRp1369
(dp1370
g61
(dp1371
g69
I4
ssg70
g1365
sg63
(lp1372
S'GET'
p1373
asbasbasbag56
(g72
g58
NtRp1374
(dp1375
g61
(dp1376
sg70
g843
sg63
(lp1377
g56
(g77
g58
NtRp1378
(dp1379
g61
(dp1380
g81
g82
ssg70
g1374
sg63
(lp1381
S'script_name'
p1382
asbag56
(g77
g58
NtRp1383
(dp1384
g61
(dp1385
g88
g89
ssg70
g1374
sg63
(lp1386
S':'
asbag56
(g77
g58
NtRp1387
(dp1388
g61
(dp1389
sg70
g1374
sg63
(lp1390
g56
(g57
g58
NtRp1391
(dp1392
g61
(dp1393
g69
I4
ssg70
g1387
sg63
(lp1394
S''
asbasbasbag56
(g72
g58
NtRp1395
(dp1396
g61
(dp1397
sg70
g843
sg63
(lp1398
g56
(g77
g58
NtRp1399
(dp1400
g61
(dp1401
g81
g82
ssg70
g1395
sg63
(lp1402
S'server_name'
p1403
asbag56
(g77
g58
NtRp1404
(dp1405
g61
(dp1406
g88
g89
ssg70
g1395
sg63
(lp1407
S':'
asbag56
(g77
g58
NtRp1408
(dp1409
g61
(dp1410
sg70
g1395
sg63
(lp1411
g56
(g57
g58
NtRp1412
(dp1413
g61
(dp1414
g69
I4
ssg70
g1408
sg63
(lp1415
S'uriel'
p1416
asbasbasbag56
(g72
g58
NtRp1417
(dp1418
g61
(dp1419
sg70
g843
sg63
(lp1420
g56
(g77
g58
NtRp1421
(dp1422
g61
(dp1423
g81
g82
ssg70
g1417
sg63
(lp1424
S'server_port'
p1425
asbag56
(g77
g58
NtRp1426
(dp1427
g61
(dp1428
g88
g89
ssg70
g1417
sg63
(lp1429
S':'
asbag56
(g77
g58
NtRp1430
(dp1431
g61
(dp1432
sg70
g1417
sg63
(lp1433
g56
(g57
g58
NtRp1434
(dp1435
g61
(dp1436
g69
I4
ssg70
g1430
sg63
(lp1437
S'8000'
p1438
asbasbasbag56
(g72
g58
NtRp1439
(dp1440
g61
(dp1441
sg70
g843
sg63
(lp1442
g56
(g77
g58
NtRp1443
(dp1444
g61
(dp1445
g81
g82
ssg70
g1439
sg63
(lp1446
S'server_protocol'
p1447
asbag56
(g77
g58
NtRp1448
(dp1449
g61
(dp1450
g88
g89
ssg70
g1439
sg63
(lp1451
S':'
asbag56
(g77
g58
NtRp1452
(dp1453
g61
(dp1454
sg70
g1439
sg63
(lp1455
g56
(g57
g58
NtRp1456
(dp1457
g61
(dp1458
g69
I4
ssg70
g1452
sg63
(lp1459
S'HTTP/1.1'
p1460
asbasbasbag56
(g72
g58
NtRp1461
(dp1462
g61
(dp1463
sg70
g843
sg63
(lp1464
g56
(g77
g58
NtRp1465
(dp1466
g61
(dp1467
g81
g82
ssg70
g1461
sg63
(lp1468
S'server_software'
p1469
asbag56
(g77
g58
NtRp1470
(dp1471
g61
(dp1472
g88
g89
ssg70
g1461
sg63
(lp1473
S':'
asbag56
(g77
g58
NtRp1474
(dp1475
g61
(dp1476
sg70
g1461
sg63
(lp1477
g56
(g57
g58
NtRp1478
(dp1479
g61
(dp1480
g69
I4
ssg70
g1474
sg63
(lp1481
S'Rocket 1.2.4'
p1482
asbasbasbag56
(g72
g58
NtRp1483
(dp1484
g61
(dp1485
sg70
g843
sg63
(lp1486
g56
(g77
g58
NtRp1487
(dp1488
g61
(dp1489
g81
g82
ssg70
g1483
sg63
(lp1490
S'web2py_crontype'
p1491
asbag56
(g77
g58
NtRp1492
(dp1493
g61
(dp1494
g88
g89
ssg70
g1483
sg63
(lp1495
S':'
asbag56
(g77
g58
NtRp1496
(dp1497
g61
(dp1498
sg70
g1483
sg63
(lp1499
g56
(g57
g58
NtRp1500
(dp1501
g61
(dp1502
g69
I4
ssg70
g1496
sg63
(lp1503
S'hard'
p1504
asbasbasbag56
(g72
g58
NtRp1505
(dp1506
g61
(dp1507
sg70
g843
sg63
(lp1508
g56
(g77
g58
NtRp1509
(dp1510
g61
(dp1511
g81
g82
ssg70
g1505
sg63
(lp1512
S'web2py_path'
p1513
asbag56
(g77
g58
NtRp1514
(dp1515
g61
(dp1516
g88
g89
ssg70
g1505
sg63
(lp1517
S':'
asbag56
(g77
g58
NtRp1518
(dp1519
g61
(dp1520
sg70
g1505
sg63
(lp1521
g56
(g57
g58
NtRp1522
(dp1523
g61
(dp1524
g69
I4
ssg70
g1518
sg63
(lp1525
g890
asbasbasbag56
(g72
g58
NtRp1526
(dp1527
g61
(dp1528
sg70
g843
sg63
(lp1529
g56
(g77
g58
NtRp1530
(dp1531
g61
(dp1532
g81
g82
ssg70
g1526
sg63
(lp1533
S'web2py_version'
p1534
asbag56
(g77
g58
NtRp1535
(dp1536
g61
(dp1537
g88
g89
ssg70
g1526
sg63
(lp1538
S':'
asbag56
(g77
g58
NtRp1539
(dp1540
g61
(dp1541
sg70
g1526
sg63
(lp1542
g56
(g57
g58
NtRp1543
(dp1544
g61
(dp1545
g69
I4
ssg70
g1539
sg63
(lp1546
g56
(g65
g58
NtRp1547
(dp1548
g61
(dp1549
g69
I3
ssg70
Nsg63
(lp1550
g56
(g72
g58
NtRp1551
(dp1552
g61
(dp1553
sg70
g1547
sg63
(lp1554
g56
(g77
g58
NtRp1555
(dp1556
g61
(dp1557
sg70
g1551
sg63
(lp1558
g56
(g57
g58
NtRp1559
(dp1560
g61
(dp1561
g69
I3
ssg70
g1555
sg63
(lp1562
S'1'
asbasbasbag56
(g72
g58
NtRp1563
(dp1564
g61
(dp1565
sg70
g1547
sg63
(lp1566
g56
(g77
g58
NtRp1567
(dp1568
g61
(dp1569
sg70
g1563
sg63
(lp1570
g56
(g57
g58
NtRp1571
(dp1572
g61
(dp1573
g69
I3
ssg70
g1567
sg63
(lp1574
S'99'
p1575
asbasbasbag56
(g72
g58
NtRp1576
(dp1577
g61
(dp1578
sg70
g1547
sg63
(lp1579
g56
(g77
g58
NtRp1580
(dp1581
g61
(dp1582
sg70
g1576
sg63
(lp1583
g56
(g57
g58
NtRp1584
(dp1585
g61
(dp1586
g69
I3
ssg70
g1580
sg63
(lp1587
S'2'
asbasbasbag56
(g72
g58
NtRp1588
(dp1589
g61
(dp1590
sg70
g1547
sg63
(lp1591
g56
(g77
g58
NtRp1592
(dp1593
g61
(dp1594
sg70
g1588
sg63
(lp1595
g56
(g57
g58
NtRp1596
(dp1597
g61
(dp1598
g69
I3
ssg70
g1592
sg63
(lp1599
S'datetime.datetime(2011, 9, 26, 6, 55, 33)'
p1600
asbasbasbag56
(g72
g58
NtRp1601
(dp1602
g61
(dp1603
sg70
g1547
sg63
(lp1604
g56
(g77
g58
NtRp1605
(dp1606
g61
(dp1607
sg70
g1601
sg63
(lp1608
g56
(g57
g58
NtRp1609
(dp1610
g61
(dp1611
g69
I3
ssg70
g1605
sg63
(lp1612
S'stable'
p1613
asbasbasbasbasbasbasbag56
(g72
g58
NtRp1614
(dp1615
g61
(dp1616
sg70
g843
sg63
(lp1617
g56
(g77
g58
NtRp1618
(dp1619
g61
(dp1620
g81
g82
ssg70
g1614
sg63
(lp1621
S'wsgi_errors'
p1622
asbag56
(g77
g58
NtRp1623
(dp1624
g61
(dp1625
g88
g89
ssg70
g1614
sg63
(lp1626
S':'
asbag56
(g77
g58
NtRp1627
(dp1628
g61
(dp1629
sg70
g1614
sg63
(lp1630
g56
(g57
g58
NtRp1631
(dp1632
g61
(dp1633
g69
I4
ssg70
g1627
sg63
(lp1634
S"<open file '<stderr>', mode 'w' at 0x7f1a4db92270>"
p1635
asbasbasbag56
(g72
g58
NtRp1636
(dp1637
g61
(dp1638
sg70
g843
sg63
(lp1639
g56
(g77
g58
NtRp1640
(dp1641
g61
(dp1642
g81
g82
ssg70
g1636
sg63
(lp1643
S'wsgi_file_wrapper'
p1644
asbag56
(g77
g58
NtRp1645
(dp1646
g61
(dp1647
g88
g89
ssg70
g1636
sg63
(lp1648
S':'
asbag56
(g77
g58
NtRp1649
(dp1650
g61
(dp1651
sg70
g1636
sg63
(lp1652
g56
(g57
g58
NtRp1653
(dp1654
g61
(dp1655
g69
I4
ssg70
g1649
sg63
(lp1656
S'<class wsgiref.util.FileWrapper at 0x21fc870>'
p1657
asbasbasbag56
(g72
g58
NtRp1658
(dp1659
g61
(dp1660
sg70
g843
sg63
(lp1661
g56
(g77
g58
NtRp1662
(dp1663
g61
(dp1664
g81
g82
ssg70
g1658
sg63
(lp1665
S'wsgi_input'
p1666
asbag56
(g77
g58
NtRp1667
(dp1668
g61
(dp1669
g88
g89
ssg70
g1658
sg63
(lp1670
S':'
asbag56
(g77
g58
NtRp1671
(dp1672
g61
(dp1673
sg70
g1658
sg63
(lp1674
g56
(g57
g58
NtRp1675
(dp1676
g61
(dp1677
g69
I4
ssg70
g1671
sg63
(lp1678
S'<socket._fileobject object at 0x28636d0>'
p1679
asbasbasbag56
(g72
g58
NtRp1680
(dp1681
g61
(dp1682
sg70
g843
sg63
(lp1683
g56
(g77
g58
NtRp1684
(dp1685
g61
(dp1686
g81
g82
ssg70
g1680
sg63
(lp1687
S'wsgi_multiprocess'
p1688
asbag56
(g77
g58
NtRp1689
(dp1690
g61
(dp1691
g88
g89
ssg70
g1680
sg63
(lp1692
S':'
asbag56
(g77
g58
NtRp1693
(dp1694
g61
(dp1695
sg70
g1680
sg63
(lp1696
g56
(g57
g58
NtRp1697
(dp1698
g61
(dp1699
g69
I4
ssg70
g1693
sg63
(lp1700
g981
asbasbasbag56
(g72
g58
NtRp1701
(dp1702
g61
(dp1703
sg70
g843
sg63
(lp1704
g56
(g77
g58
NtRp1705
(dp1706
g61
(dp1707
g81
g82
ssg70
g1701
sg63
(lp1708
S'wsgi_multithread'
p1709
asbag56
(g77
g58
NtRp1710
(dp1711
g61
(dp1712
g88
g89
ssg70
g1701
sg63
(lp1713
S':'
asbag56
(g77
g58
NtRp1714
(dp1715
g61
(dp1716
sg70
g1701
sg63
(lp1717
g56
(g57
g58
NtRp1718
(dp1719
g61
(dp1720
g69
I4
ssg70
g1714
sg63
(lp1721
g99
asbasbasbag56
(g72
g58
NtRp1722
(dp1723
g61
(dp1724
sg70
g843
sg63
(lp1725
g56
(g77
g58
NtRp1726
(dp1727
g61
(dp1728
g81
g82
ssg70
g1722
sg63
(lp1729
S'wsgi_run_once'
p1730
asbag56
(g77
g58
NtRp1731
(dp1732
g61
(dp1733
g88
g89
ssg70
g1722
sg63
(lp1734
S':'
asbag56
(g77
g58
NtRp1735
(dp1736
g61
(dp1737
sg70
g1722
sg63
(lp1738
g56
(g57
g58
NtRp1739
(dp1740
g61
(dp1741
g69
I4
ssg70
g1735
sg63
(lp1742
g981
asbasbasbag56
(g72
g58
NtRp1743
(dp1744
g61
(dp1745
sg70
g843
sg63
(lp1746
g56
(g77
g58
NtRp1747
(dp1748
g61
(dp1749
g81
g82
ssg70
g1743
sg63
(lp1750
S'wsgi_url_scheme'
p1751
asbag56
(g77
g58
NtRp1752
(dp1753
g61
(dp1754
g88
g89
ssg70
g1743
sg63
(lp1755
S':'
asbag56
(g77
g58
NtRp1756
(dp1757
g61
(dp1758
sg70
g1743
sg63
(lp1759
g56
(g57
g58
NtRp1760
(dp1761
g61
(dp1762
g69
I4
ssg70
g1756
sg63
(lp1763
S'http'
p1764
asbasbasbag56
(g72
g58
NtRp1765
(dp1766
g61
(dp1767
sg70
g843
sg63
(lp1768
g56
(g77
g58
NtRp1769
(dp1770
g61
(dp1771
g81
g82
ssg70
g1765
sg63
(lp1772
S'wsgi_version'
p1773
asbag56
(g77
g58
NtRp1774
(dp1775
g61
(dp1776
g88
g89
ssg70
g1765
sg63
(lp1777
S':'
asbag56
(g77
g58
NtRp1778
(dp1779
g61
(dp1780
sg70
g1765
sg63
(lp1781
g56
(g57
g58
NtRp1782
(dp1783
g61
(dp1784
g69
I4
ssg70
g1778
sg63
(lp1785
g56
(g65
g58
NtRp1786
(dp1787
g61
(dp1788
g69
I3
ssg70
Nsg63
(lp1789
g56
(g72
g58
NtRp1790
(dp1791
g61
(dp1792
sg70
g1786
sg63
(lp1793
g56
(g77
g58
NtRp1794
(dp1795
g61
(dp1796
sg70
g1790
sg63
(lp1797
g56
(g57
g58
NtRp1798
(dp1799
g61
(dp1800
g69
I3
ssg70
g1794
sg63
(lp1801
S'1'
asbasbasbag56
(g72
g58
NtRp1802
(dp1803
g61
(dp1804
sg70
g1786
sg63
(lp1805
g56
(g77
g58
NtRp1806
(dp1807
g61
(dp1808
sg70
g1802
sg63
(lp1809
g56
(g57
g58
NtRp1810
(dp1811
g61
(dp1812
g69
I3
ssg70
g1806
sg63
(lp1813
S'0'
asbasbasbasbasbasbasbasbasbasbasbag56
(g72
g58
NtRp1814
(dp1815
g61
(dp1816
sg70
g66
sg63
(lp1817
g56
(g77
g58
NtRp1818
(dp1819
g61
(dp1820
g81
g82
ssg70
g1814
sg63
(lp1821
S'extension'
p1822
asbag56
(g77
g58
NtRp1823
(dp1824
g61
(dp1825
g88
g89
ssg70
g1814
sg63
(lp1826
S':'
asbag56
(g77
g58
NtRp1827
(dp1828
g61
(dp1829
sg70
g1814
sg63
(lp1830
g56
(g57
g58
NtRp1831
(dp1832
g61
(dp1833
g69
I5
ssg70
g1827
sg63
(lp1834
S'load'
p1835
asbasbasbag56
(g72
g58
NtRp1836
(dp1837
g61
(dp1838
sg70
g66
sg63
(lp1839
g56
(g77
g58
NtRp1840
(dp1841
g61
(dp1842
g81
g82
ssg70
g1836
sg63
(lp1843
S'folder'
p1844
asbag56
(g77
g58
NtRp1845
(dp1846
g61
(dp1847
g88
g89
ssg70
g1836
sg63
(lp1848
S':'
asbag56
(g77
g58
NtRp1849
(dp1850
g61
(dp1851
sg70
g1836
sg63
(lp1852
g56
(g57
g58
NtRp1853
(dp1854
g61
(dp1855
g69
I5
ssg70
g1849
sg63
(lp1856
S'/home/ian/web2py/applications/grades/'
p1857
asbasbasbag56
(g72
g58
NtRp1858
(dp1859
g61
(dp1860
sg70
g66
sg63
(lp1861
g56
(g77
g58
NtRp1862
(dp1863
g61
(dp1864
g81
g82
ssg70
g1858
sg63
(lp1865
S'function'
p1866
asbag56
(g77
g58
NtRp1867
(dp1868
g61
(dp1869
g88
g89
ssg70
g1858
sg63
(lp1870
S':'
asbag56
(g77
g58
NtRp1871
(dp1872
g61
(dp1873
sg70
g1858
sg63
(lp1874
g56
(g57
g58
NtRp1875
(dp1876
g61
(dp1877
g69
I5
ssg70
g1871
sg63
(lp1878
S'grades_report'
p1879
asbasbasbag56
(g72
g58
NtRp1880
(dp1881
g61
(dp1882
sg70
g66
sg63
(lp1883
g56
(g77
g58
NtRp1884
(dp1885
g61
(dp1886
g81
g82
ssg70
g1880
sg63
(lp1887
S'get_vars'
p1888
asbag56
(g77
g58
NtRp1889
(dp1890
g61
(dp1891
g88
g89
ssg70
g1880
sg63
(lp1892
S':'
asbag56
(g77
g58
NtRp1893
(dp1894
g61
(dp1895
sg70
g1880
sg63
(lp1896
g56
(g57
g58
NtRp1897
(dp1898
g61
(dp1899
g69
I5
ssg70
g1893
sg63
(lp1900
g56
(g65
g58
NtRp1901
(dp1902
g61
(dp1903
g69
I4
ssg70
Nsg63
(lp1904
sbasbasbasbag56
(g72
g58
NtRp1905
(dp1906
g61
(dp1907
sg70
g66
sg63
(lp1908
g56
(g77
g58
NtRp1909
(dp1910
g61
(dp1911
g81
g82
ssg70
g1905
sg63
(lp1912
S'global_settings'
p1913
asbag56
(g77
g58
NtRp1914
(dp1915
g61
(dp1916
g88
g89
ssg70
g1905
sg63
(lp1917
S':'
asbag56
(g77
g58
NtRp1918
(dp1919
g61
(dp1920
sg70
g1905
sg63
(lp1921
g56
(g57
g58
NtRp1922
(dp1923
g61
(dp1924
g69
I5
ssg70
g1918
sg63
(lp1925
g56
(g65
g58
NtRp1926
(dp1927
g61
(dp1928
g69
I4
ssg70
Nsg63
(lp1929
g56
(g72
g58
NtRp1930
(dp1931
g61
(dp1932
sg70
g1926
sg63
(lp1933
g56
(g77
g58
NtRp1934
(dp1935
g61
(dp1936
g81
g82
ssg70
g1930
sg63
(lp1937
g855
asbag56
(g77
g58
NtRp1938
(dp1939
g61
(dp1940
g88
g89
ssg70
g1930
sg63
(lp1941
S':'
asbag56
(g77
g58
NtRp1942
(dp1943
g61
(dp1944
sg70
g1930
sg63
(lp1945
g56
(g57
g58
NtRp1946
(dp1947
g61
(dp1948
g69
I4
ssg70
g1942
sg63
(lp1949
S"set(['/home/ian/web2py/applications/welcome/', '/home/ian/web2py/applications/grades/'])"
p1950
asbasbasbag56
(g72
g58
NtRp1951
(dp1952
g61
(dp1953
sg70
g1926
sg63
(lp1954
g56
(g77
g58
NtRp1955
(dp1956
g61
(dp1957
g81
g82
ssg70
g1951
sg63
(lp1958
g877
asbag56
(g77
g58
NtRp1959
(dp1960
g61
(dp1961
g88
g89
ssg70
g1951
sg63
(lp1962
S':'
asbag56
(g77
g58
NtRp1963
(dp1964
g61
(dp1965
sg70
g1951
sg63
(lp1966
g56
(g57
g58
NtRp1967
(dp1968
g61
(dp1969
g69
I4
ssg70
g1963
sg63
(lp1970
g890
asbasbasbag56
(g72
g58
NtRp1971
(dp1972
g61
(dp1973
sg70
g1926
sg63
(lp1974
g56
(g77
g58
NtRp1975
(dp1976
g61
(dp1977
g81
g82
ssg70
g1971
sg63
(lp1978
g899
asbag56
(g77
g58
NtRp1979
(dp1980
g61
(dp1981
g88
g89
ssg70
g1971
sg63
(lp1982
S':'
asbag56
(g77
g58
NtRp1983
(dp1984
g61
(dp1985
sg70
g1971
sg63
(lp1986
g56
(g57
g58
NtRp1987
(dp1988
g61
(dp1989
g69
I4
ssg70
g1983
sg63
(lp1990
g56
(g65
g58
NtRp1991
(dp1992
g61
(dp1993
g69
I3
ssg70
Nsg63
(lp1994
sbasbasbasbag56
(g72
g58
NtRp1995
(dp1996
g61
(dp1997
sg70
g1926
sg63
(lp1998
g56
(g77
g58
NtRp1999
(dp2000
g61
(dp2001
g81
g82
ssg70
g1995
sg63
(lp2002
g924
asbag56
(g77
g58
NtRp2003
(dp2004
g61
(dp2005
g88
g89
ssg70
g1995
sg63
(lp2006
S':'
asbag56
(g77
g58
NtRp2007
(dp2008
g61
(dp2009
sg70
g1995
sg63
(lp2010
g56
(g57
g58
NtRp2011
(dp2012
g61
(dp2013
g69
I4
ssg70
g2007
sg63
(lp2014
S"<Values at 0x2331758: {'verbose': False, 'ip': '127.0.0.1', 'shutdown_timeout': 5, 'taskbar': False, 'nocron': False, 'pid_filename': 'httpserver.pid', 'maxthreads': None, 'softcron': False, 'server_name': 'uriel', 'bpython': False, 'nogui': False, 'port': 8000, 'extcron': False, 'debuglevel': 30, 'test': None, 'folder': '/home/ian/web2py', 'config': '', 'import_models': False, 'winservice': '', 'shell': None, 'run': '', 'log_filename': 'httpserver.log', 'args': [''], 'ssl_ca_certificate': None, 'scheduler': None, 'profiler_filename': None, 'ssl_private_key': '', 'password': '<ask>', 'request_queue_size': 5, 'ssl_certificate': '', 'cronjob': False, 'plain': False, 'quiet': False, 'interfaces': None, 'minthreads': None, 'timeout': 10, 'numthreads': None, 'nobanner': False}>"
p2015
asbasbasbag56
(g72
g58
NtRp2016
(dp2017
g61
(dp2018
sg70
g1926
sg63
(lp2019
g56
(g77
g58
NtRp2020
(dp2021
g61
(dp2022
g81
g82
ssg70
g2016
sg63
(lp2023
g946
asbag56
(g77
g58
NtRp2024
(dp2025
g61
(dp2026
g88
g89
ssg70
g2016
sg63
(lp2027
S':'
asbag56
(g77
g58
NtRp2028
(dp2029
g61
(dp2030
sg70
g2016
sg63
(lp2031
g56
(g57
g58
NtRp2032
(dp2033
g61
(dp2034
g69
I4
ssg70
g2028
sg63
(lp2035
S'set([])'
p2036
asbasbasbag56
(g72
g58
NtRp2037
(dp2038
g61
(dp2039
sg70
g1926
sg63
(lp2040
g56
(g77
g58
NtRp2041
(dp2042
g61
(dp2043
g81
g82
ssg70
g2037
sg63
(lp2044
g968
asbag56
(g77
g58
NtRp2045
(dp2046
g61
(dp2047
g88
g89
ssg70
g2037
sg63
(lp2048
S':'
asbag56
(g77
g58
NtRp2049
(dp2050
g61
(dp2051
sg70
g2037
sg63
(lp2052
g56
(g57
g58
NtRp2053
(dp2054
g61
(dp2055
g69
I4
ssg70
g2049
sg63
(lp2056
g981
asbasbasbag56
(g72
g58
NtRp2057
(dp2058
g61
(dp2059
sg70
g1926
sg63
(lp2060
g56
(g77
g58
NtRp2061
(dp2062
g61
(dp2063
g81
g82
ssg70
g2057
sg63
(lp2064
g990
asbag56
(g77
g58
NtRp2065
(dp2066
g61
(dp2067
g88
g89
ssg70
g2057
sg63
(lp2068
S':'
asbag56
(g77
g58
NtRp2069
(dp2070
g61
(dp2071
sg70
g2057
sg63
(lp2072
g56
(g57
g58
NtRp2073
(dp2074
g61
(dp2075
g69
I4
ssg70
g2069
sg63
(lp2076
g1003
asbasbasbag56
(g72
g58
NtRp2077
(dp2078
g61
(dp2079
sg70
g1926
sg63
(lp2080
g56
(g77
g58
NtRp2081
(dp2082
g61
(dp2083
g81
g82
ssg70
g2077
sg63
(lp2084
g1253
asbag56
(g77
g58
NtRp2085
(dp2086
g61
(dp2087
g88
g89
ssg70
g2077
sg63
(lp2088
S':'
asbag56
(g77
g58
NtRp2089
(dp2090
g61
(dp2091
sg70
g2077
sg63
(lp2092
g56
(g57
g58
NtRp2093
(dp2094
g61
(dp2095
g69
I4
ssg70
g2089
sg63
(lp2096
g981
asbasbasbag56
(g72
g58
NtRp2097
(dp2098
g61
(dp2099
sg70
g1926
sg63
(lp2100
g56
(g77
g58
NtRp2101
(dp2102
g61
(dp2103
g81
g82
ssg70
g2097
sg63
(lp2104
g1491
asbag56
(g77
g58
NtRp2105
(dp2106
g61
(dp2107
g88
g89
ssg70
g2097
sg63
(lp2108
S':'
asbag56
(g77
g58
NtRp2109
(dp2110
g61
(dp2111
sg70
g2097
sg63
(lp2112
g56
(g57
g58
NtRp2113
(dp2114
g61
(dp2115
g69
I4
ssg70
g2109
sg63
(lp2116
g1504
asbasbasbag56
(g72
g58
NtRp2117
(dp2118
g61
(dp2119
sg70
g1926
sg63
(lp2120
g56
(g77
g58
NtRp2121
(dp2122
g61
(dp2123
g81
g82
ssg70
g2117
sg63
(lp2124
g1534
asbag56
(g77
g58
NtRp2125
(dp2126
g61
(dp2127
g88
g89
ssg70
g2117
sg63
(lp2128
S':'
asbag56
(g77
g58
NtRp2129
(dp2130
g61
(dp2131
sg70
g2117
sg63
(lp2132
g56
(g57
g58
NtRp2133
(dp2134
g61
(dp2135
g69
I4
ssg70
g2129
sg63
(lp2136
g56
(g65
g58
NtRp2137
(dp2138
g61
(dp2139
g69
I3
ssg70
Nsg63
(lp2140
g56
(g72
g58
NtRp2141
(dp2142
g61
(dp2143
sg70
g2137
sg63
(lp2144
g56
(g77
g58
NtRp2145
(dp2146
g61
(dp2147
sg70
g2141
sg63
(lp2148
g56
(g57
g58
NtRp2149
(dp2150
g61
(dp2151
g69
I3
ssg70
g2145
sg63
(lp2152
S'1'
asbasbasbag56
(g72
g58
NtRp2153
(dp2154
g61
(dp2155
sg70
g2137
sg63
(lp2156
g56
(g77
g58
NtRp2157
(dp2158
g61
(dp2159
sg70
g2153
sg63
(lp2160
g56
(g57
g58
NtRp2161
(dp2162
g61
(dp2163
g69
I3
ssg70
g2157
sg63
(lp2164
S'99'
p2165
asbasbasbag56
(g72
g58
NtRp2166
(dp2167
g61
(dp2168
sg70
g2137
sg63
(lp2169
g56
(g77
g58
NtRp2170
(dp2171
g61
(dp2172
sg70
g2166
sg63
(lp2173
g56
(g57
g58
NtRp2174
(dp2175
g61
(dp2176
g69
I3
ssg70
g2170
sg63
(lp2177
S'2'
asbasbasbag56
(g72
g58
NtRp2178
(dp2179
g61
(dp2180
sg70
g2137
sg63
(lp2181
g56
(g77
g58
NtRp2182
(dp2183
g61
(dp2184
sg70
g2178
sg63
(lp2185
g56
(g57
g58
NtRp2186
(dp2187
g61
(dp2188
g69
I3
ssg70
g2182
sg63
(lp2189
S'datetime.datetime(2011, 9, 26, 6, 55, 33)'
p2190
asbasbasbag56
(g72
g58
NtRp2191
(dp2192
g61
(dp2193
sg70
g2137
sg63
(lp2194
g56
(g77
g58
NtRp2195
(dp2196
g61
(dp2197
sg70
g2191
sg63
(lp2198
g56
(g57
g58
NtRp2199
(dp2200
g61
(dp2201
g69
I3
ssg70
g2195
sg63
(lp2202
g1613
asbasbasbasbasbasbasbasbasbasbasbag56
(g72
g58
NtRp2203
(dp2204
g61
(dp2205
sg70
g66
sg63
(lp2206
g56
(g77
g58
NtRp2207
(dp2208
g61
(dp2209
g81
g82
ssg70
g2203
sg63
(lp2210
S'is_https'
p2211
asbag56
(g77
g58
NtRp2212
(dp2213
g61
(dp2214
g88
g89
ssg70
g2203
sg63
(lp2215
S':'
asbag56
(g77
g58
NtRp2216
(dp2217
g61
(dp2218
sg70
g2203
sg63
(lp2219
g56
(g57
g58
NtRp2220
(dp2221
g61
(dp2222
g69
I5
ssg70
g2216
sg63
(lp2223
g981
asbasbasbag56
(g72
g58
NtRp2224
(dp2225
g61
(dp2226
sg70
g66
sg63
(lp2227
g56
(g77
g58
NtRp2228
(dp2229
g61
(dp2230
g81
g82
ssg70
g2224
sg63
(lp2231
S'is_local'
p2232
asbag56
(g77
g58
NtRp2233
(dp2234
g61
(dp2235
g88
g89
ssg70
g2224
sg63
(lp2236
S':'
asbag56
(g77
g58
NtRp2237
(dp2238
g61
(dp2239
sg70
g2224
sg63
(lp2240
g56
(g57
g58
NtRp2241
(dp2242
g61
(dp2243
g69
I5
ssg70
g2237
sg63
(lp2244
g99
asbasbasbag56
(g72
g58
NtRp2245
(dp2246
g61
(dp2247
sg70
g66
sg63
(lp2248
g56
(g77
g58
NtRp2249
(dp2250
g61
(dp2251
g81
g82
ssg70
g2245
sg63
(lp2252
S'is_restful'
p2253
asbag56
(g77
g58
NtRp2254
(dp2255
g61
(dp2256
g88
g89
ssg70
g2245
sg63
(lp2257
S':'
asbag56
(g77
g58
NtRp2258
(dp2259
g61
(dp2260
sg70
g2245
sg63
(lp2261
g56
(g57
g58
NtRp2262
(dp2263
g61
(dp2264
g69
I5
ssg70
g2258
sg63
(lp2265
g981
asbasbasbag56
(g72
g58
NtRp2266
(dp2267
g61
(dp2268
sg70
g66
sg63
(lp2269
g56
(g77
g58
NtRp2270
(dp2271
g61
(dp2272
g81
g82
ssg70
g2266
sg63
(lp2273
S'now'
p2274
asbag56
(g77
g58
NtRp2275
(dp2276
g61
(dp2277
g88
g89
ssg70
g2266
sg63
(lp2278
S':'
asbag56
(g77
g58
NtRp2279
(dp2280
g61
(dp2281
sg70
g2266
sg63
(lp2282
g56
(g57
g58
NtRp2283
(dp2284
g61
(dp2285
g69
I5
ssg70
g2279
sg63
(lp2286
S'datetime.datetime(2011, 11, 3, 16, 16, 10, 662136)'
p2287
asbasbasbag56
(g72
g58
NtRp2288
(dp2289
g61
(dp2290
sg70
g66
sg63
(lp2291
g56
(g77
g58
NtRp2292
(dp2293
g61
(dp2294
g81
g82
ssg70
g2288
sg63
(lp2295
S'post_vars'
p2296
asbag56
(g77
g58
NtRp2297
(dp2298
g61
(dp2299
g88
g89
ssg70
g2288
sg63
(lp2300
S':'
asbag56
(g77
g58
NtRp2301
(dp2302
g61
(dp2303
sg70
g2288
sg63
(lp2304
g56
(g57
g58
NtRp2305
(dp2306
g61
(dp2307
g69
I5
ssg70
g2301
sg63
(lp2308
g56
(g65
g58
NtRp2309
(dp2310
g61
(dp2311
g69
I4
ssg70
Nsg63
(lp2312
sbasbasbasbag56
(g72
g58
NtRp2313
(dp2314
g61
(dp2315
sg70
g66
sg63
(lp2316
g56
(g77
g58
NtRp2317
(dp2318
g61
(dp2319
g81
g82
ssg70
g2313
sg63
(lp2320
S'raw_extension'
p2321
asbag56
(g77
g58
NtRp2322
(dp2323
g61
(dp2324
g88
g89
ssg70
g2313
sg63
(lp2325
S':'
asbag56
(g77
g58
NtRp2326
(dp2327
g61
(dp2328
sg70
g2313
sg63
(lp2329
g56
(g57
g58
NtRp2330
(dp2331
g61
(dp2332
g69
I5
ssg70
g2326
sg63
(lp2333
g1835
asbasbasbag56
(g72
g58
NtRp2334
(dp2335
g61
(dp2336
sg70
g66
sg63
(lp2337
g56
(g77
g58
NtRp2338
(dp2339
g61
(dp2340
g81
g82
ssg70
g2334
sg63
(lp2341
S'url'
p2342
asbag56
(g77
g58
NtRp2343
(dp2344
g61
(dp2345
g88
g89
ssg70
g2334
sg63
(lp2346
S':'
asbag56
(g77
g58
NtRp2347
(dp2348
g61
(dp2349
sg70
g2334
sg63
(lp2350
g56
(g57
g58
NtRp2351
(dp2352
g61
(dp2353
g69
I5
ssg70
g2347
sg63
(lp2354
S'/grades/default/grades_report.load'
p2355
asbasbasbag56
(g72
g58
NtRp2356
(dp2357
g61
(dp2358
sg70
g66
sg63
(lp2359
g56
(g77
g58
NtRp2360
(dp2361
g61
(dp2362
g81
g82
ssg70
g2356
sg63
(lp2363
S'utcnow'
p2364
asbag56
(g77
g58
NtRp2365
(dp2366
g61
(dp2367
g88
g89
ssg70
g2356
sg63
(lp2368
S':'
asbag56
(g77
g58
NtRp2369
(dp2370
g61
(dp2371
sg70
g2356
sg63
(lp2372
g56
(g57
g58
NtRp2373
(dp2374
g61
(dp2375
g69
I5
ssg70
g2369
sg63
(lp2376
S'datetime.datetime(2011, 11, 3, 20, 16, 10, 662192)'
p2377
asbasbasbag56
(g72
g58
NtRp2378
(dp2379
g61
(dp2380
sg70
g66
sg63
(lp2381
g56
(g77
g58
NtRp2382
(dp2383
g61
(dp2384
g81
g82
ssg70
g2378
sg63
(lp2385
S'uuid'
p2386
asbag56
(g77
g58
NtRp2387
(dp2388
g61
(dp2389
g88
g89
ssg70
g2378
sg63
(lp2390
S':'
asbag56
(g77
g58
NtRp2391
(dp2392
g61
(dp2393
sg70
g2378
sg63
(lp2394
g56
(g57
g58
NtRp2395
(dp2396
g61
(dp2397
g69
I5
ssg70
g2391
sg63
(lp2398
S'grades/127.0.0.1.2011-11-03.16-16-10.bc3782b1-0555-4e17-ae7d-a6a714ba6e8c'
p2399
asbasbasbag56
(g72
g58
NtRp2400
(dp2401
g61
(dp2402
sg70
g66
sg63
(lp2403
g56
(g77
g58
NtRp2404
(dp2405
g61
(dp2406
g81
g82
ssg70
g2400
sg63
(lp2407
S'vars'
p2408
asbag56
(g77
g58
NtRp2409
(dp2410
g61
(dp2411
g88
g89
ssg70
g2400
sg63
(lp2412
S':'
asbag56
(g77
g58
NtRp2413
(dp2414
g61
(dp2415
sg70
g2400
sg63
(lp2416
g56
(g57
g58
NtRp2417
(dp2418
g61
(dp2419
g69
I5
ssg70
g2413
sg63
(lp2420
g56
(g65
g58
NtRp2421
(dp2422
g61
(dp2423
g69
I4
ssg70
Nsg63
(lp2424
sbasbasbasbag56
(g72
g58
NtRp2425
(dp2426
g61
(dp2427
sg70
g66
sg63
(lp2428
g56
(g77
g58
NtRp2429
(dp2430
g61
(dp2431
g81
g82
ssg70
g2425
sg63
(lp2432
S'wsgi'
p2433
asbag56
(g77
g58
NtRp2434
(dp2435
g61
(dp2436
g88
g89
ssg70
g2425
sg63
(lp2437
S':'
asbag56
(g77
g58
NtRp2438
(dp2439
g61
(dp2440
sg70
g2425
sg63
(lp2441
g56
(g57
g58
NtRp2442
(dp2443
g61
(dp2444
g69
I5
ssg70
g2438
sg63
(lp2445
g56
(g65
g58
NtRp2446
(dp2447
g61
(dp2448
g69
I4
ssg70
Nsg63
(lp2449
g56
(g72
g58
NtRp2450
(dp2451
g61
(dp2452
sg70
g2446
sg63
(lp2453
g56
(g77
g58
NtRp2454
(dp2455
g61
(dp2456
g81
g82
ssg70
g2450
sg63
(lp2457
S'environ'
p2458
asbag56
(g77
g58
NtRp2459
(dp2460
g61
(dp2461
g88
g89
ssg70
g2450
sg63
(lp2462
S':'
asbag56
(g77
g58
NtRp2463
(dp2464
g61
(dp2465
sg70
g2450
sg63
(lp2466
g56
(g57
g58
NtRp2467
(dp2468
g61
(dp2469
g69
I4
ssg70
g2463
sg63
(lp2470
g56
(g65
g58
NtRp2471
(dp2472
g61
(dp2473
g69
I3
ssg70
Nsg63
(lp2474
g56
(g72
g58
NtRp2475
(dp2476
g61
(dp2477
sg70
g2471
sg63
(lp2478
g56
(g77
g58
NtRp2479
(dp2480
g61
(dp2481
g81
g82
ssg70
g2475
sg63
(lp2482
S'HTTP_ACCEPT'
p2483
asbag56
(g77
g58
NtRp2484
(dp2485
g61
(dp2486
g88
g89
ssg70
g2475
sg63
(lp2487
S':'
asbag56
(g77
g58
NtRp2488
(dp2489
g61
(dp2490
sg70
g2475
sg63
(lp2491
g56
(g57
g58
NtRp2492
(dp2493
g61
(dp2494
g69
I3
ssg70
g2488
sg63
(lp2495
g1025
asbasbasbag56
(g72
g58
NtRp2496
(dp2497
g61
(dp2498
sg70
g2471
sg63
(lp2499
g56
(g77
g58
NtRp2500
(dp2501
g61
(dp2502
g81
g82
ssg70
g2496
sg63
(lp2503
S'HTTP_ACCEPT_ENCODING'
p2504
asbag56
(g77
g58
NtRp2505
(dp2506
g61
(dp2507
g88
g89
ssg70
g2496
sg63
(lp2508
S':'
asbag56
(g77
g58
NtRp2509
(dp2510
g61
(dp2511
sg70
g2496
sg63
(lp2512
g56
(g57
g58
NtRp2513
(dp2514
g61
(dp2515
g69
I3
ssg70
g2509
sg63
(lp2516
g1047
asbasbasbag56
(g72
g58
NtRp2517
(dp2518
g61
(dp2519
sg70
g2471
sg63
(lp2520
g56
(g77
g58
NtRp2521
(dp2522
g61
(dp2523
g81
g82
ssg70
g2517
sg63
(lp2524
S'HTTP_ACCEPT_LANGUAGE'
p2525
asbag56
(g77
g58
NtRp2526
(dp2527
g61
(dp2528
g88
g89
ssg70
g2517
sg63
(lp2529
S':'
asbag56
(g77
g58
NtRp2530
(dp2531
g61
(dp2532
sg70
g2517
sg63
(lp2533
g56
(g57
g58
NtRp2534
(dp2535
g61
(dp2536
g69
I3
ssg70
g2530
sg63
(lp2537
g1069
asbasbasbag56
(g72
g58
NtRp2538
(dp2539
g61
(dp2540
sg70
g2471
sg63
(lp2541
g56
(g77
g58
NtRp2542
(dp2543
g61
(dp2544
g81
g82
ssg70
g2538
sg63
(lp2545
S'HTTP_CONNECTION'
p2546
asbag56
(g77
g58
NtRp2547
(dp2548
g61
(dp2549
g88
g89
ssg70
g2538
sg63
(lp2550
S':'
asbag56
(g77
g58
NtRp2551
(dp2552
g61
(dp2553
sg70
g2538
sg63
(lp2554
g56
(g57
g58
NtRp2555
(dp2556
g61
(dp2557
g69
I3
ssg70
g2551
sg63
(lp2558
g1091
asbasbasbag56
(g72
g58
NtRp2559
(dp2560
g61
(dp2561
sg70
g2471
sg63
(lp2562
g56
(g77
g58
NtRp2563
(dp2564
g61
(dp2565
g81
g82
ssg70
g2559
sg63
(lp2566
S'HTTP_COOKIE'
p2567
asbag56
(g77
g58
NtRp2568
(dp2569
g61
(dp2570
g88
g89
ssg70
g2559
sg63
(lp2571
S':'
asbag56
(g77
g58
NtRp2572
(dp2573
g61
(dp2574
sg70
g2559
sg63
(lp2575
g56
(g57
g58
NtRp2576
(dp2577
g61
(dp2578
g69
I3
ssg70
g2572
sg63
(lp2579
g1113
asbasbasbag56
(g72
g58
NtRp2580
(dp2581
g61
(dp2582
sg70
g2471
sg63
(lp2583
g56
(g77
g58
NtRp2584
(dp2585
g61
(dp2586
g81
g82
ssg70
g2580
sg63
(lp2587
S'HTTP_HOST'
p2588
asbag56
(g77
g58
NtRp2589
(dp2590
g61
(dp2591
g88
g89
ssg70
g2580
sg63
(lp2592
S':'
asbag56
(g77
g58
NtRp2593
(dp2594
g61
(dp2595
sg70
g2580
sg63
(lp2596
g56
(g57
g58
NtRp2597
(dp2598
g61
(dp2599
g69
I3
ssg70
g2593
sg63
(lp2600
g1135
asbasbasbag56
(g72
g58
NtRp2601
(dp2602
g61
(dp2603
sg70
g2471
sg63
(lp2604
g56
(g77
g58
NtRp2605
(dp2606
g61
(dp2607
g81
g82
ssg70
g2601
sg63
(lp2608
S'HTTP_REFERER'
p2609
asbag56
(g77
g58
NtRp2610
(dp2611
g61
(dp2612
g88
g89
ssg70
g2601
sg63
(lp2613
S':'
asbag56
(g77
g58
NtRp2614
(dp2615
g61
(dp2616
sg70
g2601
sg63
(lp2617
g56
(g57
g58
NtRp2618
(dp2619
g61
(dp2620
g69
I3
ssg70
g2614
sg63
(lp2621
g1157
asbasbasbag56
(g72
g58
NtRp2622
(dp2623
g61
(dp2624
sg70
g2471
sg63
(lp2625
g56
(g77
g58
NtRp2626
(dp2627
g61
(dp2628
g81
g82
ssg70
g2622
sg63
(lp2629
S'HTTP_USER_AGENT'
p2630
asbag56
(g77
g58
NtRp2631
(dp2632
g61
(dp2633
g88
g89
ssg70
g2622
sg63
(lp2634
S':'
asbag56
(g77
g58
NtRp2635
(dp2636
g61
(dp2637
sg70
g2622
sg63
(lp2638
g56
(g57
g58
NtRp2639
(dp2640
g61
(dp2641
g69
I3
ssg70
g2635
sg63
(lp2642
g1179
asbasbasbag56
(g72
g58
NtRp2643
(dp2644
g61
(dp2645
sg70
g2471
sg63
(lp2646
g56
(g77
g58
NtRp2647
(dp2648
g61
(dp2649
g81
g82
ssg70
g2643
sg63
(lp2650
S'HTTP_WEB2PY_COMPONENT_ELEMENT'
p2651
asbag56
(g77
g58
NtRp2652
(dp2653
g61
(dp2654
g88
g89
ssg70
g2643
sg63
(lp2655
S':'
asbag56
(g77
g58
NtRp2656
(dp2657
g61
(dp2658
sg70
g2643
sg63
(lp2659
g56
(g57
g58
NtRp2660
(dp2661
g61
(dp2662
g69
I3
ssg70
g2656
sg63
(lp2663
g189
asbasbasbag56
(g72
g58
NtRp2664
(dp2665
g61
(dp2666
sg70
g2471
sg63
(lp2667
g56
(g77
g58
NtRp2668
(dp2669
g61
(dp2670
g81
g82
ssg70
g2664
sg63
(lp2671
S'HTTP_WEB2PY_COMPONENT_LOCATION'
p2672
asbag56
(g77
g58
NtRp2673
(dp2674
g61
(dp2675
g88
g89
ssg70
g2664
sg63
(lp2676
S':'
asbag56
(g77
g58
NtRp2677
(dp2678
g61
(dp2679
sg70
g2664
sg63
(lp2680
g56
(g57
g58
NtRp2681
(dp2682
g61
(dp2683
g69
I3
ssg70
g2677
sg63
(lp2684
g1222
asbasbasbag56
(g72
g58
NtRp2685
(dp2686
g61
(dp2687
sg70
g2471
sg63
(lp2688
g56
(g77
g58
NtRp2689
(dp2690
g61
(dp2691
g81
g82
ssg70
g2685
sg63
(lp2692
S'HTTP_X_REQUESTED_WITH'
p2693
asbag56
(g77
g58
NtRp2694
(dp2695
g61
(dp2696
g88
g89
ssg70
g2685
sg63
(lp2697
S':'
asbag56
(g77
g58
NtRp2698
(dp2699
g61
(dp2700
sg70
g2685
sg63
(lp2701
g56
(g57
g58
NtRp2702
(dp2703
g61
(dp2704
g69
I3
ssg70
g2698
sg63
(lp2705
g1244
asbasbasbag56
(g72
g58
NtRp2706
(dp2707
g61
(dp2708
sg70
g2471
sg63
(lp2709
g56
(g77
g58
NtRp2710
(dp2711
g61
(dp2712
g81
g82
ssg70
g2706
sg63
(lp2713
S'PATH_INFO'
p2714
asbag56
(g77
g58
NtRp2715
(dp2716
g61
(dp2717
g88
g89
ssg70
g2706
sg63
(lp2718
S':'
asbag56
(g77
g58
NtRp2719
(dp2720
g61
(dp2721
sg70
g2706
sg63
(lp2722
g56
(g57
g58
NtRp2723
(dp2724
g61
(dp2725
g69
I3
ssg70
g2719
sg63
(lp2726
g1287
asbasbasbag56
(g72
g58
NtRp2727
(dp2728
g61
(dp2729
sg70
g2471
sg63
(lp2730
g56
(g77
g58
NtRp2731
(dp2732
g61
(dp2733
g81
g82
ssg70
g2727
sg63
(lp2734
S'QUERY_STRING'
p2735
asbag56
(g77
g58
NtRp2736
(dp2737
g61
(dp2738
g88
g89
ssg70
g2727
sg63
(lp2739
S':'
asbag56
(g77
g58
NtRp2740
(dp2741
g61
(dp2742
sg70
g2727
sg63
(lp2743
g56
(g57
g58
NtRp2744
(dp2745
g61
(dp2746
g69
I3
ssg70
g2740
sg63
(lp2747
S''
asbasbasbag56
(g72
g58
NtRp2748
(dp2749
g61
(dp2750
sg70
g2471
sg63
(lp2751
g56
(g77
g58
NtRp2752
(dp2753
g61
(dp2754
g81
g82
ssg70
g2748
sg63
(lp2755
S'REMOTE_ADDR'
p2756
asbag56
(g77
g58
NtRp2757
(dp2758
g61
(dp2759
g88
g89
ssg70
g2748
sg63
(lp2760
S':'
asbag56
(g77
g58
NtRp2761
(dp2762
g61
(dp2763
sg70
g2748
sg63
(lp2764
g56
(g57
g58
NtRp2765
(dp2766
g61
(dp2767
g69
I3
ssg70
g2761
sg63
(lp2768
g211
asbasbasbag56
(g72
g58
NtRp2769
(dp2770
g61
(dp2771
sg70
g2471
sg63
(lp2772
g56
(g77
g58
NtRp2773
(dp2774
g61
(dp2775
g81
g82
ssg70
g2769
sg63
(lp2776
S'REMOTE_PORT'
p2777
asbag56
(g77
g58
NtRp2778
(dp2779
g61
(dp2780
g88
g89
ssg70
g2769
sg63
(lp2781
S':'
asbag56
(g77
g58
NtRp2782
(dp2783
g61
(dp2784
sg70
g2769
sg63
(lp2785
g56
(g57
g58
NtRp2786
(dp2787
g61
(dp2788
g69
I3
ssg70
g2782
sg63
(lp2789
g1351
asbasbasbag56
(g72
g58
NtRp2790
(dp2791
g61
(dp2792
sg70
g2471
sg63
(lp2793
g56
(g77
g58
NtRp2794
(dp2795
g61
(dp2796
g81
g82
ssg70
g2790
sg63
(lp2797
S'REQUEST_METHOD'
p2798
asbag56
(g77
g58
NtRp2799
(dp2800
g61
(dp2801
g88
g89
ssg70
g2790
sg63
(lp2802
S':'
asbag56
(g77
g58
NtRp2803
(dp2804
g61
(dp2805
sg70
g2790
sg63
(lp2806
g56
(g57
g58
NtRp2807
(dp2808
g61
(dp2809
g69
I3
ssg70
g2803
sg63
(lp2810
g1373
asbasbasbag56
(g72
g58
NtRp2811
(dp2812
g61
(dp2813
sg70
g2471
sg63
(lp2814
g56
(g77
g58
NtRp2815
(dp2816
g61
(dp2817
g81
g82
ssg70
g2811
sg63
(lp2818
S'SCRIPT_NAME'
p2819
asbag56
(g77
g58
NtRp2820
(dp2821
g61
(dp2822
g88
g89
ssg70
g2811
sg63
(lp2823
S':'
asbag56
(g77
g58
NtRp2824
(dp2825
g61
(dp2826
sg70
g2811
sg63
(lp2827
g56
(g57
g58
NtRp2828
(dp2829
g61
(dp2830
g69
I3
ssg70
g2824
sg63
(lp2831
S''
asbasbasbag56
(g72
g58
NtRp2832
(dp2833
g61
(dp2834
sg70
g2471
sg63
(lp2835
g56
(g77
g58
NtRp2836
(dp2837
g61
(dp2838
g81
g82
ssg70
g2832
sg63
(lp2839
S'SERVER_NAME'
p2840
asbag56
(g77
g58
NtRp2841
(dp2842
g61
(dp2843
g88
g89
ssg70
g2832
sg63
(lp2844
S':'
asbag56
(g77
g58
NtRp2845
(dp2846
g61
(dp2847
sg70
g2832
sg63
(lp2848
g56
(g57
g58
NtRp2849
(dp2850
g61
(dp2851
g69
I3
ssg70
g2845
sg63
(lp2852
g1416
asbasbasbag56
(g72
g58
NtRp2853
(dp2854
g61
(dp2855
sg70
g2471
sg63
(lp2856
g56
(g77
g58
NtRp2857
(dp2858
g61
(dp2859
g81
g82
ssg70
g2853
sg63
(lp2860
S'SERVER_PORT'
p2861
asbag56
(g77
g58
NtRp2862
(dp2863
g61
(dp2864
g88
g89
ssg70
g2853
sg63
(lp2865
S':'
asbag56
(g77
g58
NtRp2866
(dp2867
g61
(dp2868
sg70
g2853
sg63
(lp2869
g56
(g57
g58
NtRp2870
(dp2871
g61
(dp2872
g69
I3
ssg70
g2866
sg63
(lp2873
g1438
asbasbasbag56
(g72
g58
NtRp2874
(dp2875
g61
(dp2876
sg70
g2471
sg63
(lp2877
g56
(g77
g58
NtRp2878
(dp2879
g61
(dp2880
g81
g82
ssg70
g2874
sg63
(lp2881
S'SERVER_PROTOCOL'
p2882
asbag56
(g77
g58
NtRp2883
(dp2884
g61
(dp2885
g88
g89
ssg70
g2874
sg63
(lp2886
S':'
asbag56
(g77
g58
NtRp2887
(dp2888
g61
(dp2889
sg70
g2874
sg63
(lp2890
g56
(g57
g58
NtRp2891
(dp2892
g61
(dp2893
g69
I3
ssg70
g2887
sg63
(lp2894
g1460
asbasbasbag56
(g72
g58
NtRp2895
(dp2896
g61
(dp2897
sg70
g2471
sg63
(lp2898
g56
(g77
g58
NtRp2899
(dp2900
g61
(dp2901
g81
g82
ssg70
g2895
sg63
(lp2902
S'SERVER_SOFTWARE'
p2903
asbag56
(g77
g58
NtRp2904
(dp2905
g61
(dp2906
g88
g89
ssg70
g2895
sg63
(lp2907
S':'
asbag56
(g77
g58
NtRp2908
(dp2909
g61
(dp2910
sg70
g2895
sg63
(lp2911
g56
(g57
g58
NtRp2912
(dp2913
g61
(dp2914
g69
I3
ssg70
g2908
sg63
(lp2915
g1482
asbasbasbag56
(g72
g58
NtRp2916
(dp2917
g61
(dp2918
sg70
g2471
sg63
(lp2919
g56
(g77
g58
NtRp2920
(dp2921
g61
(dp2922
g81
g82
ssg70
g2916
sg63
(lp2923
S'wsgi.errors'
p2924
asbag56
(g77
g58
NtRp2925
(dp2926
g61
(dp2927
g88
g89
ssg70
g2916
sg63
(lp2928
S':'
asbag56
(g77
g58
NtRp2929
(dp2930
g61
(dp2931
sg70
g2916
sg63
(lp2932
g56
(g57
g58
NtRp2933
(dp2934
g61
(dp2935
g69
I3
ssg70
g2929
sg63
(lp2936
S"<open file '<stderr>', mode 'w' at 0x7f1a4db92270>"
p2937
asbasbasbag56
(g72
g58
NtRp2938
(dp2939
g61
(dp2940
sg70
g2471
sg63
(lp2941
g56
(g77
g58
NtRp2942
(dp2943
g61
(dp2944
g81
g82
ssg70
g2938
sg63
(lp2945
S'wsgi.file_wrapper'
p2946
asbag56
(g77
g58
NtRp2947
(dp2948
g61
(dp2949
g88
g89
ssg70
g2938
sg63
(lp2950
S':'
asbag56
(g77
g58
NtRp2951
(dp2952
g61
(dp2953
sg70
g2938
sg63
(lp2954
g56
(g57
g58
NtRp2955
(dp2956
g61
(dp2957
g69
I3
ssg70
g2951
sg63
(lp2958
S'<class wsgiref.util.FileWrapper at 0x21fc870>'
p2959
asbasbasbag56
(g72
g58
NtRp2960
(dp2961
g61
(dp2962
sg70
g2471
sg63
(lp2963
g56
(g77
g58
NtRp2964
(dp2965
g61
(dp2966
g81
g82
ssg70
g2960
sg63
(lp2967
S'wsgi.input'
p2968
asbag56
(g77
g58
NtRp2969
(dp2970
g61
(dp2971
g88
g89
ssg70
g2960
sg63
(lp2972
S':'
asbag56
(g77
g58
NtRp2973
(dp2974
g61
(dp2975
sg70
g2960
sg63
(lp2976
g56
(g57
g58
NtRp2977
(dp2978
g61
(dp2979
g69
I3
ssg70
g2973
sg63
(lp2980
S'<cStringIO.StringO object at 0x8bd0260>'
p2981
asbasbasbag56
(g72
g58
NtRp2982
(dp2983
g61
(dp2984
sg70
g2471
sg63
(lp2985
g56
(g77
g58
NtRp2986
(dp2987
g61
(dp2988
g81
g82
ssg70
g2982
sg63
(lp2989
S'wsgi.multiprocess'
p2990
asbag56
(g77
g58
NtRp2991
(dp2992
g61
(dp2993
g88
g89
ssg70
g2982
sg63
(lp2994
S':'
asbag56
(g77
g58
NtRp2995
(dp2996
g61
(dp2997
sg70
g2982
sg63
(lp2998
g56
(g57
g58
NtRp2999
(dp3000
g61
(dp3001
g69
I3
ssg70
g2995
sg63
(lp3002
g981
asbasbasbag56
(g72
g58
NtRp3003
(dp3004
g61
(dp3005
sg70
g2471
sg63
(lp3006
g56
(g77
g58
NtRp3007
(dp3008
g61
(dp3009
g81
g82
ssg70
g3003
sg63
(lp3010
S'wsgi.multithread'
p3011
asbag56
(g77
g58
NtRp3012
(dp3013
g61
(dp3014
g88
g89
ssg70
g3003
sg63
(lp3015
S':'
asbag56
(g77
g58
NtRp3016
(dp3017
g61
(dp3018
sg70
g3003
sg63
(lp3019
g56
(g57
g58
NtRp3020
(dp3021
g61
(dp3022
g69
I3
ssg70
g3016
sg63
(lp3023
g99
asbasbasbag56
(g72
g58
NtRp3024
(dp3025
g61
(dp3026
sg70
g2471
sg63
(lp3027
g56
(g77
g58
NtRp3028
(dp3029
g61
(dp3030
g81
g82
ssg70
g3024
sg63
(lp3031
S'wsgi.run_once'
p3032
asbag56
(g77
g58
NtRp3033
(dp3034
g61
(dp3035
g88
g89
ssg70
g3024
sg63
(lp3036
S':'
asbag56
(g77
g58
NtRp3037
(dp3038
g61
(dp3039
sg70
g3024
sg63
(lp3040
g56
(g57
g58
NtRp3041
(dp3042
g61
(dp3043
g69
I3
ssg70
g3037
sg63
(lp3044
g981
asbasbasbag56
(g72
g58
NtRp3045
(dp3046
g61
(dp3047
sg70
g2471
sg63
(lp3048
g56
(g77
g58
NtRp3049
(dp3050
g61
(dp3051
g81
g82
ssg70
g3045
sg63
(lp3052
S'wsgi.url_scheme'
p3053
asbag56
(g77
g58
NtRp3054
(dp3055
g61
(dp3056
g88
g89
ssg70
g3045
sg63
(lp3057
S':'
asbag56
(g77
g58
NtRp3058
(dp3059
g61
(dp3060
sg70
g3045
sg63
(lp3061
g56
(g57
g58
NtRp3062
(dp3063
g61
(dp3064
g69
I3
ssg70
g3058
sg63
(lp3065
g1764
asbasbasbag56
(g72
g58
NtRp3066
(dp3067
g61
(dp3068
sg70
g2471
sg63
(lp3069
g56
(g77
g58
NtRp3070
(dp3071
g61
(dp3072
g81
g82
ssg70
g3066
sg63
(lp3073
S'wsgi.version'
p3074
asbag56
(g77
g58
NtRp3075
(dp3076
g61
(dp3077
g88
g89
ssg70
g3066
sg63
(lp3078
S':'
asbag56
(g77
g58
NtRp3079
(dp3080
g61
(dp3081
sg70
g3066
sg63
(lp3082
g56
(g57
g58
NtRp3083
(dp3084
g61
(dp3085
g69
I3
ssg70
g3079
sg63
(lp3086
S'1'
asbasbasbasbasbasbasbasbasbasbasbasbasbsS'frames'
p3087
(lp3088
(dp3089
S'file'
p3090
S'/home/ian/web2py/gluon/restricted.py'
p3091
sS'dump'
p3092
(dp3093
S'environment'
p3094
S"{'A': <class 'gluon.html.A'>, 'Auth': <class 'gluon.tools.Auth'>, 'B': <class 'gluon.html.B'>, 'BEAUTIFY': <class 'gluon.html.BEAUTIFY'>, 'BODY': <class 'gluon.html.BODY'>, 'BR': <class 'gluon.html.BR'>, 'BUTTON': <class 'gluon.html.BUTTON'>, 'CAT': <class 'gluon.html.CAT'>, 'CENTER': <class 'gluon.html.CENTER'>, 'CLEANUP': <class 'gluon.validators.CLEANUP'>, ...}"
p3095
sS'ccode'
p3096
S'<code object <module> at 0x8fc50b0, file "/home/...lications/grades/controllers/default.py", line 2>'
p3097
ssS'lnum'
p3098
I194
sS'lines'
p3099
(dp3100
I192
S'        else:'
p3101
sI193
S'            ccode = compile2(code,layer)'
p3102
sI194
S'        exec ccode in environment'
p3103
sI195
S'    except HTTP:'
p3104
sI196
S'        raise'
p3105
sI197
S'    except Exception, error:'
p3106
sI198
S'        # XXX Show exception in Wing IDE if running in debugger'
p3107
sI189
S'    try:'
p3108
sI190
S'        if type(code) == types.CodeType:'
p3109
sI191
S'            ccode = code'
p3110
ssS'call'
p3111
S"(code='# -*- coding: utf-8 -*-\\nfrom gluon import * \\nimp... \\nresponse._vars=response._caller(grades_report)\\n', environment={'A': <class 'gluon.html.A'>, 'Auth': <class 'gluon.tools.Auth'>, 'B': <class 'gluon.html.B'>, 'BEAUTIFY': <class 'gluon.html.BEAUTIFY'>, 'BODY': <class 'gluon.html.BODY'>, 'BR': <class 'gluon.html.BR'>, 'BUTTON': <class 'gluon.html.BUTTON'>, 'CAT': <class 'gluon.html.CAT'>, 'CENTER': <class 'gluon.html.CENTER'>, 'CLEANUP': <class 'gluon.validators.CLEANUP'>, ...}, layer='/home/ian/web2py/applications/grades/controllers/default.py')"
p3112
sS'func'
p3113
S'restricted'
p3114
sa(dp3115
g3090
S'/home/ian/web2py/applications/grades/controllers/default.py'
p3116
sg3092
(dp3117
sg3098
I62
sg3099
(dp3118
I52
S'            dates = g[the_course]'
p3119
sI53
S'            if the_date in dates:'
p3120
sI54
S'                dates[the_date].append(r.grade)'
p3121
sI55
S'            else:'
p3122
sI56
S'                dates[the_date] = [r.grade]'
p3123
sI57
S'        else:'
p3124
sI58
S'            l = [r.grade]'
p3125
sI59
S'            the_date = r.class_date'
p3126
sI60
S'            g[r.course] = dict(the_date = l)'
p3127
sI61
S'    return dict(grades = g, students = students, student = student)'
p3128
ssg3111
S'()'
p3129
sg3113
S'<module>'
p3130
sa(dp3131
g3090
S'/home/ian/web2py/gluon/globals.py'
p3132
sg3092
(dp3133
S'self'
p3134
S'undefined'
p3135
sS'f'
S'<function grades_report>'
p3136
ssg3098
I149
sg3099
(dp3137
I144
S'        self.meta = Storage()      # used by web2py_ajax.html'
p3138
sI145
S'        self.menu = []             # used by the default view layout'
p3139
sI146
S'        self.files = []            # used by web2py_ajax.html'
p3140
sI147
S'        self.generic_patterns = [] # patterns to allow generic views'
p3141
sI148
S'        self._vars = None'
p3142
sI149
S'        self._caller = lambda f: f()'
p3143
sI150
S'        self._view_environment = None'
p3144
sI151
S'        self._custom_commit = None'
p3145
sI152
S'        self._custom_rollback = None'
p3146
sI153
S''
ssg3111
S'(f=<function grades_report>)'
p3147
sg3113
S'<lambda>'
p3148
sa(dp3149
g3090
S'/home/ian/web2py/gluon/tools.py'
p3150
sg3092
(dp3151
S'action'
p3152
S'<function grades_report>'
p3153
sS'a'
S'()'
p3154
sS'b'
g44
ssg3098
I2456
sg3099
(dp3155
I2451
S"                            '?_next='+urllib.quote(next))"
p3156
sI2452
S'                if not condition:'
p3157
sI2453
S'                    current.session.flash = self.messages.access_denied'
p3158
sI2454
S'                    return call_or_redirect('
p3159
sI2455
S'                        self.settings.on_failed_authorization)'
p3160
sI2456
S'                return action(*a, **b)'
p3161
sI2457
S'            f.__doc__ = action.__doc__'
p3162
sI2458
S'            f.__name__ = action.__name__'
p3163
sI2459
S'            f.__dict__.update(action.__dict__)'
p3164
sI2460
S'            return f'
p3165
ssg3111
S'(*a=(), **b={})'
p3166
sg3113
S'f'
sa(dp3167
g3090
S'/home/ian/web2py/applications/grades/controllers/default.py'
p3168
sg3092
(dp3169
S'global request'
p3170
S"<Storage {'body': <cStringIO.StringO object at 0..._vars': <Storage {}>, 'post_vars': <Storage {}>}>"
p3171
sS'request.args'
p3172
S'[]'
p3173
sS'u'
g3135
ssg3098
I41
sg3099
(dp3174
I36
S'    for s in student_list:'
p3175
sI37
S'        sindex = s.id'
p3176
sI38
S'        slast = s.last_name'
p3177
sI39
S'        sfirst = s.first_name'
p3178
sI40
S"        students[sindex] = slast + ', ' + sfirst"
p3179
sI41
S'    u = request.args[0]'
p3180
sI42
S'    n = db.auth_user[u]'
p3181
sI43
S"    student = n.last_name + ', ' + n.first_name"
p3182
sI44
S'    gradelist = db(db.grades.name == u).select()'
p3183
sI45
S'    session.debug = request.args[0]'
p3184
ssg3111
S'()'
p3185
sg3113
S'grades_report'
p3186
sasS'pyver'
p3187
S'Python 2.7.2+: /usr/bin/python2.7'
p3188
sS'session'
p3189
g56
(g57
g58
NtRp3190
(dp3191
g61
(dp3192
sg63
(lp3193
g56
(g65
g58
NtRp3194
(dp3195
g61
(dp3196
g69
I5
ssg70
Nsg63
(lp3197
g56
(g72
g58
NtRp3198
(dp3199
g61
(dp3200
sg70
g3194
sg63
(lp3201
g56
(g77
g58
NtRp3202
(dp3203
g61
(dp3204
g81
g82
ssg70
g3198
sg63
(lp3205
S'auth'
p3206
asbag56
(g77
g58
NtRp3207
(dp3208
g61
(dp3209
g88
g89
ssg70
g3198
sg63
(lp3210
S':'
asbag56
(g77
g58
NtRp3211
(dp3212
g61
(dp3213
sg70
g3198
sg63
(lp3214
g56
(g57
g58
NtRp3215
(dp3216
g61
(dp3217
g69
I5
ssg70
g3211
sg63
(lp3218
g56
(g65
g58
NtRp3219
(dp3220
g61
(dp3221
g69
I4
ssg70
Nsg63
(lp3222
g56
(g72
g58
NtRp3223
(dp3224
g61
(dp3225
sg70
g3219
sg63
(lp3226
g56
(g77
g58
NtRp3227
(dp3228
g61
(dp3229
g81
g82
ssg70
g3223
sg63
(lp3230
S'expiration'
p3231
asbag56
(g77
g58
NtRp3232
(dp3233
g61
(dp3234
g88
g89
ssg70
g3223
sg63
(lp3235
S':'
asbag56
(g77
g58
NtRp3236
(dp3237
g61
(dp3238
sg70
g3223
sg63
(lp3239
g56
(g57
g58
NtRp3240
(dp3241
g61
(dp3242
g69
I4
ssg70
g3236
sg63
(lp3243
S'2592000'
p3244
asbasbasbag56
(g72
g58
NtRp3245
(dp3246
g61
(dp3247
sg70
g3219
sg63
(lp3248
g56
(g77
g58
NtRp3249
(dp3250
g61
(dp3251
g81
g82
ssg70
g3245
sg63
(lp3252
S'hmac_key'
p3253
asbag56
(g77
g58
NtRp3254
(dp3255
g61
(dp3256
g88
g89
ssg70
g3245
sg63
(lp3257
S':'
asbag56
(g77
g58
NtRp3258
(dp3259
g61
(dp3260
sg70
g3245
sg63
(lp3261
g56
(g57
g58
NtRp3262
(dp3263
g61
(dp3264
g69
I4
ssg70
g3258
sg63
(lp3265
S'7662103e-e580-4791-b95a-39c18813d8df'
p3266
asbasbasbag56
(g72
g58
NtRp3267
(dp3268
g61
(dp3269
sg70
g3219
sg63
(lp3270
g56
(g77
g58
NtRp3271
(dp3272
g61
(dp3273
g81
g82
ssg70
g3267
sg63
(lp3274
S'last_visit'
p3275
asbag56
(g77
g58
NtRp3276
(dp3277
g61
(dp3278
g88
g89
ssg70
g3267
sg63
(lp3279
S':'
asbag56
(g77
g58
NtRp3280
(dp3281
g61
(dp3282
sg70
g3267
sg63
(lp3283
g56
(g57
g58
NtRp3284
(dp3285
g61
(dp3286
g69
I4
ssg70
g3280
sg63
(lp3287
S'datetime.datetime(2011, 11, 3, 16, 16, 8, 558332)'
p3288
asbasbasbag56
(g72
g58
NtRp3289
(dp3290
g61
(dp3291
sg70
g3219
sg63
(lp3292
g56
(g77
g58
NtRp3293
(dp3294
g61
(dp3295
g81
g82
ssg70
g3289
sg63
(lp3296
S'remember'
p3297
asbag56
(g77
g58
NtRp3298
(dp3299
g61
(dp3300
g88
g89
ssg70
g3289
sg63
(lp3301
S':'
asbag56
(g77
g58
NtRp3302
(dp3303
g61
(dp3304
sg70
g3289
sg63
(lp3305
g56
(g57
g58
NtRp3306
(dp3307
g61
(dp3308
g69
I4
ssg70
g3302
sg63
(lp3309
g981
asbasbasbag56
(g72
g58
NtRp3310
(dp3311
g61
(dp3312
sg70
g3219
sg63
(lp3313
g56
(g77
g58
NtRp3314
(dp3315
g61
(dp3316
g81
g82
ssg70
g3310
sg63
(lp3317
S'user'
p3318
asbag56
(g77
g58
NtRp3319
(dp3320
g61
(dp3321
g88
g89
ssg70
g3310
sg63
(lp3322
S':'
asbag56
(g77
g58
NtRp3323
(dp3324
g61
(dp3325
sg70
g3310
sg63
(lp3326
g56
(g57
g58
NtRp3327
(dp3328
g61
(dp3329
g69
I4
ssg70
g3323
sg63
(lp3330
g56
(g65
g58
NtRp3331
(dp3332
g61
(dp3333
g69
I3
ssg70
Nsg63
(lp3334
g56
(g72
g58
NtRp3335
(dp3336
g61
(dp3337
sg70
g3331
sg63
(lp3338
g56
(g77
g58
NtRp3339
(dp3340
g61
(dp3341
g81
g82
ssg70
g3335
sg63
(lp3342
S'email'
p3343
asbag56
(g77
g58
NtRp3344
(dp3345
g61
(dp3346
g88
g89
ssg70
g3335
sg63
(lp3347
S':'
asbag56
(g77
g58
NtRp3348
(dp3349
g61
(dp3350
sg70
g3335
sg63
(lp3351
g56
(g57
g58
NtRp3352
(dp3353
g61
(dp3354
g69
I3
ssg70
g3348
sg63
(lp3355
S'scottianw@gmail.com'
p3356
asbasbasbag56
(g72
g58
NtRp3357
(dp3358
g61
(dp3359
sg70
g3331
sg63
(lp3360
g56
(g77
g58
NtRp3361
(dp3362
g61
(dp3363
g81
g82
ssg70
g3357
sg63
(lp3364
S'first_name'
p3365
asbag56
(g77
g58
NtRp3366
(dp3367
g61
(dp3368
g88
g89
ssg70
g3357
sg63
(lp3369
S':'
asbag56
(g77
g58
NtRp3370
(dp3371
g61
(dp3372
sg70
g3357
sg63
(lp3373
g56
(g57
g58
NtRp3374
(dp3375
g61
(dp3376
g69
I3
ssg70
g3370
sg63
(lp3377
S'Ian'
p3378
asbasbasbag56
(g72
g58
NtRp3379
(dp3380
g61
(dp3381
sg70
g3331
sg63
(lp3382
g56
(g77
g58
NtRp3383
(dp3384
g61
(dp3385
g81
g82
ssg70
g3379
sg63
(lp3386
S'id'
p3387
asbag56
(g77
g58
NtRp3388
(dp3389
g61
(dp3390
g88
g89
ssg70
g3379
sg63
(lp3391
S':'
asbag56
(g77
g58
NtRp3392
(dp3393
g61
(dp3394
sg70
g3379
sg63
(lp3395
g56
(g57
g58
NtRp3396
(dp3397
g61
(dp3398
g69
I3
ssg70
g3392
sg63
(lp3399
S'11'
p3400
asbasbasbag56
(g72
g58
NtRp3401
(dp3402
g61
(dp3403
sg70
g3331
sg63
(lp3404
g56
(g77
g58
NtRp3405
(dp3406
g61
(dp3407
g81
g82
ssg70
g3401
sg63
(lp3408
S'last_name'
p3409
asbag56
(g77
g58
NtRp3410
(dp3411
g61
(dp3412
g88
g89
ssg70
g3401
sg63
(lp3413
S':'
asbag56
(g77
g58
NtRp3414
(dp3415
g61
(dp3416
sg70
g3401
sg63
(lp3417
g56
(g57
g58
NtRp3418
(dp3419
g61
(dp3420
g69
I3
ssg70
g3414
sg63
(lp3421
S'Scott'
p3422
asbasbasbag56
(g72
g58
NtRp3423
(dp3424
g61
(dp3425
sg70
g3331
sg63
(lp3426
g56
(g77
g58
NtRp3427
(dp3428
g61
(dp3429
g81
g82
ssg70
g3423
sg63
(lp3430
S'password'
p3431
asbag56
(g77
g58
NtRp3432
(dp3433
g61
(dp3434
g88
g89
ssg70
g3423
sg63
(lp3435
S':'
asbag56
(g77
g58
NtRp3436
(dp3437
g61
(dp3438
sg70
g3423
sg63
(lp3439
g56
(g57
g58
NtRp3440
(dp3441
g61
(dp3442
g69
I3
ssg70
g3436
sg63
(lp3443
S'351bc855a8ae4839e89ee60d2f279ed9'
p3444
asbasbasbag56
(g72
g58
NtRp3445
(dp3446
g61
(dp3447
sg70
g3331
sg63
(lp3448
g56
(g77
g58
NtRp3449
(dp3450
g61
(dp3451
g81
g82
ssg70
g3445
sg63
(lp3452
S'registration_key'
p3453
asbag56
(g77
g58
NtRp3454
(dp3455
g61
(dp3456
g88
g89
ssg70
g3445
sg63
(lp3457
S':'
asbag56
(g77
g58
NtRp3458
(dp3459
g61
(dp3460
sg70
g3445
sg63
(lp3461
g56
(g57
g58
NtRp3462
(dp3463
g61
(dp3464
g69
I3
ssg70
g3458
sg63
(lp3465
S''
asbasbasbag56
(g72
g58
NtRp3466
(dp3467
g61
(dp3468
sg70
g3331
sg63
(lp3469
g56
(g77
g58
NtRp3470
(dp3471
g61
(dp3472
g81
g82
ssg70
g3466
sg63
(lp3473
S'reset_password_key'
p3474
asbag56
(g77
g58
NtRp3475
(dp3476
g61
(dp3477
g88
g89
ssg70
g3466
sg63
(lp3478
S':'
asbag56
(g77
g58
NtRp3479
(dp3480
g61
(dp3481
sg70
g3466
sg63
(lp3482
g56
(g57
g58
NtRp3483
(dp3484
g61
(dp3485
g69
I3
ssg70
g3479
sg63
(lp3486
S''
asbasbasbasbasbasbasbasbasbasbasbag56
(g72
g58
NtRp3487
(dp3488
g61
(dp3489
sg70
g3194
sg63
(lp3490
g56
(g77
g58
NtRp3491
(dp3492
g61
(dp3493
g81
g82
ssg70
g3487
sg63
(lp3494
S'debug'
p3495
asbag56
(g77
g58
NtRp3496
(dp3497
g61
(dp3498
g88
g89
ssg70
g3487
sg63
(lp3499
S':'
asbag56
(g77
g58
NtRp3500
(dp3501
g61
(dp3502
sg70
g3487
sg63
(lp3503
g56
(g57
g58
NtRp3504
(dp3505
g61
(dp3506
g69
I5
ssg70
g3500
sg63
(lp3507
S'15'
p3508
asbasbasbasbasbsS'etype'
p3509
S"<type 'exceptions.IndexError'>"
p3510
sS'date'
p3511
S'Thu Nov  3 16:16:10 2011'
p3512
sS'response'
p3513
g56
(g57
g58
NtRp3514
(dp3515
g61
(dp3516
sg63
(lp3517
g56
(g65
g58
NtRp3518
(dp3519
g61
(dp3520
g69
I5
ssg70
Nsg63
(lp3521
g56
(g72
g58
NtRp3522
(dp3523
g61
(dp3524
sg70
g3518
sg63
(lp3525
g56
(g77
g58
NtRp3526
(dp3527
g61
(dp3528
g81
g82
ssg70
g3522
sg63
(lp3529
g154
asbag56
(g77
g58
NtRp3530
(dp3531
g61
(dp3532
g88
g89
ssg70
g3522
sg63
(lp3533
S':'
asbag56
(g77
g58
NtRp3534
(dp3535
g61
(dp3536
sg70
g3522
sg63
(lp3537
g56
(g57
g58
NtRp3538
(dp3539
g61
(dp3540
g69
I5
ssg70
g3534
sg63
(lp3541
S'<cStringIO.StringO object at 0x8af2618>'
p3542
asbasbasbag56
(g72
g58
NtRp3543
(dp3544
g61
(dp3545
sg70
g3518
sg63
(lp3546
g56
(g77
g58
NtRp3547
(dp3548
g61
(dp3549
g81
g82
ssg70
g3543
sg63
(lp3550
g242
asbag56
(g77
g58
NtRp3551
(dp3552
g61
(dp3553
g88
g89
ssg70
g3543
sg63
(lp3554
S':'
asbag56
(g77
g58
NtRp3555
(dp3556
g61
(dp3557
sg70
g3543
sg63
(lp3558
g56
(g57
g58
NtRp3559
(dp3560
g61
(dp3561
g69
I5
ssg70
g3555
sg63
(lp3562
g56
(g65
g58
NtRp3563
(dp3564
g61
(dp3565
g69
I4
ssg70
Nsg63
(lp3566
g56
(g72
g58
NtRp3567
(dp3568
g61
(dp3569
sg70
g3563
sg63
(lp3570
g56
(g77
g58
NtRp3571
(dp3572
g61
(dp3573
g81
g82
ssg70
g3567
sg63
(lp3574
S'session_id_grades'
p3575
asbag56
(g77
g58
NtRp3576
(dp3577
g61
(dp3578
g88
g89
ssg70
g3567
sg63
(lp3579
S':'
asbag56
(g77
g58
NtRp3580
(dp3581
g61
(dp3582
sg70
g3567
sg63
(lp3583
g56
(g57
g58
NtRp3584
(dp3585
g61
(dp3586
g69
I4
ssg70
g3580
sg63
(lp3587
g56
(g65
g58
NtRp3588
(dp3589
g61
(dp3590
g69
I3
ssg70
Nsg63
(lp3591
g56
(g72
g58
NtRp3592
(dp3593
g61
(dp3594
sg70
g3588
sg63
(lp3595
g56
(g77
g58
NtRp3596
(dp3597
g61
(dp3598
g81
g82
ssg70
g3592
sg63
(lp3599
g292
asbag56
(g77
g58
NtRp3600
(dp3601
g61
(dp3602
g88
g89
ssg70
g3592
sg63
(lp3603
S':'
asbag56
(g77
g58
NtRp3604
(dp3605
g61
(dp3606
sg70
g3592
sg63
(lp3607
g56
(g57
g58
NtRp3608
(dp3609
g61
(dp3610
g69
I3
ssg70
g3604
sg63
(lp3611
S''
asbasbasbag56
(g72
g58
NtRp3612
(dp3613
g61
(dp3614
sg70
g3588
sg63
(lp3615
g56
(g77
g58
NtRp3616
(dp3617
g61
(dp3618
g81
g82
ssg70
g3612
sg63
(lp3619
g313
asbag56
(g77
g58
NtRp3620
(dp3621
g61
(dp3622
g88
g89
ssg70
g3612
sg63
(lp3623
S':'
asbag56
(g77
g58
NtRp3624
(dp3625
g61
(dp3626
sg70
g3612
sg63
(lp3627
g56
(g57
g58
NtRp3628
(dp3629
g61
(dp3630
g69
I3
ssg70
g3624
sg63
(lp3631
S''
asbasbasbag56
(g72
g58
NtRp3632
(dp3633
g61
(dp3634
sg70
g3588
sg63
(lp3635
g56
(g77
g58
NtRp3636
(dp3637
g61
(dp3638
g81
g82
ssg70
g3632
sg63
(lp3639
g334
asbag56
(g77
g58
NtRp3640
(dp3641
g61
(dp3642
g88
g89
ssg70
g3632
sg63
(lp3643
S':'
asbag56
(g77
g58
NtRp3644
(dp3645
g61
(dp3646
sg70
g3632
sg63
(lp3647
g56
(g57
g58
NtRp3648
(dp3649
g61
(dp3650
g69
I3
ssg70
g3644
sg63
(lp3651
S''
asbasbasbag56
(g72
g58
NtRp3652
(dp3653
g61
(dp3654
sg70
g3588
sg63
(lp3655
g56
(g77
g58
NtRp3656
(dp3657
g61
(dp3658
g81
g82
ssg70
g3652
sg63
(lp3659
g355
asbag56
(g77
g58
NtRp3660
(dp3661
g61
(dp3662
g88
g89
ssg70
g3652
sg63
(lp3663
S':'
asbag56
(g77
g58
NtRp3664
(dp3665
g61
(dp3666
sg70
g3652
sg63
(lp3667
g56
(g57
g58
NtRp3668
(dp3669
g61
(dp3670
g69
I3
ssg70
g3664
sg63
(lp3671
S''
asbasbasbag56
(g72
g58
NtRp3672
(dp3673
g61
(dp3674
sg70
g3588
sg63
(lp3675
g56
(g77
g58
NtRp3676
(dp3677
g61
(dp3678
g81
g82
ssg70
g3672
sg63
(lp3679
g376
asbag56
(g77
g58
NtRp3680
(dp3681
g61
(dp3682
g88
g89
ssg70
g3672
sg63
(lp3683
S':'
asbag56
(g77
g58
NtRp3684
(dp3685
g61
(dp3686
sg70
g3672
sg63
(lp3687
g56
(g57
g58
NtRp3688
(dp3689
g61
(dp3690
g69
I3
ssg70
g3684
sg63
(lp3691
S''
asbasbasbag56
(g72
g58
NtRp3692
(dp3693
g61
(dp3694
sg70
g3588
sg63
(lp3695
g56
(g77
g58
NtRp3696
(dp3697
g61
(dp3698
g81
g82
ssg70
g3692
sg63
(lp3699
g397
asbag56
(g77
g58
NtRp3700
(dp3701
g61
(dp3702
g88
g89
ssg70
g3692
sg63
(lp3703
S':'
asbag56
(g77
g58
NtRp3704
(dp3705
g61
(dp3706
sg70
g3692
sg63
(lp3707
g56
(g57
g58
NtRp3708
(dp3709
g61
(dp3710
g69
I3
ssg70
g3704
sg63
(lp3711
S'/'
asbasbasbag56
(g72
g58
NtRp3712
(dp3713
g61
(dp3714
sg70
g3588
sg63
(lp3715
g56
(g77
g58
NtRp3716
(dp3717
g61
(dp3718
g81
g82
ssg70
g3712
sg63
(lp3719
g418
asbag56
(g77
g58
NtRp3720
(dp3721
g61
(dp3722
g88
g89
ssg70
g3712
sg63
(lp3723
S':'
asbag56
(g77
g58
NtRp3724
(dp3725
g61
(dp3726
sg70
g3712
sg63
(lp3727
g56
(g57
g58
NtRp3728
(dp3729
g61
(dp3730
g69
I3
ssg70
g3724
sg63
(lp3731
S''
asbasbasbag56
(g72
g58
NtRp3732
(dp3733
g61
(dp3734
sg70
g3588
sg63
(lp3735
g56
(g77
g58
NtRp3736
(dp3737
g61
(dp3738
g81
g82
ssg70
g3732
sg63
(lp3739
g439
asbag56
(g77
g58
NtRp3740
(dp3741
g61
(dp3742
g88
g89
ssg70
g3732
sg63
(lp3743
S':'
asbag56
(g77
g58
NtRp3744
(dp3745
g61
(dp3746
sg70
g3732
sg63
(lp3747
g56
(g57
g58
NtRp3748
(dp3749
g61
(dp3750
g69
I3
ssg70
g3744
sg63
(lp3751
S''
asbasbasbasbasbasbasbasbasbasbasbag56
(g72
g58
NtRp3752
(dp3753
g61
(dp3754
sg70
g3518
sg63
(lp3755
g56
(g77
g58
NtRp3756
(dp3757
g61
(dp3758
g81
g82
ssg70
g3752
sg63
(lp3759
S'files'
p3760
asbag56
(g77
g58
NtRp3761
(dp3762
g61
(dp3763
g88
g89
ssg70
g3752
sg63
(lp3764
S':'
asbag56
(g77
g58
NtRp3765
(dp3766
g61
(dp3767
sg70
g3752
sg63
(lp3768
g56
(g57
g58
NtRp3769
(dp3770
g61
(dp3771
g69
I5
ssg70
g3765
sg63
(lp3772
g56
(g65
g58
NtRp3773
(dp3774
g61
(dp3775
g69
I4
ssg70
Nsg63
(lp3776
sbasbasbasbag56
(g72
g58
NtRp3777
(dp3778
g61
(dp3779
sg70
g3518
sg63
(lp3780
g56
(g77
g58
NtRp3781
(dp3782
g61
(dp3783
g81
g82
ssg70
g3777
sg63
(lp3784
S'flash'
p3785
asbag56
(g77
g58
NtRp3786
(dp3787
g61
(dp3788
g88
g89
ssg70
g3777
sg63
(lp3789
S':'
asbag56
(g77
g58
NtRp3790
(dp3791
g61
(dp3792
sg70
g3777
sg63
(lp3793
g56
(g57
g58
NtRp3794
(dp3795
g61
(dp3796
g69
I5
ssg70
g3790
sg63
(lp3797
S''
asbasbasbag56
(g72
g58
NtRp3798
(dp3799
g61
(dp3800
sg70
g3518
sg63
(lp3801
g56
(g77
g58
NtRp3802
(dp3803
g61
(dp3804
g81
g82
ssg70
g3798
sg63
(lp3805
S'generic_patterns'
p3806
asbag56
(g77
g58
NtRp3807
(dp3808
g61
(dp3809
g88
g89
ssg70
g3798
sg63
(lp3810
S':'
asbag56
(g77
g58
NtRp3811
(dp3812
g61
(dp3813
sg70
g3798
sg63
(lp3814
g56
(g57
g58
NtRp3815
(dp3816
g61
(dp3817
g69
I5
ssg70
g3811
sg63
(lp3818
g56
(g65
g58
NtRp3819
(dp3820
g61
(dp3821
g69
I4
ssg70
Nsg63
(lp3822
g56
(g72
g58
NtRp3823
(dp3824
g61
(dp3825
sg70
g3819
sg63
(lp3826
g56
(g77
g58
NtRp3827
(dp3828
g61
(dp3829
sg70
g3823
sg63
(lp3830
g56
(g57
g58
NtRp3831
(dp3832
g61
(dp3833
g69
I4
ssg70
g3827
sg63
(lp3834
S'*'
asbasbasbasbasbasbasbag56
(g72
g58
NtRp3835
(dp3836
g61
(dp3837
sg70
g3518
sg63
(lp3838
g56
(g77
g58
NtRp3839
(dp3840
g61
(dp3841
g81
g82
ssg70
g3835
sg63
(lp3842
S'headers'
p3843
asbag56
(g77
g58
NtRp3844
(dp3845
g61
(dp3846
g88
g89
ssg70
g3835
sg63
(lp3847
S':'
asbag56
(g77
g58
NtRp3848
(dp3849
g61
(dp3850
sg70
g3835
sg63
(lp3851
g56
(g57
g58
NtRp3852
(dp3853
g61
(dp3854
g69
I5
ssg70
g3848
sg63
(lp3855
g56
(g65
g58
NtRp3856
(dp3857
g61
(dp3858
g69
I4
ssg70
Nsg63
(lp3859
g56
(g72
g58
NtRp3860
(dp3861
g61
(dp3862
sg70
g3856
sg63
(lp3863
g56
(g77
g58
NtRp3864
(dp3865
g61
(dp3866
g81
g82
ssg70
g3860
sg63
(lp3867
S'Cache-Control'
p3868
asbag56
(g77
g58
NtRp3869
(dp3870
g61
(dp3871
g88
g89
ssg70
g3860
sg63
(lp3872
S':'
asbag56
(g77
g58
NtRp3873
(dp3874
g61
(dp3875
sg70
g3860
sg63
(lp3876
g56
(g57
g58
NtRp3877
(dp3878
g61
(dp3879
g69
I4
ssg70
g3873
sg63
(lp3880
S'no-store, no-cache, must-revalidate, post-check=0, pre-check=0'
p3881
asbasbasbag56
(g72
g58
NtRp3882
(dp3883
g61
(dp3884
sg70
g3856
sg63
(lp3885
g56
(g77
g58
NtRp3886
(dp3887
g61
(dp3888
g81
g82
ssg70
g3882
sg63
(lp3889
S'Content-Type'
p3890
asbag56
(g77
g58
NtRp3891
(dp3892
g61
(dp3893
g88
g89
ssg70
g3882
sg63
(lp3894
S':'
asbag56
(g77
g58
NtRp3895
(dp3896
g61
(dp3897
sg70
g3882
sg63
(lp3898
g56
(g57
g58
NtRp3899
(dp3900
g61
(dp3901
g69
I4
ssg70
g3895
sg63
(lp3902
S'text/html; charset=utf-8'
p3903
asbasbasbag56
(g72
g58
NtRp3904
(dp3905
g61
(dp3906
sg70
g3856
sg63
(lp3907
g56
(g77
g58
NtRp3908
(dp3909
g61
(dp3910
g81
g82
ssg70
g3904
sg63
(lp3911
S'Expires'
p3912
asbag56
(g77
g58
NtRp3913
(dp3914
g61
(dp3915
g88
g89
ssg70
g3904
sg63
(lp3916
S':'
asbag56
(g77
g58
NtRp3917
(dp3918
g61
(dp3919
sg70
g3904
sg63
(lp3920
g56
(g57
g58
NtRp3921
(dp3922
g61
(dp3923
g69
I4
ssg70
g3917
sg63
(lp3924
S'Thu, 03 Nov 2011 20:16:10 GMT'
p3925
asbasbasbag56
(g72
g58
NtRp3926
(dp3927
g61
(dp3928
sg70
g3856
sg63
(lp3929
g56
(g77
g58
NtRp3930
(dp3931
g61
(dp3932
g81
g82
ssg70
g3926
sg63
(lp3933
S'Pragma'
p3934
asbag56
(g77
g58
NtRp3935
(dp3936
g61
(dp3937
g88
g89
ssg70
g3926
sg63
(lp3938
S':'
asbag56
(g77
g58
NtRp3939
(dp3940
g61
(dp3941
sg70
g3926
sg63
(lp3942
g56
(g57
g58
NtRp3943
(dp3944
g61
(dp3945
g69
I4
ssg70
g3939
sg63
(lp3946
S'no-cache'
p3947
asbasbasbag56
(g72
g58
NtRp3948
(dp3949
g61
(dp3950
sg70
g3856
sg63
(lp3951
g56
(g77
g58
NtRp3952
(dp3953
g61
(dp3954
g81
g82
ssg70
g3948
sg63
(lp3955
S'X-Powered-By'
p3956
asbag56
(g77
g58
NtRp3957
(dp3958
g61
(dp3959
g88
g89
ssg70
g3948
sg63
(lp3960
S':'
asbag56
(g77
g58
NtRp3961
(dp3962
g61
(dp3963
sg70
g3948
sg63
(lp3964
g56
(g57
g58
NtRp3965
(dp3966
g61
(dp3967
g69
I4
ssg70
g3961
sg63
(lp3968
S'web2py'
p3969
asbasbasbasbasbasbasbag56
(g72
g58
NtRp3970
(dp3971
g61
(dp3972
sg70
g3518
sg63
(lp3973
g56
(g77
g58
NtRp3974
(dp3975
g61
(dp3976
g81
g82
ssg70
g3970
sg63
(lp3977
S'menu'
p3978
asbag56
(g77
g58
NtRp3979
(dp3980
g61
(dp3981
g88
g89
ssg70
g3970
sg63
(lp3982
S':'
asbag56
(g77
g58
NtRp3983
(dp3984
g61
(dp3985
sg70
g3970
sg63
(lp3986
g56
(g57
g58
NtRp3987
(dp3988
g61
(dp3989
g69
I5
ssg70
g3983
sg63
(lp3990
g56
(g65
g58
NtRp3991
(dp3992
g61
(dp3993
g69
I4
ssg70
Nsg63
(lp3994
g56
(g72
g58
NtRp3995
(dp3996
g61
(dp3997
sg70
g3991
sg63
(lp3998
g56
(g77
g58
NtRp3999
(dp4000
g61
(dp4001
sg70
g3995
sg63
(lp4002
g56
(g57
g58
NtRp4003
(dp4004
g61
(dp4005
g69
I4
ssg70
g3999
sg63
(lp4006
g56
(g65
g58
NtRp4007
(dp4008
g61
(dp4009
g69
I3
ssg70
Nsg63
(lp4010
g56
(g72
g58
NtRp4011
(dp4012
g61
(dp4013
sg70
g4007
sg63
(lp4014
g56
(g77
g58
NtRp4015
(dp4016
g61
(dp4017
sg70
g4011
sg63
(lp4018
g56
(g57
g58
NtRp4019
(dp4020
g61
(dp4021
g69
I3
ssg70
g4015
sg63
(lp4022
cgluon.languages
lazyT_unpickle
p4023
(S't\x05\x00\x00\x00Index'
tRp4024
asbasbasbag56
(g72
g58
NtRp4025
(dp4026
g61
(dp4027
sg70
g4007
sg63
(lp4028
g56
(g77
g58
NtRp4029
(dp4030
g61
(dp4031
sg70
g4025
sg63
(lp4032
g56
(g57
g58
NtRp4033
(dp4034
g61
(dp4035
g69
I3
ssg70
g4029
sg63
(lp4036
g981
asbasbasbag56
(g72
g58
NtRp4037
(dp4038
g61
(dp4039
sg70
g4007
sg63
(lp4040
g56
(g77
g58
NtRp4041
(dp4042
g61
(dp4043
sg70
g4037
sg63
(lp4044
g56
(g57
g58
NtRp4045
(dp4046
g61
(dp4047
g69
I3
ssg70
g4041
sg63
(lp4048
S'/grades/default/index.load'
p4049
asbasbasbag56
(g72
g58
NtRp4050
(dp4051
g61
(dp4052
sg70
g4007
sg63
(lp4053
g56
(g77
g58
NtRp4054
(dp4055
g61
(dp4056
sg70
g4050
sg63
(lp4057
g56
(g57
g58
NtRp4058
(dp4059
g61
(dp4060
g69
I3
ssg70
g4054
sg63
(lp4061
g56
(g65
g58
NtRp4062
(dp4063
g61
(dp4064
g69
I2
ssg70
Nsg63
(lp4065
sbasbasbasbasbasbasbasbag56
(g72
g58
NtRp4066
(dp4067
g61
(dp4068
sg70
g3991
sg63
(lp4069
g56
(g77
g58
NtRp4070
(dp4071
g61
(dp4072
sg70
g4066
sg63
(lp4073
g56
(g57
g58
NtRp4074
(dp4075
g61
(dp4076
g69
I4
ssg70
g4070
sg63
(lp4077
g56
(g65
g58
NtRp4078
(dp4079
g61
(dp4080
g69
I3
ssg70
Nsg63
(lp4081
g56
(g72
g58
NtRp4082
(dp4083
g61
(dp4084
sg70
g4078
sg63
(lp4085
g56
(g77
g58
NtRp4086
(dp4087
g61
(dp4088
sg70
g4082
sg63
(lp4089
g56
(g57
g58
NtRp4090
(dp4091
g61
(dp4092
g69
I3
ssg70
g4086
sg63
(lp4093
g4023
(S't\x06\x00\x00\x00Grades'
tRp4094
asbasbasbag56
(g72
g58
NtRp4095
(dp4096
g61
(dp4097
sg70
g4078
sg63
(lp4098
g56
(g77
g58
NtRp4099
(dp4100
g61
(dp4101
sg70
g4095
sg63
(lp4102
g56
(g57
g58
NtRp4103
(dp4104
g61
(dp4105
g69
I3
ssg70
g4099
sg63
(lp4106
g981
asbasbasbag56
(g72
g58
NtRp4107
(dp4108
g61
(dp4109
sg70
g4078
sg63
(lp4110
g56
(g77
g58
NtRp4111
(dp4112
g61
(dp4113
sg70
g4107
sg63
(lp4114
g56
(g57
g58
NtRp4115
(dp4116
g61
(dp4117
g69
I3
ssg70
g4111
sg63
(lp4118
S'/grades/default/grades_manage.load'
p4119
asbasbasbag56
(g72
g58
NtRp4120
(dp4121
g61
(dp4122
sg70
g4078
sg63
(lp4123
g56
(g77
g58
NtRp4124
(dp4125
g61
(dp4126
sg70
g4120
sg63
(lp4127
g56
(g57
g58
NtRp4128
(dp4129
g61
(dp4130
g69
I3
ssg70
g4124
sg63
(lp4131
g56
(g65
g58
NtRp4132
(dp4133
g61
(dp4134
g69
I2
ssg70
Nsg63
(lp4135
sbasbasbasbasbasbasbasbag56
(g72
g58
NtRp4136
(dp4137
g61
(dp4138
sg70
g3991
sg63
(lp4139
g56
(g77
g58
NtRp4140
(dp4141
g61
(dp4142
sg70
g4136
sg63
(lp4143
g56
(g57
g58
NtRp4144
(dp4145
g61
(dp4146
g69
I4
ssg70
g4140
sg63
(lp4147
g56
(g65
g58
NtRp4148
(dp4149
g61
(dp4150
g69
I3
ssg70
Nsg63
(lp4151
g56
(g72
g58
NtRp4152
(dp4153
g61
(dp4154
sg70
g4148
sg63
(lp4155
g56
(g77
g58
NtRp4156
(dp4157
g61
(dp4158
sg70
g4152
sg63
(lp4159
g56
(g57
g58
NtRp4160
(dp4161
g61
(dp4162
g69
I3
ssg70
g4156
sg63
(lp4163
g4023
(S't\x07\x00\x00\x00Classes'
tRp4164
asbasbasbag56
(g72
g58
NtRp4165
(dp4166
g61
(dp4167
sg70
g4148
sg63
(lp4168
g56
(g77
g58
NtRp4169
(dp4170
g61
(dp4171
sg70
g4165
sg63
(lp4172
g56
(g57
g58
NtRp4173
(dp4174
g61
(dp4175
g69
I3
ssg70
g4169
sg63
(lp4176
g981
asbasbasbag56
(g72
g58
NtRp4177
(dp4178
g61
(dp4179
sg70
g4148
sg63
(lp4180
g56
(g77
g58
NtRp4181
(dp4182
g61
(dp4183
sg70
g4177
sg63
(lp4184
g56
(g57
g58
NtRp4185
(dp4186
g61
(dp4187
g69
I3
ssg70
g4181
sg63
(lp4188
S'/grades/default/classes_manage.load'
p4189
asbasbasbag56
(g72
g58
NtRp4190
(dp4191
g61
(dp4192
sg70
g4148
sg63
(lp4193
g56
(g77
g58
NtRp4194
(dp4195
g61
(dp4196
sg70
g4190
sg63
(lp4197
g56
(g57
g58
NtRp4198
(dp4199
g61
(dp4200
g69
I3
ssg70
g4194
sg63
(lp4201
g56
(g65
g58
NtRp4202
(dp4203
g61
(dp4204
g69
I2
ssg70
Nsg63
(lp4205
sbasbasbasbasbasbasbasbasbasbasbasbag56
(g72
g58
NtRp4206
(dp4207
g61
(dp4208
sg70
g3518
sg63
(lp4209
g56
(g77
g58
NtRp4210
(dp4211
g61
(dp4212
g81
g82
ssg70
g4206
sg63
(lp4213
S'meta'
p4214
asbag56
(g77
g58
NtRp4215
(dp4216
g61
(dp4217
g88
g89
ssg70
g4206
sg63
(lp4218
S':'
asbag56
(g77
g58
NtRp4219
(dp4220
g61
(dp4221
sg70
g4206
sg63
(lp4222
g56
(g57
g58
NtRp4223
(dp4224
g61
(dp4225
g69
I5
ssg70
g4219
sg63
(lp4226
g56
(g65
g58
NtRp4227
(dp4228
g61
(dp4229
g69
I4
ssg70
Nsg63
(lp4230
g56
(g72
g58
NtRp4231
(dp4232
g61
(dp4233
sg70
g4227
sg63
(lp4234
g56
(g77
g58
NtRp4235
(dp4236
g61
(dp4237
g81
g82
ssg70
g4231
sg63
(lp4238
S'author'
p4239
asbag56
(g77
g58
NtRp4240
(dp4241
g61
(dp4242
g88
g89
ssg70
g4231
sg63
(lp4243
S':'
asbag56
(g77
g58
NtRp4244
(dp4245
g61
(dp4246
sg70
g4231
sg63
(lp4247
g56
(g57
g58
NtRp4248
(dp4249
g61
(dp4250
g69
I4
ssg70
g4244
sg63
(lp4251
S'Ian W. Scott <scottianw@gmail.com>'
p4252
asbasbasbag56
(g72
g58
NtRp4253
(dp4254
g61
(dp4255
sg70
g4227
sg63
(lp4256
g56
(g77
g58
NtRp4257
(dp4258
g61
(dp4259
g81
g82
ssg70
g4253
sg63
(lp4260
S'description'
p4261
asbag56
(g77
g58
NtRp4262
(dp4263
g61
(dp4264
g88
g89
ssg70
g4253
sg63
(lp4265
S':'
asbag56
(g77
g58
NtRp4266
(dp4267
g61
(dp4268
sg70
g4253
sg63
(lp4269
g56
(g57
g58
NtRp4270
(dp4271
g61
(dp4272
g69
I4
ssg70
g4266
sg63
(lp4273
S''
asbasbasbag56
(g72
g58
NtRp4274
(dp4275
g61
(dp4276
sg70
g4227
sg63
(lp4277
g56
(g77
g58
NtRp4278
(dp4279
g61
(dp4280
g81
g82
ssg70
g4274
sg63
(lp4281
S'keywords'
p4282
asbag56
(g77
g58
NtRp4283
(dp4284
g61
(dp4285
g88
g89
ssg70
g4274
sg63
(lp4286
S':'
asbag56
(g77
g58
NtRp4287
(dp4288
g61
(dp4289
sg70
g4274
sg63
(lp4290
g56
(g57
g58
NtRp4291
(dp4292
g61
(dp4293
g69
I4
ssg70
g4287
sg63
(lp4294
S''
asbasbasbasbasbasbasbag56
(g72
g58
NtRp4295
(dp4296
g61
(dp4297
sg70
g3518
sg63
(lp4298
g56
(g77
g58
NtRp4299
(dp4300
g61
(dp4301
g81
g82
ssg70
g4295
sg63
(lp4302
S'postprocessing'
p4303
asbag56
(g77
g58
NtRp4304
(dp4305
g61
(dp4306
g88
g89
ssg70
g4295
sg63
(lp4307
S':'
asbag56
(g77
g58
NtRp4308
(dp4309
g61
(dp4310
sg70
g4295
sg63
(lp4311
g56
(g57
g58
NtRp4312
(dp4313
g61
(dp4314
g69
I5
ssg70
g4308
sg63
(lp4315
g56
(g65
g58
NtRp4316
(dp4317
g61
(dp4318
g69
I4
ssg70
Nsg63
(lp4319
sbasbasbasbag56
(g72
g58
NtRp4320
(dp4321
g61
(dp4322
sg70
g3518
sg63
(lp4323
g56
(g77
g58
NtRp4324
(dp4325
g61
(dp4326
g81
g82
ssg70
g4320
sg63
(lp4327
S'session_file'
p4328
asbag56
(g77
g58
NtRp4329
(dp4330
g61
(dp4331
g88
g89
ssg70
g4320
sg63
(lp4332
S':'
asbag56
(g77
g58
NtRp4333
(dp4334
g61
(dp4335
sg70
g4320
sg63
(lp4336
g56
(g57
g58
NtRp4337
(dp4338
g61
(dp4339
g69
I5
ssg70
g4333
sg63
(lp4340
S"<open file '/home/ian/web2py/applications/grades/sessions/127.0.0.1-61c0ea3f-8797-4aff-bb5b-97a734e7ddbc', mode 'rb+' at 0x8cf75d0>"
p4341
asbasbasbag56
(g72
g58
NtRp4342
(dp4343
g61
(dp4344
sg70
g3518
sg63
(lp4345
g56
(g77
g58
NtRp4346
(dp4347
g61
(dp4348
g81
g82
ssg70
g4342
sg63
(lp4349
S'session_filename'
p4350
asbag56
(g77
g58
NtRp4351
(dp4352
g61
(dp4353
g88
g89
ssg70
g4342
sg63
(lp4354
S':'
asbag56
(g77
g58
NtRp4355
(dp4356
g61
(dp4357
sg70
g4342
sg63
(lp4358
g56
(g57
g58
NtRp4359
(dp4360
g61
(dp4361
g69
I5
ssg70
g4355
sg63
(lp4362
S'/home/ian/web2py/applications/grades/sessions/127.0.0.1-61c0ea3f-8797-4aff-bb5b-97a734e7ddbc'
p4363
asbasbasbag56
(g72
g58
NtRp4364
(dp4365
g61
(dp4366
sg70
g3518
sg63
(lp4367
g56
(g77
g58
NtRp4368
(dp4369
g61
(dp4370
g81
g82
ssg70
g4364
sg63
(lp4371
S'session_id'
p4372
asbag56
(g77
g58
NtRp4373
(dp4374
g61
(dp4375
g88
g89
ssg70
g4364
sg63
(lp4376
S':'
asbag56
(g77
g58
NtRp4377
(dp4378
g61
(dp4379
sg70
g4364
sg63
(lp4380
g56
(g57
g58
NtRp4381
(dp4382
g61
(dp4383
g69
I5
ssg70
g4377
sg63
(lp4384
S'127.0.0.1-61c0ea3f-8797-4aff-bb5b-97a734e7ddbc'
p4385
asbasbasbag56
(g72
g58
NtRp4386
(dp4387
g61
(dp4388
sg70
g3518
sg63
(lp4389
g56
(g77
g58
NtRp4390
(dp4391
g61
(dp4392
g81
g82
ssg70
g4386
sg63
(lp4393
S'session_id_name'
p4394
asbag56
(g77
g58
NtRp4395
(dp4396
g61
(dp4397
g88
g89
ssg70
g4386
sg63
(lp4398
S':'
asbag56
(g77
g58
NtRp4399
(dp4400
g61
(dp4401
sg70
g4386
sg63
(lp4402
g56
(g57
g58
NtRp4403
(dp4404
g61
(dp4405
g69
I5
ssg70
g4399
sg63
(lp4406
g3575
asbasbasbag56
(g72
g58
NtRp4407
(dp4408
g61
(dp4409
sg70
g3518
sg63
(lp4410
g56
(g77
g58
NtRp4411
(dp4412
g61
(dp4413
g81
g82
ssg70
g4407
sg63
(lp4414
S'session_locked'
p4415
asbag56
(g77
g58
NtRp4416
(dp4417
g61
(dp4418
g88
g89
ssg70
g4407
sg63
(lp4419
S':'
asbag56
(g77
g58
NtRp4420
(dp4421
g61
(dp4422
sg70
g4407
sg63
(lp4423
g56
(g57
g58
NtRp4424
(dp4425
g61
(dp4426
g69
I5
ssg70
g4420
sg63
(lp4427
g99
asbasbasbag56
(g72
g58
NtRp4428
(dp4429
g61
(dp4430
sg70
g3518
sg63
(lp4431
g56
(g77
g58
NtRp4432
(dp4433
g61
(dp4434
g81
g82
ssg70
g4428
sg63
(lp4435
S'session_new'
p4436
asbag56
(g77
g58
NtRp4437
(dp4438
g61
(dp4439
g88
g89
ssg70
g4428
sg63
(lp4440
S':'
asbag56
(g77
g58
NtRp4441
(dp4442
g61
(dp4443
sg70
g4428
sg63
(lp4444
g56
(g57
g58
NtRp4445
(dp4446
g61
(dp4447
g69
I5
ssg70
g4441
sg63
(lp4448
g981
asbasbasbag56
(g72
g58
NtRp4449
(dp4450
g61
(dp4451
sg70
g3518
sg63
(lp4452
g56
(g77
g58
NtRp4453
(dp4454
g61
(dp4455
g81
g82
ssg70
g4449
sg63
(lp4456
S'status'
p4457
asbag56
(g77
g58
NtRp4458
(dp4459
g61
(dp4460
g88
g89
ssg70
g4449
sg63
(lp4461
S':'
asbag56
(g77
g58
NtRp4462
(dp4463
g61
(dp4464
sg70
g4449
sg63
(lp4465
g56
(g57
g58
NtRp4466
(dp4467
g61
(dp4468
g69
I5
ssg70
g4462
sg63
(lp4469
S'200'
p4470
asbasbasbag56
(g72
g58
NtRp4471
(dp4472
g61
(dp4473
sg70
g3518
sg63
(lp4474
g56
(g77
g58
NtRp4475
(dp4476
g61
(dp4477
g81
g82
ssg70
g4471
sg63
(lp4478
S'subtitle'
p4479
asbag56
(g77
g58
NtRp4480
(dp4481
g61
(dp4482
g88
g89
ssg70
g4471
sg63
(lp4483
S':'
asbag56
(g77
g58
NtRp4484
(dp4485
g61
(dp4486
sg70
g4471
sg63
(lp4487
g56
(g57
g58
NtRp4488
(dp4489
g61
(dp4490
g69
I5
ssg70
g4484
sg63
(lp4491
S'a platform for easy submission of peer grades'
p4492
asbasbasbag56
(g72
g58
NtRp4493
(dp4494
g61
(dp4495
sg70
g3518
sg63
(lp4496
g56
(g77
g58
NtRp4497
(dp4498
g61
(dp4499
g81
g82
ssg70
g4493
sg63
(lp4500
S'title'
p4501
asbag56
(g77
g58
NtRp4502
(dp4503
g61
(dp4504
g88
g89
ssg70
g4493
sg63
(lp4505
S':'
asbag56
(g77
g58
NtRp4506
(dp4507
g61
(dp4508
sg70
g4493
sg63
(lp4509
g56
(g57
g58
NtRp4510
(dp4511
g61
(dp4512
g69
I5
ssg70
g4506
sg63
(lp4513
S'Grades'
p4514
asbasbasbag56
(g72
g58
NtRp4515
(dp4516
g61
(dp4517
sg70
g3518
sg63
(lp4518
g56
(g77
g58
NtRp4519
(dp4520
g61
(dp4521
g81
g82
ssg70
g4515
sg63
(lp4522
g2386
asbag56
(g77
g58
NtRp4523
(dp4524
g61
(dp4525
g88
g89
ssg70
g4515
sg63
(lp4526
S':'
asbag56
(g77
g58
NtRp4527
(dp4528
g61
(dp4529
sg70
g4515
sg63
(lp4530
g56
(g57
g58
NtRp4531
(dp4532
g61
(dp4533
g69
I5
ssg70
g4527
sg63
(lp4534
g2399
asbasbasbag56
(g72
g58
NtRp4535
(dp4536
g61
(dp4537
sg70
g3518
sg63
(lp4538
g56
(g77
g58
NtRp4539
(dp4540
g61
(dp4541
g81
g82
ssg70
g4535
sg63
(lp4542
S'view'
p4543
asbag56
(g77
g58
NtRp4544
(dp4545
g61
(dp4546
g88
g89
ssg70
g4535
sg63
(lp4547
S':'
asbag56
(g77
g58
NtRp4548
(dp4549
g61
(dp4550
sg70
g4535
sg63
(lp4551
g56
(g57
g58
NtRp4552
(dp4553
g61
(dp4554
g69
I5
ssg70
g4548
sg63
(lp4555
S'default/grades_report.load'
p4556
asbasbasbasbasbsS'locals'
p4557
(dp4558
S'sindex'
p4559
S'54'
p4560
sS'students'
p4561
S"{11: 'Scott, Ian', 12: 'Man, Jacquelyn', 13: 'Sequeira, Adrianne', 14: 'Johnston, Dianne', 15: 'Kwok, Kam', 16: 'Chen, Gary', 17: 'Tam, Derek', 18: 'ADHIKARY, RICHARD', 19: 'asamoah, david', 20: 'Seto, Michael', ...}"
p4562
sS'slast'
p4563
S"'Gordon'"
p4564
sS's'
S"<Row {'auth_event': <gluon.dal.Set object at 0x8...elete_record': <function <lambda> at 0x8ed7b18>}>"
p4565
sS'student_list'
p4566
S'<gluon.dal.Rows object>'
p4567
sS'sfirst'
p4568
S"'Christal'"
p4569
sssS'traceback'
p4570
S'Traceback (most recent call last):\n  File "/home/ian/web2py/gluon/restricted.py", line 194, in restricted\n    exec ccode in environment\n  File "/home/ian/web2py/applications/grades/controllers/default.py", line 62, in <module>\n  File "/home/ian/web2py/gluon/globals.py", line 149, in <lambda>\n    self._caller = lambda f: f()\n  File "/home/ian/web2py/gluon/tools.py", line 2456, in f\n    return action(*a, **b)\n  File "/home/ian/web2py/applications/grades/controllers/default.py", line 41, in grades_report\n    u = request.args[0]\nIndexError: list index out of range\n'
p4571
s.