(dp1
S'output'
p2
S''
sS'layer'
p3
S'/home/ian/web2py/applications/grades/controllers/default.py'
p4
sS'code'
p5
S"# -*- coding: utf-8 -*-\nif 0:\n    from gluon import current, SQLFORM\n    from gluon.tools import Auth, Crud\n    from gluon.dal import DAL\n    db = DAL()\n    auth = Auth()\n    response = current.response\n    service = current.service\n    request = current.request\n    session = current.session\n    crud = Crud()\n    \nimport datetime\n\n### required - do no delete\ndef user(): return dict(form=auth())\ndef download(): return response.download(request,db)\ndef call(): return service()\n### end requires\ndef index():\n    courses = db(db.courses.id > 0).select()\n    return dict(courses = courses)\n\ndef error():\n    return dict()\n\n@auth.requires_membership(role='administrators')\ndef grades_manage():\n    form = SQLFORM.smartgrid(db.grades,onupdate=auth.archive)\n    return locals()\n\n@auth.requires_membership(role='administrators')\ndef classes_manage():\n    form = SQLFORM.smartgrid(db.courses,onupdate=auth.archive)\n    return locals()\n\n@auth.requires_login()\ndef create_grade():\n    form = SQLFORM(db.grades, labels={name:'student receiving grade'})\n    return dict(form = form)\n\n@auth.requires_membership(role='administrators')\ndef grades_report():\n    student_list = db(db.auth_user.id > 0).select()\n    students = {}\n    for s in student_list:\n        sindex = s.id\n        slast = s.last_name\n        sfirst = s.first_name\n        students[sindex] = slast + ', ' + sfirst\n    u = request.args[0]\n    n = db.auth_user[u]\n    student = n.last_name + ', ' + n.first_name\n    gradelist = db(db.grades.name == u).select()\n    session.debug = request.args[0]\n    g = {}\n    for r in gradelist:\n        the_date = r.class_date\n        c = db(db.courses.id == r.course).select().first()\n        the_course = c.course_name\n        if the_course in g:\n            dates = g[the_course]\n            if the_date in dates:\n                dates[the_date].append(r.grade)\n            else:\n                dates[the_date] = [r.grade]                \n        else:\n            l = [r.grade]\n            the_date = r.class_date\n            g[r.course] = dict(the_date = l)\n    return dict(grades = g, students = students, student = student)                \nresponse._vars=response._caller(create_grade)\n"
p6
sS'snapshot'
p7
(dp8
S'exception'
p9
(dp10
S'__hash__'
p11
S"<method-wrapper '__hash__' of exceptions.NameError object>"
p12
sS'__setattr__'
p13
S"<method-wrapper '__setattr__' of exceptions.NameError object>"
p14
sS'__reduce_ex__'
p15
S'<built-in method __reduce_ex__ of exceptions.NameError object>'
p16
sS'__getslice__'
p17
S"<method-wrapper '__getslice__' of exceptions.NameError object>"
p18
sS'__getitem__'
p19
S"<method-wrapper '__getitem__' of exceptions.NameError object>"
p20
sS'__setstate__'
p21
S'<built-in method __setstate__ of exceptions.NameError object>'
p22
sS'args'
p23
S'("global name \'name\' is not defined",)'
p24
sS'__reduce__'
p25
S'<built-in method __reduce__ of exceptions.NameError object>'
p26
sS'__str__'
p27
S"<method-wrapper '__str__' of exceptions.NameError object>"
p28
sS'__format__'
p29
S'<built-in method __format__ of exceptions.NameError object>'
p30
sS'__getattribute__'
p31
S"<method-wrapper '__getattribute__' of exceptions.NameError object>"
p32
sS'__class__'
p33
S"<type 'exceptions.NameError'>"
p34
sS'__unicode__'
p35
S'<built-in method __unicode__ of exceptions.NameError object>'
p36
sS'__delattr__'
p37
S"<method-wrapper '__delattr__' of exceptions.NameError object>"
p38
sS'__subclasshook__'
p39
S'<built-in method __subclasshook__ of type object>'
p40
sS'__repr__'
p41
S"<method-wrapper '__repr__' of exceptions.NameError object>"
p42
sS'__dict__'
p43
S'{}'
p44
sS'__sizeof__'
p45
S'<built-in method __sizeof__ of exceptions.NameError object>'
p46
sS'__doc__'
p47
S"'Name not found globally.'"
p48
sS'__init__'
p49
S"<method-wrapper '__init__' of exceptions.NameError object>"
p50
sS'__new__'
p51
S'<built-in method __new__ of type object>'
p52
ssS'evalue'
p53
S"global name 'name' is not defined"
p54
sS'request'
p55
ccopy_reg
_reconstructor
p56
(cgluon.html
BEAUTIFY
p57
c__builtin__
object
p58
NtRp59
(dp60
S'attributes'
p61
(dp62
sS'components'
p63
(lp64
g56
(cgluon.html
TABLE
p65
g58
NtRp66
(dp67
g61
(dp68
S'level'
p69
I5
ssS'parent'
p70
Nsg63
(lp71
g56
(cgluon.html
TR
p72
g58
NtRp73
(dp74
g61
(dp75
sg70
g66
sg63
(lp76
g56
(cgluon.html
TD
p77
g58
NtRp78
(dp79
g61
(dp80
S'_style'
p81
S'font-weight:bold;'
p82
ssg70
g73
sg63
(lp83
S'ajax'
p84
asbag56
(g77
g58
NtRp85
(dp86
g61
(dp87
S'_valign'
p88
S'top'
p89
ssg70
g73
sg63
(lp90
S':'
asbag56
(g77
g58
NtRp91
(dp92
g61
(dp93
sg70
g73
sg63
(lp94
g56
(g57
g58
NtRp95
(dp96
g61
(dp97
g69
I5
ssg70
g91
sg63
(lp98
S'False'
p99
asbasbasbag56
(g72
g58
NtRp100
(dp101
g61
(dp102
sg70
g66
sg63
(lp103
g56
(g77
g58
NtRp104
(dp105
g61
(dp106
g81
g82
ssg70
g100
sg63
(lp107
S'application'
p108
asbag56
(g77
g58
NtRp109
(dp110
g61
(dp111
g88
g89
ssg70
g100
sg63
(lp112
S':'
asbag56
(g77
g58
NtRp113
(dp114
g61
(dp115
sg70
g100
sg63
(lp116
g56
(g57
g58
NtRp117
(dp118
g61
(dp119
g69
I5
ssg70
g113
sg63
(lp120
S'grades'
p121
asbasbasbag56
(g72
g58
NtRp122
(dp123
g61
(dp124
sg70
g66
sg63
(lp125
g56
(g77
g58
NtRp126
(dp127
g61
(dp128
g81
g82
ssg70
g122
sg63
(lp129
g23
asbag56
(g77
g58
NtRp130
(dp131
g61
(dp132
g88
g89
ssg70
g122
sg63
(lp133
S':'
asbag56
(g77
g58
NtRp134
(dp135
g61
(dp136
sg70
g122
sg63
(lp137
g56
(g57
g58
NtRp138
(dp139
g61
(dp140
g69
I5
ssg70
g134
sg63
(lp141
g56
(g65
g58
NtRp142
(dp143
g61
(dp144
g69
I4
ssg70
Nsg63
(lp145
g56
(g72
g58
NtRp146
(dp147
g61
(dp148
sg70
g142
sg63
(lp149
g56
(g77
g58
NtRp150
(dp151
g61
(dp152
sg70
g146
sg63
(lp153
g56
(g57
g58
NtRp154
(dp155
g61
(dp156
g69
I4
ssg70
g150
sg63
(lp157
S'1'
asbasbasbasbasbasbasbag56
(g72
g58
NtRp158
(dp159
g61
(dp160
sg70
g66
sg63
(lp161
g56
(g77
g58
NtRp162
(dp163
g61
(dp164
g81
g82
ssg70
g158
sg63
(lp165
S'body'
p166
asbag56
(g77
g58
NtRp167
(dp168
g61
(dp169
g88
g89
ssg70
g158
sg63
(lp170
S':'
asbag56
(g77
g58
NtRp171
(dp172
g61
(dp173
sg70
g158
sg63
(lp174
g56
(g57
g58
NtRp175
(dp176
g61
(dp177
g69
I5
ssg70
g171
sg63
(lp178
S'<cStringIO.StringO object at 0x2e460a0>'
p179
asbasbasbag56
(g72
g58
NtRp180
(dp181
g61
(dp182
sg70
g66
sg63
(lp183
g56
(g77
g58
NtRp184
(dp185
g61
(dp186
g81
g82
ssg70
g180
sg63
(lp187
S'client'
p188
asbag56
(g77
g58
NtRp189
(dp190
g61
(dp191
g88
g89
ssg70
g180
sg63
(lp192
S':'
asbag56
(g77
g58
NtRp193
(dp194
g61
(dp195
sg70
g180
sg63
(lp196
g56
(g57
g58
NtRp197
(dp198
g61
(dp199
g69
I5
ssg70
g193
sg63
(lp200
S'127.0.0.1'
p201
asbasbasbag56
(g72
g58
NtRp202
(dp203
g61
(dp204
sg70
g66
sg63
(lp205
g56
(g77
g58
NtRp206
(dp207
g61
(dp208
g81
g82
ssg70
g202
sg63
(lp209
S'controller'
p210
asbag56
(g77
g58
NtRp211
(dp212
g61
(dp213
g88
g89
ssg70
g202
sg63
(lp214
S':'
asbag56
(g77
g58
NtRp215
(dp216
g61
(dp217
sg70
g202
sg63
(lp218
g56
(g57
g58
NtRp219
(dp220
g61
(dp221
g69
I5
ssg70
g215
sg63
(lp222
S'default'
p223
asbasbasbag56
(g72
g58
NtRp224
(dp225
g61
(dp226
sg70
g66
sg63
(lp227
g56
(g77
g58
NtRp228
(dp229
g61
(dp230
g81
g82
ssg70
g224
sg63
(lp231
S'cookies'
p232
asbag56
(g77
g58
NtRp233
(dp234
g61
(dp235
g88
g89
ssg70
g224
sg63
(lp236
S':'
asbag56
(g77
g58
NtRp237
(dp238
g61
(dp239
sg70
g224
sg63
(lp240
g56
(g57
g58
NtRp241
(dp242
g61
(dp243
g69
I5
ssg70
g237
sg63
(lp244
g56
(g65
g58
NtRp245
(dp246
g61
(dp247
g69
I4
ssg70
Nsg63
(lp248
g56
(g72
g58
NtRp249
(dp250
g61
(dp251
sg70
g245
sg63
(lp252
g56
(g77
g58
NtRp253
(dp254
g61
(dp255
g81
g82
ssg70
g249
sg63
(lp256
S'session_id_grades'
p257
asbag56
(g77
g58
NtRp258
(dp259
g61
(dp260
g88
g89
ssg70
g249
sg63
(lp261
S':'
asbag56
(g77
g58
NtRp262
(dp263
g61
(dp264
sg70
g249
sg63
(lp265
g56
(g57
g58
NtRp266
(dp267
g61
(dp268
g69
I4
ssg70
g262
sg63
(lp269
g56
(g65
g58
NtRp270
(dp271
g61
(dp272
g69
I3
ssg70
Nsg63
(lp273
g56
(g72
g58
NtRp274
(dp275
g61
(dp276
sg70
g270
sg63
(lp277
g56
(g77
g58
NtRp278
(dp279
g61
(dp280
g81
g82
ssg70
g274
sg63
(lp281
S'comment'
p282
asbag56
(g77
g58
NtRp283
(dp284
g61
(dp285
g88
g89
ssg70
g274
sg63
(lp286
S':'
asbag56
(g77
g58
NtRp287
(dp288
g61
(dp289
sg70
g274
sg63
(lp290
g56
(g57
g58
NtRp291
(dp292
g61
(dp293
g69
I3
ssg70
g287
sg63
(lp294
S''
asbasbasbag56
(g72
g58
NtRp295
(dp296
g61
(dp297
sg70
g270
sg63
(lp298
g56
(g77
g58
NtRp299
(dp300
g61
(dp301
g81
g82
ssg70
g295
sg63
(lp302
S'domain'
p303
asbag56
(g77
g58
NtRp304
(dp305
g61
(dp306
g88
g89
ssg70
g295
sg63
(lp307
S':'
asbag56
(g77
g58
NtRp308
(dp309
g61
(dp310
sg70
g295
sg63
(lp311
g56
(g57
g58
NtRp312
(dp313
g61
(dp314
g69
I3
ssg70
g308
sg63
(lp315
S''
asbasbasbag56
(g72
g58
NtRp316
(dp317
g61
(dp318
sg70
g270
sg63
(lp319
g56
(g77
g58
NtRp320
(dp321
g61
(dp322
g81
g82
ssg70
g316
sg63
(lp323
S'expires'
p324
asbag56
(g77
g58
NtRp325
(dp326
g61
(dp327
g88
g89
ssg70
g316
sg63
(lp328
S':'
asbag56
(g77
g58
NtRp329
(dp330
g61
(dp331
sg70
g316
sg63
(lp332
g56
(g57
g58
NtRp333
(dp334
g61
(dp335
g69
I3
ssg70
g329
sg63
(lp336
S''
asbasbasbag56
(g72
g58
NtRp337
(dp338
g61
(dp339
sg70
g270
sg63
(lp340
g56
(g77
g58
NtRp341
(dp342
g61
(dp343
g81
g82
ssg70
g337
sg63
(lp344
S'httponly'
p345
asbag56
(g77
g58
NtRp346
(dp347
g61
(dp348
g88
g89
ssg70
g337
sg63
(lp349
S':'
asbag56
(g77
g58
NtRp350
(dp351
g61
(dp352
sg70
g337
sg63
(lp353
g56
(g57
g58
NtRp354
(dp355
g61
(dp356
g69
I3
ssg70
g350
sg63
(lp357
S''
asbasbasbag56
(g72
g58
NtRp358
(dp359
g61
(dp360
sg70
g270
sg63
(lp361
g56
(g77
g58
NtRp362
(dp363
g61
(dp364
g81
g82
ssg70
g358
sg63
(lp365
S'max-age'
p366
asbag56
(g77
g58
NtRp367
(dp368
g61
(dp369
g88
g89
ssg70
g358
sg63
(lp370
S':'
asbag56
(g77
g58
NtRp371
(dp372
g61
(dp373
sg70
g358
sg63
(lp374
g56
(g57
g58
NtRp375
(dp376
g61
(dp377
g69
I3
ssg70
g371
sg63
(lp378
S''
asbasbasbag56
(g72
g58
NtRp379
(dp380
g61
(dp381
sg70
g270
sg63
(lp382
g56
(g77
g58
NtRp383
(dp384
g61
(dp385
g81
g82
ssg70
g379
sg63
(lp386
S'path'
p387
asbag56
(g77
g58
NtRp388
(dp389
g61
(dp390
g88
g89
ssg70
g379
sg63
(lp391
S':'
asbag56
(g77
g58
NtRp392
(dp393
g61
(dp394
sg70
g379
sg63
(lp395
g56
(g57
g58
NtRp396
(dp397
g61
(dp398
g69
I3
ssg70
g392
sg63
(lp399
S''
asbasbasbag56
(g72
g58
NtRp400
(dp401
g61
(dp402
sg70
g270
sg63
(lp403
g56
(g77
g58
NtRp404
(dp405
g61
(dp406
g81
g82
ssg70
g400
sg63
(lp407
S'secure'
p408
asbag56
(g77
g58
NtRp409
(dp410
g61
(dp411
g88
g89
ssg70
g400
sg63
(lp412
S':'
asbag56
(g77
g58
NtRp413
(dp414
g61
(dp415
sg70
g400
sg63
(lp416
g56
(g57
g58
NtRp417
(dp418
g61
(dp419
g69
I3
ssg70
g413
sg63
(lp420
S''
asbasbasbag56
(g72
g58
NtRp421
(dp422
g61
(dp423
sg70
g270
sg63
(lp424
g56
(g77
g58
NtRp425
(dp426
g61
(dp427
g81
g82
ssg70
g421
sg63
(lp428
S'version'
p429
asbag56
(g77
g58
NtRp430
(dp431
g61
(dp432
g88
g89
ssg70
g421
sg63
(lp433
S':'
asbag56
(g77
g58
NtRp434
(dp435
g61
(dp436
sg70
g421
sg63
(lp437
g56
(g57
g58
NtRp438
(dp439
g61
(dp440
g69
I3
ssg70
g434
sg63
(lp441
S''
asbasbasbasbasbasbasbag56
(g72
g58
NtRp442
(dp443
g61
(dp444
sg70
g245
sg63
(lp445
g56
(g77
g58
NtRp446
(dp447
g61
(dp448
g81
g82
ssg70
g442
sg63
(lp449
S'session_id_paideia'
p450
asbag56
(g77
g58
NtRp451
(dp452
g61
(dp453
g88
g89
ssg70
g442
sg63
(lp454
S':'
asbag56
(g77
g58
NtRp455
(dp456
g61
(dp457
sg70
g442
sg63
(lp458
g56
(g57
g58
NtRp459
(dp460
g61
(dp461
g69
I4
ssg70
g455
sg63
(lp462
g56
(g65
g58
NtRp463
(dp464
g61
(dp465
g69
I3
ssg70
Nsg63
(lp466
g56
(g72
g58
NtRp467
(dp468
g61
(dp469
sg70
g463
sg63
(lp470
g56
(g77
g58
NtRp471
(dp472
g61
(dp473
g81
g82
ssg70
g467
sg63
(lp474
g282
asbag56
(g77
g58
NtRp475
(dp476
g61
(dp477
g88
g89
ssg70
g467
sg63
(lp478
S':'
asbag56
(g77
g58
NtRp479
(dp480
g61
(dp481
sg70
g467
sg63
(lp482
g56
(g57
g58
NtRp483
(dp484
g61
(dp485
g69
I3
ssg70
g479
sg63
(lp486
S''
asbasbasbag56
(g72
g58
NtRp487
(dp488
g61
(dp489
sg70
g463
sg63
(lp490
g56
(g77
g58
NtRp491
(dp492
g61
(dp493
g81
g82
ssg70
g487
sg63
(lp494
g303
asbag56
(g77
g58
NtRp495
(dp496
g61
(dp497
g88
g89
ssg70
g487
sg63
(lp498
S':'
asbag56
(g77
g58
NtRp499
(dp500
g61
(dp501
sg70
g487
sg63
(lp502
g56
(g57
g58
NtRp503
(dp504
g61
(dp505
g69
I3
ssg70
g499
sg63
(lp506
S''
asbasbasbag56
(g72
g58
NtRp507
(dp508
g61
(dp509
sg70
g463
sg63
(lp510
g56
(g77
g58
NtRp511
(dp512
g61
(dp513
g81
g82
ssg70
g507
sg63
(lp514
g324
asbag56
(g77
g58
NtRp515
(dp516
g61
(dp517
g88
g89
ssg70
g507
sg63
(lp518
S':'
asbag56
(g77
g58
NtRp519
(dp520
g61
(dp521
sg70
g507
sg63
(lp522
g56
(g57
g58
NtRp523
(dp524
g61
(dp525
g69
I3
ssg70
g519
sg63
(lp526
S''
asbasbasbag56
(g72
g58
NtRp527
(dp528
g61
(dp529
sg70
g463
sg63
(lp530
g56
(g77
g58
NtRp531
(dp532
g61
(dp533
g81
g82
ssg70
g527
sg63
(lp534
g345
asbag56
(g77
g58
NtRp535
(dp536
g61
(dp537
g88
g89
ssg70
g527
sg63
(lp538
S':'
asbag56
(g77
g58
NtRp539
(dp540
g61
(dp541
sg70
g527
sg63
(lp542
g56
(g57
g58
NtRp543
(dp544
g61
(dp545
g69
I3
ssg70
g539
sg63
(lp546
S''
asbasbasbag56
(g72
g58
NtRp547
(dp548
g61
(dp549
sg70
g463
sg63
(lp550
g56
(g77
g58
NtRp551
(dp552
g61
(dp553
g81
g82
ssg70
g547
sg63
(lp554
g366
asbag56
(g77
g58
NtRp555
(dp556
g61
(dp557
g88
g89
ssg70
g547
sg63
(lp558
S':'
asbag56
(g77
g58
NtRp559
(dp560
g61
(dp561
sg70
g547
sg63
(lp562
g56
(g57
g58
NtRp563
(dp564
g61
(dp565
g69
I3
ssg70
g559
sg63
(lp566
S''
asbasbasbag56
(g72
g58
NtRp567
(dp568
g61
(dp569
sg70
g463
sg63
(lp570
g56
(g77
g58
NtRp571
(dp572
g61
(dp573
g81
g82
ssg70
g567
sg63
(lp574
g387
asbag56
(g77
g58
NtRp575
(dp576
g61
(dp577
g88
g89
ssg70
g567
sg63
(lp578
S':'
asbag56
(g77
g58
NtRp579
(dp580
g61
(dp581
sg70
g567
sg63
(lp582
g56
(g57
g58
NtRp583
(dp584
g61
(dp585
g69
I3
ssg70
g579
sg63
(lp586
S''
asbasbasbag56
(g72
g58
NtRp587
(dp588
g61
(dp589
sg70
g463
sg63
(lp590
g56
(g77
g58
NtRp591
(dp592
g61
(dp593
g81
g82
ssg70
g587
sg63
(lp594
g408
asbag56
(g77
g58
NtRp595
(dp596
g61
(dp597
g88
g89
ssg70
g587
sg63
(lp598
S':'
asbag56
(g77
g58
NtRp599
(dp600
g61
(dp601
sg70
g587
sg63
(lp602
g56
(g57
g58
NtRp603
(dp604
g61
(dp605
g69
I3
ssg70
g599
sg63
(lp606
S''
asbasbasbag56
(g72
g58
NtRp607
(dp608
g61
(dp609
sg70
g463
sg63
(lp610
g56
(g77
g58
NtRp611
(dp612
g61
(dp613
g81
g82
ssg70
g607
sg63
(lp614
g429
asbag56
(g77
g58
NtRp615
(dp616
g61
(dp617
g88
g89
ssg70
g607
sg63
(lp618
S':'
asbag56
(g77
g58
NtRp619
(dp620
g61
(dp621
sg70
g607
sg63
(lp622
g56
(g57
g58
NtRp623
(dp624
g61
(dp625
g69
I3
ssg70
g619
sg63
(lp626
S''
asbasbasbasbasbasbasbag56
(g72
g58
NtRp627
(dp628
g61
(dp629
sg70
g245
sg63
(lp630
g56
(g77
g58
NtRp631
(dp632
g61
(dp633
g81
g82
ssg70
g627
sg63
(lp634
S'session_id_welcome'
p635
asbag56
(g77
g58
NtRp636
(dp637
g61
(dp638
g88
g89
ssg70
g627
sg63
(lp639
S':'
asbag56
(g77
g58
NtRp640
(dp641
g61
(dp642
sg70
g627
sg63
(lp643
g56
(g57
g58
NtRp644
(dp645
g61
(dp646
g69
I4
ssg70
g640
sg63
(lp647
g56
(g65
g58
NtRp648
(dp649
g61
(dp650
g69
I3
ssg70
Nsg63
(lp651
g56
(g72
g58
NtRp652
(dp653
g61
(dp654
sg70
g648
sg63
(lp655
g56
(g77
g58
NtRp656
(dp657
g61
(dp658
g81
g82
ssg70
g652
sg63
(lp659
g282
asbag56
(g77
g58
NtRp660
(dp661
g61
(dp662
g88
g89
ssg70
g652
sg63
(lp663
S':'
asbag56
(g77
g58
NtRp664
(dp665
g61
(dp666
sg70
g652
sg63
(lp667
g56
(g57
g58
NtRp668
(dp669
g61
(dp670
g69
I3
ssg70
g664
sg63
(lp671
S''
asbasbasbag56
(g72
g58
NtRp672
(dp673
g61
(dp674
sg70
g648
sg63
(lp675
g56
(g77
g58
NtRp676
(dp677
g61
(dp678
g81
g82
ssg70
g672
sg63
(lp679
g303
asbag56
(g77
g58
NtRp680
(dp681
g61
(dp682
g88
g89
ssg70
g672
sg63
(lp683
S':'
asbag56
(g77
g58
NtRp684
(dp685
g61
(dp686
sg70
g672
sg63
(lp687
g56
(g57
g58
NtRp688
(dp689
g61
(dp690
g69
I3
ssg70
g684
sg63
(lp691
S''
asbasbasbag56
(g72
g58
NtRp692
(dp693
g61
(dp694
sg70
g648
sg63
(lp695
g56
(g77
g58
NtRp696
(dp697
g61
(dp698
g81
g82
ssg70
g692
sg63
(lp699
g324
asbag56
(g77
g58
NtRp700
(dp701
g61
(dp702
g88
g89
ssg70
g692
sg63
(lp703
S':'
asbag56
(g77
g58
NtRp704
(dp705
g61
(dp706
sg70
g692
sg63
(lp707
g56
(g57
g58
NtRp708
(dp709
g61
(dp710
g69
I3
ssg70
g704
sg63
(lp711
S''
asbasbasbag56
(g72
g58
NtRp712
(dp713
g61
(dp714
sg70
g648
sg63
(lp715
g56
(g77
g58
NtRp716
(dp717
g61
(dp718
g81
g82
ssg70
g712
sg63
(lp719
g345
asbag56
(g77
g58
NtRp720
(dp721
g61
(dp722
g88
g89
ssg70
g712
sg63
(lp723
S':'
asbag56
(g77
g58
NtRp724
(dp725
g61
(dp726
sg70
g712
sg63
(lp727
g56
(g57
g58
NtRp728
(dp729
g61
(dp730
g69
I3
ssg70
g724
sg63
(lp731
S''
asbasbasbag56
(g72
g58
NtRp732
(dp733
g61
(dp734
sg70
g648
sg63
(lp735
g56
(g77
g58
NtRp736
(dp737
g61
(dp738
g81
g82
ssg70
g732
sg63
(lp739
g366
asbag56
(g77
g58
NtRp740
(dp741
g61
(dp742
g88
g89
ssg70
g732
sg63
(lp743
S':'
asbag56
(g77
g58
NtRp744
(dp745
g61
(dp746
sg70
g732
sg63
(lp747
g56
(g57
g58
NtRp748
(dp749
g61
(dp750
g69
I3
ssg70
g744
sg63
(lp751
S''
asbasbasbag56
(g72
g58
NtRp752
(dp753
g61
(dp754
sg70
g648
sg63
(lp755
g56
(g77
g58
NtRp756
(dp757
g61
(dp758
g81
g82
ssg70
g752
sg63
(lp759
g387
asbag56
(g77
g58
NtRp760
(dp761
g61
(dp762
g88
g89
ssg70
g752
sg63
(lp763
S':'
asbag56
(g77
g58
NtRp764
(dp765
g61
(dp766
sg70
g752
sg63
(lp767
g56
(g57
g58
NtRp768
(dp769
g61
(dp770
g69
I3
ssg70
g764
sg63
(lp771
S''
asbasbasbag56
(g72
g58
NtRp772
(dp773
g61
(dp774
sg70
g648
sg63
(lp775
g56
(g77
g58
NtRp776
(dp777
g61
(dp778
g81
g82
ssg70
g772
sg63
(lp779
g408
asbag56
(g77
g58
NtRp780
(dp781
g61
(dp782
g88
g89
ssg70
g772
sg63
(lp783
S':'
asbag56
(g77
g58
NtRp784
(dp785
g61
(dp786
sg70
g772
sg63
(lp787
g56
(g57
g58
NtRp788
(dp789
g61
(dp790
g69
I3
ssg70
g784
sg63
(lp791
S''
asbasbasbag56
(g72
g58
NtRp792
(dp793
g61
(dp794
sg70
g648
sg63
(lp795
g56
(g77
g58
NtRp796
(dp797
g61
(dp798
g81
g82
ssg70
g792
sg63
(lp799
g429
asbag56
(g77
g58
NtRp800
(dp801
g61
(dp802
g88
g89
ssg70
g792
sg63
(lp803
S':'
asbag56
(g77
g58
NtRp804
(dp805
g61
(dp806
sg70
g792
sg63
(lp807
g56
(g57
g58
NtRp808
(dp809
g61
(dp810
g69
I3
ssg70
g804
sg63
(lp811
S''
asbasbasbasbasbasbasbasbasbasbasbag56
(g72
g58
NtRp812
(dp813
g61
(dp814
sg70
g66
sg63
(lp815
g56
(g77
g58
NtRp816
(dp817
g61
(dp818
g81
g82
ssg70
g812
sg63
(lp819
S'env'
p820
asbag56
(g77
g58
NtRp821
(dp822
g61
(dp823
g88
g89
ssg70
g812
sg63
(lp824
S':'
asbag56
(g77
g58
NtRp825
(dp826
g61
(dp827
sg70
g812
sg63
(lp828
g56
(g57
g58
NtRp829
(dp830
g61
(dp831
g69
I5
ssg70
g825
sg63
(lp832
g56
(g65
g58
NtRp833
(dp834
g61
(dp835
g69
I4
ssg70
Nsg63
(lp836
g56
(g72
g58
NtRp837
(dp838
g61
(dp839
sg70
g833
sg63
(lp840
g56
(g77
g58
NtRp841
(dp842
g61
(dp843
g81
g82
ssg70
g837
sg63
(lp844
S'app_folders'
p845
asbag56
(g77
g58
NtRp846
(dp847
g61
(dp848
g88
g89
ssg70
g837
sg63
(lp849
S':'
asbag56
(g77
g58
NtRp850
(dp851
g61
(dp852
sg70
g837
sg63
(lp853
g56
(g57
g58
NtRp854
(dp855
g61
(dp856
g69
I4
ssg70
g850
sg63
(lp857
S"set(['/home/ian/web2py/applications/welcome/', '/home/ian/web2py/applications/grades/'])"
p858
asbasbasbag56
(g72
g58
NtRp859
(dp860
g61
(dp861
sg70
g833
sg63
(lp862
g56
(g77
g58
NtRp863
(dp864
g61
(dp865
g81
g82
ssg70
g859
sg63
(lp866
S'applications_parent'
p867
asbag56
(g77
g58
NtRp868
(dp869
g61
(dp870
g88
g89
ssg70
g859
sg63
(lp871
S':'
asbag56
(g77
g58
NtRp872
(dp873
g61
(dp874
sg70
g859
sg63
(lp875
g56
(g57
g58
NtRp876
(dp877
g61
(dp878
g69
I4
ssg70
g872
sg63
(lp879
S'/home/ian/web2py'
p880
asbasbasbag56
(g72
g58
NtRp881
(dp882
g61
(dp883
sg70
g833
sg63
(lp884
g56
(g77
g58
NtRp885
(dp886
g61
(dp887
g81
g82
ssg70
g881
sg63
(lp888
S'cmd_args'
p889
asbag56
(g77
g58
NtRp890
(dp891
g61
(dp892
g88
g89
ssg70
g881
sg63
(lp893
S':'
asbag56
(g77
g58
NtRp894
(dp895
g61
(dp896
sg70
g881
sg63
(lp897
g56
(g57
g58
NtRp898
(dp899
g61
(dp900
g69
I4
ssg70
g894
sg63
(lp901
g56
(g65
g58
NtRp902
(dp903
g61
(dp904
g69
I3
ssg70
Nsg63
(lp905
sbasbasbasbag56
(g72
g58
NtRp906
(dp907
g61
(dp908
sg70
g833
sg63
(lp909
g56
(g77
g58
NtRp910
(dp911
g61
(dp912
g81
g82
ssg70
g906
sg63
(lp913
S'cmd_options'
p914
asbag56
(g77
g58
NtRp915
(dp916
g61
(dp917
g88
g89
ssg70
g906
sg63
(lp918
S':'
asbag56
(g77
g58
NtRp919
(dp920
g61
(dp921
sg70
g906
sg63
(lp922
g56
(g57
g58
NtRp923
(dp924
g61
(dp925
g69
I4
ssg70
g919
sg63
(lp926
S"<Values at 0x1ffe758: {'verbose': False, 'ip': '127.0.0.1', 'shutdown_timeout': 5, 'taskbar': False, 'nocron': False, 'pid_filename': 'httpserver.pid', 'maxthreads': None, 'softcron': False, 'server_name': 'uriel', 'bpython': False, 'nogui': False, 'port': 8000, 'extcron': False, 'debuglevel': 30, 'test': None, 'folder': '/home/ian/web2py', 'config': '', 'import_models': False, 'winservice': '', 'shell': None, 'run': '', 'log_filename': 'httpserver.log', 'args': [''], 'ssl_ca_certificate': None, 'scheduler': None, 'profiler_filename': None, 'ssl_private_key': '', 'password': '<ask>', 'request_queue_size': 5, 'ssl_certificate': '', 'cronjob': False, 'plain': False, 'quiet': False, 'interfaces': None, 'minthreads': None, 'timeout': 10, 'numthreads': None, 'nobanner': False}>"
p927
asbasbasbag56
(g72
g58
NtRp928
(dp929
g61
(dp930
sg70
g833
sg63
(lp931
g56
(g77
g58
NtRp932
(dp933
g61
(dp934
g81
g82
ssg70
g928
sg63
(lp935
S'db_sessions'
p936
asbag56
(g77
g58
NtRp937
(dp938
g61
(dp939
g88
g89
ssg70
g928
sg63
(lp940
S':'
asbag56
(g77
g58
NtRp941
(dp942
g61
(dp943
sg70
g928
sg63
(lp944
g56
(g57
g58
NtRp945
(dp946
g61
(dp947
g69
I4
ssg70
g941
sg63
(lp948
S'set([])'
p949
asbasbasbag56
(g72
g58
NtRp950
(dp951
g61
(dp952
sg70
g833
sg63
(lp953
g56
(g77
g58
NtRp954
(dp955
g61
(dp956
g81
g82
ssg70
g950
sg63
(lp957
S'debugging'
p958
asbag56
(g77
g58
NtRp959
(dp960
g61
(dp961
g88
g89
ssg70
g950
sg63
(lp962
S':'
asbag56
(g77
g58
NtRp963
(dp964
g61
(dp965
sg70
g950
sg63
(lp966
g56
(g57
g58
NtRp967
(dp968
g61
(dp969
g69
I4
ssg70
g963
sg63
(lp970
g99
asbasbasbag56
(g72
g58
NtRp971
(dp972
g61
(dp973
sg70
g833
sg63
(lp974
g56
(g77
g58
NtRp975
(dp976
g61
(dp977
g81
g82
ssg70
g971
sg63
(lp978
S'gluon_parent'
p979
asbag56
(g77
g58
NtRp980
(dp981
g61
(dp982
g88
g89
ssg70
g971
sg63
(lp983
S':'
asbag56
(g77
g58
NtRp984
(dp985
g61
(dp986
sg70
g971
sg63
(lp987
g56
(g57
g58
NtRp988
(dp989
g61
(dp990
g69
I4
ssg70
g984
sg63
(lp991
S'/home/ian/web2py'
p992
asbasbasbag56
(g72
g58
NtRp993
(dp994
g61
(dp995
sg70
g833
sg63
(lp996
g56
(g77
g58
NtRp997
(dp998
g61
(dp999
g81
g82
ssg70
g993
sg63
(lp1000
S'http_accept'
p1001
asbag56
(g77
g58
NtRp1002
(dp1003
g61
(dp1004
g88
g89
ssg70
g993
sg63
(lp1005
S':'
asbag56
(g77
g58
NtRp1006
(dp1007
g61
(dp1008
sg70
g993
sg63
(lp1009
g56
(g57
g58
NtRp1010
(dp1011
g61
(dp1012
g69
I4
ssg70
g1006
sg63
(lp1013
S'text/html,application/xhtml+xml,application/xml;q=0.9,*/*;q=0.8'
p1014
asbasbasbag56
(g72
g58
NtRp1015
(dp1016
g61
(dp1017
sg70
g833
sg63
(lp1018
g56
(g77
g58
NtRp1019
(dp1020
g61
(dp1021
g81
g82
ssg70
g1015
sg63
(lp1022
S'http_accept_encoding'
p1023
asbag56
(g77
g58
NtRp1024
(dp1025
g61
(dp1026
g88
g89
ssg70
g1015
sg63
(lp1027
S':'
asbag56
(g77
g58
NtRp1028
(dp1029
g61
(dp1030
sg70
g1015
sg63
(lp1031
g56
(g57
g58
NtRp1032
(dp1033
g61
(dp1034
g69
I4
ssg70
g1028
sg63
(lp1035
S'gzip, deflate'
p1036
asbasbasbag56
(g72
g58
NtRp1037
(dp1038
g61
(dp1039
sg70
g833
sg63
(lp1040
g56
(g77
g58
NtRp1041
(dp1042
g61
(dp1043
g81
g82
ssg70
g1037
sg63
(lp1044
S'http_accept_language'
p1045
asbag56
(g77
g58
NtRp1046
(dp1047
g61
(dp1048
g88
g89
ssg70
g1037
sg63
(lp1049
S':'
asbag56
(g77
g58
NtRp1050
(dp1051
g61
(dp1052
sg70
g1037
sg63
(lp1053
g56
(g57
g58
NtRp1054
(dp1055
g61
(dp1056
g69
I4
ssg70
g1050
sg63
(lp1057
S'en-us,en;q=0.5'
p1058
asbasbasbag56
(g72
g58
NtRp1059
(dp1060
g61
(dp1061
sg70
g833
sg63
(lp1062
g56
(g77
g58
NtRp1063
(dp1064
g61
(dp1065
g81
g82
ssg70
g1059
sg63
(lp1066
S'http_cache_control'
p1067
asbag56
(g77
g58
NtRp1068
(dp1069
g61
(dp1070
g88
g89
ssg70
g1059
sg63
(lp1071
S':'
asbag56
(g77
g58
NtRp1072
(dp1073
g61
(dp1074
sg70
g1059
sg63
(lp1075
g56
(g57
g58
NtRp1076
(dp1077
g61
(dp1078
g69
I4
ssg70
g1072
sg63
(lp1079
S'max-age=0'
p1080
asbasbasbag56
(g72
g58
NtRp1081
(dp1082
g61
(dp1083
sg70
g833
sg63
(lp1084
g56
(g77
g58
NtRp1085
(dp1086
g61
(dp1087
g81
g82
ssg70
g1081
sg63
(lp1088
S'http_connection'
p1089
asbag56
(g77
g58
NtRp1090
(dp1091
g61
(dp1092
g88
g89
ssg70
g1081
sg63
(lp1093
S':'
asbag56
(g77
g58
NtRp1094
(dp1095
g61
(dp1096
sg70
g1081
sg63
(lp1097
g56
(g57
g58
NtRp1098
(dp1099
g61
(dp1100
g69
I4
ssg70
g1094
sg63
(lp1101
S'keep-alive'
p1102
asbasbasbag56
(g72
g58
NtRp1103
(dp1104
g61
(dp1105
sg70
g833
sg63
(lp1106
g56
(g77
g58
NtRp1107
(dp1108
g61
(dp1109
g81
g82
ssg70
g1103
sg63
(lp1110
S'http_cookie'
p1111
asbag56
(g77
g58
NtRp1112
(dp1113
g61
(dp1114
g88
g89
ssg70
g1103
sg63
(lp1115
S':'
asbag56
(g77
g58
NtRp1116
(dp1117
g61
(dp1118
sg70
g1103
sg63
(lp1119
g56
(g57
g58
NtRp1120
(dp1121
g61
(dp1122
g69
I4
ssg70
g1116
sg63
(lp1123
S'session_id_paideia=127.0.0.1-5296f1e9-849e-4717-b7d4-f5f298041148; session_id_welcome=127.0.0.1-cbd9183f-89a3-433a-9c7b-93d2c556d545; session_id_grades=127.0.0.1-7e779f51-d72f-4159-aa81-826b4f2d26c1'
p1124
asbasbasbag56
(g72
g58
NtRp1125
(dp1126
g61
(dp1127
sg70
g833
sg63
(lp1128
g56
(g77
g58
NtRp1129
(dp1130
g61
(dp1131
g81
g82
ssg70
g1125
sg63
(lp1132
S'http_host'
p1133
asbag56
(g77
g58
NtRp1134
(dp1135
g61
(dp1136
g88
g89
ssg70
g1125
sg63
(lp1137
S':'
asbag56
(g77
g58
NtRp1138
(dp1139
g61
(dp1140
sg70
g1125
sg63
(lp1141
g56
(g57
g58
NtRp1142
(dp1143
g61
(dp1144
g69
I4
ssg70
g1138
sg63
(lp1145
S'127.0.0.1:8000'
p1146
asbasbasbag56
(g72
g58
NtRp1147
(dp1148
g61
(dp1149
sg70
g833
sg63
(lp1150
g56
(g77
g58
NtRp1151
(dp1152
g61
(dp1153
g81
g82
ssg70
g1147
sg63
(lp1154
S'http_referer'
p1155
asbag56
(g77
g58
NtRp1156
(dp1157
g61
(dp1158
g88
g89
ssg70
g1147
sg63
(lp1159
S':'
asbag56
(g77
g58
NtRp1160
(dp1161
g61
(dp1162
sg70
g1147
sg63
(lp1163
g56
(g57
g58
NtRp1164
(dp1165
g61
(dp1166
g69
I4
ssg70
g1160
sg63
(lp1167
S'http://127.0.0.1:8000/grades'
p1168
asbasbasbag56
(g72
g58
NtRp1169
(dp1170
g61
(dp1171
sg70
g833
sg63
(lp1172
g56
(g77
g58
NtRp1173
(dp1174
g61
(dp1175
g81
g82
ssg70
g1169
sg63
(lp1176
S'http_user_agent'
p1177
asbag56
(g77
g58
NtRp1178
(dp1179
g61
(dp1180
g88
g89
ssg70
g1169
sg63
(lp1181
S':'
asbag56
(g77
g58
NtRp1182
(dp1183
g61
(dp1184
sg70
g1169
sg63
(lp1185
g56
(g57
g58
NtRp1186
(dp1187
g61
(dp1188
g69
I4
ssg70
g1182
sg63
(lp1189
S'Mozilla/5.0 (X11; Linux x86_64; rv:8.0) Gecko/20100101 Firefox/8.0'
p1190
asbasbasbag56
(g72
g58
NtRp1191
(dp1192
g61
(dp1193
sg70
g833
sg63
(lp1194
g56
(g77
g58
NtRp1195
(dp1196
g61
(dp1197
g81
g82
ssg70
g1191
sg63
(lp1198
S'is_jython'
p1199
asbag56
(g77
g58
NtRp1200
(dp1201
g61
(dp1202
g88
g89
ssg70
g1191
sg63
(lp1203
S':'
asbag56
(g77
g58
NtRp1204
(dp1205
g61
(dp1206
sg70
g1191
sg63
(lp1207
g56
(g57
g58
NtRp1208
(dp1209
g61
(dp1210
g69
I4
ssg70
g1204
sg63
(lp1211
g99
asbasbasbag56
(g72
g58
NtRp1212
(dp1213
g61
(dp1214
sg70
g833
sg63
(lp1215
g56
(g77
g58
NtRp1216
(dp1217
g61
(dp1218
g81
g82
ssg70
g1212
sg63
(lp1219
S'path_info'
p1220
asbag56
(g77
g58
NtRp1221
(dp1222
g61
(dp1223
g88
g89
ssg70
g1212
sg63
(lp1224
S':'
asbag56
(g77
g58
NtRp1225
(dp1226
g61
(dp1227
sg70
g1212
sg63
(lp1228
g56
(g57
g58
NtRp1229
(dp1230
g61
(dp1231
g69
I4
ssg70
g1225
sg63
(lp1232
S'/grades/default/create_grade/1'
p1233
asbasbasbag56
(g72
g58
NtRp1234
(dp1235
g61
(dp1236
sg70
g833
sg63
(lp1237
g56
(g77
g58
NtRp1238
(dp1239
g61
(dp1240
g81
g82
ssg70
g1234
sg63
(lp1241
S'query_string'
p1242
asbag56
(g77
g58
NtRp1243
(dp1244
g61
(dp1245
g88
g89
ssg70
g1234
sg63
(lp1246
S':'
asbag56
(g77
g58
NtRp1247
(dp1248
g61
(dp1249
sg70
g1234
sg63
(lp1250
g56
(g57
g58
NtRp1251
(dp1252
g61
(dp1253
g69
I4
ssg70
g1247
sg63
(lp1254
S''
asbasbasbag56
(g72
g58
NtRp1255
(dp1256
g61
(dp1257
sg70
g833
sg63
(lp1258
g56
(g77
g58
NtRp1259
(dp1260
g61
(dp1261
g81
g82
ssg70
g1255
sg63
(lp1262
S'remote_addr'
p1263
asbag56
(g77
g58
NtRp1264
(dp1265
g61
(dp1266
g88
g89
ssg70
g1255
sg63
(lp1267
S':'
asbag56
(g77
g58
NtRp1268
(dp1269
g61
(dp1270
sg70
g1255
sg63
(lp1271
g56
(g57
g58
NtRp1272
(dp1273
g61
(dp1274
g69
I4
ssg70
g1268
sg63
(lp1275
g201
asbasbasbag56
(g72
g58
NtRp1276
(dp1277
g61
(dp1278
sg70
g833
sg63
(lp1279
g56
(g77
g58
NtRp1280
(dp1281
g61
(dp1282
g81
g82
ssg70
g1276
sg63
(lp1283
S'remote_port'
p1284
asbag56
(g77
g58
NtRp1285
(dp1286
g61
(dp1287
g88
g89
ssg70
g1276
sg63
(lp1288
S':'
asbag56
(g77
g58
NtRp1289
(dp1290
g61
(dp1291
sg70
g1276
sg63
(lp1292
g56
(g57
g58
NtRp1293
(dp1294
g61
(dp1295
g69
I4
ssg70
g1289
sg63
(lp1296
S'59783'
p1297
asbasbasbag56
(g72
g58
NtRp1298
(dp1299
g61
(dp1300
sg70
g833
sg63
(lp1301
g56
(g77
g58
NtRp1302
(dp1303
g61
(dp1304
g81
g82
ssg70
g1298
sg63
(lp1305
S'request_method'
p1306
asbag56
(g77
g58
NtRp1307
(dp1308
g61
(dp1309
g88
g89
ssg70
g1298
sg63
(lp1310
S':'
asbag56
(g77
g58
NtRp1311
(dp1312
g61
(dp1313
sg70
g1298
sg63
(lp1314
g56
(g57
g58
NtRp1315
(dp1316
g61
(dp1317
g69
I4
ssg70
g1311
sg63
(lp1318
S'GET'
p1319
asbasbasbag56
(g72
g58
NtRp1320
(dp1321
g61
(dp1322
sg70
g833
sg63
(lp1323
g56
(g77
g58
NtRp1324
(dp1325
g61
(dp1326
g81
g82
ssg70
g1320
sg63
(lp1327
S'script_name'
p1328
asbag56
(g77
g58
NtRp1329
(dp1330
g61
(dp1331
g88
g89
ssg70
g1320
sg63
(lp1332
S':'
asbag56
(g77
g58
NtRp1333
(dp1334
g61
(dp1335
sg70
g1320
sg63
(lp1336
g56
(g57
g58
NtRp1337
(dp1338
g61
(dp1339
g69
I4
ssg70
g1333
sg63
(lp1340
S''
asbasbasbag56
(g72
g58
NtRp1341
(dp1342
g61
(dp1343
sg70
g833
sg63
(lp1344
g56
(g77
g58
NtRp1345
(dp1346
g61
(dp1347
g81
g82
ssg70
g1341
sg63
(lp1348
S'server_name'
p1349
asbag56
(g77
g58
NtRp1350
(dp1351
g61
(dp1352
g88
g89
ssg70
g1341
sg63
(lp1353
S':'
asbag56
(g77
g58
NtRp1354
(dp1355
g61
(dp1356
sg70
g1341
sg63
(lp1357
g56
(g57
g58
NtRp1358
(dp1359
g61
(dp1360
g69
I4
ssg70
g1354
sg63
(lp1361
S'uriel'
p1362
asbasbasbag56
(g72
g58
NtRp1363
(dp1364
g61
(dp1365
sg70
g833
sg63
(lp1366
g56
(g77
g58
NtRp1367
(dp1368
g61
(dp1369
g81
g82
ssg70
g1363
sg63
(lp1370
S'server_port'
p1371
asbag56
(g77
g58
NtRp1372
(dp1373
g61
(dp1374
g88
g89
ssg70
g1363
sg63
(lp1375
S':'
asbag56
(g77
g58
NtRp1376
(dp1377
g61
(dp1378
sg70
g1363
sg63
(lp1379
g56
(g57
g58
NtRp1380
(dp1381
g61
(dp1382
g69
I4
ssg70
g1376
sg63
(lp1383
S'8000'
p1384
asbasbasbag56
(g72
g58
NtRp1385
(dp1386
g61
(dp1387
sg70
g833
sg63
(lp1388
g56
(g77
g58
NtRp1389
(dp1390
g61
(dp1391
g81
g82
ssg70
g1385
sg63
(lp1392
S'server_protocol'
p1393
asbag56
(g77
g58
NtRp1394
(dp1395
g61
(dp1396
g88
g89
ssg70
g1385
sg63
(lp1397
S':'
asbag56
(g77
g58
NtRp1398
(dp1399
g61
(dp1400
sg70
g1385
sg63
(lp1401
g56
(g57
g58
NtRp1402
(dp1403
g61
(dp1404
g69
I4
ssg70
g1398
sg63
(lp1405
S'HTTP/1.1'
p1406
asbasbasbag56
(g72
g58
NtRp1407
(dp1408
g61
(dp1409
sg70
g833
sg63
(lp1410
g56
(g77
g58
NtRp1411
(dp1412
g61
(dp1413
g81
g82
ssg70
g1407
sg63
(lp1414
S'server_software'
p1415
asbag56
(g77
g58
NtRp1416
(dp1417
g61
(dp1418
g88
g89
ssg70
g1407
sg63
(lp1419
S':'
asbag56
(g77
g58
NtRp1420
(dp1421
g61
(dp1422
sg70
g1407
sg63
(lp1423
g56
(g57
g58
NtRp1424
(dp1425
g61
(dp1426
g69
I4
ssg70
g1420
sg63
(lp1427
S'Rocket 1.2.4'
p1428
asbasbasbag56
(g72
g58
NtRp1429
(dp1430
g61
(dp1431
sg70
g833
sg63
(lp1432
g56
(g77
g58
NtRp1433
(dp1434
g61
(dp1435
g81
g82
ssg70
g1429
sg63
(lp1436
S'web2py_crontype'
p1437
asbag56
(g77
g58
NtRp1438
(dp1439
g61
(dp1440
g88
g89
ssg70
g1429
sg63
(lp1441
S':'
asbag56
(g77
g58
NtRp1442
(dp1443
g61
(dp1444
sg70
g1429
sg63
(lp1445
g56
(g57
g58
NtRp1446
(dp1447
g61
(dp1448
g69
I4
ssg70
g1442
sg63
(lp1449
S'hard'
p1450
asbasbasbag56
(g72
g58
NtRp1451
(dp1452
g61
(dp1453
sg70
g833
sg63
(lp1454
g56
(g77
g58
NtRp1455
(dp1456
g61
(dp1457
g81
g82
ssg70
g1451
sg63
(lp1458
S'web2py_path'
p1459
asbag56
(g77
g58
NtRp1460
(dp1461
g61
(dp1462
g88
g89
ssg70
g1451
sg63
(lp1463
S':'
asbag56
(g77
g58
NtRp1464
(dp1465
g61
(dp1466
sg70
g1451
sg63
(lp1467
g56
(g57
g58
NtRp1468
(dp1469
g61
(dp1470
g69
I4
ssg70
g1464
sg63
(lp1471
g880
asbasbasbag56
(g72
g58
NtRp1472
(dp1473
g61
(dp1474
sg70
g833
sg63
(lp1475
g56
(g77
g58
NtRp1476
(dp1477
g61
(dp1478
g81
g82
ssg70
g1472
sg63
(lp1479
S'web2py_version'
p1480
asbag56
(g77
g58
NtRp1481
(dp1482
g61
(dp1483
g88
g89
ssg70
g1472
sg63
(lp1484
S':'
asbag56
(g77
g58
NtRp1485
(dp1486
g61
(dp1487
sg70
g1472
sg63
(lp1488
g56
(g57
g58
NtRp1489
(dp1490
g61
(dp1491
g69
I4
ssg70
g1485
sg63
(lp1492
g56
(g65
g58
NtRp1493
(dp1494
g61
(dp1495
g69
I3
ssg70
Nsg63
(lp1496
g56
(g72
g58
NtRp1497
(dp1498
g61
(dp1499
sg70
g1493
sg63
(lp1500
g56
(g77
g58
NtRp1501
(dp1502
g61
(dp1503
sg70
g1497
sg63
(lp1504
g56
(g57
g58
NtRp1505
(dp1506
g61
(dp1507
g69
I3
ssg70
g1501
sg63
(lp1508
S'1'
asbasbasbag56
(g72
g58
NtRp1509
(dp1510
g61
(dp1511
sg70
g1493
sg63
(lp1512
g56
(g77
g58
NtRp1513
(dp1514
g61
(dp1515
sg70
g1509
sg63
(lp1516
g56
(g57
g58
NtRp1517
(dp1518
g61
(dp1519
g69
I3
ssg70
g1513
sg63
(lp1520
S'99'
p1521
asbasbasbag56
(g72
g58
NtRp1522
(dp1523
g61
(dp1524
sg70
g1493
sg63
(lp1525
g56
(g77
g58
NtRp1526
(dp1527
g61
(dp1528
sg70
g1522
sg63
(lp1529
g56
(g57
g58
NtRp1530
(dp1531
g61
(dp1532
g69
I3
ssg70
g1526
sg63
(lp1533
S'2'
asbasbasbag56
(g72
g58
NtRp1534
(dp1535
g61
(dp1536
sg70
g1493
sg63
(lp1537
g56
(g77
g58
NtRp1538
(dp1539
g61
(dp1540
sg70
g1534
sg63
(lp1541
g56
(g57
g58
NtRp1542
(dp1543
g61
(dp1544
g69
I3
ssg70
g1538
sg63
(lp1545
S'datetime.datetime(2011, 9, 26, 6, 55, 33)'
p1546
asbasbasbag56
(g72
g58
NtRp1547
(dp1548
g61
(dp1549
sg70
g1493
sg63
(lp1550
g56
(g77
g58
NtRp1551
(dp1552
g61
(dp1553
sg70
g1547
sg63
(lp1554
g56
(g57
g58
NtRp1555
(dp1556
g61
(dp1557
g69
I3
ssg70
g1551
sg63
(lp1558
S'stable'
p1559
asbasbasbasbasbasbasbag56
(g72
g58
NtRp1560
(dp1561
g61
(dp1562
sg70
g833
sg63
(lp1563
g56
(g77
g58
NtRp1564
(dp1565
g61
(dp1566
g81
g82
ssg70
g1560
sg63
(lp1567
S'wsgi_errors'
p1568
asbag56
(g77
g58
NtRp1569
(dp1570
g61
(dp1571
g88
g89
ssg70
g1560
sg63
(lp1572
S':'
asbag56
(g77
g58
NtRp1573
(dp1574
g61
(dp1575
sg70
g1560
sg63
(lp1576
g56
(g57
g58
NtRp1577
(dp1578
g61
(dp1579
g69
I4
ssg70
g1573
sg63
(lp1580
S"<open file '<stderr>', mode 'w' at 0x7f9678b3d270>"
p1581
asbasbasbag56
(g72
g58
NtRp1582
(dp1583
g61
(dp1584
sg70
g833
sg63
(lp1585
g56
(g77
g58
NtRp1586
(dp1587
g61
(dp1588
g81
g82
ssg70
g1582
sg63
(lp1589
S'wsgi_file_wrapper'
p1590
asbag56
(g77
g58
NtRp1591
(dp1592
g61
(dp1593
g88
g89
ssg70
g1582
sg63
(lp1594
S':'
asbag56
(g77
g58
NtRp1595
(dp1596
g61
(dp1597
sg70
g1582
sg63
(lp1598
g56
(g57
g58
NtRp1599
(dp1600
g61
(dp1601
g69
I4
ssg70
g1595
sg63
(lp1602
S'<class wsgiref.util.FileWrapper at 0x1ec9870>'
p1603
asbasbasbag56
(g72
g58
NtRp1604
(dp1605
g61
(dp1606
sg70
g833
sg63
(lp1607
g56
(g77
g58
NtRp1608
(dp1609
g61
(dp1610
g81
g82
ssg70
g1604
sg63
(lp1611
S'wsgi_input'
p1612
asbag56
(g77
g58
NtRp1613
(dp1614
g61
(dp1615
g88
g89
ssg70
g1604
sg63
(lp1616
S':'
asbag56
(g77
g58
NtRp1617
(dp1618
g61
(dp1619
sg70
g1604
sg63
(lp1620
g56
(g57
g58
NtRp1621
(dp1622
g61
(dp1623
g69
I4
ssg70
g1617
sg63
(lp1624
S'<socket._fileobject object at 0x26be550>'
p1625
asbasbasbag56
(g72
g58
NtRp1626
(dp1627
g61
(dp1628
sg70
g833
sg63
(lp1629
g56
(g77
g58
NtRp1630
(dp1631
g61
(dp1632
g81
g82
ssg70
g1626
sg63
(lp1633
S'wsgi_multiprocess'
p1634
asbag56
(g77
g58
NtRp1635
(dp1636
g61
(dp1637
g88
g89
ssg70
g1626
sg63
(lp1638
S':'
asbag56
(g77
g58
NtRp1639
(dp1640
g61
(dp1641
sg70
g1626
sg63
(lp1642
g56
(g57
g58
NtRp1643
(dp1644
g61
(dp1645
g69
I4
ssg70
g1639
sg63
(lp1646
g99
asbasbasbag56
(g72
g58
NtRp1647
(dp1648
g61
(dp1649
sg70
g833
sg63
(lp1650
g56
(g77
g58
NtRp1651
(dp1652
g61
(dp1653
g81
g82
ssg70
g1647
sg63
(lp1654
S'wsgi_multithread'
p1655
asbag56
(g77
g58
NtRp1656
(dp1657
g61
(dp1658
g88
g89
ssg70
g1647
sg63
(lp1659
S':'
asbag56
(g77
g58
NtRp1660
(dp1661
g61
(dp1662
sg70
g1647
sg63
(lp1663
g56
(g57
g58
NtRp1664
(dp1665
g61
(dp1666
g69
I4
ssg70
g1660
sg63
(lp1667
S'True'
p1668
asbasbasbag56
(g72
g58
NtRp1669
(dp1670
g61
(dp1671
sg70
g833
sg63
(lp1672
g56
(g77
g58
NtRp1673
(dp1674
g61
(dp1675
g81
g82
ssg70
g1669
sg63
(lp1676
S'wsgi_run_once'
p1677
asbag56
(g77
g58
NtRp1678
(dp1679
g61
(dp1680
g88
g89
ssg70
g1669
sg63
(lp1681
S':'
asbag56
(g77
g58
NtRp1682
(dp1683
g61
(dp1684
sg70
g1669
sg63
(lp1685
g56
(g57
g58
NtRp1686
(dp1687
g61
(dp1688
g69
I4
ssg70
g1682
sg63
(lp1689
g99
asbasbasbag56
(g72
g58
NtRp1690
(dp1691
g61
(dp1692
sg70
g833
sg63
(lp1693
g56
(g77
g58
NtRp1694
(dp1695
g61
(dp1696
g81
g82
ssg70
g1690
sg63
(lp1697
S'wsgi_url_scheme'
p1698
asbag56
(g77
g58
NtRp1699
(dp1700
g61
(dp1701
g88
g89
ssg70
g1690
sg63
(lp1702
S':'
asbag56
(g77
g58
NtRp1703
(dp1704
g61
(dp1705
sg70
g1690
sg63
(lp1706
g56
(g57
g58
NtRp1707
(dp1708
g61
(dp1709
g69
I4
ssg70
g1703
sg63
(lp1710
S'http'
p1711
asbasbasbag56
(g72
g58
NtRp1712
(dp1713
g61
(dp1714
sg70
g833
sg63
(lp1715
g56
(g77
g58
NtRp1716
(dp1717
g61
(dp1718
g81
g82
ssg70
g1712
sg63
(lp1719
S'wsgi_version'
p1720
asbag56
(g77
g58
NtRp1721
(dp1722
g61
(dp1723
g88
g89
ssg70
g1712
sg63
(lp1724
S':'
asbag56
(g77
g58
NtRp1725
(dp1726
g61
(dp1727
sg70
g1712
sg63
(lp1728
g56
(g57
g58
NtRp1729
(dp1730
g61
(dp1731
g69
I4
ssg70
g1725
sg63
(lp1732
g56
(g65
g58
NtRp1733
(dp1734
g61
(dp1735
g69
I3
ssg70
Nsg63
(lp1736
g56
(g72
g58
NtRp1737
(dp1738
g61
(dp1739
sg70
g1733
sg63
(lp1740
g56
(g77
g58
NtRp1741
(dp1742
g61
(dp1743
sg70
g1737
sg63
(lp1744
g56
(g57
g58
NtRp1745
(dp1746
g61
(dp1747
g69
I3
ssg70
g1741
sg63
(lp1748
S'1'
asbasbasbag56
(g72
g58
NtRp1749
(dp1750
g61
(dp1751
sg70
g1733
sg63
(lp1752
g56
(g77
g58
NtRp1753
(dp1754
g61
(dp1755
sg70
g1749
sg63
(lp1756
g56
(g57
g58
NtRp1757
(dp1758
g61
(dp1759
g69
I3
ssg70
g1753
sg63
(lp1760
S'0'
asbasbasbasbasbasbasbasbasbasbasbag56
(g72
g58
NtRp1761
(dp1762
g61
(dp1763
sg70
g66
sg63
(lp1764
g56
(g77
g58
NtRp1765
(dp1766
g61
(dp1767
g81
g82
ssg70
g1761
sg63
(lp1768
S'extension'
p1769
asbag56
(g77
g58
NtRp1770
(dp1771
g61
(dp1772
g88
g89
ssg70
g1761
sg63
(lp1773
S':'
asbag56
(g77
g58
NtRp1774
(dp1775
g61
(dp1776
sg70
g1761
sg63
(lp1777
g56
(g57
g58
NtRp1778
(dp1779
g61
(dp1780
g69
I5
ssg70
g1774
sg63
(lp1781
S'html'
p1782
asbasbasbag56
(g72
g58
NtRp1783
(dp1784
g61
(dp1785
sg70
g66
sg63
(lp1786
g56
(g77
g58
NtRp1787
(dp1788
g61
(dp1789
g81
g82
ssg70
g1783
sg63
(lp1790
S'folder'
p1791
asbag56
(g77
g58
NtRp1792
(dp1793
g61
(dp1794
g88
g89
ssg70
g1783
sg63
(lp1795
S':'
asbag56
(g77
g58
NtRp1796
(dp1797
g61
(dp1798
sg70
g1783
sg63
(lp1799
g56
(g57
g58
NtRp1800
(dp1801
g61
(dp1802
g69
I5
ssg70
g1796
sg63
(lp1803
S'/home/ian/web2py/applications/grades/'
p1804
asbasbasbag56
(g72
g58
NtRp1805
(dp1806
g61
(dp1807
sg70
g66
sg63
(lp1808
g56
(g77
g58
NtRp1809
(dp1810
g61
(dp1811
g81
g82
ssg70
g1805
sg63
(lp1812
S'function'
p1813
asbag56
(g77
g58
NtRp1814
(dp1815
g61
(dp1816
g88
g89
ssg70
g1805
sg63
(lp1817
S':'
asbag56
(g77
g58
NtRp1818
(dp1819
g61
(dp1820
sg70
g1805
sg63
(lp1821
g56
(g57
g58
NtRp1822
(dp1823
g61
(dp1824
g69
I5
ssg70
g1818
sg63
(lp1825
S'create_grade'
p1826
asbasbasbag56
(g72
g58
NtRp1827
(dp1828
g61
(dp1829
sg70
g66
sg63
(lp1830
g56
(g77
g58
NtRp1831
(dp1832
g61
(dp1833
g81
g82
ssg70
g1827
sg63
(lp1834
S'get_vars'
p1835
asbag56
(g77
g58
NtRp1836
(dp1837
g61
(dp1838
g88
g89
ssg70
g1827
sg63
(lp1839
S':'
asbag56
(g77
g58
NtRp1840
(dp1841
g61
(dp1842
sg70
g1827
sg63
(lp1843
g56
(g57
g58
NtRp1844
(dp1845
g61
(dp1846
g69
I5
ssg70
g1840
sg63
(lp1847
g56
(g65
g58
NtRp1848
(dp1849
g61
(dp1850
g69
I4
ssg70
Nsg63
(lp1851
sbasbasbasbag56
(g72
g58
NtRp1852
(dp1853
g61
(dp1854
sg70
g66
sg63
(lp1855
g56
(g77
g58
NtRp1856
(dp1857
g61
(dp1858
g81
g82
ssg70
g1852
sg63
(lp1859
S'global_settings'
p1860
asbag56
(g77
g58
NtRp1861
(dp1862
g61
(dp1863
g88
g89
ssg70
g1852
sg63
(lp1864
S':'
asbag56
(g77
g58
NtRp1865
(dp1866
g61
(dp1867
sg70
g1852
sg63
(lp1868
g56
(g57
g58
NtRp1869
(dp1870
g61
(dp1871
g69
I5
ssg70
g1865
sg63
(lp1872
g56
(g65
g58
NtRp1873
(dp1874
g61
(dp1875
g69
I4
ssg70
Nsg63
(lp1876
g56
(g72
g58
NtRp1877
(dp1878
g61
(dp1879
sg70
g1873
sg63
(lp1880
g56
(g77
g58
NtRp1881
(dp1882
g61
(dp1883
g81
g82
ssg70
g1877
sg63
(lp1884
g845
asbag56
(g77
g58
NtRp1885
(dp1886
g61
(dp1887
g88
g89
ssg70
g1877
sg63
(lp1888
S':'
asbag56
(g77
g58
NtRp1889
(dp1890
g61
(dp1891
sg70
g1877
sg63
(lp1892
g56
(g57
g58
NtRp1893
(dp1894
g61
(dp1895
g69
I4
ssg70
g1889
sg63
(lp1896
S"set(['/home/ian/web2py/applications/welcome/', '/home/ian/web2py/applications/grades/'])"
p1897
asbasbasbag56
(g72
g58
NtRp1898
(dp1899
g61
(dp1900
sg70
g1873
sg63
(lp1901
g56
(g77
g58
NtRp1902
(dp1903
g61
(dp1904
g81
g82
ssg70
g1898
sg63
(lp1905
g867
asbag56
(g77
g58
NtRp1906
(dp1907
g61
(dp1908
g88
g89
ssg70
g1898
sg63
(lp1909
S':'
asbag56
(g77
g58
NtRp1910
(dp1911
g61
(dp1912
sg70
g1898
sg63
(lp1913
g56
(g57
g58
NtRp1914
(dp1915
g61
(dp1916
g69
I4
ssg70
g1910
sg63
(lp1917
g880
asbasbasbag56
(g72
g58
NtRp1918
(dp1919
g61
(dp1920
sg70
g1873
sg63
(lp1921
g56
(g77
g58
NtRp1922
(dp1923
g61
(dp1924
g81
g82
ssg70
g1918
sg63
(lp1925
g889
asbag56
(g77
g58
NtRp1926
(dp1927
g61
(dp1928
g88
g89
ssg70
g1918
sg63
(lp1929
S':'
asbag56
(g77
g58
NtRp1930
(dp1931
g61
(dp1932
sg70
g1918
sg63
(lp1933
g56
(g57
g58
NtRp1934
(dp1935
g61
(dp1936
g69
I4
ssg70
g1930
sg63
(lp1937
g56
(g65
g58
NtRp1938
(dp1939
g61
(dp1940
g69
I3
ssg70
Nsg63
(lp1941
sbasbasbasbag56
(g72
g58
NtRp1942
(dp1943
g61
(dp1944
sg70
g1873
sg63
(lp1945
g56
(g77
g58
NtRp1946
(dp1947
g61
(dp1948
g81
g82
ssg70
g1942
sg63
(lp1949
g914
asbag56
(g77
g58
NtRp1950
(dp1951
g61
(dp1952
g88
g89
ssg70
g1942
sg63
(lp1953
S':'
asbag56
(g77
g58
NtRp1954
(dp1955
g61
(dp1956
sg70
g1942
sg63
(lp1957
g56
(g57
g58
NtRp1958
(dp1959
g61
(dp1960
g69
I4
ssg70
g1954
sg63
(lp1961
S"<Values at 0x1ffe758: {'verbose': False, 'ip': '127.0.0.1', 'shutdown_timeout': 5, 'taskbar': False, 'nocron': False, 'pid_filename': 'httpserver.pid', 'maxthreads': None, 'softcron': False, 'server_name': 'uriel', 'bpython': False, 'nogui': False, 'port': 8000, 'extcron': False, 'debuglevel': 30, 'test': None, 'folder': '/home/ian/web2py', 'config': '', 'import_models': False, 'winservice': '', 'shell': None, 'run': '', 'log_filename': 'httpserver.log', 'args': [''], 'ssl_ca_certificate': None, 'scheduler': None, 'profiler_filename': None, 'ssl_private_key': '', 'password': '<ask>', 'request_queue_size': 5, 'ssl_certificate': '', 'cronjob': False, 'plain': False, 'quiet': False, 'interfaces': None, 'minthreads': None, 'timeout': 10, 'numthreads': None, 'nobanner': False}>"
p1962
asbasbasbag56
(g72
g58
NtRp1963
(dp1964
g61
(dp1965
sg70
g1873
sg63
(lp1966
g56
(g77
g58
NtRp1967
(dp1968
g61
(dp1969
g81
g82
ssg70
g1963
sg63
(lp1970
g936
asbag56
(g77
g58
NtRp1971
(dp1972
g61
(dp1973
g88
g89
ssg70
g1963
sg63
(lp1974
S':'
asbag56
(g77
g58
NtRp1975
(dp1976
g61
(dp1977
sg70
g1963
sg63
(lp1978
g56
(g57
g58
NtRp1979
(dp1980
g61
(dp1981
g69
I4
ssg70
g1975
sg63
(lp1982
S'set([])'
p1983
asbasbasbag56
(g72
g58
NtRp1984
(dp1985
g61
(dp1986
sg70
g1873
sg63
(lp1987
g56
(g77
g58
NtRp1988
(dp1989
g61
(dp1990
g81
g82
ssg70
g1984
sg63
(lp1991
g958
asbag56
(g77
g58
NtRp1992
(dp1993
g61
(dp1994
g88
g89
ssg70
g1984
sg63
(lp1995
S':'
asbag56
(g77
g58
NtRp1996
(dp1997
g61
(dp1998
sg70
g1984
sg63
(lp1999
g56
(g57
g58
NtRp2000
(dp2001
g61
(dp2002
g69
I4
ssg70
g1996
sg63
(lp2003
g99
asbasbasbag56
(g72
g58
NtRp2004
(dp2005
g61
(dp2006
sg70
g1873
sg63
(lp2007
g56
(g77
g58
NtRp2008
(dp2009
g61
(dp2010
g81
g82
ssg70
g2004
sg63
(lp2011
g979
asbag56
(g77
g58
NtRp2012
(dp2013
g61
(dp2014
g88
g89
ssg70
g2004
sg63
(lp2015
S':'
asbag56
(g77
g58
NtRp2016
(dp2017
g61
(dp2018
sg70
g2004
sg63
(lp2019
g56
(g57
g58
NtRp2020
(dp2021
g61
(dp2022
g69
I4
ssg70
g2016
sg63
(lp2023
g992
asbasbasbag56
(g72
g58
NtRp2024
(dp2025
g61
(dp2026
sg70
g1873
sg63
(lp2027
g56
(g77
g58
NtRp2028
(dp2029
g61
(dp2030
g81
g82
ssg70
g2024
sg63
(lp2031
g1199
asbag56
(g77
g58
NtRp2032
(dp2033
g61
(dp2034
g88
g89
ssg70
g2024
sg63
(lp2035
S':'
asbag56
(g77
g58
NtRp2036
(dp2037
g61
(dp2038
sg70
g2024
sg63
(lp2039
g56
(g57
g58
NtRp2040
(dp2041
g61
(dp2042
g69
I4
ssg70
g2036
sg63
(lp2043
g99
asbasbasbag56
(g72
g58
NtRp2044
(dp2045
g61
(dp2046
sg70
g1873
sg63
(lp2047
g56
(g77
g58
NtRp2048
(dp2049
g61
(dp2050
g81
g82
ssg70
g2044
sg63
(lp2051
g1437
asbag56
(g77
g58
NtRp2052
(dp2053
g61
(dp2054
g88
g89
ssg70
g2044
sg63
(lp2055
S':'
asbag56
(g77
g58
NtRp2056
(dp2057
g61
(dp2058
sg70
g2044
sg63
(lp2059
g56
(g57
g58
NtRp2060
(dp2061
g61
(dp2062
g69
I4
ssg70
g2056
sg63
(lp2063
g1450
asbasbasbag56
(g72
g58
NtRp2064
(dp2065
g61
(dp2066
sg70
g1873
sg63
(lp2067
g56
(g77
g58
NtRp2068
(dp2069
g61
(dp2070
g81
g82
ssg70
g2064
sg63
(lp2071
g1480
asbag56
(g77
g58
NtRp2072
(dp2073
g61
(dp2074
g88
g89
ssg70
g2064
sg63
(lp2075
S':'
asbag56
(g77
g58
NtRp2076
(dp2077
g61
(dp2078
sg70
g2064
sg63
(lp2079
g56
(g57
g58
NtRp2080
(dp2081
g61
(dp2082
g69
I4
ssg70
g2076
sg63
(lp2083
g56
(g65
g58
NtRp2084
(dp2085
g61
(dp2086
g69
I3
ssg70
Nsg63
(lp2087
g56
(g72
g58
NtRp2088
(dp2089
g61
(dp2090
sg70
g2084
sg63
(lp2091
g56
(g77
g58
NtRp2092
(dp2093
g61
(dp2094
sg70
g2088
sg63
(lp2095
g56
(g57
g58
NtRp2096
(dp2097
g61
(dp2098
g69
I3
ssg70
g2092
sg63
(lp2099
S'1'
asbasbasbag56
(g72
g58
NtRp2100
(dp2101
g61
(dp2102
sg70
g2084
sg63
(lp2103
g56
(g77
g58
NtRp2104
(dp2105
g61
(dp2106
sg70
g2100
sg63
(lp2107
g56
(g57
g58
NtRp2108
(dp2109
g61
(dp2110
g69
I3
ssg70
g2104
sg63
(lp2111
S'99'
p2112
asbasbasbag56
(g72
g58
NtRp2113
(dp2114
g61
(dp2115
sg70
g2084
sg63
(lp2116
g56
(g77
g58
NtRp2117
(dp2118
g61
(dp2119
sg70
g2113
sg63
(lp2120
g56
(g57
g58
NtRp2121
(dp2122
g61
(dp2123
g69
I3
ssg70
g2117
sg63
(lp2124
S'2'
asbasbasbag56
(g72
g58
NtRp2125
(dp2126
g61
(dp2127
sg70
g2084
sg63
(lp2128
g56
(g77
g58
NtRp2129
(dp2130
g61
(dp2131
sg70
g2125
sg63
(lp2132
g56
(g57
g58
NtRp2133
(dp2134
g61
(dp2135
g69
I3
ssg70
g2129
sg63
(lp2136
S'datetime.datetime(2011, 9, 26, 6, 55, 33)'
p2137
asbasbasbag56
(g72
g58
NtRp2138
(dp2139
g61
(dp2140
sg70
g2084
sg63
(lp2141
g56
(g77
g58
NtRp2142
(dp2143
g61
(dp2144
sg70
g2138
sg63
(lp2145
g56
(g57
g58
NtRp2146
(dp2147
g61
(dp2148
g69
I3
ssg70
g2142
sg63
(lp2149
g1559
asbasbasbasbasbasbasbasbasbasbasbag56
(g72
g58
NtRp2150
(dp2151
g61
(dp2152
sg70
g66
sg63
(lp2153
g56
(g77
g58
NtRp2154
(dp2155
g61
(dp2156
g81
g82
ssg70
g2150
sg63
(lp2157
S'is_https'
p2158
asbag56
(g77
g58
NtRp2159
(dp2160
g61
(dp2161
g88
g89
ssg70
g2150
sg63
(lp2162
S':'
asbag56
(g77
g58
NtRp2163
(dp2164
g61
(dp2165
sg70
g2150
sg63
(lp2166
g56
(g57
g58
NtRp2167
(dp2168
g61
(dp2169
g69
I5
ssg70
g2163
sg63
(lp2170
g99
asbasbasbag56
(g72
g58
NtRp2171
(dp2172
g61
(dp2173
sg70
g66
sg63
(lp2174
g56
(g77
g58
NtRp2175
(dp2176
g61
(dp2177
g81
g82
ssg70
g2171
sg63
(lp2178
S'is_local'
p2179
asbag56
(g77
g58
NtRp2180
(dp2181
g61
(dp2182
g88
g89
ssg70
g2171
sg63
(lp2183
S':'
asbag56
(g77
g58
NtRp2184
(dp2185
g61
(dp2186
sg70
g2171
sg63
(lp2187
g56
(g57
g58
NtRp2188
(dp2189
g61
(dp2190
g69
I5
ssg70
g2184
sg63
(lp2191
g1668
asbasbasbag56
(g72
g58
NtRp2192
(dp2193
g61
(dp2194
sg70
g66
sg63
(lp2195
g56
(g77
g58
NtRp2196
(dp2197
g61
(dp2198
g81
g82
ssg70
g2192
sg63
(lp2199
S'is_restful'
p2200
asbag56
(g77
g58
NtRp2201
(dp2202
g61
(dp2203
g88
g89
ssg70
g2192
sg63
(lp2204
S':'
asbag56
(g77
g58
NtRp2205
(dp2206
g61
(dp2207
sg70
g2192
sg63
(lp2208
g56
(g57
g58
NtRp2209
(dp2210
g61
(dp2211
g69
I5
ssg70
g2205
sg63
(lp2212
g99
asbasbasbag56
(g72
g58
NtRp2213
(dp2214
g61
(dp2215
sg70
g66
sg63
(lp2216
g56
(g77
g58
NtRp2217
(dp2218
g61
(dp2219
g81
g82
ssg70
g2213
sg63
(lp2220
S'now'
p2221
asbag56
(g77
g58
NtRp2222
(dp2223
g61
(dp2224
g88
g89
ssg70
g2213
sg63
(lp2225
S':'
asbag56
(g77
g58
NtRp2226
(dp2227
g61
(dp2228
sg70
g2213
sg63
(lp2229
g56
(g57
g58
NtRp2230
(dp2231
g61
(dp2232
g69
I5
ssg70
g2226
sg63
(lp2233
S'datetime.datetime(2011, 11, 9, 10, 46, 20, 729497)'
p2234
asbasbasbag56
(g72
g58
NtRp2235
(dp2236
g61
(dp2237
sg70
g66
sg63
(lp2238
g56
(g77
g58
NtRp2239
(dp2240
g61
(dp2241
g81
g82
ssg70
g2235
sg63
(lp2242
S'post_vars'
p2243
asbag56
(g77
g58
NtRp2244
(dp2245
g61
(dp2246
g88
g89
ssg70
g2235
sg63
(lp2247
S':'
asbag56
(g77
g58
NtRp2248
(dp2249
g61
(dp2250
sg70
g2235
sg63
(lp2251
g56
(g57
g58
NtRp2252
(dp2253
g61
(dp2254
g69
I5
ssg70
g2248
sg63
(lp2255
g56
(g65
g58
NtRp2256
(dp2257
g61
(dp2258
g69
I4
ssg70
Nsg63
(lp2259
sbasbasbasbag56
(g72
g58
NtRp2260
(dp2261
g61
(dp2262
sg70
g66
sg63
(lp2263
g56
(g77
g58
NtRp2264
(dp2265
g61
(dp2266
g81
g82
ssg70
g2260
sg63
(lp2267
S'raw_args'
p2268
asbag56
(g77
g58
NtRp2269
(dp2270
g61
(dp2271
g88
g89
ssg70
g2260
sg63
(lp2272
S':'
asbag56
(g77
g58
NtRp2273
(dp2274
g61
(dp2275
sg70
g2260
sg63
(lp2276
g56
(g57
g58
NtRp2277
(dp2278
g61
(dp2279
g69
I5
ssg70
g2273
sg63
(lp2280
S'1'
asbasbasbag56
(g72
g58
NtRp2281
(dp2282
g61
(dp2283
sg70
g66
sg63
(lp2284
g56
(g77
g58
NtRp2285
(dp2286
g61
(dp2287
g81
g82
ssg70
g2281
sg63
(lp2288
S'url'
p2289
asbag56
(g77
g58
NtRp2290
(dp2291
g61
(dp2292
g88
g89
ssg70
g2281
sg63
(lp2293
S':'
asbag56
(g77
g58
NtRp2294
(dp2295
g61
(dp2296
sg70
g2281
sg63
(lp2297
g56
(g57
g58
NtRp2298
(dp2299
g61
(dp2300
g69
I5
ssg70
g2294
sg63
(lp2301
S'/grades/default/create_grade/1'
p2302
asbasbasbag56
(g72
g58
NtRp2303
(dp2304
g61
(dp2305
sg70
g66
sg63
(lp2306
g56
(g77
g58
NtRp2307
(dp2308
g61
(dp2309
g81
g82
ssg70
g2303
sg63
(lp2310
S'utcnow'
p2311
asbag56
(g77
g58
NtRp2312
(dp2313
g61
(dp2314
g88
g89
ssg70
g2303
sg63
(lp2315
S':'
asbag56
(g77
g58
NtRp2316
(dp2317
g61
(dp2318
sg70
g2303
sg63
(lp2319
g56
(g57
g58
NtRp2320
(dp2321
g61
(dp2322
g69
I5
ssg70
g2316
sg63
(lp2323
S'datetime.datetime(2011, 11, 9, 15, 46, 20, 729545)'
p2324
asbasbasbag56
(g72
g58
NtRp2325
(dp2326
g61
(dp2327
sg70
g66
sg63
(lp2328
g56
(g77
g58
NtRp2329
(dp2330
g61
(dp2331
g81
g82
ssg70
g2325
sg63
(lp2332
S'uuid'
p2333
asbag56
(g77
g58
NtRp2334
(dp2335
g61
(dp2336
g88
g89
ssg70
g2325
sg63
(lp2337
S':'
asbag56
(g77
g58
NtRp2338
(dp2339
g61
(dp2340
sg70
g2325
sg63
(lp2341
g56
(g57
g58
NtRp2342
(dp2343
g61
(dp2344
g69
I5
ssg70
g2338
sg63
(lp2345
S'grades/127.0.0.1.2011-11-09.10-46-20.cd0e5e54-aced-4f5d-97db-0c19385259cd'
p2346
asbasbasbag56
(g72
g58
NtRp2347
(dp2348
g61
(dp2349
sg70
g66
sg63
(lp2350
g56
(g77
g58
NtRp2351
(dp2352
g61
(dp2353
g81
g82
ssg70
g2347
sg63
(lp2354
S'vars'
p2355
asbag56
(g77
g58
NtRp2356
(dp2357
g61
(dp2358
g88
g89
ssg70
g2347
sg63
(lp2359
S':'
asbag56
(g77
g58
NtRp2360
(dp2361
g61
(dp2362
sg70
g2347
sg63
(lp2363
g56
(g57
g58
NtRp2364
(dp2365
g61
(dp2366
g69
I5
ssg70
g2360
sg63
(lp2367
g56
(g65
g58
NtRp2368
(dp2369
g61
(dp2370
g69
I4
ssg70
Nsg63
(lp2371
sbasbasbasbag56
(g72
g58
NtRp2372
(dp2373
g61
(dp2374
sg70
g66
sg63
(lp2375
g56
(g77
g58
NtRp2376
(dp2377
g61
(dp2378
g81
g82
ssg70
g2372
sg63
(lp2379
S'wsgi'
p2380
asbag56
(g77
g58
NtRp2381
(dp2382
g61
(dp2383
g88
g89
ssg70
g2372
sg63
(lp2384
S':'
asbag56
(g77
g58
NtRp2385
(dp2386
g61
(dp2387
sg70
g2372
sg63
(lp2388
g56
(g57
g58
NtRp2389
(dp2390
g61
(dp2391
g69
I5
ssg70
g2385
sg63
(lp2392
g56
(g65
g58
NtRp2393
(dp2394
g61
(dp2395
g69
I4
ssg70
Nsg63
(lp2396
g56
(g72
g58
NtRp2397
(dp2398
g61
(dp2399
sg70
g2393
sg63
(lp2400
g56
(g77
g58
NtRp2401
(dp2402
g61
(dp2403
g81
g82
ssg70
g2397
sg63
(lp2404
S'environ'
p2405
asbag56
(g77
g58
NtRp2406
(dp2407
g61
(dp2408
g88
g89
ssg70
g2397
sg63
(lp2409
S':'
asbag56
(g77
g58
NtRp2410
(dp2411
g61
(dp2412
sg70
g2397
sg63
(lp2413
g56
(g57
g58
NtRp2414
(dp2415
g61
(dp2416
g69
I4
ssg70
g2410
sg63
(lp2417
g56
(g65
g58
NtRp2418
(dp2419
g61
(dp2420
g69
I3
ssg70
Nsg63
(lp2421
g56
(g72
g58
NtRp2422
(dp2423
g61
(dp2424
sg70
g2418
sg63
(lp2425
g56
(g77
g58
NtRp2426
(dp2427
g61
(dp2428
g81
g82
ssg70
g2422
sg63
(lp2429
S'HTTP_ACCEPT'
p2430
asbag56
(g77
g58
NtRp2431
(dp2432
g61
(dp2433
g88
g89
ssg70
g2422
sg63
(lp2434
S':'
asbag56
(g77
g58
NtRp2435
(dp2436
g61
(dp2437
sg70
g2422
sg63
(lp2438
g56
(g57
g58
NtRp2439
(dp2440
g61
(dp2441
g69
I3
ssg70
g2435
sg63
(lp2442
g1014
asbasbasbag56
(g72
g58
NtRp2443
(dp2444
g61
(dp2445
sg70
g2418
sg63
(lp2446
g56
(g77
g58
NtRp2447
(dp2448
g61
(dp2449
g81
g82
ssg70
g2443
sg63
(lp2450
S'HTTP_ACCEPT_ENCODING'
p2451
asbag56
(g77
g58
NtRp2452
(dp2453
g61
(dp2454
g88
g89
ssg70
g2443
sg63
(lp2455
S':'
asbag56
(g77
g58
NtRp2456
(dp2457
g61
(dp2458
sg70
g2443
sg63
(lp2459
g56
(g57
g58
NtRp2460
(dp2461
g61
(dp2462
g69
I3
ssg70
g2456
sg63
(lp2463
g1036
asbasbasbag56
(g72
g58
NtRp2464
(dp2465
g61
(dp2466
sg70
g2418
sg63
(lp2467
g56
(g77
g58
NtRp2468
(dp2469
g61
(dp2470
g81
g82
ssg70
g2464
sg63
(lp2471
S'HTTP_ACCEPT_LANGUAGE'
p2472
asbag56
(g77
g58
NtRp2473
(dp2474
g61
(dp2475
g88
g89
ssg70
g2464
sg63
(lp2476
S':'
asbag56
(g77
g58
NtRp2477
(dp2478
g61
(dp2479
sg70
g2464
sg63
(lp2480
g56
(g57
g58
NtRp2481
(dp2482
g61
(dp2483
g69
I3
ssg70
g2477
sg63
(lp2484
g1058
asbasbasbag56
(g72
g58
NtRp2485
(dp2486
g61
(dp2487
sg70
g2418
sg63
(lp2488
g56
(g77
g58
NtRp2489
(dp2490
g61
(dp2491
g81
g82
ssg70
g2485
sg63
(lp2492
S'HTTP_CACHE_CONTROL'
p2493
asbag56
(g77
g58
NtRp2494
(dp2495
g61
(dp2496
g88
g89
ssg70
g2485
sg63
(lp2497
S':'
asbag56
(g77
g58
NtRp2498
(dp2499
g61
(dp2500
sg70
g2485
sg63
(lp2501
g56
(g57
g58
NtRp2502
(dp2503
g61
(dp2504
g69
I3
ssg70
g2498
sg63
(lp2505
g1080
asbasbasbag56
(g72
g58
NtRp2506
(dp2507
g61
(dp2508
sg70
g2418
sg63
(lp2509
g56
(g77
g58
NtRp2510
(dp2511
g61
(dp2512
g81
g82
ssg70
g2506
sg63
(lp2513
S'HTTP_CONNECTION'
p2514
asbag56
(g77
g58
NtRp2515
(dp2516
g61
(dp2517
g88
g89
ssg70
g2506
sg63
(lp2518
S':'
asbag56
(g77
g58
NtRp2519
(dp2520
g61
(dp2521
sg70
g2506
sg63
(lp2522
g56
(g57
g58
NtRp2523
(dp2524
g61
(dp2525
g69
I3
ssg70
g2519
sg63
(lp2526
g1102
asbasbasbag56
(g72
g58
NtRp2527
(dp2528
g61
(dp2529
sg70
g2418
sg63
(lp2530
g56
(g77
g58
NtRp2531
(dp2532
g61
(dp2533
g81
g82
ssg70
g2527
sg63
(lp2534
S'HTTP_COOKIE'
p2535
asbag56
(g77
g58
NtRp2536
(dp2537
g61
(dp2538
g88
g89
ssg70
g2527
sg63
(lp2539
S':'
asbag56
(g77
g58
NtRp2540
(dp2541
g61
(dp2542
sg70
g2527
sg63
(lp2543
g56
(g57
g58
NtRp2544
(dp2545
g61
(dp2546
g69
I3
ssg70
g2540
sg63
(lp2547
g1124
asbasbasbag56
(g72
g58
NtRp2548
(dp2549
g61
(dp2550
sg70
g2418
sg63
(lp2551
g56
(g77
g58
NtRp2552
(dp2553
g61
(dp2554
g81
g82
ssg70
g2548
sg63
(lp2555
S'HTTP_HOST'
p2556
asbag56
(g77
g58
NtRp2557
(dp2558
g61
(dp2559
g88
g89
ssg70
g2548
sg63
(lp2560
S':'
asbag56
(g77
g58
NtRp2561
(dp2562
g61
(dp2563
sg70
g2548
sg63
(lp2564
g56
(g57
g58
NtRp2565
(dp2566
g61
(dp2567
g69
I3
ssg70
g2561
sg63
(lp2568
g1146
asbasbasbag56
(g72
g58
NtRp2569
(dp2570
g61
(dp2571
sg70
g2418
sg63
(lp2572
g56
(g77
g58
NtRp2573
(dp2574
g61
(dp2575
g81
g82
ssg70
g2569
sg63
(lp2576
S'HTTP_REFERER'
p2577
asbag56
(g77
g58
NtRp2578
(dp2579
g61
(dp2580
g88
g89
ssg70
g2569
sg63
(lp2581
S':'
asbag56
(g77
g58
NtRp2582
(dp2583
g61
(dp2584
sg70
g2569
sg63
(lp2585
g56
(g57
g58
NtRp2586
(dp2587
g61
(dp2588
g69
I3
ssg70
g2582
sg63
(lp2589
g1168
asbasbasbag56
(g72
g58
NtRp2590
(dp2591
g61
(dp2592
sg70
g2418
sg63
(lp2593
g56
(g77
g58
NtRp2594
(dp2595
g61
(dp2596
g81
g82
ssg70
g2590
sg63
(lp2597
S'HTTP_USER_AGENT'
p2598
asbag56
(g77
g58
NtRp2599
(dp2600
g61
(dp2601
g88
g89
ssg70
g2590
sg63
(lp2602
S':'
asbag56
(g77
g58
NtRp2603
(dp2604
g61
(dp2605
sg70
g2590
sg63
(lp2606
g56
(g57
g58
NtRp2607
(dp2608
g61
(dp2609
g69
I3
ssg70
g2603
sg63
(lp2610
g1190
asbasbasbag56
(g72
g58
NtRp2611
(dp2612
g61
(dp2613
sg70
g2418
sg63
(lp2614
g56
(g77
g58
NtRp2615
(dp2616
g61
(dp2617
g81
g82
ssg70
g2611
sg63
(lp2618
S'PATH_INFO'
p2619
asbag56
(g77
g58
NtRp2620
(dp2621
g61
(dp2622
g88
g89
ssg70
g2611
sg63
(lp2623
S':'
asbag56
(g77
g58
NtRp2624
(dp2625
g61
(dp2626
sg70
g2611
sg63
(lp2627
g56
(g57
g58
NtRp2628
(dp2629
g61
(dp2630
g69
I3
ssg70
g2624
sg63
(lp2631
g1233
asbasbasbag56
(g72
g58
NtRp2632
(dp2633
g61
(dp2634
sg70
g2418
sg63
(lp2635
g56
(g77
g58
NtRp2636
(dp2637
g61
(dp2638
g81
g82
ssg70
g2632
sg63
(lp2639
S'QUERY_STRING'
p2640
asbag56
(g77
g58
NtRp2641
(dp2642
g61
(dp2643
g88
g89
ssg70
g2632
sg63
(lp2644
S':'
asbag56
(g77
g58
NtRp2645
(dp2646
g61
(dp2647
sg70
g2632
sg63
(lp2648
g56
(g57
g58
NtRp2649
(dp2650
g61
(dp2651
g69
I3
ssg70
g2645
sg63
(lp2652
S''
asbasbasbag56
(g72
g58
NtRp2653
(dp2654
g61
(dp2655
sg70
g2418
sg63
(lp2656
g56
(g77
g58
NtRp2657
(dp2658
g61
(dp2659
g81
g82
ssg70
g2653
sg63
(lp2660
S'REMOTE_ADDR'
p2661
asbag56
(g77
g58
NtRp2662
(dp2663
g61
(dp2664
g88
g89
ssg70
g2653
sg63
(lp2665
S':'
asbag56
(g77
g58
NtRp2666
(dp2667
g61
(dp2668
sg70
g2653
sg63
(lp2669
g56
(g57
g58
NtRp2670
(dp2671
g61
(dp2672
g69
I3
ssg70
g2666
sg63
(lp2673
g201
asbasbasbag56
(g72
g58
NtRp2674
(dp2675
g61
(dp2676
sg70
g2418
sg63
(lp2677
g56
(g77
g58
NtRp2678
(dp2679
g61
(dp2680
g81
g82
ssg70
g2674
sg63
(lp2681
S'REMOTE_PORT'
p2682
asbag56
(g77
g58
NtRp2683
(dp2684
g61
(dp2685
g88
g89
ssg70
g2674
sg63
(lp2686
S':'
asbag56
(g77
g58
NtRp2687
(dp2688
g61
(dp2689
sg70
g2674
sg63
(lp2690
g56
(g57
g58
NtRp2691
(dp2692
g61
(dp2693
g69
I3
ssg70
g2687
sg63
(lp2694
g1297
asbasbasbag56
(g72
g58
NtRp2695
(dp2696
g61
(dp2697
sg70
g2418
sg63
(lp2698
g56
(g77
g58
NtRp2699
(dp2700
g61
(dp2701
g81
g82
ssg70
g2695
sg63
(lp2702
S'REQUEST_METHOD'
p2703
asbag56
(g77
g58
NtRp2704
(dp2705
g61
(dp2706
g88
g89
ssg70
g2695
sg63
(lp2707
S':'
asbag56
(g77
g58
NtRp2708
(dp2709
g61
(dp2710
sg70
g2695
sg63
(lp2711
g56
(g57
g58
NtRp2712
(dp2713
g61
(dp2714
g69
I3
ssg70
g2708
sg63
(lp2715
g1319
asbasbasbag56
(g72
g58
NtRp2716
(dp2717
g61
(dp2718
sg70
g2418
sg63
(lp2719
g56
(g77
g58
NtRp2720
(dp2721
g61
(dp2722
g81
g82
ssg70
g2716
sg63
(lp2723
S'SCRIPT_NAME'
p2724
asbag56
(g77
g58
NtRp2725
(dp2726
g61
(dp2727
g88
g89
ssg70
g2716
sg63
(lp2728
S':'
asbag56
(g77
g58
NtRp2729
(dp2730
g61
(dp2731
sg70
g2716
sg63
(lp2732
g56
(g57
g58
NtRp2733
(dp2734
g61
(dp2735
g69
I3
ssg70
g2729
sg63
(lp2736
S''
asbasbasbag56
(g72
g58
NtRp2737
(dp2738
g61
(dp2739
sg70
g2418
sg63
(lp2740
g56
(g77
g58
NtRp2741
(dp2742
g61
(dp2743
g81
g82
ssg70
g2737
sg63
(lp2744
S'SERVER_NAME'
p2745
asbag56
(g77
g58
NtRp2746
(dp2747
g61
(dp2748
g88
g89
ssg70
g2737
sg63
(lp2749
S':'
asbag56
(g77
g58
NtRp2750
(dp2751
g61
(dp2752
sg70
g2737
sg63
(lp2753
g56
(g57
g58
NtRp2754
(dp2755
g61
(dp2756
g69
I3
ssg70
g2750
sg63
(lp2757
g1362
asbasbasbag56
(g72
g58
NtRp2758
(dp2759
g61
(dp2760
sg70
g2418
sg63
(lp2761
g56
(g77
g58
NtRp2762
(dp2763
g61
(dp2764
g81
g82
ssg70
g2758
sg63
(lp2765
S'SERVER_PORT'
p2766
asbag56
(g77
g58
NtRp2767
(dp2768
g61
(dp2769
g88
g89
ssg70
g2758
sg63
(lp2770
S':'
asbag56
(g77
g58
NtRp2771
(dp2772
g61
(dp2773
sg70
g2758
sg63
(lp2774
g56
(g57
g58
NtRp2775
(dp2776
g61
(dp2777
g69
I3
ssg70
g2771
sg63
(lp2778
g1384
asbasbasbag56
(g72
g58
NtRp2779
(dp2780
g61
(dp2781
sg70
g2418
sg63
(lp2782
g56
(g77
g58
NtRp2783
(dp2784
g61
(dp2785
g81
g82
ssg70
g2779
sg63
(lp2786
S'SERVER_PROTOCOL'
p2787
asbag56
(g77
g58
NtRp2788
(dp2789
g61
(dp2790
g88
g89
ssg70
g2779
sg63
(lp2791
S':'
asbag56
(g77
g58
NtRp2792
(dp2793
g61
(dp2794
sg70
g2779
sg63
(lp2795
g56
(g57
g58
NtRp2796
(dp2797
g61
(dp2798
g69
I3
ssg70
g2792
sg63
(lp2799
g1406
asbasbasbag56
(g72
g58
NtRp2800
(dp2801
g61
(dp2802
sg70
g2418
sg63
(lp2803
g56
(g77
g58
NtRp2804
(dp2805
g61
(dp2806
g81
g82
ssg70
g2800
sg63
(lp2807
S'SERVER_SOFTWARE'
p2808
asbag56
(g77
g58
NtRp2809
(dp2810
g61
(dp2811
g88
g89
ssg70
g2800
sg63
(lp2812
S':'
asbag56
(g77
g58
NtRp2813
(dp2814
g61
(dp2815
sg70
g2800
sg63
(lp2816
g56
(g57
g58
NtRp2817
(dp2818
g61
(dp2819
g69
I3
ssg70
g2813
sg63
(lp2820
g1428
asbasbasbag56
(g72
g58
NtRp2821
(dp2822
g61
(dp2823
sg70
g2418
sg63
(lp2824
g56
(g77
g58
NtRp2825
(dp2826
g61
(dp2827
g81
g82
ssg70
g2821
sg63
(lp2828
S'wsgi.errors'
p2829
asbag56
(g77
g58
NtRp2830
(dp2831
g61
(dp2832
g88
g89
ssg70
g2821
sg63
(lp2833
S':'
asbag56
(g77
g58
NtRp2834
(dp2835
g61
(dp2836
sg70
g2821
sg63
(lp2837
g56
(g57
g58
NtRp2838
(dp2839
g61
(dp2840
g69
I3
ssg70
g2834
sg63
(lp2841
S"<open file '<stderr>', mode 'w' at 0x7f9678b3d270>"
p2842
asbasbasbag56
(g72
g58
NtRp2843
(dp2844
g61
(dp2845
sg70
g2418
sg63
(lp2846
g56
(g77
g58
NtRp2847
(dp2848
g61
(dp2849
g81
g82
ssg70
g2843
sg63
(lp2850
S'wsgi.file_wrapper'
p2851
asbag56
(g77
g58
NtRp2852
(dp2853
g61
(dp2854
g88
g89
ssg70
g2843
sg63
(lp2855
S':'
asbag56
(g77
g58
NtRp2856
(dp2857
g61
(dp2858
sg70
g2843
sg63
(lp2859
g56
(g57
g58
NtRp2860
(dp2861
g61
(dp2862
g69
I3
ssg70
g2856
sg63
(lp2863
S'<class wsgiref.util.FileWrapper at 0x1ec9870>'
p2864
asbasbasbag56
(g72
g58
NtRp2865
(dp2866
g61
(dp2867
sg70
g2418
sg63
(lp2868
g56
(g77
g58
NtRp2869
(dp2870
g61
(dp2871
g81
g82
ssg70
g2865
sg63
(lp2872
S'wsgi.input'
p2873
asbag56
(g77
g58
NtRp2874
(dp2875
g61
(dp2876
g88
g89
ssg70
g2865
sg63
(lp2877
S':'
asbag56
(g77
g58
NtRp2878
(dp2879
g61
(dp2880
sg70
g2865
sg63
(lp2881
g56
(g57
g58
NtRp2882
(dp2883
g61
(dp2884
g69
I3
ssg70
g2878
sg63
(lp2885
S'<cStringIO.StringO object at 0x2e460a0>'
p2886
asbasbasbag56
(g72
g58
NtRp2887
(dp2888
g61
(dp2889
sg70
g2418
sg63
(lp2890
g56
(g77
g58
NtRp2891
(dp2892
g61
(dp2893
g81
g82
ssg70
g2887
sg63
(lp2894
S'wsgi.multiprocess'
p2895
asbag56
(g77
g58
NtRp2896
(dp2897
g61
(dp2898
g88
g89
ssg70
g2887
sg63
(lp2899
S':'
asbag56
(g77
g58
NtRp2900
(dp2901
g61
(dp2902
sg70
g2887
sg63
(lp2903
g56
(g57
g58
NtRp2904
(dp2905
g61
(dp2906
g69
I3
ssg70
g2900
sg63
(lp2907
g99
asbasbasbag56
(g72
g58
NtRp2908
(dp2909
g61
(dp2910
sg70
g2418
sg63
(lp2911
g56
(g77
g58
NtRp2912
(dp2913
g61
(dp2914
g81
g82
ssg70
g2908
sg63
(lp2915
S'wsgi.multithread'
p2916
asbag56
(g77
g58
NtRp2917
(dp2918
g61
(dp2919
g88
g89
ssg70
g2908
sg63
(lp2920
S':'
asbag56
(g77
g58
NtRp2921
(dp2922
g61
(dp2923
sg70
g2908
sg63
(lp2924
g56
(g57
g58
NtRp2925
(dp2926
g61
(dp2927
g69
I3
ssg70
g2921
sg63
(lp2928
g1668
asbasbasbag56
(g72
g58
NtRp2929
(dp2930
g61
(dp2931
sg70
g2418
sg63
(lp2932
g56
(g77
g58
NtRp2933
(dp2934
g61
(dp2935
g81
g82
ssg70
g2929
sg63
(lp2936
S'wsgi.run_once'
p2937
asbag56
(g77
g58
NtRp2938
(dp2939
g61
(dp2940
g88
g89
ssg70
g2929
sg63
(lp2941
S':'
asbag56
(g77
g58
NtRp2942
(dp2943
g61
(dp2944
sg70
g2929
sg63
(lp2945
g56
(g57
g58
NtRp2946
(dp2947
g61
(dp2948
g69
I3
ssg70
g2942
sg63
(lp2949
g99
asbasbasbag56
(g72
g58
NtRp2950
(dp2951
g61
(dp2952
sg70
g2418
sg63
(lp2953
g56
(g77
g58
NtRp2954
(dp2955
g61
(dp2956
g81
g82
ssg70
g2950
sg63
(lp2957
S'wsgi.url_scheme'
p2958
asbag56
(g77
g58
NtRp2959
(dp2960
g61
(dp2961
g88
g89
ssg70
g2950
sg63
(lp2962
S':'
asbag56
(g77
g58
NtRp2963
(dp2964
g61
(dp2965
sg70
g2950
sg63
(lp2966
g56
(g57
g58
NtRp2967
(dp2968
g61
(dp2969
g69
I3
ssg70
g2963
sg63
(lp2970
g1711
asbasbasbag56
(g72
g58
NtRp2971
(dp2972
g61
(dp2973
sg70
g2418
sg63
(lp2974
g56
(g77
g58
NtRp2975
(dp2976
g61
(dp2977
g81
g82
ssg70
g2971
sg63
(lp2978
S'wsgi.version'
p2979
asbag56
(g77
g58
NtRp2980
(dp2981
g61
(dp2982
g88
g89
ssg70
g2971
sg63
(lp2983
S':'
asbag56
(g77
g58
NtRp2984
(dp2985
g61
(dp2986
sg70
g2971
sg63
(lp2987
g56
(g57
g58
NtRp2988
(dp2989
g61
(dp2990
g69
I3
ssg70
g2984
sg63
(lp2991
S'1'
asbasbasbasbasbasbasbasbasbasbasbasbasbsS'frames'
p2992
(lp2993
(dp2994
S'file'
p2995
S'/home/ian/web2py/gluon/restricted.py'
p2996
sS'dump'
p2997
(dp2998
S'environment'
p2999
S"{'A': <class 'gluon.html.A'>, 'Auth': <class 'gluon.tools.Auth'>, 'B': <class 'gluon.html.B'>, 'BEAUTIFY': <class 'gluon.html.BEAUTIFY'>, 'BODY': <class 'gluon.html.BODY'>, 'BR': <class 'gluon.html.BR'>, 'BUTTON': <class 'gluon.html.BUTTON'>, 'CAT': <class 'gluon.html.CAT'>, 'CENTER': <class 'gluon.html.CENTER'>, 'CLEANUP': <class 'gluon.validators.CLEANUP'>, ...}"
p3000
sS'ccode'
p3001
S'<code object <module> at 0x26bbdb0, file "/home/...lications/grades/controllers/default.py", line 1>'
p3002
ssS'lnum'
p3003
I194
sS'lines'
p3004
(dp3005
I192
S'        else:'
p3006
sI193
S'            ccode = compile2(code,layer)'
p3007
sI194
S'        exec ccode in environment'
p3008
sI195
S'    except HTTP:'
p3009
sI196
S'        raise'
p3010
sI197
S'    except Exception, error:'
p3011
sI198
S'        # XXX Show exception in Wing IDE if running in debugger'
p3012
sI189
S'    try:'
p3013
sI190
S'        if type(code) == types.CodeType:'
p3014
sI191
S'            ccode = code'
p3015
ssS'call'
p3016
S"(code='# -*- coding: utf-8 -*-\\nif 0:\\n    from gluon imp...  \\nresponse._vars=response._caller(create_grade)\\n', environment={'A': <class 'gluon.html.A'>, 'Auth': <class 'gluon.tools.Auth'>, 'B': <class 'gluon.html.B'>, 'BEAUTIFY': <class 'gluon.html.BEAUTIFY'>, 'BODY': <class 'gluon.html.BODY'>, 'BR': <class 'gluon.html.BR'>, 'BUTTON': <class 'gluon.html.BUTTON'>, 'CAT': <class 'gluon.html.CAT'>, 'CENTER': <class 'gluon.html.CENTER'>, 'CLEANUP': <class 'gluon.validators.CLEANUP'>, ...}, layer='/home/ian/web2py/applications/grades/controllers/default.py')"
p3017
sS'func'
p3018
S'restricted'
p3019
sa(dp3020
g2995
S'/home/ian/web2py/applications/grades/controllers/default.py'
p3021
sg2997
(dp3022
sg3003
I73
sg3004
(dp3023
I64
S'            if the_date in dates:'
p3024
sI65
S'                dates[the_date].append(r.grade)'
p3025
sI66
S'            else:'
p3026
sI67
S'                dates[the_date] = [r.grade]'
p3027
sI68
S'        else:'
p3028
sI69
S'            l = [r.grade]'
p3029
sI70
S'            the_date = r.class_date'
p3030
sI71
S'            g[r.course] = dict(the_date = l)'
p3031
sI72
S'    return dict(grades = g, students = students, student = student)'
p3032
sI63
S'            dates = g[the_course]'
p3033
ssg3016
S'()'
p3034
sg3018
S'<module>'
p3035
sa(dp3036
g2995
S'/home/ian/web2py/gluon/globals.py'
p3037
sg2997
(dp3038
S'self'
p3039
S'undefined'
p3040
sS'f'
S'<function create_grade>'
p3041
ssg3003
I149
sg3004
(dp3042
I144
S'        self.meta = Storage()      # used by web2py_ajax.html'
p3043
sI145
S'        self.menu = []             # used by the default view layout'
p3044
sI146
S'        self.files = []            # used by web2py_ajax.html'
p3045
sI147
S'        self.generic_patterns = [] # patterns to allow generic views'
p3046
sI148
S'        self._vars = None'
p3047
sI149
S'        self._caller = lambda f: f()'
p3048
sI150
S'        self._view_environment = None'
p3049
sI151
S'        self._custom_commit = None'
p3050
sI152
S'        self._custom_rollback = None'
p3051
sI153
S''
ssg3016
S'(f=<function create_grade>)'
p3052
sg3018
S'<lambda>'
p3053
sa(dp3054
g2995
S'/home/ian/web2py/gluon/tools.py'
p3055
sg2997
(dp3056
S'action'
p3057
S'<function create_grade>'
p3058
sS'a'
S'()'
p3059
sS'b'
g44
ssg3003
I2456
sg3004
(dp3060
I2451
S"                            '?_next='+urllib.quote(next))"
p3061
sI2452
S'                if not condition:'
p3062
sI2453
S'                    current.session.flash = self.messages.access_denied'
p3063
sI2454
S'                    return call_or_redirect('
p3064
sI2455
S'                        self.settings.on_failed_authorization)'
p3065
sI2456
S'                return action(*a, **b)'
p3066
sI2457
S'            f.__doc__ = action.__doc__'
p3067
sI2458
S'            f.__name__ = action.__name__'
p3068
sI2459
S'            f.__dict__.update(action.__dict__)'
p3069
sI2460
S'            return f'
p3070
ssg3016
S'(*a=(), **b={})'
p3071
sg3018
S'f'
sa(dp3072
g2995
S'/home/ian/web2py/applications/grades/controllers/default.py'
p3073
sg2997
(dp3074
S'name'
p3075
g3040
sS'form'
p3076
g3040
sS'global SQLFORM'
p3077
S"<class 'gluon.sqlhtml.SQLFORM'>"
p3078
sS'labels'
p3079
g3040
sS'global db'
p3080
S"<DAL {'auth_event': <Table {'origin': <gluon.dal..., 'id': <gluon.dal.Field object at 0x2e43d50>}>}>"
p3081
sS'db.grades'
p3082
S"<Table {'submitted_date': <gluon.dal.Field objec...0>, 'id': <gluon.dal.Field object at 0x2eb8410>}>"
p3083
ssg3003
I40
sg3004
(dp3084
I35
S'    form = SQLFORM.smartgrid(db.courses,onupdate=auth.archive)'
p3085
sI36
S'    return locals()'
p3086
sI37
S''
sI38
S'@auth.requires_login()'
p3087
sI39
S'def create_grade():'
p3088
sI40
S"    form = SQLFORM(db.grades, labels={name:'student receiving grade'})"
p3089
sI41
S'    return dict(form = form)'
p3090
sI42
S''
sI43
S"@auth.requires_membership(role='administrators')"
p3091
sI44
S'def grades_report():'
p3092
ssg3016
S'()'
p3093
sg3018
S'create_grade'
p3094
sasS'pyver'
p3095
S'Python 2.7.2+: /usr/bin/python2.7'
p3096
sS'session'
p3097
g56
(g57
g58
NtRp3098
(dp3099
g61
(dp3100
sg63
(lp3101
g56
(g65
g58
NtRp3102
(dp3103
g61
(dp3104
g69
I5
ssg70
Nsg63
(lp3105
g56
(g72
g58
NtRp3106
(dp3107
g61
(dp3108
sg70
g3102
sg63
(lp3109
g56
(g77
g58
NtRp3110
(dp3111
g61
(dp3112
g81
g82
ssg70
g3106
sg63
(lp3113
S'auth'
p3114
asbag56
(g77
g58
NtRp3115
(dp3116
g61
(dp3117
g88
g89
ssg70
g3106
sg63
(lp3118
S':'
asbag56
(g77
g58
NtRp3119
(dp3120
g61
(dp3121
sg70
g3106
sg63
(lp3122
g56
(g57
g58
NtRp3123
(dp3124
g61
(dp3125
g69
I5
ssg70
g3119
sg63
(lp3126
g56
(g65
g58
NtRp3127
(dp3128
g61
(dp3129
g69
I4
ssg70
Nsg63
(lp3130
g56
(g72
g58
NtRp3131
(dp3132
g61
(dp3133
sg70
g3127
sg63
(lp3134
g56
(g77
g58
NtRp3135
(dp3136
g61
(dp3137
g81
g82
ssg70
g3131
sg63
(lp3138
S'expiration'
p3139
asbag56
(g77
g58
NtRp3140
(dp3141
g61
(dp3142
g88
g89
ssg70
g3131
sg63
(lp3143
S':'
asbag56
(g77
g58
NtRp3144
(dp3145
g61
(dp3146
sg70
g3131
sg63
(lp3147
g56
(g57
g58
NtRp3148
(dp3149
g61
(dp3150
g69
I4
ssg70
g3144
sg63
(lp3151
S'2592000'
p3152
asbasbasbag56
(g72
g58
NtRp3153
(dp3154
g61
(dp3155
sg70
g3127
sg63
(lp3156
g56
(g77
g58
NtRp3157
(dp3158
g61
(dp3159
g81
g82
ssg70
g3153
sg63
(lp3160
S'hmac_key'
p3161
asbag56
(g77
g58
NtRp3162
(dp3163
g61
(dp3164
g88
g89
ssg70
g3153
sg63
(lp3165
S':'
asbag56
(g77
g58
NtRp3166
(dp3167
g61
(dp3168
sg70
g3153
sg63
(lp3169
g56
(g57
g58
NtRp3170
(dp3171
g61
(dp3172
g69
I4
ssg70
g3166
sg63
(lp3173
S'9b7ebcac-3930-4d2e-b821-147c95f7c4c2'
p3174
asbasbasbag56
(g72
g58
NtRp3175
(dp3176
g61
(dp3177
sg70
g3127
sg63
(lp3178
g56
(g77
g58
NtRp3179
(dp3180
g61
(dp3181
g81
g82
ssg70
g3175
sg63
(lp3182
S'last_visit'
p3183
asbag56
(g77
g58
NtRp3184
(dp3185
g61
(dp3186
g88
g89
ssg70
g3175
sg63
(lp3187
S':'
asbag56
(g77
g58
NtRp3188
(dp3189
g61
(dp3190
sg70
g3175
sg63
(lp3191
g56
(g57
g58
NtRp3192
(dp3193
g61
(dp3194
g69
I4
ssg70
g3188
sg63
(lp3195
S'datetime.datetime(2011, 11, 6, 15, 31, 56, 972407)'
p3196
asbasbasbag56
(g72
g58
NtRp3197
(dp3198
g61
(dp3199
sg70
g3127
sg63
(lp3200
g56
(g77
g58
NtRp3201
(dp3202
g61
(dp3203
g81
g82
ssg70
g3197
sg63
(lp3204
S'remember'
p3205
asbag56
(g77
g58
NtRp3206
(dp3207
g61
(dp3208
g88
g89
ssg70
g3197
sg63
(lp3209
S':'
asbag56
(g77
g58
NtRp3210
(dp3211
g61
(dp3212
sg70
g3197
sg63
(lp3213
g56
(g57
g58
NtRp3214
(dp3215
g61
(dp3216
g69
I4
ssg70
g3210
sg63
(lp3217
g99
asbasbasbag56
(g72
g58
NtRp3218
(dp3219
g61
(dp3220
sg70
g3127
sg63
(lp3221
g56
(g77
g58
NtRp3222
(dp3223
g61
(dp3224
g81
g82
ssg70
g3218
sg63
(lp3225
S'user'
p3226
asbag56
(g77
g58
NtRp3227
(dp3228
g61
(dp3229
g88
g89
ssg70
g3218
sg63
(lp3230
S':'
asbag56
(g77
g58
NtRp3231
(dp3232
g61
(dp3233
sg70
g3218
sg63
(lp3234
g56
(g57
g58
NtRp3235
(dp3236
g61
(dp3237
g69
I4
ssg70
g3231
sg63
(lp3238
g56
(g65
g58
NtRp3239
(dp3240
g61
(dp3241
g69
I3
ssg70
Nsg63
(lp3242
g56
(g72
g58
NtRp3243
(dp3244
g61
(dp3245
sg70
g3239
sg63
(lp3246
g56
(g77
g58
NtRp3247
(dp3248
g61
(dp3249
g81
g82
ssg70
g3243
sg63
(lp3250
S'email'
p3251
asbag56
(g77
g58
NtRp3252
(dp3253
g61
(dp3254
g88
g89
ssg70
g3243
sg63
(lp3255
S':'
asbag56
(g77
g58
NtRp3256
(dp3257
g61
(dp3258
sg70
g3243
sg63
(lp3259
g56
(g57
g58
NtRp3260
(dp3261
g61
(dp3262
g69
I3
ssg70
g3256
sg63
(lp3263
S'scottianw@gmail.com'
p3264
asbasbasbag56
(g72
g58
NtRp3265
(dp3266
g61
(dp3267
sg70
g3239
sg63
(lp3268
g56
(g77
g58
NtRp3269
(dp3270
g61
(dp3271
g81
g82
ssg70
g3265
sg63
(lp3272
S'first_name'
p3273
asbag56
(g77
g58
NtRp3274
(dp3275
g61
(dp3276
g88
g89
ssg70
g3265
sg63
(lp3277
S':'
asbag56
(g77
g58
NtRp3278
(dp3279
g61
(dp3280
sg70
g3265
sg63
(lp3281
g56
(g57
g58
NtRp3282
(dp3283
g61
(dp3284
g69
I3
ssg70
g3278
sg63
(lp3285
S'Ian'
p3286
asbasbasbag56
(g72
g58
NtRp3287
(dp3288
g61
(dp3289
sg70
g3239
sg63
(lp3290
g56
(g77
g58
NtRp3291
(dp3292
g61
(dp3293
g81
g82
ssg70
g3287
sg63
(lp3294
S'id'
p3295
asbag56
(g77
g58
NtRp3296
(dp3297
g61
(dp3298
g88
g89
ssg70
g3287
sg63
(lp3299
S':'
asbag56
(g77
g58
NtRp3300
(dp3301
g61
(dp3302
sg70
g3287
sg63
(lp3303
g56
(g57
g58
NtRp3304
(dp3305
g61
(dp3306
g69
I3
ssg70
g3300
sg63
(lp3307
S'11'
p3308
asbasbasbag56
(g72
g58
NtRp3309
(dp3310
g61
(dp3311
sg70
g3239
sg63
(lp3312
g56
(g77
g58
NtRp3313
(dp3314
g61
(dp3315
g81
g82
ssg70
g3309
sg63
(lp3316
S'last_name'
p3317
asbag56
(g77
g58
NtRp3318
(dp3319
g61
(dp3320
g88
g89
ssg70
g3309
sg63
(lp3321
S':'
asbag56
(g77
g58
NtRp3322
(dp3323
g61
(dp3324
sg70
g3309
sg63
(lp3325
g56
(g57
g58
NtRp3326
(dp3327
g61
(dp3328
g69
I3
ssg70
g3322
sg63
(lp3329
S'Scott'
p3330
asbasbasbag56
(g72
g58
NtRp3331
(dp3332
g61
(dp3333
sg70
g3239
sg63
(lp3334
g56
(g77
g58
NtRp3335
(dp3336
g61
(dp3337
g81
g82
ssg70
g3331
sg63
(lp3338
S'password'
p3339
asbag56
(g77
g58
NtRp3340
(dp3341
g61
(dp3342
g88
g89
ssg70
g3331
sg63
(lp3343
S':'
asbag56
(g77
g58
NtRp3344
(dp3345
g61
(dp3346
sg70
g3331
sg63
(lp3347
g56
(g57
g58
NtRp3348
(dp3349
g61
(dp3350
g69
I3
ssg70
g3344
sg63
(lp3351
S'351bc855a8ae4839e89ee60d2f279ed9'
p3352
asbasbasbag56
(g72
g58
NtRp3353
(dp3354
g61
(dp3355
sg70
g3239
sg63
(lp3356
g56
(g77
g58
NtRp3357
(dp3358
g61
(dp3359
g81
g82
ssg70
g3353
sg63
(lp3360
S'registration_key'
p3361
asbag56
(g77
g58
NtRp3362
(dp3363
g61
(dp3364
g88
g89
ssg70
g3353
sg63
(lp3365
S':'
asbag56
(g77
g58
NtRp3366
(dp3367
g61
(dp3368
sg70
g3353
sg63
(lp3369
g56
(g57
g58
NtRp3370
(dp3371
g61
(dp3372
g69
I3
ssg70
g3366
sg63
(lp3373
S''
asbasbasbag56
(g72
g58
NtRp3374
(dp3375
g61
(dp3376
sg70
g3239
sg63
(lp3377
g56
(g77
g58
NtRp3378
(dp3379
g61
(dp3380
g81
g82
ssg70
g3374
sg63
(lp3381
S'reset_password_key'
p3382
asbag56
(g77
g58
NtRp3383
(dp3384
g61
(dp3385
g88
g89
ssg70
g3374
sg63
(lp3386
S':'
asbag56
(g77
g58
NtRp3387
(dp3388
g61
(dp3389
sg70
g3374
sg63
(lp3390
g56
(g57
g58
NtRp3391
(dp3392
g61
(dp3393
g69
I3
ssg70
g3387
sg63
(lp3394
S''
asbasbasbasbasbasbasbasbasbasbasbasbasbsS'etype'
p3395
S"<type 'exceptions.NameError'>"
p3396
sS'date'
p3397
S'Wed Nov  9 10:46:20 2011'
p3398
sS'response'
p3399
g56
(g57
g58
NtRp3400
(dp3401
g61
(dp3402
sg63
(lp3403
g56
(g65
g58
NtRp3404
(dp3405
g61
(dp3406
g69
I5
ssg70
Nsg63
(lp3407
g56
(g72
g58
NtRp3408
(dp3409
g61
(dp3410
sg70
g3404
sg63
(lp3411
g56
(g77
g58
NtRp3412
(dp3413
g61
(dp3414
g81
g82
ssg70
g3408
sg63
(lp3415
g166
asbag56
(g77
g58
NtRp3416
(dp3417
g61
(dp3418
g88
g89
ssg70
g3408
sg63
(lp3419
S':'
asbag56
(g77
g58
NtRp3420
(dp3421
g61
(dp3422
sg70
g3408
sg63
(lp3423
g56
(g57
g58
NtRp3424
(dp3425
g61
(dp3426
g69
I5
ssg70
g3420
sg63
(lp3427
S'<cStringIO.StringO object at 0x2e101b8>'
p3428
asbasbasbag56
(g72
g58
NtRp3429
(dp3430
g61
(dp3431
sg70
g3404
sg63
(lp3432
g56
(g77
g58
NtRp3433
(dp3434
g61
(dp3435
g81
g82
ssg70
g3429
sg63
(lp3436
g232
asbag56
(g77
g58
NtRp3437
(dp3438
g61
(dp3439
g88
g89
ssg70
g3429
sg63
(lp3440
S':'
asbag56
(g77
g58
NtRp3441
(dp3442
g61
(dp3443
sg70
g3429
sg63
(lp3444
g56
(g57
g58
NtRp3445
(dp3446
g61
(dp3447
g69
I5
ssg70
g3441
sg63
(lp3448
g56
(g65
g58
NtRp3449
(dp3450
g61
(dp3451
g69
I4
ssg70
Nsg63
(lp3452
g56
(g72
g58
NtRp3453
(dp3454
g61
(dp3455
sg70
g3449
sg63
(lp3456
g56
(g77
g58
NtRp3457
(dp3458
g61
(dp3459
g81
g82
ssg70
g3453
sg63
(lp3460
S'session_id_grades'
p3461
asbag56
(g77
g58
NtRp3462
(dp3463
g61
(dp3464
g88
g89
ssg70
g3453
sg63
(lp3465
S':'
asbag56
(g77
g58
NtRp3466
(dp3467
g61
(dp3468
sg70
g3453
sg63
(lp3469
g56
(g57
g58
NtRp3470
(dp3471
g61
(dp3472
g69
I4
ssg70
g3466
sg63
(lp3473
g56
(g65
g58
NtRp3474
(dp3475
g61
(dp3476
g69
I3
ssg70
Nsg63
(lp3477
g56
(g72
g58
NtRp3478
(dp3479
g61
(dp3480
sg70
g3474
sg63
(lp3481
g56
(g77
g58
NtRp3482
(dp3483
g61
(dp3484
g81
g82
ssg70
g3478
sg63
(lp3485
g282
asbag56
(g77
g58
NtRp3486
(dp3487
g61
(dp3488
g88
g89
ssg70
g3478
sg63
(lp3489
S':'
asbag56
(g77
g58
NtRp3490
(dp3491
g61
(dp3492
sg70
g3478
sg63
(lp3493
g56
(g57
g58
NtRp3494
(dp3495
g61
(dp3496
g69
I3
ssg70
g3490
sg63
(lp3497
S''
asbasbasbag56
(g72
g58
NtRp3498
(dp3499
g61
(dp3500
sg70
g3474
sg63
(lp3501
g56
(g77
g58
NtRp3502
(dp3503
g61
(dp3504
g81
g82
ssg70
g3498
sg63
(lp3505
g303
asbag56
(g77
g58
NtRp3506
(dp3507
g61
(dp3508
g88
g89
ssg70
g3498
sg63
(lp3509
S':'
asbag56
(g77
g58
NtRp3510
(dp3511
g61
(dp3512
sg70
g3498
sg63
(lp3513
g56
(g57
g58
NtRp3514
(dp3515
g61
(dp3516
g69
I3
ssg70
g3510
sg63
(lp3517
S''
asbasbasbag56
(g72
g58
NtRp3518
(dp3519
g61
(dp3520
sg70
g3474
sg63
(lp3521
g56
(g77
g58
NtRp3522
(dp3523
g61
(dp3524
g81
g82
ssg70
g3518
sg63
(lp3525
g324
asbag56
(g77
g58
NtRp3526
(dp3527
g61
(dp3528
g88
g89
ssg70
g3518
sg63
(lp3529
S':'
asbag56
(g77
g58
NtRp3530
(dp3531
g61
(dp3532
sg70
g3518
sg63
(lp3533
g56
(g57
g58
NtRp3534
(dp3535
g61
(dp3536
g69
I3
ssg70
g3530
sg63
(lp3537
S''
asbasbasbag56
(g72
g58
NtRp3538
(dp3539
g61
(dp3540
sg70
g3474
sg63
(lp3541
g56
(g77
g58
NtRp3542
(dp3543
g61
(dp3544
g81
g82
ssg70
g3538
sg63
(lp3545
g345
asbag56
(g77
g58
NtRp3546
(dp3547
g61
(dp3548
g88
g89
ssg70
g3538
sg63
(lp3549
S':'
asbag56
(g77
g58
NtRp3550
(dp3551
g61
(dp3552
sg70
g3538
sg63
(lp3553
g56
(g57
g58
NtRp3554
(dp3555
g61
(dp3556
g69
I3
ssg70
g3550
sg63
(lp3557
S''
asbasbasbag56
(g72
g58
NtRp3558
(dp3559
g61
(dp3560
sg70
g3474
sg63
(lp3561
g56
(g77
g58
NtRp3562
(dp3563
g61
(dp3564
g81
g82
ssg70
g3558
sg63
(lp3565
g366
asbag56
(g77
g58
NtRp3566
(dp3567
g61
(dp3568
g88
g89
ssg70
g3558
sg63
(lp3569
S':'
asbag56
(g77
g58
NtRp3570
(dp3571
g61
(dp3572
sg70
g3558
sg63
(lp3573
g56
(g57
g58
NtRp3574
(dp3575
g61
(dp3576
g69
I3
ssg70
g3570
sg63
(lp3577
S''
asbasbasbag56
(g72
g58
NtRp3578
(dp3579
g61
(dp3580
sg70
g3474
sg63
(lp3581
g56
(g77
g58
NtRp3582
(dp3583
g61
(dp3584
g81
g82
ssg70
g3578
sg63
(lp3585
g387
asbag56
(g77
g58
NtRp3586
(dp3587
g61
(dp3588
g88
g89
ssg70
g3578
sg63
(lp3589
S':'
asbag56
(g77
g58
NtRp3590
(dp3591
g61
(dp3592
sg70
g3578
sg63
(lp3593
g56
(g57
g58
NtRp3594
(dp3595
g61
(dp3596
g69
I3
ssg70
g3590
sg63
(lp3597
S'/'
asbasbasbag56
(g72
g58
NtRp3598
(dp3599
g61
(dp3600
sg70
g3474
sg63
(lp3601
g56
(g77
g58
NtRp3602
(dp3603
g61
(dp3604
g81
g82
ssg70
g3598
sg63
(lp3605
g408
asbag56
(g77
g58
NtRp3606
(dp3607
g61
(dp3608
g88
g89
ssg70
g3598
sg63
(lp3609
S':'
asbag56
(g77
g58
NtRp3610
(dp3611
g61
(dp3612
sg70
g3598
sg63
(lp3613
g56
(g57
g58
NtRp3614
(dp3615
g61
(dp3616
g69
I3
ssg70
g3610
sg63
(lp3617
S''
asbasbasbag56
(g72
g58
NtRp3618
(dp3619
g61
(dp3620
sg70
g3474
sg63
(lp3621
g56
(g77
g58
NtRp3622
(dp3623
g61
(dp3624
g81
g82
ssg70
g3618
sg63
(lp3625
g429
asbag56
(g77
g58
NtRp3626
(dp3627
g61
(dp3628
g88
g89
ssg70
g3618
sg63
(lp3629
S':'
asbag56
(g77
g58
NtRp3630
(dp3631
g61
(dp3632
sg70
g3618
sg63
(lp3633
g56
(g57
g58
NtRp3634
(dp3635
g61
(dp3636
g69
I3
ssg70
g3630
sg63
(lp3637
S''
asbasbasbasbasbasbasbasbasbasbasbag56
(g72
g58
NtRp3638
(dp3639
g61
(dp3640
sg70
g3404
sg63
(lp3641
g56
(g77
g58
NtRp3642
(dp3643
g61
(dp3644
g81
g82
ssg70
g3638
sg63
(lp3645
S'files'
p3646
asbag56
(g77
g58
NtRp3647
(dp3648
g61
(dp3649
g88
g89
ssg70
g3638
sg63
(lp3650
S':'
asbag56
(g77
g58
NtRp3651
(dp3652
g61
(dp3653
sg70
g3638
sg63
(lp3654
g56
(g57
g58
NtRp3655
(dp3656
g61
(dp3657
g69
I5
ssg70
g3651
sg63
(lp3658
g56
(g65
g58
NtRp3659
(dp3660
g61
(dp3661
g69
I4
ssg70
Nsg63
(lp3662
sbasbasbasbag56
(g72
g58
NtRp3663
(dp3664
g61
(dp3665
sg70
g3404
sg63
(lp3666
g56
(g77
g58
NtRp3667
(dp3668
g61
(dp3669
g81
g82
ssg70
g3663
sg63
(lp3670
S'flash'
p3671
asbag56
(g77
g58
NtRp3672
(dp3673
g61
(dp3674
g88
g89
ssg70
g3663
sg63
(lp3675
S':'
asbag56
(g77
g58
NtRp3676
(dp3677
g61
(dp3678
sg70
g3663
sg63
(lp3679
g56
(g57
g58
NtRp3680
(dp3681
g61
(dp3682
g69
I5
ssg70
g3676
sg63
(lp3683
S''
asbasbasbag56
(g72
g58
NtRp3684
(dp3685
g61
(dp3686
sg70
g3404
sg63
(lp3687
g56
(g77
g58
NtRp3688
(dp3689
g61
(dp3690
g81
g82
ssg70
g3684
sg63
(lp3691
S'generic_patterns'
p3692
asbag56
(g77
g58
NtRp3693
(dp3694
g61
(dp3695
g88
g89
ssg70
g3684
sg63
(lp3696
S':'
asbag56
(g77
g58
NtRp3697
(dp3698
g61
(dp3699
sg70
g3684
sg63
(lp3700
g56
(g57
g58
NtRp3701
(dp3702
g61
(dp3703
g69
I5
ssg70
g3697
sg63
(lp3704
g56
(g65
g58
NtRp3705
(dp3706
g61
(dp3707
g69
I4
ssg70
Nsg63
(lp3708
g56
(g72
g58
NtRp3709
(dp3710
g61
(dp3711
sg70
g3705
sg63
(lp3712
g56
(g77
g58
NtRp3713
(dp3714
g61
(dp3715
sg70
g3709
sg63
(lp3716
g56
(g57
g58
NtRp3717
(dp3718
g61
(dp3719
g69
I4
ssg70
g3713
sg63
(lp3720
S'*'
asbasbasbasbasbasbasbag56
(g72
g58
NtRp3721
(dp3722
g61
(dp3723
sg70
g3404
sg63
(lp3724
g56
(g77
g58
NtRp3725
(dp3726
g61
(dp3727
g81
g82
ssg70
g3721
sg63
(lp3728
S'headers'
p3729
asbag56
(g77
g58
NtRp3730
(dp3731
g61
(dp3732
g88
g89
ssg70
g3721
sg63
(lp3733
S':'
asbag56
(g77
g58
NtRp3734
(dp3735
g61
(dp3736
sg70
g3721
sg63
(lp3737
g56
(g57
g58
NtRp3738
(dp3739
g61
(dp3740
g69
I5
ssg70
g3734
sg63
(lp3741
g56
(g65
g58
NtRp3742
(dp3743
g61
(dp3744
g69
I4
ssg70
Nsg63
(lp3745
g56
(g72
g58
NtRp3746
(dp3747
g61
(dp3748
sg70
g3742
sg63
(lp3749
g56
(g77
g58
NtRp3750
(dp3751
g61
(dp3752
g81
g82
ssg70
g3746
sg63
(lp3753
S'Cache-Control'
p3754
asbag56
(g77
g58
NtRp3755
(dp3756
g61
(dp3757
g88
g89
ssg70
g3746
sg63
(lp3758
S':'
asbag56
(g77
g58
NtRp3759
(dp3760
g61
(dp3761
sg70
g3746
sg63
(lp3762
g56
(g57
g58
NtRp3763
(dp3764
g61
(dp3765
g69
I4
ssg70
g3759
sg63
(lp3766
S'no-store, no-cache, must-revalidate, post-check=0, pre-check=0'
p3767
asbasbasbag56
(g72
g58
NtRp3768
(dp3769
g61
(dp3770
sg70
g3742
sg63
(lp3771
g56
(g77
g58
NtRp3772
(dp3773
g61
(dp3774
g81
g82
ssg70
g3768
sg63
(lp3775
S'Content-Type'
p3776
asbag56
(g77
g58
NtRp3777
(dp3778
g61
(dp3779
g88
g89
ssg70
g3768
sg63
(lp3780
S':'
asbag56
(g77
g58
NtRp3781
(dp3782
g61
(dp3783
sg70
g3768
sg63
(lp3784
g56
(g57
g58
NtRp3785
(dp3786
g61
(dp3787
g69
I4
ssg70
g3781
sg63
(lp3788
S'text/html; charset=utf-8'
p3789
asbasbasbag56
(g72
g58
NtRp3790
(dp3791
g61
(dp3792
sg70
g3742
sg63
(lp3793
g56
(g77
g58
NtRp3794
(dp3795
g61
(dp3796
g81
g82
ssg70
g3790
sg63
(lp3797
S'Expires'
p3798
asbag56
(g77
g58
NtRp3799
(dp3800
g61
(dp3801
g88
g89
ssg70
g3790
sg63
(lp3802
S':'
asbag56
(g77
g58
NtRp3803
(dp3804
g61
(dp3805
sg70
g3790
sg63
(lp3806
g56
(g57
g58
NtRp3807
(dp3808
g61
(dp3809
g69
I4
ssg70
g3803
sg63
(lp3810
S'Wed, 09 Nov 2011 15:46:20 GMT'
p3811
asbasbasbag56
(g72
g58
NtRp3812
(dp3813
g61
(dp3814
sg70
g3742
sg63
(lp3815
g56
(g77
g58
NtRp3816
(dp3817
g61
(dp3818
g81
g82
ssg70
g3812
sg63
(lp3819
S'Pragma'
p3820
asbag56
(g77
g58
NtRp3821
(dp3822
g61
(dp3823
g88
g89
ssg70
g3812
sg63
(lp3824
S':'
asbag56
(g77
g58
NtRp3825
(dp3826
g61
(dp3827
sg70
g3812
sg63
(lp3828
g56
(g57
g58
NtRp3829
(dp3830
g61
(dp3831
g69
I4
ssg70
g3825
sg63
(lp3832
S'no-cache'
p3833
asbasbasbag56
(g72
g58
NtRp3834
(dp3835
g61
(dp3836
sg70
g3742
sg63
(lp3837
g56
(g77
g58
NtRp3838
(dp3839
g61
(dp3840
g81
g82
ssg70
g3834
sg63
(lp3841
S'X-Powered-By'
p3842
asbag56
(g77
g58
NtRp3843
(dp3844
g61
(dp3845
g88
g89
ssg70
g3834
sg63
(lp3846
S':'
asbag56
(g77
g58
NtRp3847
(dp3848
g61
(dp3849
sg70
g3834
sg63
(lp3850
g56
(g57
g58
NtRp3851
(dp3852
g61
(dp3853
g69
I4
ssg70
g3847
sg63
(lp3854
S'web2py'
p3855
asbasbasbasbasbasbasbag56
(g72
g58
NtRp3856
(dp3857
g61
(dp3858
sg70
g3404
sg63
(lp3859
g56
(g77
g58
NtRp3860
(dp3861
g61
(dp3862
g81
g82
ssg70
g3856
sg63
(lp3863
S'menu'
p3864
asbag56
(g77
g58
NtRp3865
(dp3866
g61
(dp3867
g88
g89
ssg70
g3856
sg63
(lp3868
S':'
asbag56
(g77
g58
NtRp3869
(dp3870
g61
(dp3871
sg70
g3856
sg63
(lp3872
g56
(g57
g58
NtRp3873
(dp3874
g61
(dp3875
g69
I5
ssg70
g3869
sg63
(lp3876
g56
(g65
g58
NtRp3877
(dp3878
g61
(dp3879
g69
I4
ssg70
Nsg63
(lp3880
g56
(g72
g58
NtRp3881
(dp3882
g61
(dp3883
sg70
g3877
sg63
(lp3884
g56
(g77
g58
NtRp3885
(dp3886
g61
(dp3887
sg70
g3881
sg63
(lp3888
g56
(g57
g58
NtRp3889
(dp3890
g61
(dp3891
g69
I4
ssg70
g3885
sg63
(lp3892
g56
(g65
g58
NtRp3893
(dp3894
g61
(dp3895
g69
I3
ssg70
Nsg63
(lp3896
g56
(g72
g58
NtRp3897
(dp3898
g61
(dp3899
sg70
g3893
sg63
(lp3900
g56
(g77
g58
NtRp3901
(dp3902
g61
(dp3903
sg70
g3897
sg63
(lp3904
g56
(g57
g58
NtRp3905
(dp3906
g61
(dp3907
g69
I3
ssg70
g3901
sg63
(lp3908
cgluon.languages
lazyT_unpickle
p3909
(S't\x05\x00\x00\x00Index'
tRp3910
asbasbasbag56
(g72
g58
NtRp3911
(dp3912
g61
(dp3913
sg70
g3893
sg63
(lp3914
g56
(g77
g58
NtRp3915
(dp3916
g61
(dp3917
sg70
g3911
sg63
(lp3918
g56
(g57
g58
NtRp3919
(dp3920
g61
(dp3921
g69
I3
ssg70
g3915
sg63
(lp3922
g99
asbasbasbag56
(g72
g58
NtRp3923
(dp3924
g61
(dp3925
sg70
g3893
sg63
(lp3926
g56
(g77
g58
NtRp3927
(dp3928
g61
(dp3929
sg70
g3923
sg63
(lp3930
g56
(g57
g58
NtRp3931
(dp3932
g61
(dp3933
g69
I3
ssg70
g3927
sg63
(lp3934
S'/grades/default/index'
p3935
asbasbasbag56
(g72
g58
NtRp3936
(dp3937
g61
(dp3938
sg70
g3893
sg63
(lp3939
g56
(g77
g58
NtRp3940
(dp3941
g61
(dp3942
sg70
g3936
sg63
(lp3943
g56
(g57
g58
NtRp3944
(dp3945
g61
(dp3946
g69
I3
ssg70
g3940
sg63
(lp3947
g56
(g65
g58
NtRp3948
(dp3949
g61
(dp3950
g69
I2
ssg70
Nsg63
(lp3951
sbasbasbasbasbasbasbasbag56
(g72
g58
NtRp3952
(dp3953
g61
(dp3954
sg70
g3877
sg63
(lp3955
g56
(g77
g58
NtRp3956
(dp3957
g61
(dp3958
sg70
g3952
sg63
(lp3959
g56
(g57
g58
NtRp3960
(dp3961
g61
(dp3962
g69
I4
ssg70
g3956
sg63
(lp3963
g56
(g65
g58
NtRp3964
(dp3965
g61
(dp3966
g69
I3
ssg70
Nsg63
(lp3967
g56
(g72
g58
NtRp3968
(dp3969
g61
(dp3970
sg70
g3964
sg63
(lp3971
g56
(g77
g58
NtRp3972
(dp3973
g61
(dp3974
sg70
g3968
sg63
(lp3975
g56
(g57
g58
NtRp3976
(dp3977
g61
(dp3978
g69
I3
ssg70
g3972
sg63
(lp3979
g3909
(S't\x06\x00\x00\x00Grades'
tRp3980
asbasbasbag56
(g72
g58
NtRp3981
(dp3982
g61
(dp3983
sg70
g3964
sg63
(lp3984
g56
(g77
g58
NtRp3985
(dp3986
g61
(dp3987
sg70
g3981
sg63
(lp3988
g56
(g57
g58
NtRp3989
(dp3990
g61
(dp3991
g69
I3
ssg70
g3985
sg63
(lp3992
g99
asbasbasbag56
(g72
g58
NtRp3993
(dp3994
g61
(dp3995
sg70
g3964
sg63
(lp3996
g56
(g77
g58
NtRp3997
(dp3998
g61
(dp3999
sg70
g3993
sg63
(lp4000
g56
(g57
g58
NtRp4001
(dp4002
g61
(dp4003
g69
I3
ssg70
g3997
sg63
(lp4004
S'/grades/default/grades_manage'
p4005
asbasbasbag56
(g72
g58
NtRp4006
(dp4007
g61
(dp4008
sg70
g3964
sg63
(lp4009
g56
(g77
g58
NtRp4010
(dp4011
g61
(dp4012
sg70
g4006
sg63
(lp4013
g56
(g57
g58
NtRp4014
(dp4015
g61
(dp4016
g69
I3
ssg70
g4010
sg63
(lp4017
g56
(g65
g58
NtRp4018
(dp4019
g61
(dp4020
g69
I2
ssg70
Nsg63
(lp4021
sbasbasbasbasbasbasbasbag56
(g72
g58
NtRp4022
(dp4023
g61
(dp4024
sg70
g3877
sg63
(lp4025
g56
(g77
g58
NtRp4026
(dp4027
g61
(dp4028
sg70
g4022
sg63
(lp4029
g56
(g57
g58
NtRp4030
(dp4031
g61
(dp4032
g69
I4
ssg70
g4026
sg63
(lp4033
g56
(g65
g58
NtRp4034
(dp4035
g61
(dp4036
g69
I3
ssg70
Nsg63
(lp4037
g56
(g72
g58
NtRp4038
(dp4039
g61
(dp4040
sg70
g4034
sg63
(lp4041
g56
(g77
g58
NtRp4042
(dp4043
g61
(dp4044
sg70
g4038
sg63
(lp4045
g56
(g57
g58
NtRp4046
(dp4047
g61
(dp4048
g69
I3
ssg70
g4042
sg63
(lp4049
g3909
(S't\x07\x00\x00\x00Classes'
tRp4050
asbasbasbag56
(g72
g58
NtRp4051
(dp4052
g61
(dp4053
sg70
g4034
sg63
(lp4054
g56
(g77
g58
NtRp4055
(dp4056
g61
(dp4057
sg70
g4051
sg63
(lp4058
g56
(g57
g58
NtRp4059
(dp4060
g61
(dp4061
g69
I3
ssg70
g4055
sg63
(lp4062
g99
asbasbasbag56
(g72
g58
NtRp4063
(dp4064
g61
(dp4065
sg70
g4034
sg63
(lp4066
g56
(g77
g58
NtRp4067
(dp4068
g61
(dp4069
sg70
g4063
sg63
(lp4070
g56
(g57
g58
NtRp4071
(dp4072
g61
(dp4073
g69
I3
ssg70
g4067
sg63
(lp4074
S'/grades/default/classes_manage'
p4075
asbasbasbag56
(g72
g58
NtRp4076
(dp4077
g61
(dp4078
sg70
g4034
sg63
(lp4079
g56
(g77
g58
NtRp4080
(dp4081
g61
(dp4082
sg70
g4076
sg63
(lp4083
g56
(g57
g58
NtRp4084
(dp4085
g61
(dp4086
g69
I3
ssg70
g4080
sg63
(lp4087
g56
(g65
g58
NtRp4088
(dp4089
g61
(dp4090
g69
I2
ssg70
Nsg63
(lp4091
sbasbasbasbasbasbasbasbasbasbasbasbag56
(g72
g58
NtRp4092
(dp4093
g61
(dp4094
sg70
g3404
sg63
(lp4095
g56
(g77
g58
NtRp4096
(dp4097
g61
(dp4098
g81
g82
ssg70
g4092
sg63
(lp4099
S'meta'
p4100
asbag56
(g77
g58
NtRp4101
(dp4102
g61
(dp4103
g88
g89
ssg70
g4092
sg63
(lp4104
S':'
asbag56
(g77
g58
NtRp4105
(dp4106
g61
(dp4107
sg70
g4092
sg63
(lp4108
g56
(g57
g58
NtRp4109
(dp4110
g61
(dp4111
g69
I5
ssg70
g4105
sg63
(lp4112
g56
(g65
g58
NtRp4113
(dp4114
g61
(dp4115
g69
I4
ssg70
Nsg63
(lp4116
g56
(g72
g58
NtRp4117
(dp4118
g61
(dp4119
sg70
g4113
sg63
(lp4120
g56
(g77
g58
NtRp4121
(dp4122
g61
(dp4123
g81
g82
ssg70
g4117
sg63
(lp4124
S'author'
p4125
asbag56
(g77
g58
NtRp4126
(dp4127
g61
(dp4128
g88
g89
ssg70
g4117
sg63
(lp4129
S':'
asbag56
(g77
g58
NtRp4130
(dp4131
g61
(dp4132
sg70
g4117
sg63
(lp4133
g56
(g57
g58
NtRp4134
(dp4135
g61
(dp4136
g69
I4
ssg70
g4130
sg63
(lp4137
S'Ian W. Scott <scottianw@gmail.com>'
p4138
asbasbasbag56
(g72
g58
NtRp4139
(dp4140
g61
(dp4141
sg70
g4113
sg63
(lp4142
g56
(g77
g58
NtRp4143
(dp4144
g61
(dp4145
g81
g82
ssg70
g4139
sg63
(lp4146
S'description'
p4147
asbag56
(g77
g58
NtRp4148
(dp4149
g61
(dp4150
g88
g89
ssg70
g4139
sg63
(lp4151
S':'
asbag56
(g77
g58
NtRp4152
(dp4153
g61
(dp4154
sg70
g4139
sg63
(lp4155
g56
(g57
g58
NtRp4156
(dp4157
g61
(dp4158
g69
I4
ssg70
g4152
sg63
(lp4159
S''
asbasbasbag56
(g72
g58
NtRp4160
(dp4161
g61
(dp4162
sg70
g4113
sg63
(lp4163
g56
(g77
g58
NtRp4164
(dp4165
g61
(dp4166
g81
g82
ssg70
g4160
sg63
(lp4167
S'keywords'
p4168
asbag56
(g77
g58
NtRp4169
(dp4170
g61
(dp4171
g88
g89
ssg70
g4160
sg63
(lp4172
S':'
asbag56
(g77
g58
NtRp4173
(dp4174
g61
(dp4175
sg70
g4160
sg63
(lp4176
g56
(g57
g58
NtRp4177
(dp4178
g61
(dp4179
g69
I4
ssg70
g4173
sg63
(lp4180
S''
asbasbasbasbasbasbasbag56
(g72
g58
NtRp4181
(dp4182
g61
(dp4183
sg70
g3404
sg63
(lp4184
g56
(g77
g58
NtRp4185
(dp4186
g61
(dp4187
g81
g82
ssg70
g4181
sg63
(lp4188
S'postprocessing'
p4189
asbag56
(g77
g58
NtRp4190
(dp4191
g61
(dp4192
g88
g89
ssg70
g4181
sg63
(lp4193
S':'
asbag56
(g77
g58
NtRp4194
(dp4195
g61
(dp4196
sg70
g4181
sg63
(lp4197
g56
(g57
g58
NtRp4198
(dp4199
g61
(dp4200
g69
I5
ssg70
g4194
sg63
(lp4201
g56
(g65
g58
NtRp4202
(dp4203
g61
(dp4204
g69
I4
ssg70
Nsg63
(lp4205
sbasbasbasbag56
(g72
g58
NtRp4206
(dp4207
g61
(dp4208
sg70
g3404
sg63
(lp4209
g56
(g77
g58
NtRp4210
(dp4211
g61
(dp4212
g81
g82
ssg70
g4206
sg63
(lp4213
S'session_file'
p4214
asbag56
(g77
g58
NtRp4215
(dp4216
g61
(dp4217
g88
g89
ssg70
g4206
sg63
(lp4218
S':'
asbag56
(g77
g58
NtRp4219
(dp4220
g61
(dp4221
sg70
g4206
sg63
(lp4222
g56
(g57
g58
NtRp4223
(dp4224
g61
(dp4225
g69
I5
ssg70
g4219
sg63
(lp4226
S"<open file '/home/ian/web2py/applications/grades/sessions/127.0.0.1-7e779f51-d72f-4159-aa81-826b4f2d26c1', mode 'rb+' at 0x254f420>"
p4227
asbasbasbag56
(g72
g58
NtRp4228
(dp4229
g61
(dp4230
sg70
g3404
sg63
(lp4231
g56
(g77
g58
NtRp4232
(dp4233
g61
(dp4234
g81
g82
ssg70
g4228
sg63
(lp4235
S'session_filename'
p4236
asbag56
(g77
g58
NtRp4237
(dp4238
g61
(dp4239
g88
g89
ssg70
g4228
sg63
(lp4240
S':'
asbag56
(g77
g58
NtRp4241
(dp4242
g61
(dp4243
sg70
g4228
sg63
(lp4244
g56
(g57
g58
NtRp4245
(dp4246
g61
(dp4247
g69
I5
ssg70
g4241
sg63
(lp4248
S'/home/ian/web2py/applications/grades/sessions/127.0.0.1-7e779f51-d72f-4159-aa81-826b4f2d26c1'
p4249
asbasbasbag56
(g72
g58
NtRp4250
(dp4251
g61
(dp4252
sg70
g3404
sg63
(lp4253
g56
(g77
g58
NtRp4254
(dp4255
g61
(dp4256
g81
g82
ssg70
g4250
sg63
(lp4257
S'session_id'
p4258
asbag56
(g77
g58
NtRp4259
(dp4260
g61
(dp4261
g88
g89
ssg70
g4250
sg63
(lp4262
S':'
asbag56
(g77
g58
NtRp4263
(dp4264
g61
(dp4265
sg70
g4250
sg63
(lp4266
g56
(g57
g58
NtRp4267
(dp4268
g61
(dp4269
g69
I5
ssg70
g4263
sg63
(lp4270
S'127.0.0.1-7e779f51-d72f-4159-aa81-826b4f2d26c1'
p4271
asbasbasbag56
(g72
g58
NtRp4272
(dp4273
g61
(dp4274
sg70
g3404
sg63
(lp4275
g56
(g77
g58
NtRp4276
(dp4277
g61
(dp4278
g81
g82
ssg70
g4272
sg63
(lp4279
S'session_id_name'
p4280
asbag56
(g77
g58
NtRp4281
(dp4282
g61
(dp4283
g88
g89
ssg70
g4272
sg63
(lp4284
S':'
asbag56
(g77
g58
NtRp4285
(dp4286
g61
(dp4287
sg70
g4272
sg63
(lp4288
g56
(g57
g58
NtRp4289
(dp4290
g61
(dp4291
g69
I5
ssg70
g4285
sg63
(lp4292
g3461
asbasbasbag56
(g72
g58
NtRp4293
(dp4294
g61
(dp4295
sg70
g3404
sg63
(lp4296
g56
(g77
g58
NtRp4297
(dp4298
g61
(dp4299
g81
g82
ssg70
g4293
sg63
(lp4300
S'session_locked'
p4301
asbag56
(g77
g58
NtRp4302
(dp4303
g61
(dp4304
g88
g89
ssg70
g4293
sg63
(lp4305
S':'
asbag56
(g77
g58
NtRp4306
(dp4307
g61
(dp4308
sg70
g4293
sg63
(lp4309
g56
(g57
g58
NtRp4310
(dp4311
g61
(dp4312
g69
I5
ssg70
g4306
sg63
(lp4313
g1668
asbasbasbag56
(g72
g58
NtRp4314
(dp4315
g61
(dp4316
sg70
g3404
sg63
(lp4317
g56
(g77
g58
NtRp4318
(dp4319
g61
(dp4320
g81
g82
ssg70
g4314
sg63
(lp4321
S'session_new'
p4322
asbag56
(g77
g58
NtRp4323
(dp4324
g61
(dp4325
g88
g89
ssg70
g4314
sg63
(lp4326
S':'
asbag56
(g77
g58
NtRp4327
(dp4328
g61
(dp4329
sg70
g4314
sg63
(lp4330
g56
(g57
g58
NtRp4331
(dp4332
g61
(dp4333
g69
I5
ssg70
g4327
sg63
(lp4334
g99
asbasbasbag56
(g72
g58
NtRp4335
(dp4336
g61
(dp4337
sg70
g3404
sg63
(lp4338
g56
(g77
g58
NtRp4339
(dp4340
g61
(dp4341
g81
g82
ssg70
g4335
sg63
(lp4342
S'status'
p4343
asbag56
(g77
g58
NtRp4344
(dp4345
g61
(dp4346
g88
g89
ssg70
g4335
sg63
(lp4347
S':'
asbag56
(g77
g58
NtRp4348
(dp4349
g61
(dp4350
sg70
g4335
sg63
(lp4351
g56
(g57
g58
NtRp4352
(dp4353
g61
(dp4354
g69
I5
ssg70
g4348
sg63
(lp4355
S'200'
p4356
asbasbasbag56
(g72
g58
NtRp4357
(dp4358
g61
(dp4359
sg70
g3404
sg63
(lp4360
g56
(g77
g58
NtRp4361
(dp4362
g61
(dp4363
g81
g82
ssg70
g4357
sg63
(lp4364
S'subtitle'
p4365
asbag56
(g77
g58
NtRp4366
(dp4367
g61
(dp4368
g88
g89
ssg70
g4357
sg63
(lp4369
S':'
asbag56
(g77
g58
NtRp4370
(dp4371
g61
(dp4372
sg70
g4357
sg63
(lp4373
g56
(g57
g58
NtRp4374
(dp4375
g61
(dp4376
g69
I5
ssg70
g4370
sg63
(lp4377
S'a platform for easy submission of peer grades'
p4378
asbasbasbag56
(g72
g58
NtRp4379
(dp4380
g61
(dp4381
sg70
g3404
sg63
(lp4382
g56
(g77
g58
NtRp4383
(dp4384
g61
(dp4385
g81
g82
ssg70
g4379
sg63
(lp4386
S'title'
p4387
asbag56
(g77
g58
NtRp4388
(dp4389
g61
(dp4390
g88
g89
ssg70
g4379
sg63
(lp4391
S':'
asbag56
(g77
g58
NtRp4392
(dp4393
g61
(dp4394
sg70
g4379
sg63
(lp4395
g56
(g57
g58
NtRp4396
(dp4397
g61
(dp4398
g69
I5
ssg70
g4392
sg63
(lp4399
S'Grades'
p4400
asbasbasbag56
(g72
g58
NtRp4401
(dp4402
g61
(dp4403
sg70
g3404
sg63
(lp4404
g56
(g77
g58
NtRp4405
(dp4406
g61
(dp4407
g81
g82
ssg70
g4401
sg63
(lp4408
g2333
asbag56
(g77
g58
NtRp4409
(dp4410
g61
(dp4411
g88
g89
ssg70
g4401
sg63
(lp4412
S':'
asbag56
(g77
g58
NtRp4413
(dp4414
g61
(dp4415
sg70
g4401
sg63
(lp4416
g56
(g57
g58
NtRp4417
(dp4418
g61
(dp4419
g69
I5
ssg70
g4413
sg63
(lp4420
g2346
asbasbasbag56
(g72
g58
NtRp4421
(dp4422
g61
(dp4423
sg70
g3404
sg63
(lp4424
g56
(g77
g58
NtRp4425
(dp4426
g61
(dp4427
g81
g82
ssg70
g4421
sg63
(lp4428
S'view'
p4429
asbag56
(g77
g58
NtRp4430
(dp4431
g61
(dp4432
g88
g89
ssg70
g4421
sg63
(lp4433
S':'
asbag56
(g77
g58
NtRp4434
(dp4435
g61
(dp4436
sg70
g4421
sg63
(lp4437
g56
(g57
g58
NtRp4438
(dp4439
g61
(dp4440
g69
I5
ssg70
g4434
sg63
(lp4441
S'default/create_grade.html'
p4442
asbasbasbasbasbsS'locals'
p4443
(dp4444
ssS'traceback'
p4445
S'Traceback (most recent call last):\n  File "/home/ian/web2py/gluon/restricted.py", line 194, in restricted\n    exec ccode in environment\n  File "/home/ian/web2py/applications/grades/controllers/default.py", line 73, in <module>\n  File "/home/ian/web2py/gluon/globals.py", line 149, in <lambda>\n    self._caller = lambda f: f()\n  File "/home/ian/web2py/gluon/tools.py", line 2456, in f\n    return action(*a, **b)\n  File "/home/ian/web2py/applications/grades/controllers/default.py", line 40, in create_grade\n    form = SQLFORM(db.grades, labels={name:\'student receiving grade\'})\nNameError: global name \'name\' is not defined\n'
p4446
s.