(dp1
S'output'
p2
S''
sS'layer'
p3
S'/home/ian/web2py/applications/grades/views/default/grades_report.html'
p4
sS'code'
p5
S'response.write(\'<!DOCTYPE html>\\n<html lang="\', escape=False)\nresponse.write(T.accepted_language or \'en\')\nresponse.write(\'" class="no-js"><!-- no-js need it for modernzr -->\\n  <head>\\n    \\n    <meta charset="utf-8" />        \\n    <!-- www.phpied.com/conditional-comments-block-downloads/ -->\\n    <!--[if IE]><![endif]-->    \\n    <!-- Always force latest IE rendering engine \\n     (even in intranet) & Chrome Frame \\n     Remove this if you use the .htaccess -->\\n    <meta http-equiv="X-UA-Compatible" content="IE=edge,chrome=1">\\n    \\n    <title>\', escape=False)\nresponse.write(response.title or request.application)\nresponse.write(\'</title>\\n    \\n    <!-- http://dev.w3.org/html5/markup/meta.name.html -->\\n    <meta name="application-name" content="\', escape=False)\nresponse.write(request.application)\nresponse.write(\'" /> \\n    \\n    <!-- Speaking of Google, don\\\'t forget to set your site up: \\n     http://google.com/webmasters -->\\n    <meta name="google-site-verification" content="" />\\n    \\n    <!--  Mobile Viewport Fix\\n      j.mp/mobileviewport & davidbcalhoun.com/2010/viewport-metatag \\n      device-width: Occupy full width of the screen in its current orientation\\n      initial-scale = 1.0 retains dimensions instead of zooming out if page height > device height\\n      maximum-scale = 1.0 retains dimensions instead of zooming in if page width < device width\\n      -->\\n    <meta name="viewport" content="width=device-width, initial-scale=1.0, maximum-scale=1.0">\\n    \\n    <!-- Place favicon.ico and apple-touch-icon.png in the root of your domain and delete these references -->\\n    <link rel="shortcut icon" href="\', escape=False)\nresponse.write(URL(\'static\',\'favicon.ico\'))\nresponse.write(\'" type="image/x-icon">\\n    <link rel="apple-touch-icon" href="\', escape=False)\nresponse.write(URL(\'static\',\'favicon.png\'))\nresponse.write(\'">\\n\\n    <!-- For the less-enabled mobile browsers like Opera Mini -->\\n    <link rel="stylesheet" media="handheld" href="\', escape=False)\nresponse.write(URL(\'static\',\'css/handheld.css\'))\nresponse.write(\'">\\n    \\n    <!-- All JavaScript at the bottom, except for Modernizr which enables HTML5 elements & feature detects -->\\n    <script src="\', escape=False)\nresponse.write(URL(\'static\',\'js/modernizr-1.7.min.js\'))\nresponse.write(\'"></script>\\n    \\n    \', escape=False)\n#------  require CSS and JS files for this page (read info in base.css) ------\nresponse.write(\'\\n\\t\', escape=False)\nresponse.files.append(URL(\'static\',\'css/base.css\'))\nresponse.write(\'\\n\\t\', escape=False)\nresponse.files.append(URL(\'static\',\'css/grades_theme.css\'))\nresponse.write(\'\\n    \', escape=False)\nresponse.files.append(URL(\'static\',\'css/two_pane.css\'))\nresponse.write(\'\\n    \', escape=False)\nresponse.files.append(URL(\'static\',\'css/superfish.css\'))\nresponse.write(\'\\n    \', escape=False)\nresponse.files.append(URL(\'static\',\'js/superfish.js\'))\nresponse.write(\'\\n    \', escape=False)\n#------ include web2py specific js code (jquery, calendar, form stuff) ------\nresponse.write(\'\\n    \', escape=False)\nresponse.files.insert(0,URL(\'static\',\'js/jquery.js\'))\nresponse.files.insert(1,URL(\'static\',\'css/anytime.css\'))\nresponse.files.insert(2,URL(\'static\',\'js/anytime.js\'))\nresponse.include_meta()\nresponse.include_files()\nresponse.write(\'\\n<script type="text/javascript"><!--\\n    // These variables are used by the web2py_ajax_init function in web2py_ajax.js (which is loaded below).\\n    var w2p_ajax_confirm_message = "\', escape=False)\nresponse.write(T(\'Are you sure you want to delete this object?\'))\nresponse.write(\'";\\n    var w2p_ajax_date_format = "\', escape=False)\nresponse.write(T(\'%Y-%m-%d\'))\nresponse.write(\'";\\n    var w2p_ajax_datetime_format = "\', escape=False)\nresponse.write(T(\'%Y-%m-%d %H:%M:%S\'))\nresponse.write(\'";\\n    //--></script>\\n    <script src="\', escape=False)\nresponse.write(URL(\'static\',\'js/web2py_ajax.js\'))\nresponse.write(\'" type="text/javascript"></script>\\n\', escape=False)\nresponse.write(\'\\n\\n    \', escape=False)\n#using sidebars need to know what sidebar you want to use\n#prior of using it, because of static width size of content, you can use\n#left_sidebar, right_sidebar, both or none (False left and right)\nleft_sidebar_enabled = globals().get(\'left_sidebar_enabled\',False)\nright_sidebar_enabled = globals().get(\'right_sidebar_enabled\',False)\nif left_sidebar_enabled and right_sidebar_enabled: width_content=\'63%\'\nelif left_sidebar_enabled != right_sidebar_enabled: width_content=\'740px\'\nelse: width_content=\'100%\'\nif left_sidebar_enabled: left_sidebar_style = \'style="display: block;"\'\nelse: left_sidebar_style = \'style="display: none;"\'\nif right_sidebar_enabled: right_sidebar_style = \'style="display: block;"\'\nelse: right_sidebar_style = \'style="display: none;"\'\nstyle_content = \'style="width: %s"\' % width_content\nresponse.write(\'\\n    \\n    <!--use html5shiv to let IE see new html entities and give them block style so that they are treated properly--> \\n    <!--[if IE]>\\n        <script src="http://html5shiv.googlecode.com/svn/trunk/html5.js"></script>\\n    <![endif]-->\\n    <style>\\n      article, aside, details, figcaption, figure, footer, header,\\n      hgroup, menu, nav, section { display: block; }\\n    </style>\\n      \\n    \\n  </head>\\n  \\n  <!-- paulirish.com/2008/conditional-stylesheets-vs-css-hacks-answer-neither/ -->  \\n  <!--[if lt IE 7 ]> <body class="ie6"> <![endif]-->\\n  <!--[if IE 7 ]>    <body class="ie7"> <![endif]-->\\n  <!--[if IE 8 ]>    <body class="ie8"> <![endif]-->\\n  <!--[if IE 9 ]>    <body class="ie9"> <![endif]-->\\n  <!--[if (gt IE 9)|!(IE)]><!--> <body> <!--<![endif]-->\\n    \\n    <div class="flash">\', escape=False)\nresponse.write(response.flash or \'\')\nresponse.write("</div> <!-- notification div -->                           \\n\\n\\t<div id=\'modal_frame\'></div>\\n    \\n    <header>\\n        \\n      ", escape=False)\nresponse.write(\' <!-- this is default header -->\\n      \', escape=False)\ntry:\n    response.write(auth.navbar(action=URL(\'default\',\'user\')))\nexcept:pass\nresponse.write(\'               \\n      <h1 id="appname">\', escape=False)\nresponse.write(A(request.application.capitalize(), _href=URL(\'default\', \'index\')))\nresponse.write(\'</h1>\\n      <div style="clear: both;"></div><!-- Clear the divs -->\\n      \', escape=False)\nresponse.write(\'                \\n                             \\n    </header>\\n    \\n    <div id="page" class="\', escape=False)\nresponse.write(request.controller)\nresponse.write(\' \', escape=False)\nresponse.write(request.function)\nresponse.write(\'">    \\n\\n      \', escape=False)\nif left_sidebar_enabled:\n    response.write(\'\\n          <div id="left_sidebar" \', escape=False)\n    response.write(XML(left_sidebar_style))\n    response.write(\' >\\n            <div style="padding: 4px;">\\n          \', escape=False)\n    response.write(\'Content Left Sidebar\', escape=False)\n    response.write(\'       \\n            </div>\\n          </div><!-- left_sidebar -->\\n      \', escape=False)\n    pass\nresponse.write(\'\\n\\n      <!-- content of other views-->\\n      \', escape=False)\nresponse.write(\'\\n\\n<h2>Grade Reports</h2>\\n\\n<section id="viewpane">\\nPlease select a student from the list.\\n</section>\\n\\n<section id="listpane">\\n    \', escape=False)\nfor k,c in courses:\n    response.write(\'\\n    \', escape=False)\n    response.write(H3(k))\n    response.write(\'\\n        <ul>\\n        \', escape=False)\n    for num,name in students.items():\n        response.write(\'\\n            \', escape=False)\n        if num in c:\n            response.write(\'\\n                \', escape=False)\n            response.write(LI(A(name, _href=URL(\'grades_detail.load\', args=num), cid="viewpane")))\n            response.write(\'\\n            \', escape=False)\n            pass\n        response.write(\'\\n        \', escape=False)\n        pass\n    response.write(\'\\n        </ul>\\n    \', escape=False)\n    pass\nresponse.write(\'\\n    \\n</section>\', escape=False)\nresponse.write(\' \\n      <!-- content -->\\n\\n      \', escape=False)\nif right_sidebar_enabled:\n    response.write(\'\\n          <div id="right_sidebar" \', escape=False)\n    response.write(XML(right_sidebar_style))\n    response.write(\' >\\n            <div style="padding: 4px;">\\n              \', escape=False)\n    response.write(\'Content Right Sidebar\', escape=False)\n    response.write(\'\\n            </div>\\n          </div><!-- right_sidebar -->\\n      \', escape=False)\n    pass\nresponse.write(\'\\n       \\n      <div style="clear: both;"></div><!-- Clear the divs -->                         \\n    \\n    </div><!--page-->\\n    \\n    <footer>\\n      \', escape=False)\nresponse.write(\' <!-- this is default footer -->\\n      <a href="http://www.web2py.com/" >\\n        <img src="\', escape=False)\nresponse.write(URL(\'static\',\'images/poweredby.png\'))\nresponse.write(\'"/>\\n      </a>\\n      \', escape=False)\nresponse.write(T(\'Copyright\'))\nresponse.write(\' &#169; Ian W. Scott 2011 (licensed under GPL 3.0)               \\n      <div style="clear: both;"></div><!-- Clear the divs -->\\n      \', escape=False)\nresponse.write(\'\\n    </footer>           \\n\\n\\t\', escape=False)\nif session.debug:\n    response.write(\'\\n\\t\\t\', escape=False)\n    response.write(DIV(session.debug, _class="debug"))\n    response.write(\'\\n\\t\', escape=False)\n    pass\nresponse.write(\'\\n\\n    <!--[if lt IE 7 ]>\\n    <script src="\', escape=False)\nresponse.write(URL(\'static\',\'js/dd_belatedpng.js\'))\nresponse.write(\'"></script>\\n    <script> DD_belatedPNG.fix(\\\'img, .png_bg\\\'); //fix any <img> or .png_bg background-images </script>\\n    <![endif]-->\\n    \\n    <!-- asynchronous google analytics: mathiasbynens.be/notes/async-analytics-snippet \\n     change the UA-XXXXX-X to be your site\\\'s ID -->\\n    <!--   \\n       <script>\\n         var _gaq = [[\\\'_setAccount\\\', \\\'UA-XXXXX-X\\\'], [\\\'_trackPageview\\\']];\\n         (function(d, t) {\\n         var g = d.createElement(t),\\n         s = d.getElementsByTagName(t)[0];\\n         g.async = true;\\n         g.src = \\\'//www.google-analytics.com/ga.js\\\';\\n         s.parentNode.insertBefore(g, s);\\n         })(document, \\\'script\\\');\\n       </script>\\n       -->    \\n  </body>\\n</html>\\n\', escape=False)'
p6
sS'snapshot'
p7
(dp8
S'exception'
p9
(dp10
S'__hash__'
p11
S"<method-wrapper '__hash__' of exceptions.ValueError object>"
p12
sS'__setattr__'
p13
S"<method-wrapper '__setattr__' of exceptions.ValueError object>"
p14
sS'__reduce_ex__'
p15
S'<built-in method __reduce_ex__ of exceptions.ValueError object>'
p16
sS'__getslice__'
p17
S"<method-wrapper '__getslice__' of exceptions.ValueError object>"
p18
sS'__getitem__'
p19
S"<method-wrapper '__getitem__' of exceptions.ValueError object>"
p20
sS'__setstate__'
p21
S'<built-in method __setstate__ of exceptions.ValueError object>'
p22
sS'args'
p23
S"('too many values to unpack',)"
p24
sS'__reduce__'
p25
S'<built-in method __reduce__ of exceptions.ValueError object>'
p26
sS'__str__'
p27
S"<method-wrapper '__str__' of exceptions.ValueError object>"
p28
sS'__format__'
p29
S'<built-in method __format__ of exceptions.ValueError object>'
p30
sS'__getattribute__'
p31
S"<method-wrapper '__getattribute__' of exceptions.ValueError object>"
p32
sS'__class__'
p33
S"<type 'exceptions.ValueError'>"
p34
sS'__unicode__'
p35
S'<built-in method __unicode__ of exceptions.ValueError object>'
p36
sS'__delattr__'
p37
S"<method-wrapper '__delattr__' of exceptions.ValueError object>"
p38
sS'__subclasshook__'
p39
S'<built-in method __subclasshook__ of type object>'
p40
sS'__repr__'
p41
S"<method-wrapper '__repr__' of exceptions.ValueError object>"
p42
sS'__dict__'
p43
S'{}'
p44
sS'__sizeof__'
p45
S'<built-in method __sizeof__ of exceptions.ValueError object>'
p46
sS'__doc__'
p47
S"'Inappropriate argument value (of correct type).'"
p48
sS'__init__'
p49
S"<method-wrapper '__init__' of exceptions.ValueError object>"
p50
sS'__new__'
p51
S'<built-in method __new__ of type object>'
p52
ssS'evalue'
p53
S'too many values to unpack'
p54
sS'request'
p55
ccopy_reg
_reconstructor
p56
(cgluon.html
BEAUTIFY
p57
c__builtin__
object
p58
NtRp59
(dp60
S'attributes'
p61
(dp62
sS'components'
p63
(lp64
g56
(cgluon.html
TABLE
p65
g58
NtRp66
(dp67
g61
(dp68
S'level'
p69
I5
ssS'parent'
p70
Nsg63
(lp71
g56
(cgluon.html
TR
p72
g58
NtRp73
(dp74
g61
(dp75
sg70
g66
sg63
(lp76
g56
(cgluon.html
TD
p77
g58
NtRp78
(dp79
g61
(dp80
S'_style'
p81
S'font-weight:bold;'
p82
ssg70
g73
sg63
(lp83
S'ajax'
p84
asbag56
(g77
g58
NtRp85
(dp86
g61
(dp87
S'_valign'
p88
S'top'
p89
ssg70
g73
sg63
(lp90
S':'
asbag56
(g77
g58
NtRp91
(dp92
g61
(dp93
sg70
g73
sg63
(lp94
g56
(g57
g58
NtRp95
(dp96
g61
(dp97
g69
I5
ssg70
g91
sg63
(lp98
S'False'
p99
asbasbasbag56
(g72
g58
NtRp100
(dp101
g61
(dp102
sg70
g66
sg63
(lp103
g56
(g77
g58
NtRp104
(dp105
g61
(dp106
g81
g82
ssg70
g100
sg63
(lp107
S'application'
p108
asbag56
(g77
g58
NtRp109
(dp110
g61
(dp111
g88
g89
ssg70
g100
sg63
(lp112
S':'
asbag56
(g77
g58
NtRp113
(dp114
g61
(dp115
sg70
g100
sg63
(lp116
g56
(g57
g58
NtRp117
(dp118
g61
(dp119
g69
I5
ssg70
g113
sg63
(lp120
S'grades'
p121
asbasbasbag56
(g72
g58
NtRp122
(dp123
g61
(dp124
sg70
g66
sg63
(lp125
g56
(g77
g58
NtRp126
(dp127
g61
(dp128
g81
g82
ssg70
g122
sg63
(lp129
g23
asbag56
(g77
g58
NtRp130
(dp131
g61
(dp132
g88
g89
ssg70
g122
sg63
(lp133
S':'
asbag56
(g77
g58
NtRp134
(dp135
g61
(dp136
sg70
g122
sg63
(lp137
g56
(g57
g58
NtRp138
(dp139
g61
(dp140
g69
I5
ssg70
g134
sg63
(lp141
g56
(g65
g58
NtRp142
(dp143
g61
(dp144
g69
I4
ssg70
Nsg63
(lp145
g56
(g72
g58
NtRp146
(dp147
g61
(dp148
sg70
g142
sg63
(lp149
g56
(g77
g58
NtRp150
(dp151
g61
(dp152
sg70
g146
sg63
(lp153
g56
(g57
g58
NtRp154
(dp155
g61
(dp156
g69
I4
ssg70
g150
sg63
(lp157
S'15'
p158
asbasbasbasbasbasbasbag56
(g72
g58
NtRp159
(dp160
g61
(dp161
sg70
g66
sg63
(lp162
g56
(g77
g58
NtRp163
(dp164
g61
(dp165
g81
g82
ssg70
g159
sg63
(lp166
S'body'
p167
asbag56
(g77
g58
NtRp168
(dp169
g61
(dp170
g88
g89
ssg70
g159
sg63
(lp171
S':'
asbag56
(g77
g58
NtRp172
(dp173
g61
(dp174
sg70
g159
sg63
(lp175
g56
(g57
g58
NtRp176
(dp177
g61
(dp178
g69
I5
ssg70
g172
sg63
(lp179
S'<cStringIO.StringO object at 0x38e0c70>'
p180
asbasbasbag56
(g72
g58
NtRp181
(dp182
g61
(dp183
sg70
g66
sg63
(lp184
g56
(g77
g58
NtRp185
(dp186
g61
(dp187
g81
g82
ssg70
g181
sg63
(lp188
S'client'
p189
asbag56
(g77
g58
NtRp190
(dp191
g61
(dp192
g88
g89
ssg70
g181
sg63
(lp193
S':'
asbag56
(g77
g58
NtRp194
(dp195
g61
(dp196
sg70
g181
sg63
(lp197
g56
(g57
g58
NtRp198
(dp199
g61
(dp200
g69
I5
ssg70
g194
sg63
(lp201
S'127.0.0.1'
p202
asbasbasbag56
(g72
g58
NtRp203
(dp204
g61
(dp205
sg70
g66
sg63
(lp206
g56
(g77
g58
NtRp207
(dp208
g61
(dp209
g81
g82
ssg70
g203
sg63
(lp210
S'controller'
p211
asbag56
(g77
g58
NtRp212
(dp213
g61
(dp214
g88
g89
ssg70
g203
sg63
(lp215
S':'
asbag56
(g77
g58
NtRp216
(dp217
g61
(dp218
sg70
g203
sg63
(lp219
g56
(g57
g58
NtRp220
(dp221
g61
(dp222
g69
I5
ssg70
g216
sg63
(lp223
S'default'
p224
asbasbasbag56
(g72
g58
NtRp225
(dp226
g61
(dp227
sg70
g66
sg63
(lp228
g56
(g77
g58
NtRp229
(dp230
g61
(dp231
g81
g82
ssg70
g225
sg63
(lp232
S'cookies'
p233
asbag56
(g77
g58
NtRp234
(dp235
g61
(dp236
g88
g89
ssg70
g225
sg63
(lp237
S':'
asbag56
(g77
g58
NtRp238
(dp239
g61
(dp240
sg70
g225
sg63
(lp241
g56
(g57
g58
NtRp242
(dp243
g61
(dp244
g69
I5
ssg70
g238
sg63
(lp245
g56
(g65
g58
NtRp246
(dp247
g61
(dp248
g69
I4
ssg70
Nsg63
(lp249
g56
(g72
g58
NtRp250
(dp251
g61
(dp252
sg70
g246
sg63
(lp253
g56
(g77
g58
NtRp254
(dp255
g61
(dp256
g81
g82
ssg70
g250
sg63
(lp257
S'session_id_admin'
p258
asbag56
(g77
g58
NtRp259
(dp260
g61
(dp261
g88
g89
ssg70
g250
sg63
(lp262
S':'
asbag56
(g77
g58
NtRp263
(dp264
g61
(dp265
sg70
g250
sg63
(lp266
g56
(g57
g58
NtRp267
(dp268
g61
(dp269
g69
I4
ssg70
g263
sg63
(lp270
g56
(g65
g58
NtRp271
(dp272
g61
(dp273
g69
I3
ssg70
Nsg63
(lp274
g56
(g72
g58
NtRp275
(dp276
g61
(dp277
sg70
g271
sg63
(lp278
g56
(g77
g58
NtRp279
(dp280
g61
(dp281
g81
g82
ssg70
g275
sg63
(lp282
S'comment'
p283
asbag56
(g77
g58
NtRp284
(dp285
g61
(dp286
g88
g89
ssg70
g275
sg63
(lp287
S':'
asbag56
(g77
g58
NtRp288
(dp289
g61
(dp290
sg70
g275
sg63
(lp291
g56
(g57
g58
NtRp292
(dp293
g61
(dp294
g69
I3
ssg70
g288
sg63
(lp295
S''
asbasbasbag56
(g72
g58
NtRp296
(dp297
g61
(dp298
sg70
g271
sg63
(lp299
g56
(g77
g58
NtRp300
(dp301
g61
(dp302
g81
g82
ssg70
g296
sg63
(lp303
S'domain'
p304
asbag56
(g77
g58
NtRp305
(dp306
g61
(dp307
g88
g89
ssg70
g296
sg63
(lp308
S':'
asbag56
(g77
g58
NtRp309
(dp310
g61
(dp311
sg70
g296
sg63
(lp312
g56
(g57
g58
NtRp313
(dp314
g61
(dp315
g69
I3
ssg70
g309
sg63
(lp316
S''
asbasbasbag56
(g72
g58
NtRp317
(dp318
g61
(dp319
sg70
g271
sg63
(lp320
g56
(g77
g58
NtRp321
(dp322
g61
(dp323
g81
g82
ssg70
g317
sg63
(lp324
S'expires'
p325
asbag56
(g77
g58
NtRp326
(dp327
g61
(dp328
g88
g89
ssg70
g317
sg63
(lp329
S':'
asbag56
(g77
g58
NtRp330
(dp331
g61
(dp332
sg70
g317
sg63
(lp333
g56
(g57
g58
NtRp334
(dp335
g61
(dp336
g69
I3
ssg70
g330
sg63
(lp337
S''
asbasbasbag56
(g72
g58
NtRp338
(dp339
g61
(dp340
sg70
g271
sg63
(lp341
g56
(g77
g58
NtRp342
(dp343
g61
(dp344
g81
g82
ssg70
g338
sg63
(lp345
S'httponly'
p346
asbag56
(g77
g58
NtRp347
(dp348
g61
(dp349
g88
g89
ssg70
g338
sg63
(lp350
S':'
asbag56
(g77
g58
NtRp351
(dp352
g61
(dp353
sg70
g338
sg63
(lp354
g56
(g57
g58
NtRp355
(dp356
g61
(dp357
g69
I3
ssg70
g351
sg63
(lp358
S''
asbasbasbag56
(g72
g58
NtRp359
(dp360
g61
(dp361
sg70
g271
sg63
(lp362
g56
(g77
g58
NtRp363
(dp364
g61
(dp365
g81
g82
ssg70
g359
sg63
(lp366
S'max-age'
p367
asbag56
(g77
g58
NtRp368
(dp369
g61
(dp370
g88
g89
ssg70
g359
sg63
(lp371
S':'
asbag56
(g77
g58
NtRp372
(dp373
g61
(dp374
sg70
g359
sg63
(lp375
g56
(g57
g58
NtRp376
(dp377
g61
(dp378
g69
I3
ssg70
g372
sg63
(lp379
S''
asbasbasbag56
(g72
g58
NtRp380
(dp381
g61
(dp382
sg70
g271
sg63
(lp383
g56
(g77
g58
NtRp384
(dp385
g61
(dp386
g81
g82
ssg70
g380
sg63
(lp387
S'path'
p388
asbag56
(g77
g58
NtRp389
(dp390
g61
(dp391
g88
g89
ssg70
g380
sg63
(lp392
S':'
asbag56
(g77
g58
NtRp393
(dp394
g61
(dp395
sg70
g380
sg63
(lp396
g56
(g57
g58
NtRp397
(dp398
g61
(dp399
g69
I3
ssg70
g393
sg63
(lp400
S''
asbasbasbag56
(g72
g58
NtRp401
(dp402
g61
(dp403
sg70
g271
sg63
(lp404
g56
(g77
g58
NtRp405
(dp406
g61
(dp407
g81
g82
ssg70
g401
sg63
(lp408
S'secure'
p409
asbag56
(g77
g58
NtRp410
(dp411
g61
(dp412
g88
g89
ssg70
g401
sg63
(lp413
S':'
asbag56
(g77
g58
NtRp414
(dp415
g61
(dp416
sg70
g401
sg63
(lp417
g56
(g57
g58
NtRp418
(dp419
g61
(dp420
g69
I3
ssg70
g414
sg63
(lp421
S''
asbasbasbag56
(g72
g58
NtRp422
(dp423
g61
(dp424
sg70
g271
sg63
(lp425
g56
(g77
g58
NtRp426
(dp427
g61
(dp428
g81
g82
ssg70
g422
sg63
(lp429
S'version'
p430
asbag56
(g77
g58
NtRp431
(dp432
g61
(dp433
g88
g89
ssg70
g422
sg63
(lp434
S':'
asbag56
(g77
g58
NtRp435
(dp436
g61
(dp437
sg70
g422
sg63
(lp438
g56
(g57
g58
NtRp439
(dp440
g61
(dp441
g69
I3
ssg70
g435
sg63
(lp442
S''
asbasbasbasbasbasbasbag56
(g72
g58
NtRp443
(dp444
g61
(dp445
sg70
g246
sg63
(lp446
g56
(g77
g58
NtRp447
(dp448
g61
(dp449
g81
g82
ssg70
g443
sg63
(lp450
S'session_id_grades'
p451
asbag56
(g77
g58
NtRp452
(dp453
g61
(dp454
g88
g89
ssg70
g443
sg63
(lp455
S':'
asbag56
(g77
g58
NtRp456
(dp457
g61
(dp458
sg70
g443
sg63
(lp459
g56
(g57
g58
NtRp460
(dp461
g61
(dp462
g69
I4
ssg70
g456
sg63
(lp463
g56
(g65
g58
NtRp464
(dp465
g61
(dp466
g69
I3
ssg70
Nsg63
(lp467
g56
(g72
g58
NtRp468
(dp469
g61
(dp470
sg70
g464
sg63
(lp471
g56
(g77
g58
NtRp472
(dp473
g61
(dp474
g81
g82
ssg70
g468
sg63
(lp475
g283
asbag56
(g77
g58
NtRp476
(dp477
g61
(dp478
g88
g89
ssg70
g468
sg63
(lp479
S':'
asbag56
(g77
g58
NtRp480
(dp481
g61
(dp482
sg70
g468
sg63
(lp483
g56
(g57
g58
NtRp484
(dp485
g61
(dp486
g69
I3
ssg70
g480
sg63
(lp487
S''
asbasbasbag56
(g72
g58
NtRp488
(dp489
g61
(dp490
sg70
g464
sg63
(lp491
g56
(g77
g58
NtRp492
(dp493
g61
(dp494
g81
g82
ssg70
g488
sg63
(lp495
g304
asbag56
(g77
g58
NtRp496
(dp497
g61
(dp498
g88
g89
ssg70
g488
sg63
(lp499
S':'
asbag56
(g77
g58
NtRp500
(dp501
g61
(dp502
sg70
g488
sg63
(lp503
g56
(g57
g58
NtRp504
(dp505
g61
(dp506
g69
I3
ssg70
g500
sg63
(lp507
S''
asbasbasbag56
(g72
g58
NtRp508
(dp509
g61
(dp510
sg70
g464
sg63
(lp511
g56
(g77
g58
NtRp512
(dp513
g61
(dp514
g81
g82
ssg70
g508
sg63
(lp515
g325
asbag56
(g77
g58
NtRp516
(dp517
g61
(dp518
g88
g89
ssg70
g508
sg63
(lp519
S':'
asbag56
(g77
g58
NtRp520
(dp521
g61
(dp522
sg70
g508
sg63
(lp523
g56
(g57
g58
NtRp524
(dp525
g61
(dp526
g69
I3
ssg70
g520
sg63
(lp527
S''
asbasbasbag56
(g72
g58
NtRp528
(dp529
g61
(dp530
sg70
g464
sg63
(lp531
g56
(g77
g58
NtRp532
(dp533
g61
(dp534
g81
g82
ssg70
g528
sg63
(lp535
g346
asbag56
(g77
g58
NtRp536
(dp537
g61
(dp538
g88
g89
ssg70
g528
sg63
(lp539
S':'
asbag56
(g77
g58
NtRp540
(dp541
g61
(dp542
sg70
g528
sg63
(lp543
g56
(g57
g58
NtRp544
(dp545
g61
(dp546
g69
I3
ssg70
g540
sg63
(lp547
S''
asbasbasbag56
(g72
g58
NtRp548
(dp549
g61
(dp550
sg70
g464
sg63
(lp551
g56
(g77
g58
NtRp552
(dp553
g61
(dp554
g81
g82
ssg70
g548
sg63
(lp555
g367
asbag56
(g77
g58
NtRp556
(dp557
g61
(dp558
g88
g89
ssg70
g548
sg63
(lp559
S':'
asbag56
(g77
g58
NtRp560
(dp561
g61
(dp562
sg70
g548
sg63
(lp563
g56
(g57
g58
NtRp564
(dp565
g61
(dp566
g69
I3
ssg70
g560
sg63
(lp567
S''
asbasbasbag56
(g72
g58
NtRp568
(dp569
g61
(dp570
sg70
g464
sg63
(lp571
g56
(g77
g58
NtRp572
(dp573
g61
(dp574
g81
g82
ssg70
g568
sg63
(lp575
g388
asbag56
(g77
g58
NtRp576
(dp577
g61
(dp578
g88
g89
ssg70
g568
sg63
(lp579
S':'
asbag56
(g77
g58
NtRp580
(dp581
g61
(dp582
sg70
g568
sg63
(lp583
g56
(g57
g58
NtRp584
(dp585
g61
(dp586
g69
I3
ssg70
g580
sg63
(lp587
S''
asbasbasbag56
(g72
g58
NtRp588
(dp589
g61
(dp590
sg70
g464
sg63
(lp591
g56
(g77
g58
NtRp592
(dp593
g61
(dp594
g81
g82
ssg70
g588
sg63
(lp595
g409
asbag56
(g77
g58
NtRp596
(dp597
g61
(dp598
g88
g89
ssg70
g588
sg63
(lp599
S':'
asbag56
(g77
g58
NtRp600
(dp601
g61
(dp602
sg70
g588
sg63
(lp603
g56
(g57
g58
NtRp604
(dp605
g61
(dp606
g69
I3
ssg70
g600
sg63
(lp607
S''
asbasbasbag56
(g72
g58
NtRp608
(dp609
g61
(dp610
sg70
g464
sg63
(lp611
g56
(g77
g58
NtRp612
(dp613
g61
(dp614
g81
g82
ssg70
g608
sg63
(lp615
g430
asbag56
(g77
g58
NtRp616
(dp617
g61
(dp618
g88
g89
ssg70
g608
sg63
(lp619
S':'
asbag56
(g77
g58
NtRp620
(dp621
g61
(dp622
sg70
g608
sg63
(lp623
g56
(g57
g58
NtRp624
(dp625
g61
(dp626
g69
I3
ssg70
g620
sg63
(lp627
S''
asbasbasbasbasbasbasbag56
(g72
g58
NtRp628
(dp629
g61
(dp630
sg70
g246
sg63
(lp631
g56
(g77
g58
NtRp632
(dp633
g61
(dp634
g81
g82
ssg70
g628
sg63
(lp635
S'session_id_paideia'
p636
asbag56
(g77
g58
NtRp637
(dp638
g61
(dp639
g88
g89
ssg70
g628
sg63
(lp640
S':'
asbag56
(g77
g58
NtRp641
(dp642
g61
(dp643
sg70
g628
sg63
(lp644
g56
(g57
g58
NtRp645
(dp646
g61
(dp647
g69
I4
ssg70
g641
sg63
(lp648
g56
(g65
g58
NtRp649
(dp650
g61
(dp651
g69
I3
ssg70
Nsg63
(lp652
g56
(g72
g58
NtRp653
(dp654
g61
(dp655
sg70
g649
sg63
(lp656
g56
(g77
g58
NtRp657
(dp658
g61
(dp659
g81
g82
ssg70
g653
sg63
(lp660
g283
asbag56
(g77
g58
NtRp661
(dp662
g61
(dp663
g88
g89
ssg70
g653
sg63
(lp664
S':'
asbag56
(g77
g58
NtRp665
(dp666
g61
(dp667
sg70
g653
sg63
(lp668
g56
(g57
g58
NtRp669
(dp670
g61
(dp671
g69
I3
ssg70
g665
sg63
(lp672
S''
asbasbasbag56
(g72
g58
NtRp673
(dp674
g61
(dp675
sg70
g649
sg63
(lp676
g56
(g77
g58
NtRp677
(dp678
g61
(dp679
g81
g82
ssg70
g673
sg63
(lp680
g304
asbag56
(g77
g58
NtRp681
(dp682
g61
(dp683
g88
g89
ssg70
g673
sg63
(lp684
S':'
asbag56
(g77
g58
NtRp685
(dp686
g61
(dp687
sg70
g673
sg63
(lp688
g56
(g57
g58
NtRp689
(dp690
g61
(dp691
g69
I3
ssg70
g685
sg63
(lp692
S''
asbasbasbag56
(g72
g58
NtRp693
(dp694
g61
(dp695
sg70
g649
sg63
(lp696
g56
(g77
g58
NtRp697
(dp698
g61
(dp699
g81
g82
ssg70
g693
sg63
(lp700
g325
asbag56
(g77
g58
NtRp701
(dp702
g61
(dp703
g88
g89
ssg70
g693
sg63
(lp704
S':'
asbag56
(g77
g58
NtRp705
(dp706
g61
(dp707
sg70
g693
sg63
(lp708
g56
(g57
g58
NtRp709
(dp710
g61
(dp711
g69
I3
ssg70
g705
sg63
(lp712
S''
asbasbasbag56
(g72
g58
NtRp713
(dp714
g61
(dp715
sg70
g649
sg63
(lp716
g56
(g77
g58
NtRp717
(dp718
g61
(dp719
g81
g82
ssg70
g713
sg63
(lp720
g346
asbag56
(g77
g58
NtRp721
(dp722
g61
(dp723
g88
g89
ssg70
g713
sg63
(lp724
S':'
asbag56
(g77
g58
NtRp725
(dp726
g61
(dp727
sg70
g713
sg63
(lp728
g56
(g57
g58
NtRp729
(dp730
g61
(dp731
g69
I3
ssg70
g725
sg63
(lp732
S''
asbasbasbag56
(g72
g58
NtRp733
(dp734
g61
(dp735
sg70
g649
sg63
(lp736
g56
(g77
g58
NtRp737
(dp738
g61
(dp739
g81
g82
ssg70
g733
sg63
(lp740
g367
asbag56
(g77
g58
NtRp741
(dp742
g61
(dp743
g88
g89
ssg70
g733
sg63
(lp744
S':'
asbag56
(g77
g58
NtRp745
(dp746
g61
(dp747
sg70
g733
sg63
(lp748
g56
(g57
g58
NtRp749
(dp750
g61
(dp751
g69
I3
ssg70
g745
sg63
(lp752
S''
asbasbasbag56
(g72
g58
NtRp753
(dp754
g61
(dp755
sg70
g649
sg63
(lp756
g56
(g77
g58
NtRp757
(dp758
g61
(dp759
g81
g82
ssg70
g753
sg63
(lp760
g388
asbag56
(g77
g58
NtRp761
(dp762
g61
(dp763
g88
g89
ssg70
g753
sg63
(lp764
S':'
asbag56
(g77
g58
NtRp765
(dp766
g61
(dp767
sg70
g753
sg63
(lp768
g56
(g57
g58
NtRp769
(dp770
g61
(dp771
g69
I3
ssg70
g765
sg63
(lp772
S''
asbasbasbag56
(g72
g58
NtRp773
(dp774
g61
(dp775
sg70
g649
sg63
(lp776
g56
(g77
g58
NtRp777
(dp778
g61
(dp779
g81
g82
ssg70
g773
sg63
(lp780
g409
asbag56
(g77
g58
NtRp781
(dp782
g61
(dp783
g88
g89
ssg70
g773
sg63
(lp784
S':'
asbag56
(g77
g58
NtRp785
(dp786
g61
(dp787
sg70
g773
sg63
(lp788
g56
(g57
g58
NtRp789
(dp790
g61
(dp791
g69
I3
ssg70
g785
sg63
(lp792
S''
asbasbasbag56
(g72
g58
NtRp793
(dp794
g61
(dp795
sg70
g649
sg63
(lp796
g56
(g77
g58
NtRp797
(dp798
g61
(dp799
g81
g82
ssg70
g793
sg63
(lp800
g430
asbag56
(g77
g58
NtRp801
(dp802
g61
(dp803
g88
g89
ssg70
g793
sg63
(lp804
S':'
asbag56
(g77
g58
NtRp805
(dp806
g61
(dp807
sg70
g793
sg63
(lp808
g56
(g57
g58
NtRp809
(dp810
g61
(dp811
g69
I3
ssg70
g805
sg63
(lp812
S''
asbasbasbasbasbasbasbag56
(g72
g58
NtRp813
(dp814
g61
(dp815
sg70
g246
sg63
(lp816
g56
(g77
g58
NtRp817
(dp818
g61
(dp819
g81
g82
ssg70
g813
sg63
(lp820
S'session_id_welcome'
p821
asbag56
(g77
g58
NtRp822
(dp823
g61
(dp824
g88
g89
ssg70
g813
sg63
(lp825
S':'
asbag56
(g77
g58
NtRp826
(dp827
g61
(dp828
sg70
g813
sg63
(lp829
g56
(g57
g58
NtRp830
(dp831
g61
(dp832
g69
I4
ssg70
g826
sg63
(lp833
g56
(g65
g58
NtRp834
(dp835
g61
(dp836
g69
I3
ssg70
Nsg63
(lp837
g56
(g72
g58
NtRp838
(dp839
g61
(dp840
sg70
g834
sg63
(lp841
g56
(g77
g58
NtRp842
(dp843
g61
(dp844
g81
g82
ssg70
g838
sg63
(lp845
g283
asbag56
(g77
g58
NtRp846
(dp847
g61
(dp848
g88
g89
ssg70
g838
sg63
(lp849
S':'
asbag56
(g77
g58
NtRp850
(dp851
g61
(dp852
sg70
g838
sg63
(lp853
g56
(g57
g58
NtRp854
(dp855
g61
(dp856
g69
I3
ssg70
g850
sg63
(lp857
S''
asbasbasbag56
(g72
g58
NtRp858
(dp859
g61
(dp860
sg70
g834
sg63
(lp861
g56
(g77
g58
NtRp862
(dp863
g61
(dp864
g81
g82
ssg70
g858
sg63
(lp865
g304
asbag56
(g77
g58
NtRp866
(dp867
g61
(dp868
g88
g89
ssg70
g858
sg63
(lp869
S':'
asbag56
(g77
g58
NtRp870
(dp871
g61
(dp872
sg70
g858
sg63
(lp873
g56
(g57
g58
NtRp874
(dp875
g61
(dp876
g69
I3
ssg70
g870
sg63
(lp877
S''
asbasbasbag56
(g72
g58
NtRp878
(dp879
g61
(dp880
sg70
g834
sg63
(lp881
g56
(g77
g58
NtRp882
(dp883
g61
(dp884
g81
g82
ssg70
g878
sg63
(lp885
g325
asbag56
(g77
g58
NtRp886
(dp887
g61
(dp888
g88
g89
ssg70
g878
sg63
(lp889
S':'
asbag56
(g77
g58
NtRp890
(dp891
g61
(dp892
sg70
g878
sg63
(lp893
g56
(g57
g58
NtRp894
(dp895
g61
(dp896
g69
I3
ssg70
g890
sg63
(lp897
S''
asbasbasbag56
(g72
g58
NtRp898
(dp899
g61
(dp900
sg70
g834
sg63
(lp901
g56
(g77
g58
NtRp902
(dp903
g61
(dp904
g81
g82
ssg70
g898
sg63
(lp905
g346
asbag56
(g77
g58
NtRp906
(dp907
g61
(dp908
g88
g89
ssg70
g898
sg63
(lp909
S':'
asbag56
(g77
g58
NtRp910
(dp911
g61
(dp912
sg70
g898
sg63
(lp913
g56
(g57
g58
NtRp914
(dp915
g61
(dp916
g69
I3
ssg70
g910
sg63
(lp917
S''
asbasbasbag56
(g72
g58
NtRp918
(dp919
g61
(dp920
sg70
g834
sg63
(lp921
g56
(g77
g58
NtRp922
(dp923
g61
(dp924
g81
g82
ssg70
g918
sg63
(lp925
g367
asbag56
(g77
g58
NtRp926
(dp927
g61
(dp928
g88
g89
ssg70
g918
sg63
(lp929
S':'
asbag56
(g77
g58
NtRp930
(dp931
g61
(dp932
sg70
g918
sg63
(lp933
g56
(g57
g58
NtRp934
(dp935
g61
(dp936
g69
I3
ssg70
g930
sg63
(lp937
S''
asbasbasbag56
(g72
g58
NtRp938
(dp939
g61
(dp940
sg70
g834
sg63
(lp941
g56
(g77
g58
NtRp942
(dp943
g61
(dp944
g81
g82
ssg70
g938
sg63
(lp945
g388
asbag56
(g77
g58
NtRp946
(dp947
g61
(dp948
g88
g89
ssg70
g938
sg63
(lp949
S':'
asbag56
(g77
g58
NtRp950
(dp951
g61
(dp952
sg70
g938
sg63
(lp953
g56
(g57
g58
NtRp954
(dp955
g61
(dp956
g69
I3
ssg70
g950
sg63
(lp957
S''
asbasbasbag56
(g72
g58
NtRp958
(dp959
g61
(dp960
sg70
g834
sg63
(lp961
g56
(g77
g58
NtRp962
(dp963
g61
(dp964
g81
g82
ssg70
g958
sg63
(lp965
g409
asbag56
(g77
g58
NtRp966
(dp967
g61
(dp968
g88
g89
ssg70
g958
sg63
(lp969
S':'
asbag56
(g77
g58
NtRp970
(dp971
g61
(dp972
sg70
g958
sg63
(lp973
g56
(g57
g58
NtRp974
(dp975
g61
(dp976
g69
I3
ssg70
g970
sg63
(lp977
S''
asbasbasbag56
(g72
g58
NtRp978
(dp979
g61
(dp980
sg70
g834
sg63
(lp981
g56
(g77
g58
NtRp982
(dp983
g61
(dp984
g81
g82
ssg70
g978
sg63
(lp985
g430
asbag56
(g77
g58
NtRp986
(dp987
g61
(dp988
g88
g89
ssg70
g978
sg63
(lp989
S':'
asbag56
(g77
g58
NtRp990
(dp991
g61
(dp992
sg70
g978
sg63
(lp993
g56
(g57
g58
NtRp994
(dp995
g61
(dp996
g69
I3
ssg70
g990
sg63
(lp997
S''
asbasbasbasbasbasbasbasbasbasbasbag56
(g72
g58
NtRp998
(dp999
g61
(dp1000
sg70
g66
sg63
(lp1001
g56
(g77
g58
NtRp1002
(dp1003
g61
(dp1004
g81
g82
ssg70
g998
sg63
(lp1005
S'env'
p1006
asbag56
(g77
g58
NtRp1007
(dp1008
g61
(dp1009
g88
g89
ssg70
g998
sg63
(lp1010
S':'
asbag56
(g77
g58
NtRp1011
(dp1012
g61
(dp1013
sg70
g998
sg63
(lp1014
g56
(g57
g58
NtRp1015
(dp1016
g61
(dp1017
g69
I5
ssg70
g1011
sg63
(lp1018
g56
(g65
g58
NtRp1019
(dp1020
g61
(dp1021
g69
I4
ssg70
Nsg63
(lp1022
g56
(g72
g58
NtRp1023
(dp1024
g61
(dp1025
sg70
g1019
sg63
(lp1026
g56
(g77
g58
NtRp1027
(dp1028
g61
(dp1029
g81
g82
ssg70
g1023
sg63
(lp1030
S'app_folders'
p1031
asbag56
(g77
g58
NtRp1032
(dp1033
g61
(dp1034
g88
g89
ssg70
g1023
sg63
(lp1035
S':'
asbag56
(g77
g58
NtRp1036
(dp1037
g61
(dp1038
sg70
g1023
sg63
(lp1039
g56
(g57
g58
NtRp1040
(dp1041
g61
(dp1042
g69
I4
ssg70
g1036
sg63
(lp1043
S"set(['/home/ian/web2py/applications/welcome/', '/home/ian/web2py/applications/grades/', '/home/ian/web2py/applications/admin/'])"
p1044
asbasbasbag56
(g72
g58
NtRp1045
(dp1046
g61
(dp1047
sg70
g1019
sg63
(lp1048
g56
(g77
g58
NtRp1049
(dp1050
g61
(dp1051
g81
g82
ssg70
g1045
sg63
(lp1052
S'applications_parent'
p1053
asbag56
(g77
g58
NtRp1054
(dp1055
g61
(dp1056
g88
g89
ssg70
g1045
sg63
(lp1057
S':'
asbag56
(g77
g58
NtRp1058
(dp1059
g61
(dp1060
sg70
g1045
sg63
(lp1061
g56
(g57
g58
NtRp1062
(dp1063
g61
(dp1064
g69
I4
ssg70
g1058
sg63
(lp1065
S'/home/ian/web2py'
p1066
asbasbasbag56
(g72
g58
NtRp1067
(dp1068
g61
(dp1069
sg70
g1019
sg63
(lp1070
g56
(g77
g58
NtRp1071
(dp1072
g61
(dp1073
g81
g82
ssg70
g1067
sg63
(lp1074
S'cmd_args'
p1075
asbag56
(g77
g58
NtRp1076
(dp1077
g61
(dp1078
g88
g89
ssg70
g1067
sg63
(lp1079
S':'
asbag56
(g77
g58
NtRp1080
(dp1081
g61
(dp1082
sg70
g1067
sg63
(lp1083
g56
(g57
g58
NtRp1084
(dp1085
g61
(dp1086
g69
I4
ssg70
g1080
sg63
(lp1087
g56
(g65
g58
NtRp1088
(dp1089
g61
(dp1090
g69
I3
ssg70
Nsg63
(lp1091
sbasbasbasbag56
(g72
g58
NtRp1092
(dp1093
g61
(dp1094
sg70
g1019
sg63
(lp1095
g56
(g77
g58
NtRp1096
(dp1097
g61
(dp1098
g81
g82
ssg70
g1092
sg63
(lp1099
S'cmd_options'
p1100
asbag56
(g77
g58
NtRp1101
(dp1102
g61
(dp1103
g88
g89
ssg70
g1092
sg63
(lp1104
S':'
asbag56
(g77
g58
NtRp1105
(dp1106
g61
(dp1107
sg70
g1092
sg63
(lp1108
g56
(g57
g58
NtRp1109
(dp1110
g61
(dp1111
g69
I4
ssg70
g1105
sg63
(lp1112
S"<Values at 0x1ffe758: {'verbose': False, 'ip': '127.0.0.1', 'shutdown_timeout': 5, 'taskbar': False, 'nocron': False, 'pid_filename': 'httpserver.pid', 'maxthreads': None, 'softcron': False, 'server_name': 'uriel', 'bpython': False, 'nogui': False, 'port': 8000, 'extcron': False, 'debuglevel': 30, 'test': None, 'folder': '/home/ian/web2py', 'config': '', 'import_models': False, 'winservice': '', 'shell': None, 'run': '', 'log_filename': 'httpserver.log', 'args': [''], 'ssl_ca_certificate': None, 'scheduler': None, 'profiler_filename': None, 'ssl_private_key': '', 'password': '<ask>', 'request_queue_size': 5, 'ssl_certificate': '', 'cronjob': False, 'plain': False, 'quiet': False, 'interfaces': None, 'minthreads': None, 'timeout': 10, 'numthreads': None, 'nobanner': False}>"
p1113
asbasbasbag56
(g72
g58
NtRp1114
(dp1115
g61
(dp1116
sg70
g1019
sg63
(lp1117
g56
(g77
g58
NtRp1118
(dp1119
g61
(dp1120
g81
g82
ssg70
g1114
sg63
(lp1121
S'db_sessions'
p1122
asbag56
(g77
g58
NtRp1123
(dp1124
g61
(dp1125
g88
g89
ssg70
g1114
sg63
(lp1126
S':'
asbag56
(g77
g58
NtRp1127
(dp1128
g61
(dp1129
sg70
g1114
sg63
(lp1130
g56
(g57
g58
NtRp1131
(dp1132
g61
(dp1133
g69
I4
ssg70
g1127
sg63
(lp1134
S'set([])'
p1135
asbasbasbag56
(g72
g58
NtRp1136
(dp1137
g61
(dp1138
sg70
g1019
sg63
(lp1139
g56
(g77
g58
NtRp1140
(dp1141
g61
(dp1142
g81
g82
ssg70
g1136
sg63
(lp1143
S'debugging'
p1144
asbag56
(g77
g58
NtRp1145
(dp1146
g61
(dp1147
g88
g89
ssg70
g1136
sg63
(lp1148
S':'
asbag56
(g77
g58
NtRp1149
(dp1150
g61
(dp1151
sg70
g1136
sg63
(lp1152
g56
(g57
g58
NtRp1153
(dp1154
g61
(dp1155
g69
I4
ssg70
g1149
sg63
(lp1156
g99
asbasbasbag56
(g72
g58
NtRp1157
(dp1158
g61
(dp1159
sg70
g1019
sg63
(lp1160
g56
(g77
g58
NtRp1161
(dp1162
g61
(dp1163
g81
g82
ssg70
g1157
sg63
(lp1164
S'gluon_parent'
p1165
asbag56
(g77
g58
NtRp1166
(dp1167
g61
(dp1168
g88
g89
ssg70
g1157
sg63
(lp1169
S':'
asbag56
(g77
g58
NtRp1170
(dp1171
g61
(dp1172
sg70
g1157
sg63
(lp1173
g56
(g57
g58
NtRp1174
(dp1175
g61
(dp1176
g69
I4
ssg70
g1170
sg63
(lp1177
S'/home/ian/web2py'
p1178
asbasbasbag56
(g72
g58
NtRp1179
(dp1180
g61
(dp1181
sg70
g1019
sg63
(lp1182
g56
(g77
g58
NtRp1183
(dp1184
g61
(dp1185
g81
g82
ssg70
g1179
sg63
(lp1186
S'http_accept'
p1187
asbag56
(g77
g58
NtRp1188
(dp1189
g61
(dp1190
g88
g89
ssg70
g1179
sg63
(lp1191
S':'
asbag56
(g77
g58
NtRp1192
(dp1193
g61
(dp1194
sg70
g1179
sg63
(lp1195
g56
(g57
g58
NtRp1196
(dp1197
g61
(dp1198
g69
I4
ssg70
g1192
sg63
(lp1199
S'text/html,application/xhtml+xml,application/xml;q=0.9,*/*;q=0.8'
p1200
asbasbasbag56
(g72
g58
NtRp1201
(dp1202
g61
(dp1203
sg70
g1019
sg63
(lp1204
g56
(g77
g58
NtRp1205
(dp1206
g61
(dp1207
g81
g82
ssg70
g1201
sg63
(lp1208
S'http_accept_encoding'
p1209
asbag56
(g77
g58
NtRp1210
(dp1211
g61
(dp1212
g88
g89
ssg70
g1201
sg63
(lp1213
S':'
asbag56
(g77
g58
NtRp1214
(dp1215
g61
(dp1216
sg70
g1201
sg63
(lp1217
g56
(g57
g58
NtRp1218
(dp1219
g61
(dp1220
g69
I4
ssg70
g1214
sg63
(lp1221
S'gzip, deflate'
p1222
asbasbasbag56
(g72
g58
NtRp1223
(dp1224
g61
(dp1225
sg70
g1019
sg63
(lp1226
g56
(g77
g58
NtRp1227
(dp1228
g61
(dp1229
g81
g82
ssg70
g1223
sg63
(lp1230
S'http_accept_language'
p1231
asbag56
(g77
g58
NtRp1232
(dp1233
g61
(dp1234
g88
g89
ssg70
g1223
sg63
(lp1235
S':'
asbag56
(g77
g58
NtRp1236
(dp1237
g61
(dp1238
sg70
g1223
sg63
(lp1239
g56
(g57
g58
NtRp1240
(dp1241
g61
(dp1242
g69
I4
ssg70
g1236
sg63
(lp1243
S'en-us,en;q=0.5'
p1244
asbasbasbag56
(g72
g58
NtRp1245
(dp1246
g61
(dp1247
sg70
g1019
sg63
(lp1248
g56
(g77
g58
NtRp1249
(dp1250
g61
(dp1251
g81
g82
ssg70
g1245
sg63
(lp1252
S'http_cache_control'
p1253
asbag56
(g77
g58
NtRp1254
(dp1255
g61
(dp1256
g88
g89
ssg70
g1245
sg63
(lp1257
S':'
asbag56
(g77
g58
NtRp1258
(dp1259
g61
(dp1260
sg70
g1245
sg63
(lp1261
g56
(g57
g58
NtRp1262
(dp1263
g61
(dp1264
g69
I4
ssg70
g1258
sg63
(lp1265
S'max-age=0'
p1266
asbasbasbag56
(g72
g58
NtRp1267
(dp1268
g61
(dp1269
sg70
g1019
sg63
(lp1270
g56
(g77
g58
NtRp1271
(dp1272
g61
(dp1273
g81
g82
ssg70
g1267
sg63
(lp1274
S'http_connection'
p1275
asbag56
(g77
g58
NtRp1276
(dp1277
g61
(dp1278
g88
g89
ssg70
g1267
sg63
(lp1279
S':'
asbag56
(g77
g58
NtRp1280
(dp1281
g61
(dp1282
sg70
g1267
sg63
(lp1283
g56
(g57
g58
NtRp1284
(dp1285
g61
(dp1286
g69
I4
ssg70
g1280
sg63
(lp1287
S'keep-alive'
p1288
asbasbasbag56
(g72
g58
NtRp1289
(dp1290
g61
(dp1291
sg70
g1019
sg63
(lp1292
g56
(g77
g58
NtRp1293
(dp1294
g61
(dp1295
g81
g82
ssg70
g1289
sg63
(lp1296
S'http_cookie'
p1297
asbag56
(g77
g58
NtRp1298
(dp1299
g61
(dp1300
g88
g89
ssg70
g1289
sg63
(lp1301
S':'
asbag56
(g77
g58
NtRp1302
(dp1303
g61
(dp1304
sg70
g1289
sg63
(lp1305
g56
(g57
g58
NtRp1306
(dp1307
g61
(dp1308
g69
I4
ssg70
g1302
sg63
(lp1309
S'session_id_paideia=127.0.0.1-5296f1e9-849e-4717-b7d4-f5f298041148; session_id_welcome=127.0.0.1-cbd9183f-89a3-433a-9c7b-93d2c556d545; session_id_grades=127.0.0.1-7e779f51-d72f-4159-aa81-826b4f2d26c1; session_id_admin=127.0.0.1-0a4d4364-3576-4988-bc56-f95aeecb4481'
p1310
asbasbasbag56
(g72
g58
NtRp1311
(dp1312
g61
(dp1313
sg70
g1019
sg63
(lp1314
g56
(g77
g58
NtRp1315
(dp1316
g61
(dp1317
g81
g82
ssg70
g1311
sg63
(lp1318
S'http_host'
p1319
asbag56
(g77
g58
NtRp1320
(dp1321
g61
(dp1322
g88
g89
ssg70
g1311
sg63
(lp1323
S':'
asbag56
(g77
g58
NtRp1324
(dp1325
g61
(dp1326
sg70
g1311
sg63
(lp1327
g56
(g57
g58
NtRp1328
(dp1329
g61
(dp1330
g69
I4
ssg70
g1324
sg63
(lp1331
S'127.0.0.1:8000'
p1332
asbasbasbag56
(g72
g58
NtRp1333
(dp1334
g61
(dp1335
sg70
g1019
sg63
(lp1336
g56
(g77
g58
NtRp1337
(dp1338
g61
(dp1339
g81
g82
ssg70
g1333
sg63
(lp1340
S'http_user_agent'
p1341
asbag56
(g77
g58
NtRp1342
(dp1343
g61
(dp1344
g88
g89
ssg70
g1333
sg63
(lp1345
S':'
asbag56
(g77
g58
NtRp1346
(dp1347
g61
(dp1348
sg70
g1333
sg63
(lp1349
g56
(g57
g58
NtRp1350
(dp1351
g61
(dp1352
g69
I4
ssg70
g1346
sg63
(lp1353
S'Mozilla/5.0 (X11; Linux x86_64; rv:8.0) Gecko/20100101 Firefox/8.0'
p1354
asbasbasbag56
(g72
g58
NtRp1355
(dp1356
g61
(dp1357
sg70
g1019
sg63
(lp1358
g56
(g77
g58
NtRp1359
(dp1360
g61
(dp1361
g81
g82
ssg70
g1355
sg63
(lp1362
S'is_jython'
p1363
asbag56
(g77
g58
NtRp1364
(dp1365
g61
(dp1366
g88
g89
ssg70
g1355
sg63
(lp1367
S':'
asbag56
(g77
g58
NtRp1368
(dp1369
g61
(dp1370
sg70
g1355
sg63
(lp1371
g56
(g57
g58
NtRp1372
(dp1373
g61
(dp1374
g69
I4
ssg70
g1368
sg63
(lp1375
g99
asbasbasbag56
(g72
g58
NtRp1376
(dp1377
g61
(dp1378
sg70
g1019
sg63
(lp1379
g56
(g77
g58
NtRp1380
(dp1381
g61
(dp1382
g81
g82
ssg70
g1376
sg63
(lp1383
S'path_info'
p1384
asbag56
(g77
g58
NtRp1385
(dp1386
g61
(dp1387
g88
g89
ssg70
g1376
sg63
(lp1388
S':'
asbag56
(g77
g58
NtRp1389
(dp1390
g61
(dp1391
sg70
g1376
sg63
(lp1392
g56
(g57
g58
NtRp1393
(dp1394
g61
(dp1395
g69
I4
ssg70
g1389
sg63
(lp1396
S'/grades/default/grades_report/15'
p1397
asbasbasbag56
(g72
g58
NtRp1398
(dp1399
g61
(dp1400
sg70
g1019
sg63
(lp1401
g56
(g77
g58
NtRp1402
(dp1403
g61
(dp1404
g81
g82
ssg70
g1398
sg63
(lp1405
S'query_string'
p1406
asbag56
(g77
g58
NtRp1407
(dp1408
g61
(dp1409
g88
g89
ssg70
g1398
sg63
(lp1410
S':'
asbag56
(g77
g58
NtRp1411
(dp1412
g61
(dp1413
sg70
g1398
sg63
(lp1414
g56
(g57
g58
NtRp1415
(dp1416
g61
(dp1417
g69
I4
ssg70
g1411
sg63
(lp1418
S''
asbasbasbag56
(g72
g58
NtRp1419
(dp1420
g61
(dp1421
sg70
g1019
sg63
(lp1422
g56
(g77
g58
NtRp1423
(dp1424
g61
(dp1425
g81
g82
ssg70
g1419
sg63
(lp1426
S'remote_addr'
p1427
asbag56
(g77
g58
NtRp1428
(dp1429
g61
(dp1430
g88
g89
ssg70
g1419
sg63
(lp1431
S':'
asbag56
(g77
g58
NtRp1432
(dp1433
g61
(dp1434
sg70
g1419
sg63
(lp1435
g56
(g57
g58
NtRp1436
(dp1437
g61
(dp1438
g69
I4
ssg70
g1432
sg63
(lp1439
g202
asbasbasbag56
(g72
g58
NtRp1440
(dp1441
g61
(dp1442
sg70
g1019
sg63
(lp1443
g56
(g77
g58
NtRp1444
(dp1445
g61
(dp1446
g81
g82
ssg70
g1440
sg63
(lp1447
S'remote_port'
p1448
asbag56
(g77
g58
NtRp1449
(dp1450
g61
(dp1451
g88
g89
ssg70
g1440
sg63
(lp1452
S':'
asbag56
(g77
g58
NtRp1453
(dp1454
g61
(dp1455
sg70
g1440
sg63
(lp1456
g56
(g57
g58
NtRp1457
(dp1458
g61
(dp1459
g69
I4
ssg70
g1453
sg63
(lp1460
S'33169'
p1461
asbasbasbag56
(g72
g58
NtRp1462
(dp1463
g61
(dp1464
sg70
g1019
sg63
(lp1465
g56
(g77
g58
NtRp1466
(dp1467
g61
(dp1468
g81
g82
ssg70
g1462
sg63
(lp1469
S'request_method'
p1470
asbag56
(g77
g58
NtRp1471
(dp1472
g61
(dp1473
g88
g89
ssg70
g1462
sg63
(lp1474
S':'
asbag56
(g77
g58
NtRp1475
(dp1476
g61
(dp1477
sg70
g1462
sg63
(lp1478
g56
(g57
g58
NtRp1479
(dp1480
g61
(dp1481
g69
I4
ssg70
g1475
sg63
(lp1482
S'GET'
p1483
asbasbasbag56
(g72
g58
NtRp1484
(dp1485
g61
(dp1486
sg70
g1019
sg63
(lp1487
g56
(g77
g58
NtRp1488
(dp1489
g61
(dp1490
g81
g82
ssg70
g1484
sg63
(lp1491
S'script_name'
p1492
asbag56
(g77
g58
NtRp1493
(dp1494
g61
(dp1495
g88
g89
ssg70
g1484
sg63
(lp1496
S':'
asbag56
(g77
g58
NtRp1497
(dp1498
g61
(dp1499
sg70
g1484
sg63
(lp1500
g56
(g57
g58
NtRp1501
(dp1502
g61
(dp1503
g69
I4
ssg70
g1497
sg63
(lp1504
S''
asbasbasbag56
(g72
g58
NtRp1505
(dp1506
g61
(dp1507
sg70
g1019
sg63
(lp1508
g56
(g77
g58
NtRp1509
(dp1510
g61
(dp1511
g81
g82
ssg70
g1505
sg63
(lp1512
S'server_name'
p1513
asbag56
(g77
g58
NtRp1514
(dp1515
g61
(dp1516
g88
g89
ssg70
g1505
sg63
(lp1517
S':'
asbag56
(g77
g58
NtRp1518
(dp1519
g61
(dp1520
sg70
g1505
sg63
(lp1521
g56
(g57
g58
NtRp1522
(dp1523
g61
(dp1524
g69
I4
ssg70
g1518
sg63
(lp1525
S'uriel'
p1526
asbasbasbag56
(g72
g58
NtRp1527
(dp1528
g61
(dp1529
sg70
g1019
sg63
(lp1530
g56
(g77
g58
NtRp1531
(dp1532
g61
(dp1533
g81
g82
ssg70
g1527
sg63
(lp1534
S'server_port'
p1535
asbag56
(g77
g58
NtRp1536
(dp1537
g61
(dp1538
g88
g89
ssg70
g1527
sg63
(lp1539
S':'
asbag56
(g77
g58
NtRp1540
(dp1541
g61
(dp1542
sg70
g1527
sg63
(lp1543
g56
(g57
g58
NtRp1544
(dp1545
g61
(dp1546
g69
I4
ssg70
g1540
sg63
(lp1547
S'8000'
p1548
asbasbasbag56
(g72
g58
NtRp1549
(dp1550
g61
(dp1551
sg70
g1019
sg63
(lp1552
g56
(g77
g58
NtRp1553
(dp1554
g61
(dp1555
g81
g82
ssg70
g1549
sg63
(lp1556
S'server_protocol'
p1557
asbag56
(g77
g58
NtRp1558
(dp1559
g61
(dp1560
g88
g89
ssg70
g1549
sg63
(lp1561
S':'
asbag56
(g77
g58
NtRp1562
(dp1563
g61
(dp1564
sg70
g1549
sg63
(lp1565
g56
(g57
g58
NtRp1566
(dp1567
g61
(dp1568
g69
I4
ssg70
g1562
sg63
(lp1569
S'HTTP/1.1'
p1570
asbasbasbag56
(g72
g58
NtRp1571
(dp1572
g61
(dp1573
sg70
g1019
sg63
(lp1574
g56
(g77
g58
NtRp1575
(dp1576
g61
(dp1577
g81
g82
ssg70
g1571
sg63
(lp1578
S'server_software'
p1579
asbag56
(g77
g58
NtRp1580
(dp1581
g61
(dp1582
g88
g89
ssg70
g1571
sg63
(lp1583
S':'
asbag56
(g77
g58
NtRp1584
(dp1585
g61
(dp1586
sg70
g1571
sg63
(lp1587
g56
(g57
g58
NtRp1588
(dp1589
g61
(dp1590
g69
I4
ssg70
g1584
sg63
(lp1591
S'Rocket 1.2.4'
p1592
asbasbasbag56
(g72
g58
NtRp1593
(dp1594
g61
(dp1595
sg70
g1019
sg63
(lp1596
g56
(g77
g58
NtRp1597
(dp1598
g61
(dp1599
g81
g82
ssg70
g1593
sg63
(lp1600
S'web2py_crontype'
p1601
asbag56
(g77
g58
NtRp1602
(dp1603
g61
(dp1604
g88
g89
ssg70
g1593
sg63
(lp1605
S':'
asbag56
(g77
g58
NtRp1606
(dp1607
g61
(dp1608
sg70
g1593
sg63
(lp1609
g56
(g57
g58
NtRp1610
(dp1611
g61
(dp1612
g69
I4
ssg70
g1606
sg63
(lp1613
S'hard'
p1614
asbasbasbag56
(g72
g58
NtRp1615
(dp1616
g61
(dp1617
sg70
g1019
sg63
(lp1618
g56
(g77
g58
NtRp1619
(dp1620
g61
(dp1621
g81
g82
ssg70
g1615
sg63
(lp1622
S'web2py_path'
p1623
asbag56
(g77
g58
NtRp1624
(dp1625
g61
(dp1626
g88
g89
ssg70
g1615
sg63
(lp1627
S':'
asbag56
(g77
g58
NtRp1628
(dp1629
g61
(dp1630
sg70
g1615
sg63
(lp1631
g56
(g57
g58
NtRp1632
(dp1633
g61
(dp1634
g69
I4
ssg70
g1628
sg63
(lp1635
g1066
asbasbasbag56
(g72
g58
NtRp1636
(dp1637
g61
(dp1638
sg70
g1019
sg63
(lp1639
g56
(g77
g58
NtRp1640
(dp1641
g61
(dp1642
g81
g82
ssg70
g1636
sg63
(lp1643
S'web2py_version'
p1644
asbag56
(g77
g58
NtRp1645
(dp1646
g61
(dp1647
g88
g89
ssg70
g1636
sg63
(lp1648
S':'
asbag56
(g77
g58
NtRp1649
(dp1650
g61
(dp1651
sg70
g1636
sg63
(lp1652
g56
(g57
g58
NtRp1653
(dp1654
g61
(dp1655
g69
I4
ssg70
g1649
sg63
(lp1656
g56
(g65
g58
NtRp1657
(dp1658
g61
(dp1659
g69
I3
ssg70
Nsg63
(lp1660
g56
(g72
g58
NtRp1661
(dp1662
g61
(dp1663
sg70
g1657
sg63
(lp1664
g56
(g77
g58
NtRp1665
(dp1666
g61
(dp1667
sg70
g1661
sg63
(lp1668
g56
(g57
g58
NtRp1669
(dp1670
g61
(dp1671
g69
I3
ssg70
g1665
sg63
(lp1672
S'1'
asbasbasbag56
(g72
g58
NtRp1673
(dp1674
g61
(dp1675
sg70
g1657
sg63
(lp1676
g56
(g77
g58
NtRp1677
(dp1678
g61
(dp1679
sg70
g1673
sg63
(lp1680
g56
(g57
g58
NtRp1681
(dp1682
g61
(dp1683
g69
I3
ssg70
g1677
sg63
(lp1684
S'99'
p1685
asbasbasbag56
(g72
g58
NtRp1686
(dp1687
g61
(dp1688
sg70
g1657
sg63
(lp1689
g56
(g77
g58
NtRp1690
(dp1691
g61
(dp1692
sg70
g1686
sg63
(lp1693
g56
(g57
g58
NtRp1694
(dp1695
g61
(dp1696
g69
I3
ssg70
g1690
sg63
(lp1697
S'2'
asbasbasbag56
(g72
g58
NtRp1698
(dp1699
g61
(dp1700
sg70
g1657
sg63
(lp1701
g56
(g77
g58
NtRp1702
(dp1703
g61
(dp1704
sg70
g1698
sg63
(lp1705
g56
(g57
g58
NtRp1706
(dp1707
g61
(dp1708
g69
I3
ssg70
g1702
sg63
(lp1709
S'datetime.datetime(2011, 9, 26, 6, 55, 33)'
p1710
asbasbasbag56
(g72
g58
NtRp1711
(dp1712
g61
(dp1713
sg70
g1657
sg63
(lp1714
g56
(g77
g58
NtRp1715
(dp1716
g61
(dp1717
sg70
g1711
sg63
(lp1718
g56
(g57
g58
NtRp1719
(dp1720
g61
(dp1721
g69
I3
ssg70
g1715
sg63
(lp1722
S'stable'
p1723
asbasbasbasbasbasbasbag56
(g72
g58
NtRp1724
(dp1725
g61
(dp1726
sg70
g1019
sg63
(lp1727
g56
(g77
g58
NtRp1728
(dp1729
g61
(dp1730
g81
g82
ssg70
g1724
sg63
(lp1731
S'wsgi_errors'
p1732
asbag56
(g77
g58
NtRp1733
(dp1734
g61
(dp1735
g88
g89
ssg70
g1724
sg63
(lp1736
S':'
asbag56
(g77
g58
NtRp1737
(dp1738
g61
(dp1739
sg70
g1724
sg63
(lp1740
g56
(g57
g58
NtRp1741
(dp1742
g61
(dp1743
g69
I4
ssg70
g1737
sg63
(lp1744
S"<open file '<stderr>', mode 'w' at 0x7f9678b3d270>"
p1745
asbasbasbag56
(g72
g58
NtRp1746
(dp1747
g61
(dp1748
sg70
g1019
sg63
(lp1749
g56
(g77
g58
NtRp1750
(dp1751
g61
(dp1752
g81
g82
ssg70
g1746
sg63
(lp1753
S'wsgi_file_wrapper'
p1754
asbag56
(g77
g58
NtRp1755
(dp1756
g61
(dp1757
g88
g89
ssg70
g1746
sg63
(lp1758
S':'
asbag56
(g77
g58
NtRp1759
(dp1760
g61
(dp1761
sg70
g1746
sg63
(lp1762
g56
(g57
g58
NtRp1763
(dp1764
g61
(dp1765
g69
I4
ssg70
g1759
sg63
(lp1766
S'<class wsgiref.util.FileWrapper at 0x1ec9870>'
p1767
asbasbasbag56
(g72
g58
NtRp1768
(dp1769
g61
(dp1770
sg70
g1019
sg63
(lp1771
g56
(g77
g58
NtRp1772
(dp1773
g61
(dp1774
g81
g82
ssg70
g1768
sg63
(lp1775
S'wsgi_input'
p1776
asbag56
(g77
g58
NtRp1777
(dp1778
g61
(dp1779
g88
g89
ssg70
g1768
sg63
(lp1780
S':'
asbag56
(g77
g58
NtRp1781
(dp1782
g61
(dp1783
sg70
g1768
sg63
(lp1784
g56
(g57
g58
NtRp1785
(dp1786
g61
(dp1787
g69
I4
ssg70
g1781
sg63
(lp1788
S'<socket._fileobject object at 0x3d95cd0>'
p1789
asbasbasbag56
(g72
g58
NtRp1790
(dp1791
g61
(dp1792
sg70
g1019
sg63
(lp1793
g56
(g77
g58
NtRp1794
(dp1795
g61
(dp1796
g81
g82
ssg70
g1790
sg63
(lp1797
S'wsgi_multiprocess'
p1798
asbag56
(g77
g58
NtRp1799
(dp1800
g61
(dp1801
g88
g89
ssg70
g1790
sg63
(lp1802
S':'
asbag56
(g77
g58
NtRp1803
(dp1804
g61
(dp1805
sg70
g1790
sg63
(lp1806
g56
(g57
g58
NtRp1807
(dp1808
g61
(dp1809
g69
I4
ssg70
g1803
sg63
(lp1810
g99
asbasbasbag56
(g72
g58
NtRp1811
(dp1812
g61
(dp1813
sg70
g1019
sg63
(lp1814
g56
(g77
g58
NtRp1815
(dp1816
g61
(dp1817
g81
g82
ssg70
g1811
sg63
(lp1818
S'wsgi_multithread'
p1819
asbag56
(g77
g58
NtRp1820
(dp1821
g61
(dp1822
g88
g89
ssg70
g1811
sg63
(lp1823
S':'
asbag56
(g77
g58
NtRp1824
(dp1825
g61
(dp1826
sg70
g1811
sg63
(lp1827
g56
(g57
g58
NtRp1828
(dp1829
g61
(dp1830
g69
I4
ssg70
g1824
sg63
(lp1831
S'True'
p1832
asbasbasbag56
(g72
g58
NtRp1833
(dp1834
g61
(dp1835
sg70
g1019
sg63
(lp1836
g56
(g77
g58
NtRp1837
(dp1838
g61
(dp1839
g81
g82
ssg70
g1833
sg63
(lp1840
S'wsgi_run_once'
p1841
asbag56
(g77
g58
NtRp1842
(dp1843
g61
(dp1844
g88
g89
ssg70
g1833
sg63
(lp1845
S':'
asbag56
(g77
g58
NtRp1846
(dp1847
g61
(dp1848
sg70
g1833
sg63
(lp1849
g56
(g57
g58
NtRp1850
(dp1851
g61
(dp1852
g69
I4
ssg70
g1846
sg63
(lp1853
g99
asbasbasbag56
(g72
g58
NtRp1854
(dp1855
g61
(dp1856
sg70
g1019
sg63
(lp1857
g56
(g77
g58
NtRp1858
(dp1859
g61
(dp1860
g81
g82
ssg70
g1854
sg63
(lp1861
S'wsgi_url_scheme'
p1862
asbag56
(g77
g58
NtRp1863
(dp1864
g61
(dp1865
g88
g89
ssg70
g1854
sg63
(lp1866
S':'
asbag56
(g77
g58
NtRp1867
(dp1868
g61
(dp1869
sg70
g1854
sg63
(lp1870
g56
(g57
g58
NtRp1871
(dp1872
g61
(dp1873
g69
I4
ssg70
g1867
sg63
(lp1874
S'http'
p1875
asbasbasbag56
(g72
g58
NtRp1876
(dp1877
g61
(dp1878
sg70
g1019
sg63
(lp1879
g56
(g77
g58
NtRp1880
(dp1881
g61
(dp1882
g81
g82
ssg70
g1876
sg63
(lp1883
S'wsgi_version'
p1884
asbag56
(g77
g58
NtRp1885
(dp1886
g61
(dp1887
g88
g89
ssg70
g1876
sg63
(lp1888
S':'
asbag56
(g77
g58
NtRp1889
(dp1890
g61
(dp1891
sg70
g1876
sg63
(lp1892
g56
(g57
g58
NtRp1893
(dp1894
g61
(dp1895
g69
I4
ssg70
g1889
sg63
(lp1896
g56
(g65
g58
NtRp1897
(dp1898
g61
(dp1899
g69
I3
ssg70
Nsg63
(lp1900
g56
(g72
g58
NtRp1901
(dp1902
g61
(dp1903
sg70
g1897
sg63
(lp1904
g56
(g77
g58
NtRp1905
(dp1906
g61
(dp1907
sg70
g1901
sg63
(lp1908
g56
(g57
g58
NtRp1909
(dp1910
g61
(dp1911
g69
I3
ssg70
g1905
sg63
(lp1912
S'1'
asbasbasbag56
(g72
g58
NtRp1913
(dp1914
g61
(dp1915
sg70
g1897
sg63
(lp1916
g56
(g77
g58
NtRp1917
(dp1918
g61
(dp1919
sg70
g1913
sg63
(lp1920
g56
(g57
g58
NtRp1921
(dp1922
g61
(dp1923
g69
I3
ssg70
g1917
sg63
(lp1924
S'0'
asbasbasbasbasbasbasbasbasbasbasbag56
(g72
g58
NtRp1925
(dp1926
g61
(dp1927
sg70
g66
sg63
(lp1928
g56
(g77
g58
NtRp1929
(dp1930
g61
(dp1931
g81
g82
ssg70
g1925
sg63
(lp1932
S'extension'
p1933
asbag56
(g77
g58
NtRp1934
(dp1935
g61
(dp1936
g88
g89
ssg70
g1925
sg63
(lp1937
S':'
asbag56
(g77
g58
NtRp1938
(dp1939
g61
(dp1940
sg70
g1925
sg63
(lp1941
g56
(g57
g58
NtRp1942
(dp1943
g61
(dp1944
g69
I5
ssg70
g1938
sg63
(lp1945
S'html'
p1946
asbasbasbag56
(g72
g58
NtRp1947
(dp1948
g61
(dp1949
sg70
g66
sg63
(lp1950
g56
(g77
g58
NtRp1951
(dp1952
g61
(dp1953
g81
g82
ssg70
g1947
sg63
(lp1954
S'folder'
p1955
asbag56
(g77
g58
NtRp1956
(dp1957
g61
(dp1958
g88
g89
ssg70
g1947
sg63
(lp1959
S':'
asbag56
(g77
g58
NtRp1960
(dp1961
g61
(dp1962
sg70
g1947
sg63
(lp1963
g56
(g57
g58
NtRp1964
(dp1965
g61
(dp1966
g69
I5
ssg70
g1960
sg63
(lp1967
S'/home/ian/web2py/applications/grades/'
p1968
asbasbasbag56
(g72
g58
NtRp1969
(dp1970
g61
(dp1971
sg70
g66
sg63
(lp1972
g56
(g77
g58
NtRp1973
(dp1974
g61
(dp1975
g81
g82
ssg70
g1969
sg63
(lp1976
S'function'
p1977
asbag56
(g77
g58
NtRp1978
(dp1979
g61
(dp1980
g88
g89
ssg70
g1969
sg63
(lp1981
S':'
asbag56
(g77
g58
NtRp1982
(dp1983
g61
(dp1984
sg70
g1969
sg63
(lp1985
g56
(g57
g58
NtRp1986
(dp1987
g61
(dp1988
g69
I5
ssg70
g1982
sg63
(lp1989
S'grades_report'
p1990
asbasbasbag56
(g72
g58
NtRp1991
(dp1992
g61
(dp1993
sg70
g66
sg63
(lp1994
g56
(g77
g58
NtRp1995
(dp1996
g61
(dp1997
g81
g82
ssg70
g1991
sg63
(lp1998
S'get_vars'
p1999
asbag56
(g77
g58
NtRp2000
(dp2001
g61
(dp2002
g88
g89
ssg70
g1991
sg63
(lp2003
S':'
asbag56
(g77
g58
NtRp2004
(dp2005
g61
(dp2006
sg70
g1991
sg63
(lp2007
g56
(g57
g58
NtRp2008
(dp2009
g61
(dp2010
g69
I5
ssg70
g2004
sg63
(lp2011
g56
(g65
g58
NtRp2012
(dp2013
g61
(dp2014
g69
I4
ssg70
Nsg63
(lp2015
sbasbasbasbag56
(g72
g58
NtRp2016
(dp2017
g61
(dp2018
sg70
g66
sg63
(lp2019
g56
(g77
g58
NtRp2020
(dp2021
g61
(dp2022
g81
g82
ssg70
g2016
sg63
(lp2023
S'global_settings'
p2024
asbag56
(g77
g58
NtRp2025
(dp2026
g61
(dp2027
g88
g89
ssg70
g2016
sg63
(lp2028
S':'
asbag56
(g77
g58
NtRp2029
(dp2030
g61
(dp2031
sg70
g2016
sg63
(lp2032
g56
(g57
g58
NtRp2033
(dp2034
g61
(dp2035
g69
I5
ssg70
g2029
sg63
(lp2036
g56
(g65
g58
NtRp2037
(dp2038
g61
(dp2039
g69
I4
ssg70
Nsg63
(lp2040
g56
(g72
g58
NtRp2041
(dp2042
g61
(dp2043
sg70
g2037
sg63
(lp2044
g56
(g77
g58
NtRp2045
(dp2046
g61
(dp2047
g81
g82
ssg70
g2041
sg63
(lp2048
g1031
asbag56
(g77
g58
NtRp2049
(dp2050
g61
(dp2051
g88
g89
ssg70
g2041
sg63
(lp2052
S':'
asbag56
(g77
g58
NtRp2053
(dp2054
g61
(dp2055
sg70
g2041
sg63
(lp2056
g56
(g57
g58
NtRp2057
(dp2058
g61
(dp2059
g69
I4
ssg70
g2053
sg63
(lp2060
S"set(['/home/ian/web2py/applications/welcome/', '/home/ian/web2py/applications/grades/', '/home/ian/web2py/applications/admin/'])"
p2061
asbasbasbag56
(g72
g58
NtRp2062
(dp2063
g61
(dp2064
sg70
g2037
sg63
(lp2065
g56
(g77
g58
NtRp2066
(dp2067
g61
(dp2068
g81
g82
ssg70
g2062
sg63
(lp2069
g1053
asbag56
(g77
g58
NtRp2070
(dp2071
g61
(dp2072
g88
g89
ssg70
g2062
sg63
(lp2073
S':'
asbag56
(g77
g58
NtRp2074
(dp2075
g61
(dp2076
sg70
g2062
sg63
(lp2077
g56
(g57
g58
NtRp2078
(dp2079
g61
(dp2080
g69
I4
ssg70
g2074
sg63
(lp2081
g1066
asbasbasbag56
(g72
g58
NtRp2082
(dp2083
g61
(dp2084
sg70
g2037
sg63
(lp2085
g56
(g77
g58
NtRp2086
(dp2087
g61
(dp2088
g81
g82
ssg70
g2082
sg63
(lp2089
g1075
asbag56
(g77
g58
NtRp2090
(dp2091
g61
(dp2092
g88
g89
ssg70
g2082
sg63
(lp2093
S':'
asbag56
(g77
g58
NtRp2094
(dp2095
g61
(dp2096
sg70
g2082
sg63
(lp2097
g56
(g57
g58
NtRp2098
(dp2099
g61
(dp2100
g69
I4
ssg70
g2094
sg63
(lp2101
g56
(g65
g58
NtRp2102
(dp2103
g61
(dp2104
g69
I3
ssg70
Nsg63
(lp2105
sbasbasbasbag56
(g72
g58
NtRp2106
(dp2107
g61
(dp2108
sg70
g2037
sg63
(lp2109
g56
(g77
g58
NtRp2110
(dp2111
g61
(dp2112
g81
g82
ssg70
g2106
sg63
(lp2113
g1100
asbag56
(g77
g58
NtRp2114
(dp2115
g61
(dp2116
g88
g89
ssg70
g2106
sg63
(lp2117
S':'
asbag56
(g77
g58
NtRp2118
(dp2119
g61
(dp2120
sg70
g2106
sg63
(lp2121
g56
(g57
g58
NtRp2122
(dp2123
g61
(dp2124
g69
I4
ssg70
g2118
sg63
(lp2125
S"<Values at 0x1ffe758: {'verbose': False, 'ip': '127.0.0.1', 'shutdown_timeout': 5, 'taskbar': False, 'nocron': False, 'pid_filename': 'httpserver.pid', 'maxthreads': None, 'softcron': False, 'server_name': 'uriel', 'bpython': False, 'nogui': False, 'port': 8000, 'extcron': False, 'debuglevel': 30, 'test': None, 'folder': '/home/ian/web2py', 'config': '', 'import_models': False, 'winservice': '', 'shell': None, 'run': '', 'log_filename': 'httpserver.log', 'args': [''], 'ssl_ca_certificate': None, 'scheduler': None, 'profiler_filename': None, 'ssl_private_key': '', 'password': '<ask>', 'request_queue_size': 5, 'ssl_certificate': '', 'cronjob': False, 'plain': False, 'quiet': False, 'interfaces': None, 'minthreads': None, 'timeout': 10, 'numthreads': None, 'nobanner': False}>"
p2126
asbasbasbag56
(g72
g58
NtRp2127
(dp2128
g61
(dp2129
sg70
g2037
sg63
(lp2130
g56
(g77
g58
NtRp2131
(dp2132
g61
(dp2133
g81
g82
ssg70
g2127
sg63
(lp2134
g1122
asbag56
(g77
g58
NtRp2135
(dp2136
g61
(dp2137
g88
g89
ssg70
g2127
sg63
(lp2138
S':'
asbag56
(g77
g58
NtRp2139
(dp2140
g61
(dp2141
sg70
g2127
sg63
(lp2142
g56
(g57
g58
NtRp2143
(dp2144
g61
(dp2145
g69
I4
ssg70
g2139
sg63
(lp2146
S'set([])'
p2147
asbasbasbag56
(g72
g58
NtRp2148
(dp2149
g61
(dp2150
sg70
g2037
sg63
(lp2151
g56
(g77
g58
NtRp2152
(dp2153
g61
(dp2154
g81
g82
ssg70
g2148
sg63
(lp2155
g1144
asbag56
(g77
g58
NtRp2156
(dp2157
g61
(dp2158
g88
g89
ssg70
g2148
sg63
(lp2159
S':'
asbag56
(g77
g58
NtRp2160
(dp2161
g61
(dp2162
sg70
g2148
sg63
(lp2163
g56
(g57
g58
NtRp2164
(dp2165
g61
(dp2166
g69
I4
ssg70
g2160
sg63
(lp2167
g99
asbasbasbag56
(g72
g58
NtRp2168
(dp2169
g61
(dp2170
sg70
g2037
sg63
(lp2171
g56
(g77
g58
NtRp2172
(dp2173
g61
(dp2174
g81
g82
ssg70
g2168
sg63
(lp2175
g1165
asbag56
(g77
g58
NtRp2176
(dp2177
g61
(dp2178
g88
g89
ssg70
g2168
sg63
(lp2179
S':'
asbag56
(g77
g58
NtRp2180
(dp2181
g61
(dp2182
sg70
g2168
sg63
(lp2183
g56
(g57
g58
NtRp2184
(dp2185
g61
(dp2186
g69
I4
ssg70
g2180
sg63
(lp2187
g1178
asbasbasbag56
(g72
g58
NtRp2188
(dp2189
g61
(dp2190
sg70
g2037
sg63
(lp2191
g56
(g77
g58
NtRp2192
(dp2193
g61
(dp2194
g81
g82
ssg70
g2188
sg63
(lp2195
g1363
asbag56
(g77
g58
NtRp2196
(dp2197
g61
(dp2198
g88
g89
ssg70
g2188
sg63
(lp2199
S':'
asbag56
(g77
g58
NtRp2200
(dp2201
g61
(dp2202
sg70
g2188
sg63
(lp2203
g56
(g57
g58
NtRp2204
(dp2205
g61
(dp2206
g69
I4
ssg70
g2200
sg63
(lp2207
g99
asbasbasbag56
(g72
g58
NtRp2208
(dp2209
g61
(dp2210
sg70
g2037
sg63
(lp2211
g56
(g77
g58
NtRp2212
(dp2213
g61
(dp2214
g81
g82
ssg70
g2208
sg63
(lp2215
g1601
asbag56
(g77
g58
NtRp2216
(dp2217
g61
(dp2218
g88
g89
ssg70
g2208
sg63
(lp2219
S':'
asbag56
(g77
g58
NtRp2220
(dp2221
g61
(dp2222
sg70
g2208
sg63
(lp2223
g56
(g57
g58
NtRp2224
(dp2225
g61
(dp2226
g69
I4
ssg70
g2220
sg63
(lp2227
g1614
asbasbasbag56
(g72
g58
NtRp2228
(dp2229
g61
(dp2230
sg70
g2037
sg63
(lp2231
g56
(g77
g58
NtRp2232
(dp2233
g61
(dp2234
g81
g82
ssg70
g2228
sg63
(lp2235
g1644
asbag56
(g77
g58
NtRp2236
(dp2237
g61
(dp2238
g88
g89
ssg70
g2228
sg63
(lp2239
S':'
asbag56
(g77
g58
NtRp2240
(dp2241
g61
(dp2242
sg70
g2228
sg63
(lp2243
g56
(g57
g58
NtRp2244
(dp2245
g61
(dp2246
g69
I4
ssg70
g2240
sg63
(lp2247
g56
(g65
g58
NtRp2248
(dp2249
g61
(dp2250
g69
I3
ssg70
Nsg63
(lp2251
g56
(g72
g58
NtRp2252
(dp2253
g61
(dp2254
sg70
g2248
sg63
(lp2255
g56
(g77
g58
NtRp2256
(dp2257
g61
(dp2258
sg70
g2252
sg63
(lp2259
g56
(g57
g58
NtRp2260
(dp2261
g61
(dp2262
g69
I3
ssg70
g2256
sg63
(lp2263
S'1'
asbasbasbag56
(g72
g58
NtRp2264
(dp2265
g61
(dp2266
sg70
g2248
sg63
(lp2267
g56
(g77
g58
NtRp2268
(dp2269
g61
(dp2270
sg70
g2264
sg63
(lp2271
g56
(g57
g58
NtRp2272
(dp2273
g61
(dp2274
g69
I3
ssg70
g2268
sg63
(lp2275
S'99'
p2276
asbasbasbag56
(g72
g58
NtRp2277
(dp2278
g61
(dp2279
sg70
g2248
sg63
(lp2280
g56
(g77
g58
NtRp2281
(dp2282
g61
(dp2283
sg70
g2277
sg63
(lp2284
g56
(g57
g58
NtRp2285
(dp2286
g61
(dp2287
g69
I3
ssg70
g2281
sg63
(lp2288
S'2'
asbasbasbag56
(g72
g58
NtRp2289
(dp2290
g61
(dp2291
sg70
g2248
sg63
(lp2292
g56
(g77
g58
NtRp2293
(dp2294
g61
(dp2295
sg70
g2289
sg63
(lp2296
g56
(g57
g58
NtRp2297
(dp2298
g61
(dp2299
g69
I3
ssg70
g2293
sg63
(lp2300
S'datetime.datetime(2011, 9, 26, 6, 55, 33)'
p2301
asbasbasbag56
(g72
g58
NtRp2302
(dp2303
g61
(dp2304
sg70
g2248
sg63
(lp2305
g56
(g77
g58
NtRp2306
(dp2307
g61
(dp2308
sg70
g2302
sg63
(lp2309
g56
(g57
g58
NtRp2310
(dp2311
g61
(dp2312
g69
I3
ssg70
g2306
sg63
(lp2313
g1723
asbasbasbasbasbasbasbasbasbasbasbag56
(g72
g58
NtRp2314
(dp2315
g61
(dp2316
sg70
g66
sg63
(lp2317
g56
(g77
g58
NtRp2318
(dp2319
g61
(dp2320
g81
g82
ssg70
g2314
sg63
(lp2321
S'is_https'
p2322
asbag56
(g77
g58
NtRp2323
(dp2324
g61
(dp2325
g88
g89
ssg70
g2314
sg63
(lp2326
S':'
asbag56
(g77
g58
NtRp2327
(dp2328
g61
(dp2329
sg70
g2314
sg63
(lp2330
g56
(g57
g58
NtRp2331
(dp2332
g61
(dp2333
g69
I5
ssg70
g2327
sg63
(lp2334
g99
asbasbasbag56
(g72
g58
NtRp2335
(dp2336
g61
(dp2337
sg70
g66
sg63
(lp2338
g56
(g77
g58
NtRp2339
(dp2340
g61
(dp2341
g81
g82
ssg70
g2335
sg63
(lp2342
S'is_local'
p2343
asbag56
(g77
g58
NtRp2344
(dp2345
g61
(dp2346
g88
g89
ssg70
g2335
sg63
(lp2347
S':'
asbag56
(g77
g58
NtRp2348
(dp2349
g61
(dp2350
sg70
g2335
sg63
(lp2351
g56
(g57
g58
NtRp2352
(dp2353
g61
(dp2354
g69
I5
ssg70
g2348
sg63
(lp2355
g1832
asbasbasbag56
(g72
g58
NtRp2356
(dp2357
g61
(dp2358
sg70
g66
sg63
(lp2359
g56
(g77
g58
NtRp2360
(dp2361
g61
(dp2362
g81
g82
ssg70
g2356
sg63
(lp2363
S'is_restful'
p2364
asbag56
(g77
g58
NtRp2365
(dp2366
g61
(dp2367
g88
g89
ssg70
g2356
sg63
(lp2368
S':'
asbag56
(g77
g58
NtRp2369
(dp2370
g61
(dp2371
sg70
g2356
sg63
(lp2372
g56
(g57
g58
NtRp2373
(dp2374
g61
(dp2375
g69
I5
ssg70
g2369
sg63
(lp2376
g99
asbasbasbag56
(g72
g58
NtRp2377
(dp2378
g61
(dp2379
sg70
g66
sg63
(lp2380
g56
(g77
g58
NtRp2381
(dp2382
g61
(dp2383
g81
g82
ssg70
g2377
sg63
(lp2384
S'now'
p2385
asbag56
(g77
g58
NtRp2386
(dp2387
g61
(dp2388
g88
g89
ssg70
g2377
sg63
(lp2389
S':'
asbag56
(g77
g58
NtRp2390
(dp2391
g61
(dp2392
sg70
g2377
sg63
(lp2393
g56
(g57
g58
NtRp2394
(dp2395
g61
(dp2396
g69
I5
ssg70
g2390
sg63
(lp2397
S'datetime.datetime(2011, 11, 9, 14, 16, 38, 884790)'
p2398
asbasbasbag56
(g72
g58
NtRp2399
(dp2400
g61
(dp2401
sg70
g66
sg63
(lp2402
g56
(g77
g58
NtRp2403
(dp2404
g61
(dp2405
g81
g82
ssg70
g2399
sg63
(lp2406
S'post_vars'
p2407
asbag56
(g77
g58
NtRp2408
(dp2409
g61
(dp2410
g88
g89
ssg70
g2399
sg63
(lp2411
S':'
asbag56
(g77
g58
NtRp2412
(dp2413
g61
(dp2414
sg70
g2399
sg63
(lp2415
g56
(g57
g58
NtRp2416
(dp2417
g61
(dp2418
g69
I5
ssg70
g2412
sg63
(lp2419
g56
(g65
g58
NtRp2420
(dp2421
g61
(dp2422
g69
I4
ssg70
Nsg63
(lp2423
sbasbasbasbag56
(g72
g58
NtRp2424
(dp2425
g61
(dp2426
sg70
g66
sg63
(lp2427
g56
(g77
g58
NtRp2428
(dp2429
g61
(dp2430
g81
g82
ssg70
g2424
sg63
(lp2431
S'raw_args'
p2432
asbag56
(g77
g58
NtRp2433
(dp2434
g61
(dp2435
g88
g89
ssg70
g2424
sg63
(lp2436
S':'
asbag56
(g77
g58
NtRp2437
(dp2438
g61
(dp2439
sg70
g2424
sg63
(lp2440
g56
(g57
g58
NtRp2441
(dp2442
g61
(dp2443
g69
I5
ssg70
g2437
sg63
(lp2444
g158
asbasbasbag56
(g72
g58
NtRp2445
(dp2446
g61
(dp2447
sg70
g66
sg63
(lp2448
g56
(g77
g58
NtRp2449
(dp2450
g61
(dp2451
g81
g82
ssg70
g2445
sg63
(lp2452
S'url'
p2453
asbag56
(g77
g58
NtRp2454
(dp2455
g61
(dp2456
g88
g89
ssg70
g2445
sg63
(lp2457
S':'
asbag56
(g77
g58
NtRp2458
(dp2459
g61
(dp2460
sg70
g2445
sg63
(lp2461
g56
(g57
g58
NtRp2462
(dp2463
g61
(dp2464
g69
I5
ssg70
g2458
sg63
(lp2465
S'/grades/default/grades_report/15'
p2466
asbasbasbag56
(g72
g58
NtRp2467
(dp2468
g61
(dp2469
sg70
g66
sg63
(lp2470
g56
(g77
g58
NtRp2471
(dp2472
g61
(dp2473
g81
g82
ssg70
g2467
sg63
(lp2474
S'utcnow'
p2475
asbag56
(g77
g58
NtRp2476
(dp2477
g61
(dp2478
g88
g89
ssg70
g2467
sg63
(lp2479
S':'
asbag56
(g77
g58
NtRp2480
(dp2481
g61
(dp2482
sg70
g2467
sg63
(lp2483
g56
(g57
g58
NtRp2484
(dp2485
g61
(dp2486
g69
I5
ssg70
g2480
sg63
(lp2487
S'datetime.datetime(2011, 11, 9, 19, 16, 38, 884847)'
p2488
asbasbasbag56
(g72
g58
NtRp2489
(dp2490
g61
(dp2491
sg70
g66
sg63
(lp2492
g56
(g77
g58
NtRp2493
(dp2494
g61
(dp2495
g81
g82
ssg70
g2489
sg63
(lp2496
S'uuid'
p2497
asbag56
(g77
g58
NtRp2498
(dp2499
g61
(dp2500
g88
g89
ssg70
g2489
sg63
(lp2501
S':'
asbag56
(g77
g58
NtRp2502
(dp2503
g61
(dp2504
sg70
g2489
sg63
(lp2505
g56
(g57
g58
NtRp2506
(dp2507
g61
(dp2508
g69
I5
ssg70
g2502
sg63
(lp2509
S'grades/127.0.0.1.2011-11-09.14-16-38.9bb65cef-e3eb-454e-8492-d901c2da8439'
p2510
asbasbasbag56
(g72
g58
NtRp2511
(dp2512
g61
(dp2513
sg70
g66
sg63
(lp2514
g56
(g77
g58
NtRp2515
(dp2516
g61
(dp2517
g81
g82
ssg70
g2511
sg63
(lp2518
S'vars'
p2519
asbag56
(g77
g58
NtRp2520
(dp2521
g61
(dp2522
g88
g89
ssg70
g2511
sg63
(lp2523
S':'
asbag56
(g77
g58
NtRp2524
(dp2525
g61
(dp2526
sg70
g2511
sg63
(lp2527
g56
(g57
g58
NtRp2528
(dp2529
g61
(dp2530
g69
I5
ssg70
g2524
sg63
(lp2531
g56
(g65
g58
NtRp2532
(dp2533
g61
(dp2534
g69
I4
ssg70
Nsg63
(lp2535
sbasbasbasbag56
(g72
g58
NtRp2536
(dp2537
g61
(dp2538
sg70
g66
sg63
(lp2539
g56
(g77
g58
NtRp2540
(dp2541
g61
(dp2542
g81
g82
ssg70
g2536
sg63
(lp2543
S'wsgi'
p2544
asbag56
(g77
g58
NtRp2545
(dp2546
g61
(dp2547
g88
g89
ssg70
g2536
sg63
(lp2548
S':'
asbag56
(g77
g58
NtRp2549
(dp2550
g61
(dp2551
sg70
g2536
sg63
(lp2552
g56
(g57
g58
NtRp2553
(dp2554
g61
(dp2555
g69
I5
ssg70
g2549
sg63
(lp2556
g56
(g65
g58
NtRp2557
(dp2558
g61
(dp2559
g69
I4
ssg70
Nsg63
(lp2560
g56
(g72
g58
NtRp2561
(dp2562
g61
(dp2563
sg70
g2557
sg63
(lp2564
g56
(g77
g58
NtRp2565
(dp2566
g61
(dp2567
g81
g82
ssg70
g2561
sg63
(lp2568
S'environ'
p2569
asbag56
(g77
g58
NtRp2570
(dp2571
g61
(dp2572
g88
g89
ssg70
g2561
sg63
(lp2573
S':'
asbag56
(g77
g58
NtRp2574
(dp2575
g61
(dp2576
sg70
g2561
sg63
(lp2577
g56
(g57
g58
NtRp2578
(dp2579
g61
(dp2580
g69
I4
ssg70
g2574
sg63
(lp2581
g56
(g65
g58
NtRp2582
(dp2583
g61
(dp2584
g69
I3
ssg70
Nsg63
(lp2585
g56
(g72
g58
NtRp2586
(dp2587
g61
(dp2588
sg70
g2582
sg63
(lp2589
g56
(g77
g58
NtRp2590
(dp2591
g61
(dp2592
g81
g82
ssg70
g2586
sg63
(lp2593
S'HTTP_ACCEPT'
p2594
asbag56
(g77
g58
NtRp2595
(dp2596
g61
(dp2597
g88
g89
ssg70
g2586
sg63
(lp2598
S':'
asbag56
(g77
g58
NtRp2599
(dp2600
g61
(dp2601
sg70
g2586
sg63
(lp2602
g56
(g57
g58
NtRp2603
(dp2604
g61
(dp2605
g69
I3
ssg70
g2599
sg63
(lp2606
g1200
asbasbasbag56
(g72
g58
NtRp2607
(dp2608
g61
(dp2609
sg70
g2582
sg63
(lp2610
g56
(g77
g58
NtRp2611
(dp2612
g61
(dp2613
g81
g82
ssg70
g2607
sg63
(lp2614
S'HTTP_ACCEPT_ENCODING'
p2615
asbag56
(g77
g58
NtRp2616
(dp2617
g61
(dp2618
g88
g89
ssg70
g2607
sg63
(lp2619
S':'
asbag56
(g77
g58
NtRp2620
(dp2621
g61
(dp2622
sg70
g2607
sg63
(lp2623
g56
(g57
g58
NtRp2624
(dp2625
g61
(dp2626
g69
I3
ssg70
g2620
sg63
(lp2627
g1222
asbasbasbag56
(g72
g58
NtRp2628
(dp2629
g61
(dp2630
sg70
g2582
sg63
(lp2631
g56
(g77
g58
NtRp2632
(dp2633
g61
(dp2634
g81
g82
ssg70
g2628
sg63
(lp2635
S'HTTP_ACCEPT_LANGUAGE'
p2636
asbag56
(g77
g58
NtRp2637
(dp2638
g61
(dp2639
g88
g89
ssg70
g2628
sg63
(lp2640
S':'
asbag56
(g77
g58
NtRp2641
(dp2642
g61
(dp2643
sg70
g2628
sg63
(lp2644
g56
(g57
g58
NtRp2645
(dp2646
g61
(dp2647
g69
I3
ssg70
g2641
sg63
(lp2648
g1244
asbasbasbag56
(g72
g58
NtRp2649
(dp2650
g61
(dp2651
sg70
g2582
sg63
(lp2652
g56
(g77
g58
NtRp2653
(dp2654
g61
(dp2655
g81
g82
ssg70
g2649
sg63
(lp2656
S'HTTP_CACHE_CONTROL'
p2657
asbag56
(g77
g58
NtRp2658
(dp2659
g61
(dp2660
g88
g89
ssg70
g2649
sg63
(lp2661
S':'
asbag56
(g77
g58
NtRp2662
(dp2663
g61
(dp2664
sg70
g2649
sg63
(lp2665
g56
(g57
g58
NtRp2666
(dp2667
g61
(dp2668
g69
I3
ssg70
g2662
sg63
(lp2669
g1266
asbasbasbag56
(g72
g58
NtRp2670
(dp2671
g61
(dp2672
sg70
g2582
sg63
(lp2673
g56
(g77
g58
NtRp2674
(dp2675
g61
(dp2676
g81
g82
ssg70
g2670
sg63
(lp2677
S'HTTP_CONNECTION'
p2678
asbag56
(g77
g58
NtRp2679
(dp2680
g61
(dp2681
g88
g89
ssg70
g2670
sg63
(lp2682
S':'
asbag56
(g77
g58
NtRp2683
(dp2684
g61
(dp2685
sg70
g2670
sg63
(lp2686
g56
(g57
g58
NtRp2687
(dp2688
g61
(dp2689
g69
I3
ssg70
g2683
sg63
(lp2690
g1288
asbasbasbag56
(g72
g58
NtRp2691
(dp2692
g61
(dp2693
sg70
g2582
sg63
(lp2694
g56
(g77
g58
NtRp2695
(dp2696
g61
(dp2697
g81
g82
ssg70
g2691
sg63
(lp2698
S'HTTP_COOKIE'
p2699
asbag56
(g77
g58
NtRp2700
(dp2701
g61
(dp2702
g88
g89
ssg70
g2691
sg63
(lp2703
S':'
asbag56
(g77
g58
NtRp2704
(dp2705
g61
(dp2706
sg70
g2691
sg63
(lp2707
g56
(g57
g58
NtRp2708
(dp2709
g61
(dp2710
g69
I3
ssg70
g2704
sg63
(lp2711
g1310
asbasbasbag56
(g72
g58
NtRp2712
(dp2713
g61
(dp2714
sg70
g2582
sg63
(lp2715
g56
(g77
g58
NtRp2716
(dp2717
g61
(dp2718
g81
g82
ssg70
g2712
sg63
(lp2719
S'HTTP_HOST'
p2720
asbag56
(g77
g58
NtRp2721
(dp2722
g61
(dp2723
g88
g89
ssg70
g2712
sg63
(lp2724
S':'
asbag56
(g77
g58
NtRp2725
(dp2726
g61
(dp2727
sg70
g2712
sg63
(lp2728
g56
(g57
g58
NtRp2729
(dp2730
g61
(dp2731
g69
I3
ssg70
g2725
sg63
(lp2732
g1332
asbasbasbag56
(g72
g58
NtRp2733
(dp2734
g61
(dp2735
sg70
g2582
sg63
(lp2736
g56
(g77
g58
NtRp2737
(dp2738
g61
(dp2739
g81
g82
ssg70
g2733
sg63
(lp2740
S'HTTP_USER_AGENT'
p2741
asbag56
(g77
g58
NtRp2742
(dp2743
g61
(dp2744
g88
g89
ssg70
g2733
sg63
(lp2745
S':'
asbag56
(g77
g58
NtRp2746
(dp2747
g61
(dp2748
sg70
g2733
sg63
(lp2749
g56
(g57
g58
NtRp2750
(dp2751
g61
(dp2752
g69
I3
ssg70
g2746
sg63
(lp2753
g1354
asbasbasbag56
(g72
g58
NtRp2754
(dp2755
g61
(dp2756
sg70
g2582
sg63
(lp2757
g56
(g77
g58
NtRp2758
(dp2759
g61
(dp2760
g81
g82
ssg70
g2754
sg63
(lp2761
S'PATH_INFO'
p2762
asbag56
(g77
g58
NtRp2763
(dp2764
g61
(dp2765
g88
g89
ssg70
g2754
sg63
(lp2766
S':'
asbag56
(g77
g58
NtRp2767
(dp2768
g61
(dp2769
sg70
g2754
sg63
(lp2770
g56
(g57
g58
NtRp2771
(dp2772
g61
(dp2773
g69
I3
ssg70
g2767
sg63
(lp2774
g1397
asbasbasbag56
(g72
g58
NtRp2775
(dp2776
g61
(dp2777
sg70
g2582
sg63
(lp2778
g56
(g77
g58
NtRp2779
(dp2780
g61
(dp2781
g81
g82
ssg70
g2775
sg63
(lp2782
S'QUERY_STRING'
p2783
asbag56
(g77
g58
NtRp2784
(dp2785
g61
(dp2786
g88
g89
ssg70
g2775
sg63
(lp2787
S':'
asbag56
(g77
g58
NtRp2788
(dp2789
g61
(dp2790
sg70
g2775
sg63
(lp2791
g56
(g57
g58
NtRp2792
(dp2793
g61
(dp2794
g69
I3
ssg70
g2788
sg63
(lp2795
S''
asbasbasbag56
(g72
g58
NtRp2796
(dp2797
g61
(dp2798
sg70
g2582
sg63
(lp2799
g56
(g77
g58
NtRp2800
(dp2801
g61
(dp2802
g81
g82
ssg70
g2796
sg63
(lp2803
S'REMOTE_ADDR'
p2804
asbag56
(g77
g58
NtRp2805
(dp2806
g61
(dp2807
g88
g89
ssg70
g2796
sg63
(lp2808
S':'
asbag56
(g77
g58
NtRp2809
(dp2810
g61
(dp2811
sg70
g2796
sg63
(lp2812
g56
(g57
g58
NtRp2813
(dp2814
g61
(dp2815
g69
I3
ssg70
g2809
sg63
(lp2816
g202
asbasbasbag56
(g72
g58
NtRp2817
(dp2818
g61
(dp2819
sg70
g2582
sg63
(lp2820
g56
(g77
g58
NtRp2821
(dp2822
g61
(dp2823
g81
g82
ssg70
g2817
sg63
(lp2824
S'REMOTE_PORT'
p2825
asbag56
(g77
g58
NtRp2826
(dp2827
g61
(dp2828
g88
g89
ssg70
g2817
sg63
(lp2829
S':'
asbag56
(g77
g58
NtRp2830
(dp2831
g61
(dp2832
sg70
g2817
sg63
(lp2833
g56
(g57
g58
NtRp2834
(dp2835
g61
(dp2836
g69
I3
ssg70
g2830
sg63
(lp2837
g1461
asbasbasbag56
(g72
g58
NtRp2838
(dp2839
g61
(dp2840
sg70
g2582
sg63
(lp2841
g56
(g77
g58
NtRp2842
(dp2843
g61
(dp2844
g81
g82
ssg70
g2838
sg63
(lp2845
S'REQUEST_METHOD'
p2846
asbag56
(g77
g58
NtRp2847
(dp2848
g61
(dp2849
g88
g89
ssg70
g2838
sg63
(lp2850
S':'
asbag56
(g77
g58
NtRp2851
(dp2852
g61
(dp2853
sg70
g2838
sg63
(lp2854
g56
(g57
g58
NtRp2855
(dp2856
g61
(dp2857
g69
I3
ssg70
g2851
sg63
(lp2858
g1483
asbasbasbag56
(g72
g58
NtRp2859
(dp2860
g61
(dp2861
sg70
g2582
sg63
(lp2862
g56
(g77
g58
NtRp2863
(dp2864
g61
(dp2865
g81
g82
ssg70
g2859
sg63
(lp2866
S'SCRIPT_NAME'
p2867
asbag56
(g77
g58
NtRp2868
(dp2869
g61
(dp2870
g88
g89
ssg70
g2859
sg63
(lp2871
S':'
asbag56
(g77
g58
NtRp2872
(dp2873
g61
(dp2874
sg70
g2859
sg63
(lp2875
g56
(g57
g58
NtRp2876
(dp2877
g61
(dp2878
g69
I3
ssg70
g2872
sg63
(lp2879
S''
asbasbasbag56
(g72
g58
NtRp2880
(dp2881
g61
(dp2882
sg70
g2582
sg63
(lp2883
g56
(g77
g58
NtRp2884
(dp2885
g61
(dp2886
g81
g82
ssg70
g2880
sg63
(lp2887
S'SERVER_NAME'
p2888
asbag56
(g77
g58
NtRp2889
(dp2890
g61
(dp2891
g88
g89
ssg70
g2880
sg63
(lp2892
S':'
asbag56
(g77
g58
NtRp2893
(dp2894
g61
(dp2895
sg70
g2880
sg63
(lp2896
g56
(g57
g58
NtRp2897
(dp2898
g61
(dp2899
g69
I3
ssg70
g2893
sg63
(lp2900
g1526
asbasbasbag56
(g72
g58
NtRp2901
(dp2902
g61
(dp2903
sg70
g2582
sg63
(lp2904
g56
(g77
g58
NtRp2905
(dp2906
g61
(dp2907
g81
g82
ssg70
g2901
sg63
(lp2908
S'SERVER_PORT'
p2909
asbag56
(g77
g58
NtRp2910
(dp2911
g61
(dp2912
g88
g89
ssg70
g2901
sg63
(lp2913
S':'
asbag56
(g77
g58
NtRp2914
(dp2915
g61
(dp2916
sg70
g2901
sg63
(lp2917
g56
(g57
g58
NtRp2918
(dp2919
g61
(dp2920
g69
I3
ssg70
g2914
sg63
(lp2921
g1548
asbasbasbag56
(g72
g58
NtRp2922
(dp2923
g61
(dp2924
sg70
g2582
sg63
(lp2925
g56
(g77
g58
NtRp2926
(dp2927
g61
(dp2928
g81
g82
ssg70
g2922
sg63
(lp2929
S'SERVER_PROTOCOL'
p2930
asbag56
(g77
g58
NtRp2931
(dp2932
g61
(dp2933
g88
g89
ssg70
g2922
sg63
(lp2934
S':'
asbag56
(g77
g58
NtRp2935
(dp2936
g61
(dp2937
sg70
g2922
sg63
(lp2938
g56
(g57
g58
NtRp2939
(dp2940
g61
(dp2941
g69
I3
ssg70
g2935
sg63
(lp2942
g1570
asbasbasbag56
(g72
g58
NtRp2943
(dp2944
g61
(dp2945
sg70
g2582
sg63
(lp2946
g56
(g77
g58
NtRp2947
(dp2948
g61
(dp2949
g81
g82
ssg70
g2943
sg63
(lp2950
S'SERVER_SOFTWARE'
p2951
asbag56
(g77
g58
NtRp2952
(dp2953
g61
(dp2954
g88
g89
ssg70
g2943
sg63
(lp2955
S':'
asbag56
(g77
g58
NtRp2956
(dp2957
g61
(dp2958
sg70
g2943
sg63
(lp2959
g56
(g57
g58
NtRp2960
(dp2961
g61
(dp2962
g69
I3
ssg70
g2956
sg63
(lp2963
g1592
asbasbasbag56
(g72
g58
NtRp2964
(dp2965
g61
(dp2966
sg70
g2582
sg63
(lp2967
g56
(g77
g58
NtRp2968
(dp2969
g61
(dp2970
g81
g82
ssg70
g2964
sg63
(lp2971
S'wsgi.errors'
p2972
asbag56
(g77
g58
NtRp2973
(dp2974
g61
(dp2975
g88
g89
ssg70
g2964
sg63
(lp2976
S':'
asbag56
(g77
g58
NtRp2977
(dp2978
g61
(dp2979
sg70
g2964
sg63
(lp2980
g56
(g57
g58
NtRp2981
(dp2982
g61
(dp2983
g69
I3
ssg70
g2977
sg63
(lp2984
S"<open file '<stderr>', mode 'w' at 0x7f9678b3d270>"
p2985
asbasbasbag56
(g72
g58
NtRp2986
(dp2987
g61
(dp2988
sg70
g2582
sg63
(lp2989
g56
(g77
g58
NtRp2990
(dp2991
g61
(dp2992
g81
g82
ssg70
g2986
sg63
(lp2993
S'wsgi.file_wrapper'
p2994
asbag56
(g77
g58
NtRp2995
(dp2996
g61
(dp2997
g88
g89
ssg70
g2986
sg63
(lp2998
S':'
asbag56
(g77
g58
NtRp2999
(dp3000
g61
(dp3001
sg70
g2986
sg63
(lp3002
g56
(g57
g58
NtRp3003
(dp3004
g61
(dp3005
g69
I3
ssg70
g2999
sg63
(lp3006
S'<class wsgiref.util.FileWrapper at 0x1ec9870>'
p3007
asbasbasbag56
(g72
g58
NtRp3008
(dp3009
g61
(dp3010
sg70
g2582
sg63
(lp3011
g56
(g77
g58
NtRp3012
(dp3013
g61
(dp3014
g81
g82
ssg70
g3008
sg63
(lp3015
S'wsgi.input'
p3016
asbag56
(g77
g58
NtRp3017
(dp3018
g61
(dp3019
g88
g89
ssg70
g3008
sg63
(lp3020
S':'
asbag56
(g77
g58
NtRp3021
(dp3022
g61
(dp3023
sg70
g3008
sg63
(lp3024
g56
(g57
g58
NtRp3025
(dp3026
g61
(dp3027
g69
I3
ssg70
g3021
sg63
(lp3028
S'<cStringIO.StringO object at 0x38e0c70>'
p3029
asbasbasbag56
(g72
g58
NtRp3030
(dp3031
g61
(dp3032
sg70
g2582
sg63
(lp3033
g56
(g77
g58
NtRp3034
(dp3035
g61
(dp3036
g81
g82
ssg70
g3030
sg63
(lp3037
S'wsgi.multiprocess'
p3038
asbag56
(g77
g58
NtRp3039
(dp3040
g61
(dp3041
g88
g89
ssg70
g3030
sg63
(lp3042
S':'
asbag56
(g77
g58
NtRp3043
(dp3044
g61
(dp3045
sg70
g3030
sg63
(lp3046
g56
(g57
g58
NtRp3047
(dp3048
g61
(dp3049
g69
I3
ssg70
g3043
sg63
(lp3050
g99
asbasbasbag56
(g72
g58
NtRp3051
(dp3052
g61
(dp3053
sg70
g2582
sg63
(lp3054
g56
(g77
g58
NtRp3055
(dp3056
g61
(dp3057
g81
g82
ssg70
g3051
sg63
(lp3058
S'wsgi.multithread'
p3059
asbag56
(g77
g58
NtRp3060
(dp3061
g61
(dp3062
g88
g89
ssg70
g3051
sg63
(lp3063
S':'
asbag56
(g77
g58
NtRp3064
(dp3065
g61
(dp3066
sg70
g3051
sg63
(lp3067
g56
(g57
g58
NtRp3068
(dp3069
g61
(dp3070
g69
I3
ssg70
g3064
sg63
(lp3071
g1832
asbasbasbag56
(g72
g58
NtRp3072
(dp3073
g61
(dp3074
sg70
g2582
sg63
(lp3075
g56
(g77
g58
NtRp3076
(dp3077
g61
(dp3078
g81
g82
ssg70
g3072
sg63
(lp3079
S'wsgi.run_once'
p3080
asbag56
(g77
g58
NtRp3081
(dp3082
g61
(dp3083
g88
g89
ssg70
g3072
sg63
(lp3084
S':'
asbag56
(g77
g58
NtRp3085
(dp3086
g61
(dp3087
sg70
g3072
sg63
(lp3088
g56
(g57
g58
NtRp3089
(dp3090
g61
(dp3091
g69
I3
ssg70
g3085
sg63
(lp3092
g99
asbasbasbag56
(g72
g58
NtRp3093
(dp3094
g61
(dp3095
sg70
g2582
sg63
(lp3096
g56
(g77
g58
NtRp3097
(dp3098
g61
(dp3099
g81
g82
ssg70
g3093
sg63
(lp3100
S'wsgi.url_scheme'
p3101
asbag56
(g77
g58
NtRp3102
(dp3103
g61
(dp3104
g88
g89
ssg70
g3093
sg63
(lp3105
S':'
asbag56
(g77
g58
NtRp3106
(dp3107
g61
(dp3108
sg70
g3093
sg63
(lp3109
g56
(g57
g58
NtRp3110
(dp3111
g61
(dp3112
g69
I3
ssg70
g3106
sg63
(lp3113
g1875
asbasbasbag56
(g72
g58
NtRp3114
(dp3115
g61
(dp3116
sg70
g2582
sg63
(lp3117
g56
(g77
g58
NtRp3118
(dp3119
g61
(dp3120
g81
g82
ssg70
g3114
sg63
(lp3121
S'wsgi.version'
p3122
asbag56
(g77
g58
NtRp3123
(dp3124
g61
(dp3125
g88
g89
ssg70
g3114
sg63
(lp3126
S':'
asbag56
(g77
g58
NtRp3127
(dp3128
g61
(dp3129
sg70
g3114
sg63
(lp3130
g56
(g57
g58
NtRp3131
(dp3132
g61
(dp3133
g69
I3
ssg70
g3127
sg63
(lp3134
S'1'
asbasbasbasbasbasbasbasbasbasbasbasbasbsS'frames'
p3135
(lp3136
(dp3137
S'file'
p3138
S'/home/ian/web2py/gluon/restricted.py'
p3139
sS'dump'
p3140
(dp3141
S'environment'
p3142
S"{'A': <class 'gluon.html.A'>, 'Auth': <class 'gluon.tools.Auth'>, 'B': <class 'gluon.html.B'>, 'BEAUTIFY': <class 'gluon.html.BEAUTIFY'>, 'BODY': <class 'gluon.html.BODY'>, 'BR': <class 'gluon.html.BR'>, 'BUTTON': <class 'gluon.html.BUTTON'>, 'CAT': <class 'gluon.html.CAT'>, 'CENTER': <class 'gluon.html.CENTER'>, 'CLEANUP': <class 'gluon.validators.CLEANUP'>, ...}"
p3143
sS'ccode'
p3144
S'<code object <module> at 0x4039230, file "/home/...grades/views/default/grades_report.html", line 1>'
p3145
ssS'lnum'
p3146
I194
sS'lines'
p3147
(dp3148
I192
S'        else:'
p3149
sI193
S'            ccode = compile2(code,layer)'
p3150
sI194
S'        exec ccode in environment'
p3151
sI195
S'    except HTTP:'
p3152
sI196
S'        raise'
p3153
sI197
S'    except Exception, error:'
p3154
sI198
S'        # XXX Show exception in Wing IDE if running in debugger'
p3155
sI189
S'    try:'
p3156
sI190
S'        if type(code) == types.CodeType:'
p3157
sI191
S'            ccode = code'
p3158
ssS'call'
p3159
S'(code=\'response.write(\\\'<!DOCTYPE html>\\\\n<html lang="\\\', ...    -->    \\\\n  </body>\\\\n</html>\\\\n\\\', escape=False)\', environment={\'A\': <class \'gluon.html.A\'>, \'Auth\': <class \'gluon.tools.Auth\'>, \'B\': <class \'gluon.html.B\'>, \'BEAUTIFY\': <class \'gluon.html.BEAUTIFY\'>, \'BODY\': <class \'gluon.html.BODY\'>, \'BR\': <class \'gluon.html.BR\'>, \'BUTTON\': <class \'gluon.html.BUTTON\'>, \'CAT\': <class \'gluon.html.CAT\'>, \'CENTER\': <class \'gluon.html.CENTER\'>, \'CLEANUP\': <class \'gluon.validators.CLEANUP\'>, ...}, layer=\'/home/ian/web2py/applications/grades/views/default/grades_report.html\')'
p3160
sS'func'
p3161
S'restricted'
p3162
sa(dp3163
g3138
S'/home/ian/web2py/applications/grades/views/default/grades_report.html'
p3164
sg3140
(dp3165
sg3146
I82
sg3147
(dp3166
I73
S'if left_sidebar_enabled:'
p3167
sI74
S'    response.write(\'\\n          <div id="left_sidebar" \', escape=False)'
p3168
sI75
S'    response.write(XML(left_sidebar_style))'
p3169
sI76
S'    response.write(\' >\\n            <div style="padding: 4px;">\\n          \', escape=False)'
p3170
sI77
S"    response.write('Content Left Sidebar', escape=False)"
p3171
sI78
S"    response.write('       \\n            </div>\\n          </div><!-- left_sidebar -->\\n      ', escape=False)"
p3172
sI79
S'    pass'
p3173
sI80
S"response.write('\\n\\n      <!-- content of other views-->\\n      ', escape=False)"
p3174
sI81
S'response.write(\'\\n\\n<h2>Grade Reports</h2>\\n\\n<section id="viewpane">\\nPlease select a student from the list.\\n</section>\\n\\n<section id="listpane">\\n    \', escape=False)'
p3175
sI82
S'for k,c in courses:'
p3176
sI83
S"    response.write('\\n    ', escape=False)"
p3177
sI84
S'    response.write(H3(k))'
p3178
sI85
S"    response.write('\\n        <ul>\\n        ', escape=False)"
p3179
sI86
S'    for num,name in students.items():'
p3180
sI87
S"        response.write('\\n            ', escape=False)"
p3181
sI88
S'        if num in c:'
p3182
sI89
S"            response.write('\\n                ', escape=False)"
p3183
sI90
S'            response.write(LI(A(name, _href=URL(\'grades_detail.load\', args=num), cid="viewpane")))'
p3184
sI91
S"            response.write('\\n            ', escape=False)"
p3185
sI92
S'            pass'
p3186
ssg3159
S'()'
p3187
sg3161
S'<module>'
p3188
sasS'pyver'
p3189
S'Python 2.7.2+: /usr/bin/python2.7'
p3190
sS'session'
p3191
g56
(g57
g58
NtRp3192
(dp3193
g61
(dp3194
sg63
(lp3195
g56
(g65
g58
NtRp3196
(dp3197
g61
(dp3198
g69
I5
ssg70
Nsg63
(lp3199
g56
(g72
g58
NtRp3200
(dp3201
g61
(dp3202
sg70
g3196
sg63
(lp3203
g56
(g77
g58
NtRp3204
(dp3205
g61
(dp3206
g81
g82
ssg70
g3200
sg63
(lp3207
S'auth'
p3208
asbag56
(g77
g58
NtRp3209
(dp3210
g61
(dp3211
g88
g89
ssg70
g3200
sg63
(lp3212
S':'
asbag56
(g77
g58
NtRp3213
(dp3214
g61
(dp3215
sg70
g3200
sg63
(lp3216
g56
(g57
g58
NtRp3217
(dp3218
g61
(dp3219
g69
I5
ssg70
g3213
sg63
(lp3220
g56
(g65
g58
NtRp3221
(dp3222
g61
(dp3223
g69
I4
ssg70
Nsg63
(lp3224
g56
(g72
g58
NtRp3225
(dp3226
g61
(dp3227
sg70
g3221
sg63
(lp3228
g56
(g77
g58
NtRp3229
(dp3230
g61
(dp3231
g81
g82
ssg70
g3225
sg63
(lp3232
S'expiration'
p3233
asbag56
(g77
g58
NtRp3234
(dp3235
g61
(dp3236
g88
g89
ssg70
g3225
sg63
(lp3237
S':'
asbag56
(g77
g58
NtRp3238
(dp3239
g61
(dp3240
sg70
g3225
sg63
(lp3241
g56
(g57
g58
NtRp3242
(dp3243
g61
(dp3244
g69
I4
ssg70
g3238
sg63
(lp3245
S'2592000'
p3246
asbasbasbag56
(g72
g58
NtRp3247
(dp3248
g61
(dp3249
sg70
g3221
sg63
(lp3250
g56
(g77
g58
NtRp3251
(dp3252
g61
(dp3253
g81
g82
ssg70
g3247
sg63
(lp3254
S'hmac_key'
p3255
asbag56
(g77
g58
NtRp3256
(dp3257
g61
(dp3258
g88
g89
ssg70
g3247
sg63
(lp3259
S':'
asbag56
(g77
g58
NtRp3260
(dp3261
g61
(dp3262
sg70
g3247
sg63
(lp3263
g56
(g57
g58
NtRp3264
(dp3265
g61
(dp3266
g69
I4
ssg70
g3260
sg63
(lp3267
S'9b7ebcac-3930-4d2e-b821-147c95f7c4c2'
p3268
asbasbasbag56
(g72
g58
NtRp3269
(dp3270
g61
(dp3271
sg70
g3221
sg63
(lp3272
g56
(g77
g58
NtRp3273
(dp3274
g61
(dp3275
g81
g82
ssg70
g3269
sg63
(lp3276
S'last_visit'
p3277
asbag56
(g77
g58
NtRp3278
(dp3279
g61
(dp3280
g88
g89
ssg70
g3269
sg63
(lp3281
S':'
asbag56
(g77
g58
NtRp3282
(dp3283
g61
(dp3284
sg70
g3269
sg63
(lp3285
g56
(g57
g58
NtRp3286
(dp3287
g61
(dp3288
g69
I4
ssg70
g3282
sg63
(lp3289
S'datetime.datetime(2011, 11, 6, 15, 31, 56, 972407)'
p3290
asbasbasbag56
(g72
g58
NtRp3291
(dp3292
g61
(dp3293
sg70
g3221
sg63
(lp3294
g56
(g77
g58
NtRp3295
(dp3296
g61
(dp3297
g81
g82
ssg70
g3291
sg63
(lp3298
S'remember'
p3299
asbag56
(g77
g58
NtRp3300
(dp3301
g61
(dp3302
g88
g89
ssg70
g3291
sg63
(lp3303
S':'
asbag56
(g77
g58
NtRp3304
(dp3305
g61
(dp3306
sg70
g3291
sg63
(lp3307
g56
(g57
g58
NtRp3308
(dp3309
g61
(dp3310
g69
I4
ssg70
g3304
sg63
(lp3311
g99
asbasbasbag56
(g72
g58
NtRp3312
(dp3313
g61
(dp3314
sg70
g3221
sg63
(lp3315
g56
(g77
g58
NtRp3316
(dp3317
g61
(dp3318
g81
g82
ssg70
g3312
sg63
(lp3319
S'user'
p3320
asbag56
(g77
g58
NtRp3321
(dp3322
g61
(dp3323
g88
g89
ssg70
g3312
sg63
(lp3324
S':'
asbag56
(g77
g58
NtRp3325
(dp3326
g61
(dp3327
sg70
g3312
sg63
(lp3328
g56
(g57
g58
NtRp3329
(dp3330
g61
(dp3331
g69
I4
ssg70
g3325
sg63
(lp3332
g56
(g65
g58
NtRp3333
(dp3334
g61
(dp3335
g69
I3
ssg70
Nsg63
(lp3336
g56
(g72
g58
NtRp3337
(dp3338
g61
(dp3339
sg70
g3333
sg63
(lp3340
g56
(g77
g58
NtRp3341
(dp3342
g61
(dp3343
g81
g82
ssg70
g3337
sg63
(lp3344
S'email'
p3345
asbag56
(g77
g58
NtRp3346
(dp3347
g61
(dp3348
g88
g89
ssg70
g3337
sg63
(lp3349
S':'
asbag56
(g77
g58
NtRp3350
(dp3351
g61
(dp3352
sg70
g3337
sg63
(lp3353
g56
(g57
g58
NtRp3354
(dp3355
g61
(dp3356
g69
I3
ssg70
g3350
sg63
(lp3357
S'scottianw@gmail.com'
p3358
asbasbasbag56
(g72
g58
NtRp3359
(dp3360
g61
(dp3361
sg70
g3333
sg63
(lp3362
g56
(g77
g58
NtRp3363
(dp3364
g61
(dp3365
g81
g82
ssg70
g3359
sg63
(lp3366
S'first_name'
p3367
asbag56
(g77
g58
NtRp3368
(dp3369
g61
(dp3370
g88
g89
ssg70
g3359
sg63
(lp3371
S':'
asbag56
(g77
g58
NtRp3372
(dp3373
g61
(dp3374
sg70
g3359
sg63
(lp3375
g56
(g57
g58
NtRp3376
(dp3377
g61
(dp3378
g69
I3
ssg70
g3372
sg63
(lp3379
S'Ian'
p3380
asbasbasbag56
(g72
g58
NtRp3381
(dp3382
g61
(dp3383
sg70
g3333
sg63
(lp3384
g56
(g77
g58
NtRp3385
(dp3386
g61
(dp3387
g81
g82
ssg70
g3381
sg63
(lp3388
S'id'
p3389
asbag56
(g77
g58
NtRp3390
(dp3391
g61
(dp3392
g88
g89
ssg70
g3381
sg63
(lp3393
S':'
asbag56
(g77
g58
NtRp3394
(dp3395
g61
(dp3396
sg70
g3381
sg63
(lp3397
g56
(g57
g58
NtRp3398
(dp3399
g61
(dp3400
g69
I3
ssg70
g3394
sg63
(lp3401
S'11'
p3402
asbasbasbag56
(g72
g58
NtRp3403
(dp3404
g61
(dp3405
sg70
g3333
sg63
(lp3406
g56
(g77
g58
NtRp3407
(dp3408
g61
(dp3409
g81
g82
ssg70
g3403
sg63
(lp3410
S'last_name'
p3411
asbag56
(g77
g58
NtRp3412
(dp3413
g61
(dp3414
g88
g89
ssg70
g3403
sg63
(lp3415
S':'
asbag56
(g77
g58
NtRp3416
(dp3417
g61
(dp3418
sg70
g3403
sg63
(lp3419
g56
(g57
g58
NtRp3420
(dp3421
g61
(dp3422
g69
I3
ssg70
g3416
sg63
(lp3423
S'Scott'
p3424
asbasbasbag56
(g72
g58
NtRp3425
(dp3426
g61
(dp3427
sg70
g3333
sg63
(lp3428
g56
(g77
g58
NtRp3429
(dp3430
g61
(dp3431
g81
g82
ssg70
g3425
sg63
(lp3432
S'password'
p3433
asbag56
(g77
g58
NtRp3434
(dp3435
g61
(dp3436
g88
g89
ssg70
g3425
sg63
(lp3437
S':'
asbag56
(g77
g58
NtRp3438
(dp3439
g61
(dp3440
sg70
g3425
sg63
(lp3441
g56
(g57
g58
NtRp3442
(dp3443
g61
(dp3444
g69
I3
ssg70
g3438
sg63
(lp3445
S'351bc855a8ae4839e89ee60d2f279ed9'
p3446
asbasbasbag56
(g72
g58
NtRp3447
(dp3448
g61
(dp3449
sg70
g3333
sg63
(lp3450
g56
(g77
g58
NtRp3451
(dp3452
g61
(dp3453
g81
g82
ssg70
g3447
sg63
(lp3454
S'registration_key'
p3455
asbag56
(g77
g58
NtRp3456
(dp3457
g61
(dp3458
g88
g89
ssg70
g3447
sg63
(lp3459
S':'
asbag56
(g77
g58
NtRp3460
(dp3461
g61
(dp3462
sg70
g3447
sg63
(lp3463
g56
(g57
g58
NtRp3464
(dp3465
g61
(dp3466
g69
I3
ssg70
g3460
sg63
(lp3467
S''
asbasbasbag56
(g72
g58
NtRp3468
(dp3469
g61
(dp3470
sg70
g3333
sg63
(lp3471
g56
(g77
g58
NtRp3472
(dp3473
g61
(dp3474
g81
g82
ssg70
g3468
sg63
(lp3475
S'reset_password_key'
p3476
asbag56
(g77
g58
NtRp3477
(dp3478
g61
(dp3479
g88
g89
ssg70
g3468
sg63
(lp3480
S':'
asbag56
(g77
g58
NtRp3481
(dp3482
g61
(dp3483
sg70
g3468
sg63
(lp3484
g56
(g57
g58
NtRp3485
(dp3486
g61
(dp3487
g69
I3
ssg70
g3481
sg63
(lp3488
S''
asbasbasbasbasbasbasbasbasbasbasbag56
(g72
g58
NtRp3489
(dp3490
g61
(dp3491
sg70
g3196
sg63
(lp3492
g56
(g77
g58
NtRp3493
(dp3494
g61
(dp3495
g81
g82
ssg70
g3489
sg63
(lp3496
S'debug'
p3497
asbag56
(g77
g58
NtRp3498
(dp3499
g61
(dp3500
g88
g89
ssg70
g3489
sg63
(lp3501
S':'
asbag56
(g77
g58
NtRp3502
(dp3503
g61
(dp3504
sg70
g3489
sg63
(lp3505
g56
(g57
g58
NtRp3506
(dp3507
g61
(dp3508
g69
I5
ssg70
g3502
sg63
(lp3509
S'41'
p3510
asbasbasbasbasbsS'etype'
p3511
S"<type 'exceptions.ValueError'>"
p3512
sS'date'
p3513
S'Wed Nov  9 14:16:38 2011'
p3514
sS'response'
p3515
g56
(g57
g58
NtRp3516
(dp3517
g61
(dp3518
sg63
(lp3519
g56
(g65
g58
NtRp3520
(dp3521
g61
(dp3522
g69
I5
ssg70
Nsg63
(lp3523
g56
(g72
g58
NtRp3524
(dp3525
g61
(dp3526
sg70
g3520
sg63
(lp3527
g56
(g77
g58
NtRp3528
(dp3529
g61
(dp3530
g81
g82
ssg70
g3524
sg63
(lp3531
g167
asbag56
(g77
g58
NtRp3532
(dp3533
g61
(dp3534
g88
g89
ssg70
g3524
sg63
(lp3535
S':'
asbag56
(g77
g58
NtRp3536
(dp3537
g61
(dp3538
sg70
g3524
sg63
(lp3539
g56
(g57
g58
NtRp3540
(dp3541
g61
(dp3542
g69
I5
ssg70
g3536
sg63
(lp3543
S'<cStringIO.StringO object at 0x370f148>'
p3544
asbasbasbag56
(g72
g58
NtRp3545
(dp3546
g61
(dp3547
sg70
g3520
sg63
(lp3548
g56
(g77
g58
NtRp3549
(dp3550
g61
(dp3551
g81
g82
ssg70
g3545
sg63
(lp3552
g233
asbag56
(g77
g58
NtRp3553
(dp3554
g61
(dp3555
g88
g89
ssg70
g3545
sg63
(lp3556
S':'
asbag56
(g77
g58
NtRp3557
(dp3558
g61
(dp3559
sg70
g3545
sg63
(lp3560
g56
(g57
g58
NtRp3561
(dp3562
g61
(dp3563
g69
I5
ssg70
g3557
sg63
(lp3564
g56
(g65
g58
NtRp3565
(dp3566
g61
(dp3567
g69
I4
ssg70
Nsg63
(lp3568
g56
(g72
g58
NtRp3569
(dp3570
g61
(dp3571
sg70
g3565
sg63
(lp3572
g56
(g77
g58
NtRp3573
(dp3574
g61
(dp3575
g81
g82
ssg70
g3569
sg63
(lp3576
S'session_id_grades'
p3577
asbag56
(g77
g58
NtRp3578
(dp3579
g61
(dp3580
g88
g89
ssg70
g3569
sg63
(lp3581
S':'
asbag56
(g77
g58
NtRp3582
(dp3583
g61
(dp3584
sg70
g3569
sg63
(lp3585
g56
(g57
g58
NtRp3586
(dp3587
g61
(dp3588
g69
I4
ssg70
g3582
sg63
(lp3589
g56
(g65
g58
NtRp3590
(dp3591
g61
(dp3592
g69
I3
ssg70
Nsg63
(lp3593
g56
(g72
g58
NtRp3594
(dp3595
g61
(dp3596
sg70
g3590
sg63
(lp3597
g56
(g77
g58
NtRp3598
(dp3599
g61
(dp3600
g81
g82
ssg70
g3594
sg63
(lp3601
g283
asbag56
(g77
g58
NtRp3602
(dp3603
g61
(dp3604
g88
g89
ssg70
g3594
sg63
(lp3605
S':'
asbag56
(g77
g58
NtRp3606
(dp3607
g61
(dp3608
sg70
g3594
sg63
(lp3609
g56
(g57
g58
NtRp3610
(dp3611
g61
(dp3612
g69
I3
ssg70
g3606
sg63
(lp3613
S''
asbasbasbag56
(g72
g58
NtRp3614
(dp3615
g61
(dp3616
sg70
g3590
sg63
(lp3617
g56
(g77
g58
NtRp3618
(dp3619
g61
(dp3620
g81
g82
ssg70
g3614
sg63
(lp3621
g304
asbag56
(g77
g58
NtRp3622
(dp3623
g61
(dp3624
g88
g89
ssg70
g3614
sg63
(lp3625
S':'
asbag56
(g77
g58
NtRp3626
(dp3627
g61
(dp3628
sg70
g3614
sg63
(lp3629
g56
(g57
g58
NtRp3630
(dp3631
g61
(dp3632
g69
I3
ssg70
g3626
sg63
(lp3633
S''
asbasbasbag56
(g72
g58
NtRp3634
(dp3635
g61
(dp3636
sg70
g3590
sg63
(lp3637
g56
(g77
g58
NtRp3638
(dp3639
g61
(dp3640
g81
g82
ssg70
g3634
sg63
(lp3641
g325
asbag56
(g77
g58
NtRp3642
(dp3643
g61
(dp3644
g88
g89
ssg70
g3634
sg63
(lp3645
S':'
asbag56
(g77
g58
NtRp3646
(dp3647
g61
(dp3648
sg70
g3634
sg63
(lp3649
g56
(g57
g58
NtRp3650
(dp3651
g61
(dp3652
g69
I3
ssg70
g3646
sg63
(lp3653
S''
asbasbasbag56
(g72
g58
NtRp3654
(dp3655
g61
(dp3656
sg70
g3590
sg63
(lp3657
g56
(g77
g58
NtRp3658
(dp3659
g61
(dp3660
g81
g82
ssg70
g3654
sg63
(lp3661
g346
asbag56
(g77
g58
NtRp3662
(dp3663
g61
(dp3664
g88
g89
ssg70
g3654
sg63
(lp3665
S':'
asbag56
(g77
g58
NtRp3666
(dp3667
g61
(dp3668
sg70
g3654
sg63
(lp3669
g56
(g57
g58
NtRp3670
(dp3671
g61
(dp3672
g69
I3
ssg70
g3666
sg63
(lp3673
S''
asbasbasbag56
(g72
g58
NtRp3674
(dp3675
g61
(dp3676
sg70
g3590
sg63
(lp3677
g56
(g77
g58
NtRp3678
(dp3679
g61
(dp3680
g81
g82
ssg70
g3674
sg63
(lp3681
g367
asbag56
(g77
g58
NtRp3682
(dp3683
g61
(dp3684
g88
g89
ssg70
g3674
sg63
(lp3685
S':'
asbag56
(g77
g58
NtRp3686
(dp3687
g61
(dp3688
sg70
g3674
sg63
(lp3689
g56
(g57
g58
NtRp3690
(dp3691
g61
(dp3692
g69
I3
ssg70
g3686
sg63
(lp3693
S''
asbasbasbag56
(g72
g58
NtRp3694
(dp3695
g61
(dp3696
sg70
g3590
sg63
(lp3697
g56
(g77
g58
NtRp3698
(dp3699
g61
(dp3700
g81
g82
ssg70
g3694
sg63
(lp3701
g388
asbag56
(g77
g58
NtRp3702
(dp3703
g61
(dp3704
g88
g89
ssg70
g3694
sg63
(lp3705
S':'
asbag56
(g77
g58
NtRp3706
(dp3707
g61
(dp3708
sg70
g3694
sg63
(lp3709
g56
(g57
g58
NtRp3710
(dp3711
g61
(dp3712
g69
I3
ssg70
g3706
sg63
(lp3713
S'/'
asbasbasbag56
(g72
g58
NtRp3714
(dp3715
g61
(dp3716
sg70
g3590
sg63
(lp3717
g56
(g77
g58
NtRp3718
(dp3719
g61
(dp3720
g81
g82
ssg70
g3714
sg63
(lp3721
g409
asbag56
(g77
g58
NtRp3722
(dp3723
g61
(dp3724
g88
g89
ssg70
g3714
sg63
(lp3725
S':'
asbag56
(g77
g58
NtRp3726
(dp3727
g61
(dp3728
sg70
g3714
sg63
(lp3729
g56
(g57
g58
NtRp3730
(dp3731
g61
(dp3732
g69
I3
ssg70
g3726
sg63
(lp3733
S''
asbasbasbag56
(g72
g58
NtRp3734
(dp3735
g61
(dp3736
sg70
g3590
sg63
(lp3737
g56
(g77
g58
NtRp3738
(dp3739
g61
(dp3740
g81
g82
ssg70
g3734
sg63
(lp3741
g430
asbag56
(g77
g58
NtRp3742
(dp3743
g61
(dp3744
g88
g89
ssg70
g3734
sg63
(lp3745
S':'
asbag56
(g77
g58
NtRp3746
(dp3747
g61
(dp3748
sg70
g3734
sg63
(lp3749
g56
(g57
g58
NtRp3750
(dp3751
g61
(dp3752
g69
I3
ssg70
g3746
sg63
(lp3753
S''
asbasbasbasbasbasbasbasbasbasbasbag56
(g72
g58
NtRp3754
(dp3755
g61
(dp3756
sg70
g3520
sg63
(lp3757
g56
(g77
g58
NtRp3758
(dp3759
g61
(dp3760
g81
g82
ssg70
g3754
sg63
(lp3761
S'files'
p3762
asbag56
(g77
g58
NtRp3763
(dp3764
g61
(dp3765
g88
g89
ssg70
g3754
sg63
(lp3766
S':'
asbag56
(g77
g58
NtRp3767
(dp3768
g61
(dp3769
sg70
g3754
sg63
(lp3770
g56
(g57
g58
NtRp3771
(dp3772
g61
(dp3773
g69
I5
ssg70
g3767
sg63
(lp3774
g56
(g65
g58
NtRp3775
(dp3776
g61
(dp3777
g69
I4
ssg70
Nsg63
(lp3778
g56
(g72
g58
NtRp3779
(dp3780
g61
(dp3781
sg70
g3775
sg63
(lp3782
g56
(g77
g58
NtRp3783
(dp3784
g61
(dp3785
sg70
g3779
sg63
(lp3786
g56
(g57
g58
NtRp3787
(dp3788
g61
(dp3789
g69
I4
ssg70
g3783
sg63
(lp3790
S'/grades/static/js/jquery.js'
p3791
asbasbasbag56
(g72
g58
NtRp3792
(dp3793
g61
(dp3794
sg70
g3775
sg63
(lp3795
g56
(g77
g58
NtRp3796
(dp3797
g61
(dp3798
sg70
g3792
sg63
(lp3799
g56
(g57
g58
NtRp3800
(dp3801
g61
(dp3802
g69
I4
ssg70
g3796
sg63
(lp3803
S'/grades/static/css/anytime.css'
p3804
asbasbasbag56
(g72
g58
NtRp3805
(dp3806
g61
(dp3807
sg70
g3775
sg63
(lp3808
g56
(g77
g58
NtRp3809
(dp3810
g61
(dp3811
sg70
g3805
sg63
(lp3812
g56
(g57
g58
NtRp3813
(dp3814
g61
(dp3815
g69
I4
ssg70
g3809
sg63
(lp3816
S'/grades/static/js/anytime.js'
p3817
asbasbasbag56
(g72
g58
NtRp3818
(dp3819
g61
(dp3820
sg70
g3775
sg63
(lp3821
g56
(g77
g58
NtRp3822
(dp3823
g61
(dp3824
sg70
g3818
sg63
(lp3825
g56
(g57
g58
NtRp3826
(dp3827
g61
(dp3828
g69
I4
ssg70
g3822
sg63
(lp3829
S'/grades/static/css/base.css'
p3830
asbasbasbag56
(g72
g58
NtRp3831
(dp3832
g61
(dp3833
sg70
g3775
sg63
(lp3834
g56
(g77
g58
NtRp3835
(dp3836
g61
(dp3837
sg70
g3831
sg63
(lp3838
g56
(g57
g58
NtRp3839
(dp3840
g61
(dp3841
g69
I4
ssg70
g3835
sg63
(lp3842
S'/grades/static/css/grades_theme.css'
p3843
asbasbasbag56
(g72
g58
NtRp3844
(dp3845
g61
(dp3846
sg70
g3775
sg63
(lp3847
g56
(g77
g58
NtRp3848
(dp3849
g61
(dp3850
sg70
g3844
sg63
(lp3851
g56
(g57
g58
NtRp3852
(dp3853
g61
(dp3854
g69
I4
ssg70
g3848
sg63
(lp3855
S'/grades/static/css/two_pane.css'
p3856
asbasbasbag56
(g72
g58
NtRp3857
(dp3858
g61
(dp3859
sg70
g3775
sg63
(lp3860
g56
(g77
g58
NtRp3861
(dp3862
g61
(dp3863
sg70
g3857
sg63
(lp3864
g56
(g57
g58
NtRp3865
(dp3866
g61
(dp3867
g69
I4
ssg70
g3861
sg63
(lp3868
S'/grades/static/css/superfish.css'
p3869
asbasbasbag56
(g72
g58
NtRp3870
(dp3871
g61
(dp3872
sg70
g3775
sg63
(lp3873
g56
(g77
g58
NtRp3874
(dp3875
g61
(dp3876
sg70
g3870
sg63
(lp3877
g56
(g57
g58
NtRp3878
(dp3879
g61
(dp3880
g69
I4
ssg70
g3874
sg63
(lp3881
S'/grades/static/js/superfish.js'
p3882
asbasbasbasbasbasbasbag56
(g72
g58
NtRp3883
(dp3884
g61
(dp3885
sg70
g3520
sg63
(lp3886
g56
(g77
g58
NtRp3887
(dp3888
g61
(dp3889
g81
g82
ssg70
g3883
sg63
(lp3890
S'flash'
p3891
asbag56
(g77
g58
NtRp3892
(dp3893
g61
(dp3894
g88
g89
ssg70
g3883
sg63
(lp3895
S':'
asbag56
(g77
g58
NtRp3896
(dp3897
g61
(dp3898
sg70
g3883
sg63
(lp3899
g56
(g57
g58
NtRp3900
(dp3901
g61
(dp3902
g69
I5
ssg70
g3896
sg63
(lp3903
S''
asbasbasbag56
(g72
g58
NtRp3904
(dp3905
g61
(dp3906
sg70
g3520
sg63
(lp3907
g56
(g77
g58
NtRp3908
(dp3909
g61
(dp3910
g81
g82
ssg70
g3904
sg63
(lp3911
S'generic_patterns'
p3912
asbag56
(g77
g58
NtRp3913
(dp3914
g61
(dp3915
g88
g89
ssg70
g3904
sg63
(lp3916
S':'
asbag56
(g77
g58
NtRp3917
(dp3918
g61
(dp3919
sg70
g3904
sg63
(lp3920
g56
(g57
g58
NtRp3921
(dp3922
g61
(dp3923
g69
I5
ssg70
g3917
sg63
(lp3924
g56
(g65
g58
NtRp3925
(dp3926
g61
(dp3927
g69
I4
ssg70
Nsg63
(lp3928
g56
(g72
g58
NtRp3929
(dp3930
g61
(dp3931
sg70
g3925
sg63
(lp3932
g56
(g77
g58
NtRp3933
(dp3934
g61
(dp3935
sg70
g3929
sg63
(lp3936
g56
(g57
g58
NtRp3937
(dp3938
g61
(dp3939
g69
I4
ssg70
g3933
sg63
(lp3940
S'*'
asbasbasbasbasbasbasbag56
(g72
g58
NtRp3941
(dp3942
g61
(dp3943
sg70
g3520
sg63
(lp3944
g56
(g77
g58
NtRp3945
(dp3946
g61
(dp3947
g81
g82
ssg70
g3941
sg63
(lp3948
S'headers'
p3949
asbag56
(g77
g58
NtRp3950
(dp3951
g61
(dp3952
g88
g89
ssg70
g3941
sg63
(lp3953
S':'
asbag56
(g77
g58
NtRp3954
(dp3955
g61
(dp3956
sg70
g3941
sg63
(lp3957
g56
(g57
g58
NtRp3958
(dp3959
g61
(dp3960
g69
I5
ssg70
g3954
sg63
(lp3961
g56
(g65
g58
NtRp3962
(dp3963
g61
(dp3964
g69
I4
ssg70
Nsg63
(lp3965
g56
(g72
g58
NtRp3966
(dp3967
g61
(dp3968
sg70
g3962
sg63
(lp3969
g56
(g77
g58
NtRp3970
(dp3971
g61
(dp3972
g81
g82
ssg70
g3966
sg63
(lp3973
S'Cache-Control'
p3974
asbag56
(g77
g58
NtRp3975
(dp3976
g61
(dp3977
g88
g89
ssg70
g3966
sg63
(lp3978
S':'
asbag56
(g77
g58
NtRp3979
(dp3980
g61
(dp3981
sg70
g3966
sg63
(lp3982
g56
(g57
g58
NtRp3983
(dp3984
g61
(dp3985
g69
I4
ssg70
g3979
sg63
(lp3986
S'no-store, no-cache, must-revalidate, post-check=0, pre-check=0'
p3987
asbasbasbag56
(g72
g58
NtRp3988
(dp3989
g61
(dp3990
sg70
g3962
sg63
(lp3991
g56
(g77
g58
NtRp3992
(dp3993
g61
(dp3994
g81
g82
ssg70
g3988
sg63
(lp3995
S'Content-Type'
p3996
asbag56
(g77
g58
NtRp3997
(dp3998
g61
(dp3999
g88
g89
ssg70
g3988
sg63
(lp4000
S':'
asbag56
(g77
g58
NtRp4001
(dp4002
g61
(dp4003
sg70
g3988
sg63
(lp4004
g56
(g57
g58
NtRp4005
(dp4006
g61
(dp4007
g69
I4
ssg70
g4001
sg63
(lp4008
S'text/html; charset=utf-8'
p4009
asbasbasbag56
(g72
g58
NtRp4010
(dp4011
g61
(dp4012
sg70
g3962
sg63
(lp4013
g56
(g77
g58
NtRp4014
(dp4015
g61
(dp4016
g81
g82
ssg70
g4010
sg63
(lp4017
S'Expires'
p4018
asbag56
(g77
g58
NtRp4019
(dp4020
g61
(dp4021
g88
g89
ssg70
g4010
sg63
(lp4022
S':'
asbag56
(g77
g58
NtRp4023
(dp4024
g61
(dp4025
sg70
g4010
sg63
(lp4026
g56
(g57
g58
NtRp4027
(dp4028
g61
(dp4029
g69
I4
ssg70
g4023
sg63
(lp4030
S'Wed, 09 Nov 2011 19:16:38 GMT'
p4031
asbasbasbag56
(g72
g58
NtRp4032
(dp4033
g61
(dp4034
sg70
g3962
sg63
(lp4035
g56
(g77
g58
NtRp4036
(dp4037
g61
(dp4038
g81
g82
ssg70
g4032
sg63
(lp4039
S'Pragma'
p4040
asbag56
(g77
g58
NtRp4041
(dp4042
g61
(dp4043
g88
g89
ssg70
g4032
sg63
(lp4044
S':'
asbag56
(g77
g58
NtRp4045
(dp4046
g61
(dp4047
sg70
g4032
sg63
(lp4048
g56
(g57
g58
NtRp4049
(dp4050
g61
(dp4051
g69
I4
ssg70
g4045
sg63
(lp4052
S'no-cache'
p4053
asbasbasbag56
(g72
g58
NtRp4054
(dp4055
g61
(dp4056
sg70
g3962
sg63
(lp4057
g56
(g77
g58
NtRp4058
(dp4059
g61
(dp4060
g81
g82
ssg70
g4054
sg63
(lp4061
S'X-Powered-By'
p4062
asbag56
(g77
g58
NtRp4063
(dp4064
g61
(dp4065
g88
g89
ssg70
g4054
sg63
(lp4066
S':'
asbag56
(g77
g58
NtRp4067
(dp4068
g61
(dp4069
sg70
g4054
sg63
(lp4070
g56
(g57
g58
NtRp4071
(dp4072
g61
(dp4073
g69
I4
ssg70
g4067
sg63
(lp4074
S'web2py'
p4075
asbasbasbasbasbasbasbag56
(g72
g58
NtRp4076
(dp4077
g61
(dp4078
sg70
g3520
sg63
(lp4079
g56
(g77
g58
NtRp4080
(dp4081
g61
(dp4082
g81
g82
ssg70
g4076
sg63
(lp4083
S'menu'
p4084
asbag56
(g77
g58
NtRp4085
(dp4086
g61
(dp4087
g88
g89
ssg70
g4076
sg63
(lp4088
S':'
asbag56
(g77
g58
NtRp4089
(dp4090
g61
(dp4091
sg70
g4076
sg63
(lp4092
g56
(g57
g58
NtRp4093
(dp4094
g61
(dp4095
g69
I5
ssg70
g4089
sg63
(lp4096
g56
(g65
g58
NtRp4097
(dp4098
g61
(dp4099
g69
I4
ssg70
Nsg63
(lp4100
g56
(g72
g58
NtRp4101
(dp4102
g61
(dp4103
sg70
g4097
sg63
(lp4104
g56
(g77
g58
NtRp4105
(dp4106
g61
(dp4107
sg70
g4101
sg63
(lp4108
g56
(g57
g58
NtRp4109
(dp4110
g61
(dp4111
g69
I4
ssg70
g4105
sg63
(lp4112
g56
(g65
g58
NtRp4113
(dp4114
g61
(dp4115
g69
I3
ssg70
Nsg63
(lp4116
g56
(g72
g58
NtRp4117
(dp4118
g61
(dp4119
sg70
g4113
sg63
(lp4120
g56
(g77
g58
NtRp4121
(dp4122
g61
(dp4123
sg70
g4117
sg63
(lp4124
g56
(g57
g58
NtRp4125
(dp4126
g61
(dp4127
g69
I3
ssg70
g4121
sg63
(lp4128
cgluon.languages
lazyT_unpickle
p4129
(S't\x05\x00\x00\x00Index'
tRp4130
asbasbasbag56
(g72
g58
NtRp4131
(dp4132
g61
(dp4133
sg70
g4113
sg63
(lp4134
g56
(g77
g58
NtRp4135
(dp4136
g61
(dp4137
sg70
g4131
sg63
(lp4138
g56
(g57
g58
NtRp4139
(dp4140
g61
(dp4141
g69
I3
ssg70
g4135
sg63
(lp4142
g99
asbasbasbag56
(g72
g58
NtRp4143
(dp4144
g61
(dp4145
sg70
g4113
sg63
(lp4146
g56
(g77
g58
NtRp4147
(dp4148
g61
(dp4149
sg70
g4143
sg63
(lp4150
g56
(g57
g58
NtRp4151
(dp4152
g61
(dp4153
g69
I3
ssg70
g4147
sg63
(lp4154
S'/grades/default/index'
p4155
asbasbasbag56
(g72
g58
NtRp4156
(dp4157
g61
(dp4158
sg70
g4113
sg63
(lp4159
g56
(g77
g58
NtRp4160
(dp4161
g61
(dp4162
sg70
g4156
sg63
(lp4163
g56
(g57
g58
NtRp4164
(dp4165
g61
(dp4166
g69
I3
ssg70
g4160
sg63
(lp4167
g56
(g65
g58
NtRp4168
(dp4169
g61
(dp4170
g69
I2
ssg70
Nsg63
(lp4171
sbasbasbasbasbasbasbasbag56
(g72
g58
NtRp4172
(dp4173
g61
(dp4174
sg70
g4097
sg63
(lp4175
g56
(g77
g58
NtRp4176
(dp4177
g61
(dp4178
sg70
g4172
sg63
(lp4179
g56
(g57
g58
NtRp4180
(dp4181
g61
(dp4182
g69
I4
ssg70
g4176
sg63
(lp4183
g56
(g65
g58
NtRp4184
(dp4185
g61
(dp4186
g69
I3
ssg70
Nsg63
(lp4187
g56
(g72
g58
NtRp4188
(dp4189
g61
(dp4190
sg70
g4184
sg63
(lp4191
g56
(g77
g58
NtRp4192
(dp4193
g61
(dp4194
sg70
g4188
sg63
(lp4195
g56
(g57
g58
NtRp4196
(dp4197
g61
(dp4198
g69
I3
ssg70
g4192
sg63
(lp4199
g4129
(S't\x06\x00\x00\x00Grades'
tRp4200
asbasbasbag56
(g72
g58
NtRp4201
(dp4202
g61
(dp4203
sg70
g4184
sg63
(lp4204
g56
(g77
g58
NtRp4205
(dp4206
g61
(dp4207
sg70
g4201
sg63
(lp4208
g56
(g57
g58
NtRp4209
(dp4210
g61
(dp4211
g69
I3
ssg70
g4205
sg63
(lp4212
g99
asbasbasbag56
(g72
g58
NtRp4213
(dp4214
g61
(dp4215
sg70
g4184
sg63
(lp4216
g56
(g77
g58
NtRp4217
(dp4218
g61
(dp4219
sg70
g4213
sg63
(lp4220
g56
(g57
g58
NtRp4221
(dp4222
g61
(dp4223
g69
I3
ssg70
g4217
sg63
(lp4224
S'/grades/default/grades_manage'
p4225
asbasbasbag56
(g72
g58
NtRp4226
(dp4227
g61
(dp4228
sg70
g4184
sg63
(lp4229
g56
(g77
g58
NtRp4230
(dp4231
g61
(dp4232
sg70
g4226
sg63
(lp4233
g56
(g57
g58
NtRp4234
(dp4235
g61
(dp4236
g69
I3
ssg70
g4230
sg63
(lp4237
g56
(g65
g58
NtRp4238
(dp4239
g61
(dp4240
g69
I2
ssg70
Nsg63
(lp4241
sbasbasbasbasbasbasbasbag56
(g72
g58
NtRp4242
(dp4243
g61
(dp4244
sg70
g4097
sg63
(lp4245
g56
(g77
g58
NtRp4246
(dp4247
g61
(dp4248
sg70
g4242
sg63
(lp4249
g56
(g57
g58
NtRp4250
(dp4251
g61
(dp4252
g69
I4
ssg70
g4246
sg63
(lp4253
g56
(g65
g58
NtRp4254
(dp4255
g61
(dp4256
g69
I3
ssg70
Nsg63
(lp4257
g56
(g72
g58
NtRp4258
(dp4259
g61
(dp4260
sg70
g4254
sg63
(lp4261
g56
(g77
g58
NtRp4262
(dp4263
g61
(dp4264
sg70
g4258
sg63
(lp4265
g56
(g57
g58
NtRp4266
(dp4267
g61
(dp4268
g69
I3
ssg70
g4262
sg63
(lp4269
g4129
(S't\x07\x00\x00\x00Classes'
tRp4270
asbasbasbag56
(g72
g58
NtRp4271
(dp4272
g61
(dp4273
sg70
g4254
sg63
(lp4274
g56
(g77
g58
NtRp4275
(dp4276
g61
(dp4277
sg70
g4271
sg63
(lp4278
g56
(g57
g58
NtRp4279
(dp4280
g61
(dp4281
g69
I3
ssg70
g4275
sg63
(lp4282
g99
asbasbasbag56
(g72
g58
NtRp4283
(dp4284
g61
(dp4285
sg70
g4254
sg63
(lp4286
g56
(g77
g58
NtRp4287
(dp4288
g61
(dp4289
sg70
g4283
sg63
(lp4290
g56
(g57
g58
NtRp4291
(dp4292
g61
(dp4293
g69
I3
ssg70
g4287
sg63
(lp4294
S'/grades/default/classes_manage'
p4295
asbasbasbag56
(g72
g58
NtRp4296
(dp4297
g61
(dp4298
sg70
g4254
sg63
(lp4299
g56
(g77
g58
NtRp4300
(dp4301
g61
(dp4302
sg70
g4296
sg63
(lp4303
g56
(g57
g58
NtRp4304
(dp4305
g61
(dp4306
g69
I3
ssg70
g4300
sg63
(lp4307
g56
(g65
g58
NtRp4308
(dp4309
g61
(dp4310
g69
I2
ssg70
Nsg63
(lp4311
sbasbasbasbasbasbasbasbasbasbasbasbag56
(g72
g58
NtRp4312
(dp4313
g61
(dp4314
sg70
g3520
sg63
(lp4315
g56
(g77
g58
NtRp4316
(dp4317
g61
(dp4318
g81
g82
ssg70
g4312
sg63
(lp4319
S'meta'
p4320
asbag56
(g77
g58
NtRp4321
(dp4322
g61
(dp4323
g88
g89
ssg70
g4312
sg63
(lp4324
S':'
asbag56
(g77
g58
NtRp4325
(dp4326
g61
(dp4327
sg70
g4312
sg63
(lp4328
g56
(g57
g58
NtRp4329
(dp4330
g61
(dp4331
g69
I5
ssg70
g4325
sg63
(lp4332
g56
(g65
g58
NtRp4333
(dp4334
g61
(dp4335
g69
I4
ssg70
Nsg63
(lp4336
g56
(g72
g58
NtRp4337
(dp4338
g61
(dp4339
sg70
g4333
sg63
(lp4340
g56
(g77
g58
NtRp4341
(dp4342
g61
(dp4343
g81
g82
ssg70
g4337
sg63
(lp4344
S'author'
p4345
asbag56
(g77
g58
NtRp4346
(dp4347
g61
(dp4348
g88
g89
ssg70
g4337
sg63
(lp4349
S':'
asbag56
(g77
g58
NtRp4350
(dp4351
g61
(dp4352
sg70
g4337
sg63
(lp4353
g56
(g57
g58
NtRp4354
(dp4355
g61
(dp4356
g69
I4
ssg70
g4350
sg63
(lp4357
S'Ian W. Scott <scottianw@gmail.com>'
p4358
asbasbasbag56
(g72
g58
NtRp4359
(dp4360
g61
(dp4361
sg70
g4333
sg63
(lp4362
g56
(g77
g58
NtRp4363
(dp4364
g61
(dp4365
g81
g82
ssg70
g4359
sg63
(lp4366
S'description'
p4367
asbag56
(g77
g58
NtRp4368
(dp4369
g61
(dp4370
g88
g89
ssg70
g4359
sg63
(lp4371
S':'
asbag56
(g77
g58
NtRp4372
(dp4373
g61
(dp4374
sg70
g4359
sg63
(lp4375
g56
(g57
g58
NtRp4376
(dp4377
g61
(dp4378
g69
I4
ssg70
g4372
sg63
(lp4379
S''
asbasbasbag56
(g72
g58
NtRp4380
(dp4381
g61
(dp4382
sg70
g4333
sg63
(lp4383
g56
(g77
g58
NtRp4384
(dp4385
g61
(dp4386
g81
g82
ssg70
g4380
sg63
(lp4387
S'keywords'
p4388
asbag56
(g77
g58
NtRp4389
(dp4390
g61
(dp4391
g88
g89
ssg70
g4380
sg63
(lp4392
S':'
asbag56
(g77
g58
NtRp4393
(dp4394
g61
(dp4395
sg70
g4380
sg63
(lp4396
g56
(g57
g58
NtRp4397
(dp4398
g61
(dp4399
g69
I4
ssg70
g4393
sg63
(lp4400
S''
asbasbasbasbasbasbasbag56
(g72
g58
NtRp4401
(dp4402
g61
(dp4403
sg70
g3520
sg63
(lp4404
g56
(g77
g58
NtRp4405
(dp4406
g61
(dp4407
g81
g82
ssg70
g4401
sg63
(lp4408
S'postprocessing'
p4409
asbag56
(g77
g58
NtRp4410
(dp4411
g61
(dp4412
g88
g89
ssg70
g4401
sg63
(lp4413
S':'
asbag56
(g77
g58
NtRp4414
(dp4415
g61
(dp4416
sg70
g4401
sg63
(lp4417
g56
(g57
g58
NtRp4418
(dp4419
g61
(dp4420
g69
I5
ssg70
g4414
sg63
(lp4421
g56
(g65
g58
NtRp4422
(dp4423
g61
(dp4424
g69
I4
ssg70
Nsg63
(lp4425
sbasbasbasbag56
(g72
g58
NtRp4426
(dp4427
g61
(dp4428
sg70
g3520
sg63
(lp4429
g56
(g77
g58
NtRp4430
(dp4431
g61
(dp4432
g81
g82
ssg70
g4426
sg63
(lp4433
S'session_file'
p4434
asbag56
(g77
g58
NtRp4435
(dp4436
g61
(dp4437
g88
g89
ssg70
g4426
sg63
(lp4438
S':'
asbag56
(g77
g58
NtRp4439
(dp4440
g61
(dp4441
sg70
g4426
sg63
(lp4442
g56
(g57
g58
NtRp4443
(dp4444
g61
(dp4445
g69
I5
ssg70
g4439
sg63
(lp4446
S"<open file '/home/ian/web2py/applications/grades/sessions/127.0.0.1-7e779f51-d72f-4159-aa81-826b4f2d26c1', mode 'rb+' at 0x37b3270>"
p4447
asbasbasbag56
(g72
g58
NtRp4448
(dp4449
g61
(dp4450
sg70
g3520
sg63
(lp4451
g56
(g77
g58
NtRp4452
(dp4453
g61
(dp4454
g81
g82
ssg70
g4448
sg63
(lp4455
S'session_filename'
p4456
asbag56
(g77
g58
NtRp4457
(dp4458
g61
(dp4459
g88
g89
ssg70
g4448
sg63
(lp4460
S':'
asbag56
(g77
g58
NtRp4461
(dp4462
g61
(dp4463
sg70
g4448
sg63
(lp4464
g56
(g57
g58
NtRp4465
(dp4466
g61
(dp4467
g69
I5
ssg70
g4461
sg63
(lp4468
S'/home/ian/web2py/applications/grades/sessions/127.0.0.1-7e779f51-d72f-4159-aa81-826b4f2d26c1'
p4469
asbasbasbag56
(g72
g58
NtRp4470
(dp4471
g61
(dp4472
sg70
g3520
sg63
(lp4473
g56
(g77
g58
NtRp4474
(dp4475
g61
(dp4476
g81
g82
ssg70
g4470
sg63
(lp4477
S'session_id'
p4478
asbag56
(g77
g58
NtRp4479
(dp4480
g61
(dp4481
g88
g89
ssg70
g4470
sg63
(lp4482
S':'
asbag56
(g77
g58
NtRp4483
(dp4484
g61
(dp4485
sg70
g4470
sg63
(lp4486
g56
(g57
g58
NtRp4487
(dp4488
g61
(dp4489
g69
I5
ssg70
g4483
sg63
(lp4490
S'127.0.0.1-7e779f51-d72f-4159-aa81-826b4f2d26c1'
p4491
asbasbasbag56
(g72
g58
NtRp4492
(dp4493
g61
(dp4494
sg70
g3520
sg63
(lp4495
g56
(g77
g58
NtRp4496
(dp4497
g61
(dp4498
g81
g82
ssg70
g4492
sg63
(lp4499
S'session_id_name'
p4500
asbag56
(g77
g58
NtRp4501
(dp4502
g61
(dp4503
g88
g89
ssg70
g4492
sg63
(lp4504
S':'
asbag56
(g77
g58
NtRp4505
(dp4506
g61
(dp4507
sg70
g4492
sg63
(lp4508
g56
(g57
g58
NtRp4509
(dp4510
g61
(dp4511
g69
I5
ssg70
g4505
sg63
(lp4512
g3577
asbasbasbag56
(g72
g58
NtRp4513
(dp4514
g61
(dp4515
sg70
g3520
sg63
(lp4516
g56
(g77
g58
NtRp4517
(dp4518
g61
(dp4519
g81
g82
ssg70
g4513
sg63
(lp4520
S'session_locked'
p4521
asbag56
(g77
g58
NtRp4522
(dp4523
g61
(dp4524
g88
g89
ssg70
g4513
sg63
(lp4525
S':'
asbag56
(g77
g58
NtRp4526
(dp4527
g61
(dp4528
sg70
g4513
sg63
(lp4529
g56
(g57
g58
NtRp4530
(dp4531
g61
(dp4532
g69
I5
ssg70
g4526
sg63
(lp4533
g1832
asbasbasbag56
(g72
g58
NtRp4534
(dp4535
g61
(dp4536
sg70
g3520
sg63
(lp4537
g56
(g77
g58
NtRp4538
(dp4539
g61
(dp4540
g81
g82
ssg70
g4534
sg63
(lp4541
S'session_new'
p4542
asbag56
(g77
g58
NtRp4543
(dp4544
g61
(dp4545
g88
g89
ssg70
g4534
sg63
(lp4546
S':'
asbag56
(g77
g58
NtRp4547
(dp4548
g61
(dp4549
sg70
g4534
sg63
(lp4550
g56
(g57
g58
NtRp4551
(dp4552
g61
(dp4553
g69
I5
ssg70
g4547
sg63
(lp4554
g99
asbasbasbag56
(g72
g58
NtRp4555
(dp4556
g61
(dp4557
sg70
g3520
sg63
(lp4558
g56
(g77
g58
NtRp4559
(dp4560
g61
(dp4561
g81
g82
ssg70
g4555
sg63
(lp4562
S'status'
p4563
asbag56
(g77
g58
NtRp4564
(dp4565
g61
(dp4566
g88
g89
ssg70
g4555
sg63
(lp4567
S':'
asbag56
(g77
g58
NtRp4568
(dp4569
g61
(dp4570
sg70
g4555
sg63
(lp4571
g56
(g57
g58
NtRp4572
(dp4573
g61
(dp4574
g69
I5
ssg70
g4568
sg63
(lp4575
S'200'
p4576
asbasbasbag56
(g72
g58
NtRp4577
(dp4578
g61
(dp4579
sg70
g3520
sg63
(lp4580
g56
(g77
g58
NtRp4581
(dp4582
g61
(dp4583
g81
g82
ssg70
g4577
sg63
(lp4584
S'subtitle'
p4585
asbag56
(g77
g58
NtRp4586
(dp4587
g61
(dp4588
g88
g89
ssg70
g4577
sg63
(lp4589
S':'
asbag56
(g77
g58
NtRp4590
(dp4591
g61
(dp4592
sg70
g4577
sg63
(lp4593
g56
(g57
g58
NtRp4594
(dp4595
g61
(dp4596
g69
I5
ssg70
g4590
sg63
(lp4597
S'a platform for easy submission of peer grades'
p4598
asbasbasbag56
(g72
g58
NtRp4599
(dp4600
g61
(dp4601
sg70
g3520
sg63
(lp4602
g56
(g77
g58
NtRp4603
(dp4604
g61
(dp4605
g81
g82
ssg70
g4599
sg63
(lp4606
S'title'
p4607
asbag56
(g77
g58
NtRp4608
(dp4609
g61
(dp4610
g88
g89
ssg70
g4599
sg63
(lp4611
S':'
asbag56
(g77
g58
NtRp4612
(dp4613
g61
(dp4614
sg70
g4599
sg63
(lp4615
g56
(g57
g58
NtRp4616
(dp4617
g61
(dp4618
g69
I5
ssg70
g4612
sg63
(lp4619
S'Grades'
p4620
asbasbasbag56
(g72
g58
NtRp4621
(dp4622
g61
(dp4623
sg70
g3520
sg63
(lp4624
g56
(g77
g58
NtRp4625
(dp4626
g61
(dp4627
g81
g82
ssg70
g4621
sg63
(lp4628
g2497
asbag56
(g77
g58
NtRp4629
(dp4630
g61
(dp4631
g88
g89
ssg70
g4621
sg63
(lp4632
S':'
asbag56
(g77
g58
NtRp4633
(dp4634
g61
(dp4635
sg70
g4621
sg63
(lp4636
g56
(g57
g58
NtRp4637
(dp4638
g61
(dp4639
g69
I5
ssg70
g4633
sg63
(lp4640
g2510
asbasbasbag56
(g72
g58
NtRp4641
(dp4642
g61
(dp4643
sg70
g3520
sg63
(lp4644
g56
(g77
g58
NtRp4645
(dp4646
g61
(dp4647
g81
g82
ssg70
g4641
sg63
(lp4648
S'view'
p4649
asbag56
(g77
g58
NtRp4650
(dp4651
g61
(dp4652
g88
g89
ssg70
g4641
sg63
(lp4653
S':'
asbag56
(g77
g58
NtRp4654
(dp4655
g61
(dp4656
sg70
g4641
sg63
(lp4657
g56
(g57
g58
NtRp4658
(dp4659
g61
(dp4660
g69
I5
ssg70
g4654
sg63
(lp4661
S'default/grades_report.html'
p4662
asbasbasbasbasbsS'locals'
p4663
(dp4664
S'Service'
p4665
S"<class 'gluon.tools.Service'>"
p4666
sS'OBJECT'
p4667
S"<class 'gluon.html.OBJECT'>"
p4668
sS'SQLDB'
p4669
S"<class 'gluon.dal.DAL'>"
p4670
sg3191
S"<Storage {'_formkey[profile]': '7f879efb-6e36-41...login]': '83757955-ff64-4869-9e88-eb951b3a95ce'}>"
p4671
sS'LINK'
p4672
S"<class 'gluon.html.LINK'>"
p4673
sS'BR'
p4674
S"<class 'gluon.html.BR'>"
p4675
sS'local_import'
p4676
S'<function <lambda>>'
p4677
sS'OPTGROUP'
p4678
S"<class 'gluon.html.OPTGROUP'>"
p4679
sS'PRE'
p4680
S"<class 'gluon.html.PRE'>"
p4681
sS'IS_INT_IN_RANGE'
p4682
S"<class 'gluon.validators.IS_INT_IN_RANGE'>"
p4683
sS'left_sidebar_enabled'
p4684
g99
sS'IS_LOWER'
p4685
S"<class 'gluon.validators.IS_LOWER'>"
p4686
sS'IS_STRONG'
p4687
S"<class 'gluon.validators.IS_STRONG'>"
p4688
sS'Recaptcha'
p4689
S"<class 'gluon.tools.Recaptcha'>"
p4690
sS'cache'
p4691
S'<gluon.cache.Cache object>'
p4692
sS'IS_IN_DB'
p4693
S"<class 'gluon.validators.IS_IN_DB'>"
p4694
sS'TAG'
p4695
S'<gluon.html.__TAG__ object>'
p4696
sS'SQLField'
p4697
S"<class 'gluon.dal.Field'>"
p4698
sS'mail'
p4699
S'<gluon.tools.Mail object>'
p4700
sS'BODY'
p4701
S"<class 'gluon.html.BODY'>"
p4702
sS'IS_DATE_IN_RANGE'
p4703
S"<class 'gluon.validators.IS_DATE_IN_RANGE'>"
p4704
sS'TH'
p4705
S"<class 'gluon.html.TH'>"
p4706
sS'URL'
p4707
S'<function URL>'
p4708
sS'__file__'
p4709
S"'/home/ian/web2py/applications/grades/views/default/grades_report.html'"
p4710
sS'db'
p4711
S"<DAL {'auth_event': <Table {'origin': <gluon.dal..., 'id': <gluon.dal.Field object at 0x4035550>}>}>"
p4712
sS'auth'
p4713
S'<gluon.tools.Auth object>'
p4714
sS'P'
S"<class 'gluon.html.P'>"
p4715
sS'TFOOT'
p4716
S"<class 'gluon.html.TFOOT'>"
p4717
sS'XHTML'
p4718
S"<class 'gluon.html.XHTML'>"
p4719
sS'ON'
p4720
g1832
sS'OL'
p4721
S"<class 'gluon.html.OL'>"
p4722
sS'TEXTAREA'
p4723
S"<class 'gluon.html.TEXTAREA'>"
p4724
sS'settings'
p4725
S"<Storage {'layout_theme': 'Default', 'subtitle':...l_server': 'localhost', 'login_method': 'local'}>"
p4726
sS'MENU'
p4727
S"<class 'gluon.html.MENU'>"
p4728
sS'courses'
p4729
S"{'1 Corinthians, Fall 2011': [11, 12, 13, 14, 15, 16, 17, 18, 19, 20, 21, 22, 23, 24, 25, 26, 27, 28, 29, 30, ...], 'New Testament Theology and History, Fall 2011': [11, 12, 13, 14, 15, 16, 17, 18, 19, 20, 21, 22, 23, 24, 25, 26, 27, 28, 29, 30, ...]}"
p4730
sS'IS_IMAGE'
p4731
S"<class 'gluon.validators.IS_IMAGE'>"
p4732
sS'LOAD'
p4733
S'<gluon.compileapp.LoadFactory object>'
p4734
sS'CODE'
p4735
S"<class 'gluon.html.CODE'>"
p4736
sS'HTTP'
p4737
S"<class 'gluon.http.HTTP'>"
p4738
sS'HR'
p4739
S"<class 'gluon.html.HR'>"
p4740
sS'IS_DATETIME'
p4741
S"<class 'gluon.validators.IS_DATETIME'>"
p4742
sS'Storage'
p4743
S"<class 'gluon.storage.Storage'>"
p4744
sS'HEAD'
p4745
S"<class 'gluon.html.HEAD'>"
p4746
sS'LABEL'
p4747
S"<class 'gluon.html.LABEL'>"
p4748
sS'META'
p4749
S"<class 'gluon.html.META'>"
p4750
sS'plugins'
p4751
S'<gluon.tools.PluginManager object>'
p4752
sS'SELECT'
p4753
S"<class 'gluon.html.SELECT'>"
p4754
sS'use_janrain'
p4755
S'<function use_janrain>'
p4756
sS'CENTER'
p4757
S"<class 'gluon.html.CENTER'>"
p4758
sS'prettydate'
p4759
S'<function prettydate>'
p4760
sS'Crud'
p4761
S"<class 'gluon.tools.Crud'>"
p4762
sS'Auth'
p4763
S"<class 'gluon.tools.Auth'>"
p4764
sS'current'
p4765
S'<thread._local object>'
p4766
sS'IS_EQUAL_TO'
p4767
S"<class 'gluon.validators.IS_EQUAL_TO'>"
p4768
sS'HTML'
p4769
S"<class 'gluon.html.HTML'>"
p4770
sS'SQLFORM'
p4771
S"<class 'gluon.sqlhtml.SQLFORM'>"
p4772
sS'EM'
p4773
S"<class 'gluon.html.EM'>"
p4774
sS'redirect'
p4775
S'<function redirect>'
p4776
sS'FIELDSET'
p4777
S"<class 'gluon.html.FIELDSET'>"
p4778
sS'__builtins__'
p4779
S"{'ArithmeticError': <type 'exceptions.ArithmeticError'>, 'AssertionError': <type 'exceptions.AssertionError'>, 'AttributeError': <type 'exceptions.AttributeError'>, 'BaseException': <type 'exceptions.BaseException'>, 'BufferError': <type 'exceptions.BufferError'>, 'BytesWarning': <type 'exceptions.BytesWarning'>, 'DeprecationWarning': <type 'exceptions.DeprecationWarning'>, 'EOFError': <type 'exceptions.EOFError'>, 'Ellipsis': Ellipsis, 'EnvironmentError': <type 'exceptions.EnvironmentError'>, ...}"
p4780
sS'embed64'
p4781
S'<function embed64>'
p4782
sS'IS_LIST_OF'
p4783
S"<class 'gluon.validators.IS_LIST_OF'>"
p4784
sS'INPUT'
p4785
S"<class 'gluon.html.INPUT'>"
p4786
sS'EMBED'
p4787
S"<class 'gluon.html.EMBED'>"
p4788
sS'FORM'
p4789
S"<class 'gluon.html.FORM'>"
p4790
sS'width_content'
p4791
S"'100%'"
p4792
sS'H2'
p4793
S"<class 'gluon.html.H2'>"
p4794
sS'H3'
p4795
S"<class 'gluon.html.H3'>"
p4796
sS'BUTTON'
p4797
S"<class 'gluon.html.BUTTON'>"
p4798
sS'H1'
p4799
S"<class 'gluon.html.H1'>"
p4800
sS'H6'
p4801
S"<class 'gluon.html.H6'>"
p4802
sS'H4'
p4803
S"<class 'gluon.html.H4'>"
p4804
sS'H5'
p4805
S"<class 'gluon.html.H5'>"
p4806
sS'UL'
p4807
S"<class 'gluon.html.UL'>"
p4808
sS'IS_UPPER'
p4809
S"<class 'gluon.validators.IS_UPPER'>"
p4810
sS'xmlescape'
p4811
S'<function xmlescape>'
p4812
sS'IS_TIME'
p4813
S"<class 'gluon.validators.IS_TIME'>"
p4814
sS'OPTION'
p4815
S"<class 'gluon.html.OPTION'>"
p4816
sS'TITLE'
p4817
S"<class 'gluon.html.TITLE'>"
p4818
sS'CRYPT'
p4819
S"<class 'gluon.validators.CRYPT'>"
p4820
sS'IS_EMPTY_OR'
p4821
S"<class 'gluon.validators.IS_EMPTY_OR'>"
p4822
sS'MARKMIN'
p4823
S"<class 'gluon.html.MARKMIN'>"
p4824
sS'COL'
p4825
S"<class 'gluon.html.COL'>"
p4826
sS'service'
p4827
S'<gluon.tools.Service object>'
p4828
sS'SCRIPT'
p4829
S"<class 'gluon.html.SCRIPT'>"
p4830
sS'TABLE'
p4831
S"<class 'gluon.html.TABLE'>"
p4832
sS'IS_IPV4'
p4833
S"<class 'gluon.validators.IS_IPV4'>"
p4834
sS'IS_LENGTH'
p4835
S"<class 'gluon.validators.IS_LENGTH'>"
p4836
sS'XML'
p4837
S"<class 'gluon.html.XML'>"
p4838
sS'B'
S"<class 'gluon.html.B'>"
p4839
sS'IMG'
p4840
S"<class 'gluon.html.IMG'>"
p4841
sS'SQLTABLE'
p4842
S"<class 'gluon.sqlhtml.SQLTABLE'>"
p4843
sS'IS_MATCH'
p4844
S"<class 'gluon.validators.IS_MATCH'>"
p4845
sS'IS_ALPHANUMERIC'
p4846
S"<class 'gluon.validators.IS_ALPHANUMERIC'>"
p4847
sS'SPAN'
p4848
S"<class 'gluon.html.SPAN'>"
p4849
sS'IS_SLUG'
p4850
S"<class 'gluon.validators.IS_SLUG'>"
p4851
sS'CLEANUP'
p4852
S"<class 'gluon.validators.CLEANUP'>"
p4853
sS'IS_DATE'
p4854
S"<class 'gluon.validators.IS_DATE'>"
p4855
sS'IS_EMAIL'
p4856
S"<class 'gluon.validators.IS_EMAIL'>"
p4857
sS'IS_NOT_EMPTY'
p4858
S"<class 'gluon.validators.IS_NOT_EMPTY'>"
p4859
sg55
S"<Storage {'body': <cStringIO.StringO object at 0..._vars': <Storage {}>, 'post_vars': <Storage {}>}>"
p4860
sS'BEAUTIFY'
p4861
S"<class 'gluon.html.BEAUTIFY'>"
p4862
sS'TBODY'
p4863
S"<class 'gluon.html.TBODY'>"
p4864
sS'CAT'
p4865
S"<class 'gluon.html.CAT'>"
p4866
sS'Field'
p4867
S"<class 'gluon.dal.Field'>"
p4868
sS'DIV'
p4869
S"<class 'gluon.html.DIV'>"
p4870
sS'LEGEND'
p4871
S"<class 'gluon.html.LEGEND'>"
p4872
sS'COLGROUP'
p4873
S"<class 'gluon.html.COLGROUP'>"
p4874
sS'DAL'
p4875
S"<class 'gluon.dal.DAL'>"
p4876
sS'TT'
p4877
S"<class 'gluon.html.TT'>"
p4878
sS'TR'
p4879
S"<class 'gluon.html.TR'>"
p4880
sS'LI'
p4881
S"<class 'gluon.html.LI'>"
p4882
sS'right_sidebar_enabled'
p4883
g99
sS'IFRAME'
p4884
S"<class 'gluon.html.IFRAME'>"
p4885
sS'TD'
p4886
S"<class 'gluon.html.TD'>"
p4887
sS'PluginManager'
p4888
S"<class 'gluon.tools.PluginManager'>"
p4889
sS'IS_URL'
p4890
S"<class 'gluon.validators.IS_URL'>"
p4891
sS'A'
S"<class 'gluon.html.A'>"
p4892
sS'STYLE'
p4893
S"<class 'gluon.html.STYLE'>"
p4894
sS'IS_DATETIME_IN_RANGE'
p4895
S"<class 'gluon.validators.IS_DATETIME_IN_RANGE'>"
p4896
sS'populate'
p4897
S'<function populate>'
p4898
sS'I'
S"<class 'gluon.html.I'>"
p4899
sS'crud'
p4900
S'<gluon.tools.Crud object>'
p4901
sS'right_sidebar_style'
p4902
S'\'style="display: none;"\''
p4903
sS'IS_NOT_IN_DB'
p4904
S"<class 'gluon.validators.IS_NOT_IN_DB'>"
p4905
sg3515
S"<Storage {'body': <cStringIO.StringO object at 0...x40576e0>, 'view': 'default/grades_report.html'}>"
p4906
sS'THEAD'
p4907
S"<class 'gluon.html.THEAD'>"
p4908
sS'IS_NULL_OR'
p4909
S"<class 'gluon.validators.IS_EMPTY_OR'>"
p4910
sS'left_sidebar_style'
p4911
S'\'style="display: none;"\''
p4912
sS'IS_FLOAT_IN_RANGE'
p4913
S"<class 'gluon.validators.IS_FLOAT_IN_RANGE'>"
p4914
sS'IS_EXPR'
p4915
S"<class 'gluon.validators.IS_EXPR'>"
p4916
sS'T'
S'<gluon.languages.translator object>'
p4917
sS'IS_IN_SET'
p4918
S"<class 'gluon.validators.IS_IN_SET'>"
p4919
sS'students'
p4920
S"{11: 'Scott, Ian', 12: 'Man, Jacquelyn', 13: 'Sequeira, Adrianne', 14: 'Johnston, Dianne', 15: 'Kwok, Kam', 16: 'Chen, Gary', 17: 'Tam, Derek', 18: 'ADHIKARY, RICHARD', 19: 'asamoah, david', 20: 'Seto, Michael', ...}"
p4921
sS'IS_UPLOAD_FILENAME'
p4922
S"<class 'gluon.validators.IS_UPLOAD_FILENAME'>"
p4923
sS'style_content'
p4924
S'\'style="width: 100%"\''
p4925
sS'IS_DECIMAL_IN_RANGE'
p4926
S"<class 'gluon.validators.IS_DECIMAL_IN_RANGE'>"
p4927
sssS'traceback'
p4928
S'Traceback (most recent call last):\n  File "/home/ian/web2py/gluon/restricted.py", line 194, in restricted\n    exec ccode in environment\n  File "/home/ian/web2py/applications/grades/views/default/grades_report.html", line 82, in <module>\nValueError: too many values to unpack\n'
p4929
s.