(dp1
S'output'
p2
S''
sS'layer'
p3
S'/home/ian/web2py/applications/grades/controllers/default.py'
p4
sS'code'
p5
S"# -*- coding: utf-8 -*-\nif 0:\n    from gluon import current, SQLFORM, redirect, A, URL\n    from gluon.tools import Auth, Crud\n    from gluon.dal import DAL\n    db = DAL()\n    auth = Auth()\n    response = current.response\n    service = current.service\n    request = current.request\n    session = current.session\n    crud = Crud()\n    \nimport datetime\n\n### required - do no delete\ndef user(): return dict(form=auth())\ndef download(): return response.download(request,db)\ndef call(): return service()\n### end requires\ndef index():\n    courses = db(db.courses.id > 0).select()\n    return dict(courses = courses)\n\ndef error():\n    return dict()\n\n@auth.requires_membership(role='administrators')\ndef grades_manage():\n    form = SQLFORM.smartgrid(db.grades,onupdate=auth.archive)\n    return locals()\n\n@auth.requires_membership(role='administrators')\ndef classes_manage():\n    form = SQLFORM.smartgrid(db.courses,onupdate=auth.archive)\n    return locals()\n\n@auth.requires_login()\ndef create_grade():\n    form = SQLFORM(db.grades, separator='', fields=['name', 'course', 'grade', 'class_date'], labels={'name':'Student receiving grade'})\n    if form.process().accepted:\n        response.flash = 'Thanks! The grade was recorded.'\n    the_user = db(db.auth_user.id == auth.user_id).select()\n    fn = the_user.first_name\n    cancel_button = A('cancel', _href=URL('index'), _class='cancel')\n    return dict(form = form, cancel_button = cancel_button, fn = fn)\n\n@auth.requires_membership(role='administrators')\ndef grades_report():\n    student_list = db(db.auth_user.id > 0).select()\n    students = {}\n    for s in student_list:\n        sindex = s.id\n        slast = s.last_name\n        sfirst = s.first_name\n        students[sindex] = slast + ', ' + sfirst\n    u = request.args[0]\n    n = db.auth_user[u]\n    student = n.last_name + ', ' + n.first_name\n    gradelist = db(db.grades.name == u).select()\n    session.debug = request.args[0]\n    g = {}\n    for r in gradelist:\n        the_date = r.class_date\n        c = db(db.courses.id == r.course).select().first()\n        the_course = c.course_name\n        if the_course in g:\n            dates = g[the_course]\n            if the_date in dates:\n                dates[the_date].append(r.grade)\n            else:\n                dates[the_date] = [r.grade]                \n        else:\n            l = [r.grade]\n            the_date = r.class_date\n            g[r.course] = dict(the_date = l)\n    return dict(grades = g, students = students, student = student)                \nresponse._vars=response._caller(create_grade)\n"
p6
sS'snapshot'
p7
(dp8
S'exception'
p9
(dp10
S'__hash__'
p11
S"<method-wrapper '__hash__' of exceptions.AttributeError object>"
p12
sS'__setattr__'
p13
S"<method-wrapper '__setattr__' of exceptions.AttributeError object>"
p14
sS'__reduce_ex__'
p15
S'<built-in method __reduce_ex__ of exceptions.AttributeError object>'
p16
sS'__getslice__'
p17
S"<method-wrapper '__getslice__' of exceptions.AttributeError object>"
p18
sS'__getitem__'
p19
S"<method-wrapper '__getitem__' of exceptions.AttributeError object>"
p20
sS'__setstate__'
p21
S'<built-in method __setstate__ of exceptions.AttributeError object>'
p22
sS'args'
p23
S'("\'Rows\' object has no attribute \'first_name\'",)'
p24
sS'__reduce__'
p25
S'<built-in method __reduce__ of exceptions.AttributeError object>'
p26
sS'__str__'
p27
S"<method-wrapper '__str__' of exceptions.AttributeError object>"
p28
sS'__format__'
p29
S'<built-in method __format__ of exceptions.AttributeError object>'
p30
sS'__getattribute__'
p31
S"<method-wrapper '__getattribute__' of exceptions.AttributeError object>"
p32
sS'__class__'
p33
S"<type 'exceptions.AttributeError'>"
p34
sS'__unicode__'
p35
S'<built-in method __unicode__ of exceptions.AttributeError object>'
p36
sS'__delattr__'
p37
S"<method-wrapper '__delattr__' of exceptions.AttributeError object>"
p38
sS'__subclasshook__'
p39
S'<built-in method __subclasshook__ of type object>'
p40
sS'__repr__'
p41
S"<method-wrapper '__repr__' of exceptions.AttributeError object>"
p42
sS'__dict__'
p43
S'{}'
p44
sS'__sizeof__'
p45
S'<built-in method __sizeof__ of exceptions.AttributeError object>'
p46
sS'__doc__'
p47
S"'Attribute not found.'"
p48
sS'__init__'
p49
S"<method-wrapper '__init__' of exceptions.AttributeError object>"
p50
sS'__new__'
p51
S'<built-in method __new__ of type object>'
p52
ssS'evalue'
p53
S"'Rows' object has no attribute 'first_name'"
p54
sS'request'
p55
ccopy_reg
_reconstructor
p56
(cgluon.html
BEAUTIFY
p57
c__builtin__
object
p58
NtRp59
(dp60
S'attributes'
p61
(dp62
sS'components'
p63
(lp64
g56
(cgluon.html
TABLE
p65
g58
NtRp66
(dp67
g61
(dp68
S'level'
p69
I5
ssS'parent'
p70
Nsg63
(lp71
g56
(cgluon.html
TR
p72
g58
NtRp73
(dp74
g61
(dp75
sg70
g66
sg63
(lp76
g56
(cgluon.html
TD
p77
g58
NtRp78
(dp79
g61
(dp80
S'_style'
p81
S'font-weight:bold;'
p82
ssg70
g73
sg63
(lp83
S'ajax'
p84
asbag56
(g77
g58
NtRp85
(dp86
g61
(dp87
S'_valign'
p88
S'top'
p89
ssg70
g73
sg63
(lp90
S':'
asbag56
(g77
g58
NtRp91
(dp92
g61
(dp93
sg70
g73
sg63
(lp94
g56
(g57
g58
NtRp95
(dp96
g61
(dp97
g69
I5
ssg70
g91
sg63
(lp98
S'False'
p99
asbasbasbag56
(g72
g58
NtRp100
(dp101
g61
(dp102
sg70
g66
sg63
(lp103
g56
(g77
g58
NtRp104
(dp105
g61
(dp106
g81
g82
ssg70
g100
sg63
(lp107
S'application'
p108
asbag56
(g77
g58
NtRp109
(dp110
g61
(dp111
g88
g89
ssg70
g100
sg63
(lp112
S':'
asbag56
(g77
g58
NtRp113
(dp114
g61
(dp115
sg70
g100
sg63
(lp116
g56
(g57
g58
NtRp117
(dp118
g61
(dp119
g69
I5
ssg70
g113
sg63
(lp120
S'grades'
p121
asbasbasbag56
(g72
g58
NtRp122
(dp123
g61
(dp124
sg70
g66
sg63
(lp125
g56
(g77
g58
NtRp126
(dp127
g61
(dp128
g81
g82
ssg70
g122
sg63
(lp129
g23
asbag56
(g77
g58
NtRp130
(dp131
g61
(dp132
g88
g89
ssg70
g122
sg63
(lp133
S':'
asbag56
(g77
g58
NtRp134
(dp135
g61
(dp136
sg70
g122
sg63
(lp137
g56
(g57
g58
NtRp138
(dp139
g61
(dp140
g69
I5
ssg70
g134
sg63
(lp141
g56
(g65
g58
NtRp142
(dp143
g61
(dp144
g69
I4
ssg70
Nsg63
(lp145
g56
(g72
g58
NtRp146
(dp147
g61
(dp148
sg70
g142
sg63
(lp149
g56
(g77
g58
NtRp150
(dp151
g61
(dp152
sg70
g146
sg63
(lp153
g56
(g57
g58
NtRp154
(dp155
g61
(dp156
g69
I4
ssg70
g150
sg63
(lp157
S'1'
asbasbasbasbasbasbasbag56
(g72
g58
NtRp158
(dp159
g61
(dp160
sg70
g66
sg63
(lp161
g56
(g77
g58
NtRp162
(dp163
g61
(dp164
g81
g82
ssg70
g158
sg63
(lp165
S'body'
p166
asbag56
(g77
g58
NtRp167
(dp168
g61
(dp169
g88
g89
ssg70
g158
sg63
(lp170
S':'
asbag56
(g77
g58
NtRp171
(dp172
g61
(dp173
sg70
g158
sg63
(lp174
g56
(g57
g58
NtRp175
(dp176
g61
(dp177
g69
I5
ssg70
g171
sg63
(lp178
S'<cStringIO.StringO object at 0x2e10f48>'
p179
asbasbasbag56
(g72
g58
NtRp180
(dp181
g61
(dp182
sg70
g66
sg63
(lp183
g56
(g77
g58
NtRp184
(dp185
g61
(dp186
g81
g82
ssg70
g180
sg63
(lp187
S'client'
p188
asbag56
(g77
g58
NtRp189
(dp190
g61
(dp191
g88
g89
ssg70
g180
sg63
(lp192
S':'
asbag56
(g77
g58
NtRp193
(dp194
g61
(dp195
sg70
g180
sg63
(lp196
g56
(g57
g58
NtRp197
(dp198
g61
(dp199
g69
I5
ssg70
g193
sg63
(lp200
S'127.0.0.1'
p201
asbasbasbag56
(g72
g58
NtRp202
(dp203
g61
(dp204
sg70
g66
sg63
(lp205
g56
(g77
g58
NtRp206
(dp207
g61
(dp208
g81
g82
ssg70
g202
sg63
(lp209
S'controller'
p210
asbag56
(g77
g58
NtRp211
(dp212
g61
(dp213
g88
g89
ssg70
g202
sg63
(lp214
S':'
asbag56
(g77
g58
NtRp215
(dp216
g61
(dp217
sg70
g202
sg63
(lp218
g56
(g57
g58
NtRp219
(dp220
g61
(dp221
g69
I5
ssg70
g215
sg63
(lp222
S'default'
p223
asbasbasbag56
(g72
g58
NtRp224
(dp225
g61
(dp226
sg70
g66
sg63
(lp227
g56
(g77
g58
NtRp228
(dp229
g61
(dp230
g81
g82
ssg70
g224
sg63
(lp231
S'cookies'
p232
asbag56
(g77
g58
NtRp233
(dp234
g61
(dp235
g88
g89
ssg70
g224
sg63
(lp236
S':'
asbag56
(g77
g58
NtRp237
(dp238
g61
(dp239
sg70
g224
sg63
(lp240
g56
(g57
g58
NtRp241
(dp242
g61
(dp243
g69
I5
ssg70
g237
sg63
(lp244
g56
(g65
g58
NtRp245
(dp246
g61
(dp247
g69
I4
ssg70
Nsg63
(lp248
g56
(g72
g58
NtRp249
(dp250
g61
(dp251
sg70
g245
sg63
(lp252
g56
(g77
g58
NtRp253
(dp254
g61
(dp255
g81
g82
ssg70
g249
sg63
(lp256
S'session_id_admin'
p257
asbag56
(g77
g58
NtRp258
(dp259
g61
(dp260
g88
g89
ssg70
g249
sg63
(lp261
S':'
asbag56
(g77
g58
NtRp262
(dp263
g61
(dp264
sg70
g249
sg63
(lp265
g56
(g57
g58
NtRp266
(dp267
g61
(dp268
g69
I4
ssg70
g262
sg63
(lp269
g56
(g65
g58
NtRp270
(dp271
g61
(dp272
g69
I3
ssg70
Nsg63
(lp273
g56
(g72
g58
NtRp274
(dp275
g61
(dp276
sg70
g270
sg63
(lp277
g56
(g77
g58
NtRp278
(dp279
g61
(dp280
g81
g82
ssg70
g274
sg63
(lp281
S'comment'
p282
asbag56
(g77
g58
NtRp283
(dp284
g61
(dp285
g88
g89
ssg70
g274
sg63
(lp286
S':'
asbag56
(g77
g58
NtRp287
(dp288
g61
(dp289
sg70
g274
sg63
(lp290
g56
(g57
g58
NtRp291
(dp292
g61
(dp293
g69
I3
ssg70
g287
sg63
(lp294
S''
asbasbasbag56
(g72
g58
NtRp295
(dp296
g61
(dp297
sg70
g270
sg63
(lp298
g56
(g77
g58
NtRp299
(dp300
g61
(dp301
g81
g82
ssg70
g295
sg63
(lp302
S'domain'
p303
asbag56
(g77
g58
NtRp304
(dp305
g61
(dp306
g88
g89
ssg70
g295
sg63
(lp307
S':'
asbag56
(g77
g58
NtRp308
(dp309
g61
(dp310
sg70
g295
sg63
(lp311
g56
(g57
g58
NtRp312
(dp313
g61
(dp314
g69
I3
ssg70
g308
sg63
(lp315
S''
asbasbasbag56
(g72
g58
NtRp316
(dp317
g61
(dp318
sg70
g270
sg63
(lp319
g56
(g77
g58
NtRp320
(dp321
g61
(dp322
g81
g82
ssg70
g316
sg63
(lp323
S'expires'
p324
asbag56
(g77
g58
NtRp325
(dp326
g61
(dp327
g88
g89
ssg70
g316
sg63
(lp328
S':'
asbag56
(g77
g58
NtRp329
(dp330
g61
(dp331
sg70
g316
sg63
(lp332
g56
(g57
g58
NtRp333
(dp334
g61
(dp335
g69
I3
ssg70
g329
sg63
(lp336
S''
asbasbasbag56
(g72
g58
NtRp337
(dp338
g61
(dp339
sg70
g270
sg63
(lp340
g56
(g77
g58
NtRp341
(dp342
g61
(dp343
g81
g82
ssg70
g337
sg63
(lp344
S'httponly'
p345
asbag56
(g77
g58
NtRp346
(dp347
g61
(dp348
g88
g89
ssg70
g337
sg63
(lp349
S':'
asbag56
(g77
g58
NtRp350
(dp351
g61
(dp352
sg70
g337
sg63
(lp353
g56
(g57
g58
NtRp354
(dp355
g61
(dp356
g69
I3
ssg70
g350
sg63
(lp357
S''
asbasbasbag56
(g72
g58
NtRp358
(dp359
g61
(dp360
sg70
g270
sg63
(lp361
g56
(g77
g58
NtRp362
(dp363
g61
(dp364
g81
g82
ssg70
g358
sg63
(lp365
S'max-age'
p366
asbag56
(g77
g58
NtRp367
(dp368
g61
(dp369
g88
g89
ssg70
g358
sg63
(lp370
S':'
asbag56
(g77
g58
NtRp371
(dp372
g61
(dp373
sg70
g358
sg63
(lp374
g56
(g57
g58
NtRp375
(dp376
g61
(dp377
g69
I3
ssg70
g371
sg63
(lp378
S''
asbasbasbag56
(g72
g58
NtRp379
(dp380
g61
(dp381
sg70
g270
sg63
(lp382
g56
(g77
g58
NtRp383
(dp384
g61
(dp385
g81
g82
ssg70
g379
sg63
(lp386
S'path'
p387
asbag56
(g77
g58
NtRp388
(dp389
g61
(dp390
g88
g89
ssg70
g379
sg63
(lp391
S':'
asbag56
(g77
g58
NtRp392
(dp393
g61
(dp394
sg70
g379
sg63
(lp395
g56
(g57
g58
NtRp396
(dp397
g61
(dp398
g69
I3
ssg70
g392
sg63
(lp399
S''
asbasbasbag56
(g72
g58
NtRp400
(dp401
g61
(dp402
sg70
g270
sg63
(lp403
g56
(g77
g58
NtRp404
(dp405
g61
(dp406
g81
g82
ssg70
g400
sg63
(lp407
S'secure'
p408
asbag56
(g77
g58
NtRp409
(dp410
g61
(dp411
g88
g89
ssg70
g400
sg63
(lp412
S':'
asbag56
(g77
g58
NtRp413
(dp414
g61
(dp415
sg70
g400
sg63
(lp416
g56
(g57
g58
NtRp417
(dp418
g61
(dp419
g69
I3
ssg70
g413
sg63
(lp420
S''
asbasbasbag56
(g72
g58
NtRp421
(dp422
g61
(dp423
sg70
g270
sg63
(lp424
g56
(g77
g58
NtRp425
(dp426
g61
(dp427
g81
g82
ssg70
g421
sg63
(lp428
S'version'
p429
asbag56
(g77
g58
NtRp430
(dp431
g61
(dp432
g88
g89
ssg70
g421
sg63
(lp433
S':'
asbag56
(g77
g58
NtRp434
(dp435
g61
(dp436
sg70
g421
sg63
(lp437
g56
(g57
g58
NtRp438
(dp439
g61
(dp440
g69
I3
ssg70
g434
sg63
(lp441
S''
asbasbasbasbasbasbasbag56
(g72
g58
NtRp442
(dp443
g61
(dp444
sg70
g245
sg63
(lp445
g56
(g77
g58
NtRp446
(dp447
g61
(dp448
g81
g82
ssg70
g442
sg63
(lp449
S'session_id_grades'
p450
asbag56
(g77
g58
NtRp451
(dp452
g61
(dp453
g88
g89
ssg70
g442
sg63
(lp454
S':'
asbag56
(g77
g58
NtRp455
(dp456
g61
(dp457
sg70
g442
sg63
(lp458
g56
(g57
g58
NtRp459
(dp460
g61
(dp461
g69
I4
ssg70
g455
sg63
(lp462
g56
(g65
g58
NtRp463
(dp464
g61
(dp465
g69
I3
ssg70
Nsg63
(lp466
g56
(g72
g58
NtRp467
(dp468
g61
(dp469
sg70
g463
sg63
(lp470
g56
(g77
g58
NtRp471
(dp472
g61
(dp473
g81
g82
ssg70
g467
sg63
(lp474
g282
asbag56
(g77
g58
NtRp475
(dp476
g61
(dp477
g88
g89
ssg70
g467
sg63
(lp478
S':'
asbag56
(g77
g58
NtRp479
(dp480
g61
(dp481
sg70
g467
sg63
(lp482
g56
(g57
g58
NtRp483
(dp484
g61
(dp485
g69
I3
ssg70
g479
sg63
(lp486
S''
asbasbasbag56
(g72
g58
NtRp487
(dp488
g61
(dp489
sg70
g463
sg63
(lp490
g56
(g77
g58
NtRp491
(dp492
g61
(dp493
g81
g82
ssg70
g487
sg63
(lp494
g303
asbag56
(g77
g58
NtRp495
(dp496
g61
(dp497
g88
g89
ssg70
g487
sg63
(lp498
S':'
asbag56
(g77
g58
NtRp499
(dp500
g61
(dp501
sg70
g487
sg63
(lp502
g56
(g57
g58
NtRp503
(dp504
g61
(dp505
g69
I3
ssg70
g499
sg63
(lp506
S''
asbasbasbag56
(g72
g58
NtRp507
(dp508
g61
(dp509
sg70
g463
sg63
(lp510
g56
(g77
g58
NtRp511
(dp512
g61
(dp513
g81
g82
ssg70
g507
sg63
(lp514
g324
asbag56
(g77
g58
NtRp515
(dp516
g61
(dp517
g88
g89
ssg70
g507
sg63
(lp518
S':'
asbag56
(g77
g58
NtRp519
(dp520
g61
(dp521
sg70
g507
sg63
(lp522
g56
(g57
g58
NtRp523
(dp524
g61
(dp525
g69
I3
ssg70
g519
sg63
(lp526
S''
asbasbasbag56
(g72
g58
NtRp527
(dp528
g61
(dp529
sg70
g463
sg63
(lp530
g56
(g77
g58
NtRp531
(dp532
g61
(dp533
g81
g82
ssg70
g527
sg63
(lp534
g345
asbag56
(g77
g58
NtRp535
(dp536
g61
(dp537
g88
g89
ssg70
g527
sg63
(lp538
S':'
asbag56
(g77
g58
NtRp539
(dp540
g61
(dp541
sg70
g527
sg63
(lp542
g56
(g57
g58
NtRp543
(dp544
g61
(dp545
g69
I3
ssg70
g539
sg63
(lp546
S''
asbasbasbag56
(g72
g58
NtRp547
(dp548
g61
(dp549
sg70
g463
sg63
(lp550
g56
(g77
g58
NtRp551
(dp552
g61
(dp553
g81
g82
ssg70
g547
sg63
(lp554
g366
asbag56
(g77
g58
NtRp555
(dp556
g61
(dp557
g88
g89
ssg70
g547
sg63
(lp558
S':'
asbag56
(g77
g58
NtRp559
(dp560
g61
(dp561
sg70
g547
sg63
(lp562
g56
(g57
g58
NtRp563
(dp564
g61
(dp565
g69
I3
ssg70
g559
sg63
(lp566
S''
asbasbasbag56
(g72
g58
NtRp567
(dp568
g61
(dp569
sg70
g463
sg63
(lp570
g56
(g77
g58
NtRp571
(dp572
g61
(dp573
g81
g82
ssg70
g567
sg63
(lp574
g387
asbag56
(g77
g58
NtRp575
(dp576
g61
(dp577
g88
g89
ssg70
g567
sg63
(lp578
S':'
asbag56
(g77
g58
NtRp579
(dp580
g61
(dp581
sg70
g567
sg63
(lp582
g56
(g57
g58
NtRp583
(dp584
g61
(dp585
g69
I3
ssg70
g579
sg63
(lp586
S''
asbasbasbag56
(g72
g58
NtRp587
(dp588
g61
(dp589
sg70
g463
sg63
(lp590
g56
(g77
g58
NtRp591
(dp592
g61
(dp593
g81
g82
ssg70
g587
sg63
(lp594
g408
asbag56
(g77
g58
NtRp595
(dp596
g61
(dp597
g88
g89
ssg70
g587
sg63
(lp598
S':'
asbag56
(g77
g58
NtRp599
(dp600
g61
(dp601
sg70
g587
sg63
(lp602
g56
(g57
g58
NtRp603
(dp604
g61
(dp605
g69
I3
ssg70
g599
sg63
(lp606
S''
asbasbasbag56
(g72
g58
NtRp607
(dp608
g61
(dp609
sg70
g463
sg63
(lp610
g56
(g77
g58
NtRp611
(dp612
g61
(dp613
g81
g82
ssg70
g607
sg63
(lp614
g429
asbag56
(g77
g58
NtRp615
(dp616
g61
(dp617
g88
g89
ssg70
g607
sg63
(lp618
S':'
asbag56
(g77
g58
NtRp619
(dp620
g61
(dp621
sg70
g607
sg63
(lp622
g56
(g57
g58
NtRp623
(dp624
g61
(dp625
g69
I3
ssg70
g619
sg63
(lp626
S''
asbasbasbasbasbasbasbag56
(g72
g58
NtRp627
(dp628
g61
(dp629
sg70
g245
sg63
(lp630
g56
(g77
g58
NtRp631
(dp632
g61
(dp633
g81
g82
ssg70
g627
sg63
(lp634
S'session_id_paideia'
p635
asbag56
(g77
g58
NtRp636
(dp637
g61
(dp638
g88
g89
ssg70
g627
sg63
(lp639
S':'
asbag56
(g77
g58
NtRp640
(dp641
g61
(dp642
sg70
g627
sg63
(lp643
g56
(g57
g58
NtRp644
(dp645
g61
(dp646
g69
I4
ssg70
g640
sg63
(lp647
g56
(g65
g58
NtRp648
(dp649
g61
(dp650
g69
I3
ssg70
Nsg63
(lp651
g56
(g72
g58
NtRp652
(dp653
g61
(dp654
sg70
g648
sg63
(lp655
g56
(g77
g58
NtRp656
(dp657
g61
(dp658
g81
g82
ssg70
g652
sg63
(lp659
g282
asbag56
(g77
g58
NtRp660
(dp661
g61
(dp662
g88
g89
ssg70
g652
sg63
(lp663
S':'
asbag56
(g77
g58
NtRp664
(dp665
g61
(dp666
sg70
g652
sg63
(lp667
g56
(g57
g58
NtRp668
(dp669
g61
(dp670
g69
I3
ssg70
g664
sg63
(lp671
S''
asbasbasbag56
(g72
g58
NtRp672
(dp673
g61
(dp674
sg70
g648
sg63
(lp675
g56
(g77
g58
NtRp676
(dp677
g61
(dp678
g81
g82
ssg70
g672
sg63
(lp679
g303
asbag56
(g77
g58
NtRp680
(dp681
g61
(dp682
g88
g89
ssg70
g672
sg63
(lp683
S':'
asbag56
(g77
g58
NtRp684
(dp685
g61
(dp686
sg70
g672
sg63
(lp687
g56
(g57
g58
NtRp688
(dp689
g61
(dp690
g69
I3
ssg70
g684
sg63
(lp691
S''
asbasbasbag56
(g72
g58
NtRp692
(dp693
g61
(dp694
sg70
g648
sg63
(lp695
g56
(g77
g58
NtRp696
(dp697
g61
(dp698
g81
g82
ssg70
g692
sg63
(lp699
g324
asbag56
(g77
g58
NtRp700
(dp701
g61
(dp702
g88
g89
ssg70
g692
sg63
(lp703
S':'
asbag56
(g77
g58
NtRp704
(dp705
g61
(dp706
sg70
g692
sg63
(lp707
g56
(g57
g58
NtRp708
(dp709
g61
(dp710
g69
I3
ssg70
g704
sg63
(lp711
S''
asbasbasbag56
(g72
g58
NtRp712
(dp713
g61
(dp714
sg70
g648
sg63
(lp715
g56
(g77
g58
NtRp716
(dp717
g61
(dp718
g81
g82
ssg70
g712
sg63
(lp719
g345
asbag56
(g77
g58
NtRp720
(dp721
g61
(dp722
g88
g89
ssg70
g712
sg63
(lp723
S':'
asbag56
(g77
g58
NtRp724
(dp725
g61
(dp726
sg70
g712
sg63
(lp727
g56
(g57
g58
NtRp728
(dp729
g61
(dp730
g69
I3
ssg70
g724
sg63
(lp731
S''
asbasbasbag56
(g72
g58
NtRp732
(dp733
g61
(dp734
sg70
g648
sg63
(lp735
g56
(g77
g58
NtRp736
(dp737
g61
(dp738
g81
g82
ssg70
g732
sg63
(lp739
g366
asbag56
(g77
g58
NtRp740
(dp741
g61
(dp742
g88
g89
ssg70
g732
sg63
(lp743
S':'
asbag56
(g77
g58
NtRp744
(dp745
g61
(dp746
sg70
g732
sg63
(lp747
g56
(g57
g58
NtRp748
(dp749
g61
(dp750
g69
I3
ssg70
g744
sg63
(lp751
S''
asbasbasbag56
(g72
g58
NtRp752
(dp753
g61
(dp754
sg70
g648
sg63
(lp755
g56
(g77
g58
NtRp756
(dp757
g61
(dp758
g81
g82
ssg70
g752
sg63
(lp759
g387
asbag56
(g77
g58
NtRp760
(dp761
g61
(dp762
g88
g89
ssg70
g752
sg63
(lp763
S':'
asbag56
(g77
g58
NtRp764
(dp765
g61
(dp766
sg70
g752
sg63
(lp767
g56
(g57
g58
NtRp768
(dp769
g61
(dp770
g69
I3
ssg70
g764
sg63
(lp771
S''
asbasbasbag56
(g72
g58
NtRp772
(dp773
g61
(dp774
sg70
g648
sg63
(lp775
g56
(g77
g58
NtRp776
(dp777
g61
(dp778
g81
g82
ssg70
g772
sg63
(lp779
g408
asbag56
(g77
g58
NtRp780
(dp781
g61
(dp782
g88
g89
ssg70
g772
sg63
(lp783
S':'
asbag56
(g77
g58
NtRp784
(dp785
g61
(dp786
sg70
g772
sg63
(lp787
g56
(g57
g58
NtRp788
(dp789
g61
(dp790
g69
I3
ssg70
g784
sg63
(lp791
S''
asbasbasbag56
(g72
g58
NtRp792
(dp793
g61
(dp794
sg70
g648
sg63
(lp795
g56
(g77
g58
NtRp796
(dp797
g61
(dp798
g81
g82
ssg70
g792
sg63
(lp799
g429
asbag56
(g77
g58
NtRp800
(dp801
g61
(dp802
g88
g89
ssg70
g792
sg63
(lp803
S':'
asbag56
(g77
g58
NtRp804
(dp805
g61
(dp806
sg70
g792
sg63
(lp807
g56
(g57
g58
NtRp808
(dp809
g61
(dp810
g69
I3
ssg70
g804
sg63
(lp811
S''
asbasbasbasbasbasbasbag56
(g72
g58
NtRp812
(dp813
g61
(dp814
sg70
g245
sg63
(lp815
g56
(g77
g58
NtRp816
(dp817
g61
(dp818
g81
g82
ssg70
g812
sg63
(lp819
S'session_id_welcome'
p820
asbag56
(g77
g58
NtRp821
(dp822
g61
(dp823
g88
g89
ssg70
g812
sg63
(lp824
S':'
asbag56
(g77
g58
NtRp825
(dp826
g61
(dp827
sg70
g812
sg63
(lp828
g56
(g57
g58
NtRp829
(dp830
g61
(dp831
g69
I4
ssg70
g825
sg63
(lp832
g56
(g65
g58
NtRp833
(dp834
g61
(dp835
g69
I3
ssg70
Nsg63
(lp836
g56
(g72
g58
NtRp837
(dp838
g61
(dp839
sg70
g833
sg63
(lp840
g56
(g77
g58
NtRp841
(dp842
g61
(dp843
g81
g82
ssg70
g837
sg63
(lp844
g282
asbag56
(g77
g58
NtRp845
(dp846
g61
(dp847
g88
g89
ssg70
g837
sg63
(lp848
S':'
asbag56
(g77
g58
NtRp849
(dp850
g61
(dp851
sg70
g837
sg63
(lp852
g56
(g57
g58
NtRp853
(dp854
g61
(dp855
g69
I3
ssg70
g849
sg63
(lp856
S''
asbasbasbag56
(g72
g58
NtRp857
(dp858
g61
(dp859
sg70
g833
sg63
(lp860
g56
(g77
g58
NtRp861
(dp862
g61
(dp863
g81
g82
ssg70
g857
sg63
(lp864
g303
asbag56
(g77
g58
NtRp865
(dp866
g61
(dp867
g88
g89
ssg70
g857
sg63
(lp868
S':'
asbag56
(g77
g58
NtRp869
(dp870
g61
(dp871
sg70
g857
sg63
(lp872
g56
(g57
g58
NtRp873
(dp874
g61
(dp875
g69
I3
ssg70
g869
sg63
(lp876
S''
asbasbasbag56
(g72
g58
NtRp877
(dp878
g61
(dp879
sg70
g833
sg63
(lp880
g56
(g77
g58
NtRp881
(dp882
g61
(dp883
g81
g82
ssg70
g877
sg63
(lp884
g324
asbag56
(g77
g58
NtRp885
(dp886
g61
(dp887
g88
g89
ssg70
g877
sg63
(lp888
S':'
asbag56
(g77
g58
NtRp889
(dp890
g61
(dp891
sg70
g877
sg63
(lp892
g56
(g57
g58
NtRp893
(dp894
g61
(dp895
g69
I3
ssg70
g889
sg63
(lp896
S''
asbasbasbag56
(g72
g58
NtRp897
(dp898
g61
(dp899
sg70
g833
sg63
(lp900
g56
(g77
g58
NtRp901
(dp902
g61
(dp903
g81
g82
ssg70
g897
sg63
(lp904
g345
asbag56
(g77
g58
NtRp905
(dp906
g61
(dp907
g88
g89
ssg70
g897
sg63
(lp908
S':'
asbag56
(g77
g58
NtRp909
(dp910
g61
(dp911
sg70
g897
sg63
(lp912
g56
(g57
g58
NtRp913
(dp914
g61
(dp915
g69
I3
ssg70
g909
sg63
(lp916
S''
asbasbasbag56
(g72
g58
NtRp917
(dp918
g61
(dp919
sg70
g833
sg63
(lp920
g56
(g77
g58
NtRp921
(dp922
g61
(dp923
g81
g82
ssg70
g917
sg63
(lp924
g366
asbag56
(g77
g58
NtRp925
(dp926
g61
(dp927
g88
g89
ssg70
g917
sg63
(lp928
S':'
asbag56
(g77
g58
NtRp929
(dp930
g61
(dp931
sg70
g917
sg63
(lp932
g56
(g57
g58
NtRp933
(dp934
g61
(dp935
g69
I3
ssg70
g929
sg63
(lp936
S''
asbasbasbag56
(g72
g58
NtRp937
(dp938
g61
(dp939
sg70
g833
sg63
(lp940
g56
(g77
g58
NtRp941
(dp942
g61
(dp943
g81
g82
ssg70
g937
sg63
(lp944
g387
asbag56
(g77
g58
NtRp945
(dp946
g61
(dp947
g88
g89
ssg70
g937
sg63
(lp948
S':'
asbag56
(g77
g58
NtRp949
(dp950
g61
(dp951
sg70
g937
sg63
(lp952
g56
(g57
g58
NtRp953
(dp954
g61
(dp955
g69
I3
ssg70
g949
sg63
(lp956
S''
asbasbasbag56
(g72
g58
NtRp957
(dp958
g61
(dp959
sg70
g833
sg63
(lp960
g56
(g77
g58
NtRp961
(dp962
g61
(dp963
g81
g82
ssg70
g957
sg63
(lp964
g408
asbag56
(g77
g58
NtRp965
(dp966
g61
(dp967
g88
g89
ssg70
g957
sg63
(lp968
S':'
asbag56
(g77
g58
NtRp969
(dp970
g61
(dp971
sg70
g957
sg63
(lp972
g56
(g57
g58
NtRp973
(dp974
g61
(dp975
g69
I3
ssg70
g969
sg63
(lp976
S''
asbasbasbag56
(g72
g58
NtRp977
(dp978
g61
(dp979
sg70
g833
sg63
(lp980
g56
(g77
g58
NtRp981
(dp982
g61
(dp983
g81
g82
ssg70
g977
sg63
(lp984
g429
asbag56
(g77
g58
NtRp985
(dp986
g61
(dp987
g88
g89
ssg70
g977
sg63
(lp988
S':'
asbag56
(g77
g58
NtRp989
(dp990
g61
(dp991
sg70
g977
sg63
(lp992
g56
(g57
g58
NtRp993
(dp994
g61
(dp995
g69
I3
ssg70
g989
sg63
(lp996
S''
asbasbasbasbasbasbasbasbasbasbasbag56
(g72
g58
NtRp997
(dp998
g61
(dp999
sg70
g66
sg63
(lp1000
g56
(g77
g58
NtRp1001
(dp1002
g61
(dp1003
g81
g82
ssg70
g997
sg63
(lp1004
S'env'
p1005
asbag56
(g77
g58
NtRp1006
(dp1007
g61
(dp1008
g88
g89
ssg70
g997
sg63
(lp1009
S':'
asbag56
(g77
g58
NtRp1010
(dp1011
g61
(dp1012
sg70
g997
sg63
(lp1013
g56
(g57
g58
NtRp1014
(dp1015
g61
(dp1016
g69
I5
ssg70
g1010
sg63
(lp1017
g56
(g65
g58
NtRp1018
(dp1019
g61
(dp1020
g69
I4
ssg70
Nsg63
(lp1021
g56
(g72
g58
NtRp1022
(dp1023
g61
(dp1024
sg70
g1018
sg63
(lp1025
g56
(g77
g58
NtRp1026
(dp1027
g61
(dp1028
g81
g82
ssg70
g1022
sg63
(lp1029
S'app_folders'
p1030
asbag56
(g77
g58
NtRp1031
(dp1032
g61
(dp1033
g88
g89
ssg70
g1022
sg63
(lp1034
S':'
asbag56
(g77
g58
NtRp1035
(dp1036
g61
(dp1037
sg70
g1022
sg63
(lp1038
g56
(g57
g58
NtRp1039
(dp1040
g61
(dp1041
g69
I4
ssg70
g1035
sg63
(lp1042
S"set(['/home/ian/web2py/applications/welcome/', '/home/ian/web2py/applications/grades/', '/home/ian/web2py/applications/admin/'])"
p1043
asbasbasbag56
(g72
g58
NtRp1044
(dp1045
g61
(dp1046
sg70
g1018
sg63
(lp1047
g56
(g77
g58
NtRp1048
(dp1049
g61
(dp1050
g81
g82
ssg70
g1044
sg63
(lp1051
S'applications_parent'
p1052
asbag56
(g77
g58
NtRp1053
(dp1054
g61
(dp1055
g88
g89
ssg70
g1044
sg63
(lp1056
S':'
asbag56
(g77
g58
NtRp1057
(dp1058
g61
(dp1059
sg70
g1044
sg63
(lp1060
g56
(g57
g58
NtRp1061
(dp1062
g61
(dp1063
g69
I4
ssg70
g1057
sg63
(lp1064
S'/home/ian/web2py'
p1065
asbasbasbag56
(g72
g58
NtRp1066
(dp1067
g61
(dp1068
sg70
g1018
sg63
(lp1069
g56
(g77
g58
NtRp1070
(dp1071
g61
(dp1072
g81
g82
ssg70
g1066
sg63
(lp1073
S'cmd_args'
p1074
asbag56
(g77
g58
NtRp1075
(dp1076
g61
(dp1077
g88
g89
ssg70
g1066
sg63
(lp1078
S':'
asbag56
(g77
g58
NtRp1079
(dp1080
g61
(dp1081
sg70
g1066
sg63
(lp1082
g56
(g57
g58
NtRp1083
(dp1084
g61
(dp1085
g69
I4
ssg70
g1079
sg63
(lp1086
g56
(g65
g58
NtRp1087
(dp1088
g61
(dp1089
g69
I3
ssg70
Nsg63
(lp1090
sbasbasbasbag56
(g72
g58
NtRp1091
(dp1092
g61
(dp1093
sg70
g1018
sg63
(lp1094
g56
(g77
g58
NtRp1095
(dp1096
g61
(dp1097
g81
g82
ssg70
g1091
sg63
(lp1098
S'cmd_options'
p1099
asbag56
(g77
g58
NtRp1100
(dp1101
g61
(dp1102
g88
g89
ssg70
g1091
sg63
(lp1103
S':'
asbag56
(g77
g58
NtRp1104
(dp1105
g61
(dp1106
sg70
g1091
sg63
(lp1107
g56
(g57
g58
NtRp1108
(dp1109
g61
(dp1110
g69
I4
ssg70
g1104
sg63
(lp1111
S"<Values at 0x1ffe758: {'verbose': False, 'ip': '127.0.0.1', 'shutdown_timeout': 5, 'taskbar': False, 'nocron': False, 'pid_filename': 'httpserver.pid', 'maxthreads': None, 'softcron': False, 'server_name': 'uriel', 'bpython': False, 'nogui': False, 'port': 8000, 'extcron': False, 'debuglevel': 30, 'test': None, 'folder': '/home/ian/web2py', 'config': '', 'import_models': False, 'winservice': '', 'shell': None, 'run': '', 'log_filename': 'httpserver.log', 'args': [''], 'ssl_ca_certificate': None, 'scheduler': None, 'profiler_filename': None, 'ssl_private_key': '', 'password': '<ask>', 'request_queue_size': 5, 'ssl_certificate': '', 'cronjob': False, 'plain': False, 'quiet': False, 'interfaces': None, 'minthreads': None, 'timeout': 10, 'numthreads': None, 'nobanner': False}>"
p1112
asbasbasbag56
(g72
g58
NtRp1113
(dp1114
g61
(dp1115
sg70
g1018
sg63
(lp1116
g56
(g77
g58
NtRp1117
(dp1118
g61
(dp1119
g81
g82
ssg70
g1113
sg63
(lp1120
S'db_sessions'
p1121
asbag56
(g77
g58
NtRp1122
(dp1123
g61
(dp1124
g88
g89
ssg70
g1113
sg63
(lp1125
S':'
asbag56
(g77
g58
NtRp1126
(dp1127
g61
(dp1128
sg70
g1113
sg63
(lp1129
g56
(g57
g58
NtRp1130
(dp1131
g61
(dp1132
g69
I4
ssg70
g1126
sg63
(lp1133
S'set([])'
p1134
asbasbasbag56
(g72
g58
NtRp1135
(dp1136
g61
(dp1137
sg70
g1018
sg63
(lp1138
g56
(g77
g58
NtRp1139
(dp1140
g61
(dp1141
g81
g82
ssg70
g1135
sg63
(lp1142
S'debugging'
p1143
asbag56
(g77
g58
NtRp1144
(dp1145
g61
(dp1146
g88
g89
ssg70
g1135
sg63
(lp1147
S':'
asbag56
(g77
g58
NtRp1148
(dp1149
g61
(dp1150
sg70
g1135
sg63
(lp1151
g56
(g57
g58
NtRp1152
(dp1153
g61
(dp1154
g69
I4
ssg70
g1148
sg63
(lp1155
g99
asbasbasbag56
(g72
g58
NtRp1156
(dp1157
g61
(dp1158
sg70
g1018
sg63
(lp1159
g56
(g77
g58
NtRp1160
(dp1161
g61
(dp1162
g81
g82
ssg70
g1156
sg63
(lp1163
S'gluon_parent'
p1164
asbag56
(g77
g58
NtRp1165
(dp1166
g61
(dp1167
g88
g89
ssg70
g1156
sg63
(lp1168
S':'
asbag56
(g77
g58
NtRp1169
(dp1170
g61
(dp1171
sg70
g1156
sg63
(lp1172
g56
(g57
g58
NtRp1173
(dp1174
g61
(dp1175
g69
I4
ssg70
g1169
sg63
(lp1176
S'/home/ian/web2py'
p1177
asbasbasbag56
(g72
g58
NtRp1178
(dp1179
g61
(dp1180
sg70
g1018
sg63
(lp1181
g56
(g77
g58
NtRp1182
(dp1183
g61
(dp1184
g81
g82
ssg70
g1178
sg63
(lp1185
S'http_accept'
p1186
asbag56
(g77
g58
NtRp1187
(dp1188
g61
(dp1189
g88
g89
ssg70
g1178
sg63
(lp1190
S':'
asbag56
(g77
g58
NtRp1191
(dp1192
g61
(dp1193
sg70
g1178
sg63
(lp1194
g56
(g57
g58
NtRp1195
(dp1196
g61
(dp1197
g69
I4
ssg70
g1191
sg63
(lp1198
S'text/html,application/xhtml+xml,application/xml;q=0.9,*/*;q=0.8'
p1199
asbasbasbag56
(g72
g58
NtRp1200
(dp1201
g61
(dp1202
sg70
g1018
sg63
(lp1203
g56
(g77
g58
NtRp1204
(dp1205
g61
(dp1206
g81
g82
ssg70
g1200
sg63
(lp1207
S'http_accept_encoding'
p1208
asbag56
(g77
g58
NtRp1209
(dp1210
g61
(dp1211
g88
g89
ssg70
g1200
sg63
(lp1212
S':'
asbag56
(g77
g58
NtRp1213
(dp1214
g61
(dp1215
sg70
g1200
sg63
(lp1216
g56
(g57
g58
NtRp1217
(dp1218
g61
(dp1219
g69
I4
ssg70
g1213
sg63
(lp1220
S'gzip, deflate'
p1221
asbasbasbag56
(g72
g58
NtRp1222
(dp1223
g61
(dp1224
sg70
g1018
sg63
(lp1225
g56
(g77
g58
NtRp1226
(dp1227
g61
(dp1228
g81
g82
ssg70
g1222
sg63
(lp1229
S'http_accept_language'
p1230
asbag56
(g77
g58
NtRp1231
(dp1232
g61
(dp1233
g88
g89
ssg70
g1222
sg63
(lp1234
S':'
asbag56
(g77
g58
NtRp1235
(dp1236
g61
(dp1237
sg70
g1222
sg63
(lp1238
g56
(g57
g58
NtRp1239
(dp1240
g61
(dp1241
g69
I4
ssg70
g1235
sg63
(lp1242
S'en-us,en;q=0.5'
p1243
asbasbasbag56
(g72
g58
NtRp1244
(dp1245
g61
(dp1246
sg70
g1018
sg63
(lp1247
g56
(g77
g58
NtRp1248
(dp1249
g61
(dp1250
g81
g82
ssg70
g1244
sg63
(lp1251
S'http_cache_control'
p1252
asbag56
(g77
g58
NtRp1253
(dp1254
g61
(dp1255
g88
g89
ssg70
g1244
sg63
(lp1256
S':'
asbag56
(g77
g58
NtRp1257
(dp1258
g61
(dp1259
sg70
g1244
sg63
(lp1260
g56
(g57
g58
NtRp1261
(dp1262
g61
(dp1263
g69
I4
ssg70
g1257
sg63
(lp1264
S'max-age=0'
p1265
asbasbasbag56
(g72
g58
NtRp1266
(dp1267
g61
(dp1268
sg70
g1018
sg63
(lp1269
g56
(g77
g58
NtRp1270
(dp1271
g61
(dp1272
g81
g82
ssg70
g1266
sg63
(lp1273
S'http_connection'
p1274
asbag56
(g77
g58
NtRp1275
(dp1276
g61
(dp1277
g88
g89
ssg70
g1266
sg63
(lp1278
S':'
asbag56
(g77
g58
NtRp1279
(dp1280
g61
(dp1281
sg70
g1266
sg63
(lp1282
g56
(g57
g58
NtRp1283
(dp1284
g61
(dp1285
g69
I4
ssg70
g1279
sg63
(lp1286
S'keep-alive'
p1287
asbasbasbag56
(g72
g58
NtRp1288
(dp1289
g61
(dp1290
sg70
g1018
sg63
(lp1291
g56
(g77
g58
NtRp1292
(dp1293
g61
(dp1294
g81
g82
ssg70
g1288
sg63
(lp1295
S'http_cookie'
p1296
asbag56
(g77
g58
NtRp1297
(dp1298
g61
(dp1299
g88
g89
ssg70
g1288
sg63
(lp1300
S':'
asbag56
(g77
g58
NtRp1301
(dp1302
g61
(dp1303
sg70
g1288
sg63
(lp1304
g56
(g57
g58
NtRp1305
(dp1306
g61
(dp1307
g69
I4
ssg70
g1301
sg63
(lp1308
S'session_id_paideia=127.0.0.1-5296f1e9-849e-4717-b7d4-f5f298041148; session_id_welcome=127.0.0.1-cbd9183f-89a3-433a-9c7b-93d2c556d545; session_id_grades=127.0.0.1-7e779f51-d72f-4159-aa81-826b4f2d26c1; session_id_admin=127.0.0.1-0a4d4364-3576-4988-bc56-f95aeecb4481'
p1309
asbasbasbag56
(g72
g58
NtRp1310
(dp1311
g61
(dp1312
sg70
g1018
sg63
(lp1313
g56
(g77
g58
NtRp1314
(dp1315
g61
(dp1316
g81
g82
ssg70
g1310
sg63
(lp1317
S'http_host'
p1318
asbag56
(g77
g58
NtRp1319
(dp1320
g61
(dp1321
g88
g89
ssg70
g1310
sg63
(lp1322
S':'
asbag56
(g77
g58
NtRp1323
(dp1324
g61
(dp1325
sg70
g1310
sg63
(lp1326
g56
(g57
g58
NtRp1327
(dp1328
g61
(dp1329
g69
I4
ssg70
g1323
sg63
(lp1330
S'127.0.0.1:8000'
p1331
asbasbasbag56
(g72
g58
NtRp1332
(dp1333
g61
(dp1334
sg70
g1018
sg63
(lp1335
g56
(g77
g58
NtRp1336
(dp1337
g61
(dp1338
g81
g82
ssg70
g1332
sg63
(lp1339
S'http_referer'
p1340
asbag56
(g77
g58
NtRp1341
(dp1342
g61
(dp1343
g88
g89
ssg70
g1332
sg63
(lp1344
S':'
asbag56
(g77
g58
NtRp1345
(dp1346
g61
(dp1347
sg70
g1332
sg63
(lp1348
g56
(g57
g58
NtRp1349
(dp1350
g61
(dp1351
g69
I4
ssg70
g1345
sg63
(lp1352
S'http://127.0.0.1:8000/grades/default/index'
p1353
asbasbasbag56
(g72
g58
NtRp1354
(dp1355
g61
(dp1356
sg70
g1018
sg63
(lp1357
g56
(g77
g58
NtRp1358
(dp1359
g61
(dp1360
g81
g82
ssg70
g1354
sg63
(lp1361
S'http_user_agent'
p1362
asbag56
(g77
g58
NtRp1363
(dp1364
g61
(dp1365
g88
g89
ssg70
g1354
sg63
(lp1366
S':'
asbag56
(g77
g58
NtRp1367
(dp1368
g61
(dp1369
sg70
g1354
sg63
(lp1370
g56
(g57
g58
NtRp1371
(dp1372
g61
(dp1373
g69
I4
ssg70
g1367
sg63
(lp1374
S'Mozilla/5.0 (X11; Linux x86_64; rv:8.0) Gecko/20100101 Firefox/8.0'
p1375
asbasbasbag56
(g72
g58
NtRp1376
(dp1377
g61
(dp1378
sg70
g1018
sg63
(lp1379
g56
(g77
g58
NtRp1380
(dp1381
g61
(dp1382
g81
g82
ssg70
g1376
sg63
(lp1383
S'is_jython'
p1384
asbag56
(g77
g58
NtRp1385
(dp1386
g61
(dp1387
g88
g89
ssg70
g1376
sg63
(lp1388
S':'
asbag56
(g77
g58
NtRp1389
(dp1390
g61
(dp1391
sg70
g1376
sg63
(lp1392
g56
(g57
g58
NtRp1393
(dp1394
g61
(dp1395
g69
I4
ssg70
g1389
sg63
(lp1396
g99
asbasbasbag56
(g72
g58
NtRp1397
(dp1398
g61
(dp1399
sg70
g1018
sg63
(lp1400
g56
(g77
g58
NtRp1401
(dp1402
g61
(dp1403
g81
g82
ssg70
g1397
sg63
(lp1404
S'path_info'
p1405
asbag56
(g77
g58
NtRp1406
(dp1407
g61
(dp1408
g88
g89
ssg70
g1397
sg63
(lp1409
S':'
asbag56
(g77
g58
NtRp1410
(dp1411
g61
(dp1412
sg70
g1397
sg63
(lp1413
g56
(g57
g58
NtRp1414
(dp1415
g61
(dp1416
g69
I4
ssg70
g1410
sg63
(lp1417
S'/grades/default/create_grade/1'
p1418
asbasbasbag56
(g72
g58
NtRp1419
(dp1420
g61
(dp1421
sg70
g1018
sg63
(lp1422
g56
(g77
g58
NtRp1423
(dp1424
g61
(dp1425
g81
g82
ssg70
g1419
sg63
(lp1426
S'query_string'
p1427
asbag56
(g77
g58
NtRp1428
(dp1429
g61
(dp1430
g88
g89
ssg70
g1419
sg63
(lp1431
S':'
asbag56
(g77
g58
NtRp1432
(dp1433
g61
(dp1434
sg70
g1419
sg63
(lp1435
g56
(g57
g58
NtRp1436
(dp1437
g61
(dp1438
g69
I4
ssg70
g1432
sg63
(lp1439
S''
asbasbasbag56
(g72
g58
NtRp1440
(dp1441
g61
(dp1442
sg70
g1018
sg63
(lp1443
g56
(g77
g58
NtRp1444
(dp1445
g61
(dp1446
g81
g82
ssg70
g1440
sg63
(lp1447
S'remote_addr'
p1448
asbag56
(g77
g58
NtRp1449
(dp1450
g61
(dp1451
g88
g89
ssg70
g1440
sg63
(lp1452
S':'
asbag56
(g77
g58
NtRp1453
(dp1454
g61
(dp1455
sg70
g1440
sg63
(lp1456
g56
(g57
g58
NtRp1457
(dp1458
g61
(dp1459
g69
I4
ssg70
g1453
sg63
(lp1460
g201
asbasbasbag56
(g72
g58
NtRp1461
(dp1462
g61
(dp1463
sg70
g1018
sg63
(lp1464
g56
(g77
g58
NtRp1465
(dp1466
g61
(dp1467
g81
g82
ssg70
g1461
sg63
(lp1468
S'remote_port'
p1469
asbag56
(g77
g58
NtRp1470
(dp1471
g61
(dp1472
g88
g89
ssg70
g1461
sg63
(lp1473
S':'
asbag56
(g77
g58
NtRp1474
(dp1475
g61
(dp1476
sg70
g1461
sg63
(lp1477
g56
(g57
g58
NtRp1478
(dp1479
g61
(dp1480
g69
I4
ssg70
g1474
sg63
(lp1481
S'60146'
p1482
asbasbasbag56
(g72
g58
NtRp1483
(dp1484
g61
(dp1485
sg70
g1018
sg63
(lp1486
g56
(g77
g58
NtRp1487
(dp1488
g61
(dp1489
g81
g82
ssg70
g1483
sg63
(lp1490
S'request_method'
p1491
asbag56
(g77
g58
NtRp1492
(dp1493
g61
(dp1494
g88
g89
ssg70
g1483
sg63
(lp1495
S':'
asbag56
(g77
g58
NtRp1496
(dp1497
g61
(dp1498
sg70
g1483
sg63
(lp1499
g56
(g57
g58
NtRp1500
(dp1501
g61
(dp1502
g69
I4
ssg70
g1496
sg63
(lp1503
S'GET'
p1504
asbasbasbag56
(g72
g58
NtRp1505
(dp1506
g61
(dp1507
sg70
g1018
sg63
(lp1508
g56
(g77
g58
NtRp1509
(dp1510
g61
(dp1511
g81
g82
ssg70
g1505
sg63
(lp1512
S'script_name'
p1513
asbag56
(g77
g58
NtRp1514
(dp1515
g61
(dp1516
g88
g89
ssg70
g1505
sg63
(lp1517
S':'
asbag56
(g77
g58
NtRp1518
(dp1519
g61
(dp1520
sg70
g1505
sg63
(lp1521
g56
(g57
g58
NtRp1522
(dp1523
g61
(dp1524
g69
I4
ssg70
g1518
sg63
(lp1525
S''
asbasbasbag56
(g72
g58
NtRp1526
(dp1527
g61
(dp1528
sg70
g1018
sg63
(lp1529
g56
(g77
g58
NtRp1530
(dp1531
g61
(dp1532
g81
g82
ssg70
g1526
sg63
(lp1533
S'server_name'
p1534
asbag56
(g77
g58
NtRp1535
(dp1536
g61
(dp1537
g88
g89
ssg70
g1526
sg63
(lp1538
S':'
asbag56
(g77
g58
NtRp1539
(dp1540
g61
(dp1541
sg70
g1526
sg63
(lp1542
g56
(g57
g58
NtRp1543
(dp1544
g61
(dp1545
g69
I4
ssg70
g1539
sg63
(lp1546
S'uriel'
p1547
asbasbasbag56
(g72
g58
NtRp1548
(dp1549
g61
(dp1550
sg70
g1018
sg63
(lp1551
g56
(g77
g58
NtRp1552
(dp1553
g61
(dp1554
g81
g82
ssg70
g1548
sg63
(lp1555
S'server_port'
p1556
asbag56
(g77
g58
NtRp1557
(dp1558
g61
(dp1559
g88
g89
ssg70
g1548
sg63
(lp1560
S':'
asbag56
(g77
g58
NtRp1561
(dp1562
g61
(dp1563
sg70
g1548
sg63
(lp1564
g56
(g57
g58
NtRp1565
(dp1566
g61
(dp1567
g69
I4
ssg70
g1561
sg63
(lp1568
S'8000'
p1569
asbasbasbag56
(g72
g58
NtRp1570
(dp1571
g61
(dp1572
sg70
g1018
sg63
(lp1573
g56
(g77
g58
NtRp1574
(dp1575
g61
(dp1576
g81
g82
ssg70
g1570
sg63
(lp1577
S'server_protocol'
p1578
asbag56
(g77
g58
NtRp1579
(dp1580
g61
(dp1581
g88
g89
ssg70
g1570
sg63
(lp1582
S':'
asbag56
(g77
g58
NtRp1583
(dp1584
g61
(dp1585
sg70
g1570
sg63
(lp1586
g56
(g57
g58
NtRp1587
(dp1588
g61
(dp1589
g69
I4
ssg70
g1583
sg63
(lp1590
S'HTTP/1.1'
p1591
asbasbasbag56
(g72
g58
NtRp1592
(dp1593
g61
(dp1594
sg70
g1018
sg63
(lp1595
g56
(g77
g58
NtRp1596
(dp1597
g61
(dp1598
g81
g82
ssg70
g1592
sg63
(lp1599
S'server_software'
p1600
asbag56
(g77
g58
NtRp1601
(dp1602
g61
(dp1603
g88
g89
ssg70
g1592
sg63
(lp1604
S':'
asbag56
(g77
g58
NtRp1605
(dp1606
g61
(dp1607
sg70
g1592
sg63
(lp1608
g56
(g57
g58
NtRp1609
(dp1610
g61
(dp1611
g69
I4
ssg70
g1605
sg63
(lp1612
S'Rocket 1.2.4'
p1613
asbasbasbag56
(g72
g58
NtRp1614
(dp1615
g61
(dp1616
sg70
g1018
sg63
(lp1617
g56
(g77
g58
NtRp1618
(dp1619
g61
(dp1620
g81
g82
ssg70
g1614
sg63
(lp1621
S'web2py_crontype'
p1622
asbag56
(g77
g58
NtRp1623
(dp1624
g61
(dp1625
g88
g89
ssg70
g1614
sg63
(lp1626
S':'
asbag56
(g77
g58
NtRp1627
(dp1628
g61
(dp1629
sg70
g1614
sg63
(lp1630
g56
(g57
g58
NtRp1631
(dp1632
g61
(dp1633
g69
I4
ssg70
g1627
sg63
(lp1634
S'hard'
p1635
asbasbasbag56
(g72
g58
NtRp1636
(dp1637
g61
(dp1638
sg70
g1018
sg63
(lp1639
g56
(g77
g58
NtRp1640
(dp1641
g61
(dp1642
g81
g82
ssg70
g1636
sg63
(lp1643
S'web2py_path'
p1644
asbag56
(g77
g58
NtRp1645
(dp1646
g61
(dp1647
g88
g89
ssg70
g1636
sg63
(lp1648
S':'
asbag56
(g77
g58
NtRp1649
(dp1650
g61
(dp1651
sg70
g1636
sg63
(lp1652
g56
(g57
g58
NtRp1653
(dp1654
g61
(dp1655
g69
I4
ssg70
g1649
sg63
(lp1656
g1065
asbasbasbag56
(g72
g58
NtRp1657
(dp1658
g61
(dp1659
sg70
g1018
sg63
(lp1660
g56
(g77
g58
NtRp1661
(dp1662
g61
(dp1663
g81
g82
ssg70
g1657
sg63
(lp1664
S'web2py_version'
p1665
asbag56
(g77
g58
NtRp1666
(dp1667
g61
(dp1668
g88
g89
ssg70
g1657
sg63
(lp1669
S':'
asbag56
(g77
g58
NtRp1670
(dp1671
g61
(dp1672
sg70
g1657
sg63
(lp1673
g56
(g57
g58
NtRp1674
(dp1675
g61
(dp1676
g69
I4
ssg70
g1670
sg63
(lp1677
g56
(g65
g58
NtRp1678
(dp1679
g61
(dp1680
g69
I3
ssg70
Nsg63
(lp1681
g56
(g72
g58
NtRp1682
(dp1683
g61
(dp1684
sg70
g1678
sg63
(lp1685
g56
(g77
g58
NtRp1686
(dp1687
g61
(dp1688
sg70
g1682
sg63
(lp1689
g56
(g57
g58
NtRp1690
(dp1691
g61
(dp1692
g69
I3
ssg70
g1686
sg63
(lp1693
S'1'
asbasbasbag56
(g72
g58
NtRp1694
(dp1695
g61
(dp1696
sg70
g1678
sg63
(lp1697
g56
(g77
g58
NtRp1698
(dp1699
g61
(dp1700
sg70
g1694
sg63
(lp1701
g56
(g57
g58
NtRp1702
(dp1703
g61
(dp1704
g69
I3
ssg70
g1698
sg63
(lp1705
S'99'
p1706
asbasbasbag56
(g72
g58
NtRp1707
(dp1708
g61
(dp1709
sg70
g1678
sg63
(lp1710
g56
(g77
g58
NtRp1711
(dp1712
g61
(dp1713
sg70
g1707
sg63
(lp1714
g56
(g57
g58
NtRp1715
(dp1716
g61
(dp1717
g69
I3
ssg70
g1711
sg63
(lp1718
S'2'
asbasbasbag56
(g72
g58
NtRp1719
(dp1720
g61
(dp1721
sg70
g1678
sg63
(lp1722
g56
(g77
g58
NtRp1723
(dp1724
g61
(dp1725
sg70
g1719
sg63
(lp1726
g56
(g57
g58
NtRp1727
(dp1728
g61
(dp1729
g69
I3
ssg70
g1723
sg63
(lp1730
S'datetime.datetime(2011, 9, 26, 6, 55, 33)'
p1731
asbasbasbag56
(g72
g58
NtRp1732
(dp1733
g61
(dp1734
sg70
g1678
sg63
(lp1735
g56
(g77
g58
NtRp1736
(dp1737
g61
(dp1738
sg70
g1732
sg63
(lp1739
g56
(g57
g58
NtRp1740
(dp1741
g61
(dp1742
g69
I3
ssg70
g1736
sg63
(lp1743
S'stable'
p1744
asbasbasbasbasbasbasbag56
(g72
g58
NtRp1745
(dp1746
g61
(dp1747
sg70
g1018
sg63
(lp1748
g56
(g77
g58
NtRp1749
(dp1750
g61
(dp1751
g81
g82
ssg70
g1745
sg63
(lp1752
S'wsgi_errors'
p1753
asbag56
(g77
g58
NtRp1754
(dp1755
g61
(dp1756
g88
g89
ssg70
g1745
sg63
(lp1757
S':'
asbag56
(g77
g58
NtRp1758
(dp1759
g61
(dp1760
sg70
g1745
sg63
(lp1761
g56
(g57
g58
NtRp1762
(dp1763
g61
(dp1764
g69
I4
ssg70
g1758
sg63
(lp1765
S"<open file '<stderr>', mode 'w' at 0x7f9678b3d270>"
p1766
asbasbasbag56
(g72
g58
NtRp1767
(dp1768
g61
(dp1769
sg70
g1018
sg63
(lp1770
g56
(g77
g58
NtRp1771
(dp1772
g61
(dp1773
g81
g82
ssg70
g1767
sg63
(lp1774
S'wsgi_file_wrapper'
p1775
asbag56
(g77
g58
NtRp1776
(dp1777
g61
(dp1778
g88
g89
ssg70
g1767
sg63
(lp1779
S':'
asbag56
(g77
g58
NtRp1780
(dp1781
g61
(dp1782
sg70
g1767
sg63
(lp1783
g56
(g57
g58
NtRp1784
(dp1785
g61
(dp1786
g69
I4
ssg70
g1780
sg63
(lp1787
S'<class wsgiref.util.FileWrapper at 0x1ec9870>'
p1788
asbasbasbag56
(g72
g58
NtRp1789
(dp1790
g61
(dp1791
sg70
g1018
sg63
(lp1792
g56
(g77
g58
NtRp1793
(dp1794
g61
(dp1795
g81
g82
ssg70
g1789
sg63
(lp1796
S'wsgi_input'
p1797
asbag56
(g77
g58
NtRp1798
(dp1799
g61
(dp1800
g88
g89
ssg70
g1789
sg63
(lp1801
S':'
asbag56
(g77
g58
NtRp1802
(dp1803
g61
(dp1804
sg70
g1789
sg63
(lp1805
g56
(g57
g58
NtRp1806
(dp1807
g61
(dp1808
g69
I4
ssg70
g1802
sg63
(lp1809
S'<socket._fileobject object at 0x26bb950>'
p1810
asbasbasbag56
(g72
g58
NtRp1811
(dp1812
g61
(dp1813
sg70
g1018
sg63
(lp1814
g56
(g77
g58
NtRp1815
(dp1816
g61
(dp1817
g81
g82
ssg70
g1811
sg63
(lp1818
S'wsgi_multiprocess'
p1819
asbag56
(g77
g58
NtRp1820
(dp1821
g61
(dp1822
g88
g89
ssg70
g1811
sg63
(lp1823
S':'
asbag56
(g77
g58
NtRp1824
(dp1825
g61
(dp1826
sg70
g1811
sg63
(lp1827
g56
(g57
g58
NtRp1828
(dp1829
g61
(dp1830
g69
I4
ssg70
g1824
sg63
(lp1831
g99
asbasbasbag56
(g72
g58
NtRp1832
(dp1833
g61
(dp1834
sg70
g1018
sg63
(lp1835
g56
(g77
g58
NtRp1836
(dp1837
g61
(dp1838
g81
g82
ssg70
g1832
sg63
(lp1839
S'wsgi_multithread'
p1840
asbag56
(g77
g58
NtRp1841
(dp1842
g61
(dp1843
g88
g89
ssg70
g1832
sg63
(lp1844
S':'
asbag56
(g77
g58
NtRp1845
(dp1846
g61
(dp1847
sg70
g1832
sg63
(lp1848
g56
(g57
g58
NtRp1849
(dp1850
g61
(dp1851
g69
I4
ssg70
g1845
sg63
(lp1852
S'True'
p1853
asbasbasbag56
(g72
g58
NtRp1854
(dp1855
g61
(dp1856
sg70
g1018
sg63
(lp1857
g56
(g77
g58
NtRp1858
(dp1859
g61
(dp1860
g81
g82
ssg70
g1854
sg63
(lp1861
S'wsgi_run_once'
p1862
asbag56
(g77
g58
NtRp1863
(dp1864
g61
(dp1865
g88
g89
ssg70
g1854
sg63
(lp1866
S':'
asbag56
(g77
g58
NtRp1867
(dp1868
g61
(dp1869
sg70
g1854
sg63
(lp1870
g56
(g57
g58
NtRp1871
(dp1872
g61
(dp1873
g69
I4
ssg70
g1867
sg63
(lp1874
g99
asbasbasbag56
(g72
g58
NtRp1875
(dp1876
g61
(dp1877
sg70
g1018
sg63
(lp1878
g56
(g77
g58
NtRp1879
(dp1880
g61
(dp1881
g81
g82
ssg70
g1875
sg63
(lp1882
S'wsgi_url_scheme'
p1883
asbag56
(g77
g58
NtRp1884
(dp1885
g61
(dp1886
g88
g89
ssg70
g1875
sg63
(lp1887
S':'
asbag56
(g77
g58
NtRp1888
(dp1889
g61
(dp1890
sg70
g1875
sg63
(lp1891
g56
(g57
g58
NtRp1892
(dp1893
g61
(dp1894
g69
I4
ssg70
g1888
sg63
(lp1895
S'http'
p1896
asbasbasbag56
(g72
g58
NtRp1897
(dp1898
g61
(dp1899
sg70
g1018
sg63
(lp1900
g56
(g77
g58
NtRp1901
(dp1902
g61
(dp1903
g81
g82
ssg70
g1897
sg63
(lp1904
S'wsgi_version'
p1905
asbag56
(g77
g58
NtRp1906
(dp1907
g61
(dp1908
g88
g89
ssg70
g1897
sg63
(lp1909
S':'
asbag56
(g77
g58
NtRp1910
(dp1911
g61
(dp1912
sg70
g1897
sg63
(lp1913
g56
(g57
g58
NtRp1914
(dp1915
g61
(dp1916
g69
I4
ssg70
g1910
sg63
(lp1917
g56
(g65
g58
NtRp1918
(dp1919
g61
(dp1920
g69
I3
ssg70
Nsg63
(lp1921
g56
(g72
g58
NtRp1922
(dp1923
g61
(dp1924
sg70
g1918
sg63
(lp1925
g56
(g77
g58
NtRp1926
(dp1927
g61
(dp1928
sg70
g1922
sg63
(lp1929
g56
(g57
g58
NtRp1930
(dp1931
g61
(dp1932
g69
I3
ssg70
g1926
sg63
(lp1933
S'1'
asbasbasbag56
(g72
g58
NtRp1934
(dp1935
g61
(dp1936
sg70
g1918
sg63
(lp1937
g56
(g77
g58
NtRp1938
(dp1939
g61
(dp1940
sg70
g1934
sg63
(lp1941
g56
(g57
g58
NtRp1942
(dp1943
g61
(dp1944
g69
I3
ssg70
g1938
sg63
(lp1945
S'0'
asbasbasbasbasbasbasbasbasbasbasbag56
(g72
g58
NtRp1946
(dp1947
g61
(dp1948
sg70
g66
sg63
(lp1949
g56
(g77
g58
NtRp1950
(dp1951
g61
(dp1952
g81
g82
ssg70
g1946
sg63
(lp1953
S'extension'
p1954
asbag56
(g77
g58
NtRp1955
(dp1956
g61
(dp1957
g88
g89
ssg70
g1946
sg63
(lp1958
S':'
asbag56
(g77
g58
NtRp1959
(dp1960
g61
(dp1961
sg70
g1946
sg63
(lp1962
g56
(g57
g58
NtRp1963
(dp1964
g61
(dp1965
g69
I5
ssg70
g1959
sg63
(lp1966
S'html'
p1967
asbasbasbag56
(g72
g58
NtRp1968
(dp1969
g61
(dp1970
sg70
g66
sg63
(lp1971
g56
(g77
g58
NtRp1972
(dp1973
g61
(dp1974
g81
g82
ssg70
g1968
sg63
(lp1975
S'folder'
p1976
asbag56
(g77
g58
NtRp1977
(dp1978
g61
(dp1979
g88
g89
ssg70
g1968
sg63
(lp1980
S':'
asbag56
(g77
g58
NtRp1981
(dp1982
g61
(dp1983
sg70
g1968
sg63
(lp1984
g56
(g57
g58
NtRp1985
(dp1986
g61
(dp1987
g69
I5
ssg70
g1981
sg63
(lp1988
S'/home/ian/web2py/applications/grades/'
p1989
asbasbasbag56
(g72
g58
NtRp1990
(dp1991
g61
(dp1992
sg70
g66
sg63
(lp1993
g56
(g77
g58
NtRp1994
(dp1995
g61
(dp1996
g81
g82
ssg70
g1990
sg63
(lp1997
S'function'
p1998
asbag56
(g77
g58
NtRp1999
(dp2000
g61
(dp2001
g88
g89
ssg70
g1990
sg63
(lp2002
S':'
asbag56
(g77
g58
NtRp2003
(dp2004
g61
(dp2005
sg70
g1990
sg63
(lp2006
g56
(g57
g58
NtRp2007
(dp2008
g61
(dp2009
g69
I5
ssg70
g2003
sg63
(lp2010
S'create_grade'
p2011
asbasbasbag56
(g72
g58
NtRp2012
(dp2013
g61
(dp2014
sg70
g66
sg63
(lp2015
g56
(g77
g58
NtRp2016
(dp2017
g61
(dp2018
g81
g82
ssg70
g2012
sg63
(lp2019
S'get_vars'
p2020
asbag56
(g77
g58
NtRp2021
(dp2022
g61
(dp2023
g88
g89
ssg70
g2012
sg63
(lp2024
S':'
asbag56
(g77
g58
NtRp2025
(dp2026
g61
(dp2027
sg70
g2012
sg63
(lp2028
g56
(g57
g58
NtRp2029
(dp2030
g61
(dp2031
g69
I5
ssg70
g2025
sg63
(lp2032
g56
(g65
g58
NtRp2033
(dp2034
g61
(dp2035
g69
I4
ssg70
Nsg63
(lp2036
sbasbasbasbag56
(g72
g58
NtRp2037
(dp2038
g61
(dp2039
sg70
g66
sg63
(lp2040
g56
(g77
g58
NtRp2041
(dp2042
g61
(dp2043
g81
g82
ssg70
g2037
sg63
(lp2044
S'global_settings'
p2045
asbag56
(g77
g58
NtRp2046
(dp2047
g61
(dp2048
g88
g89
ssg70
g2037
sg63
(lp2049
S':'
asbag56
(g77
g58
NtRp2050
(dp2051
g61
(dp2052
sg70
g2037
sg63
(lp2053
g56
(g57
g58
NtRp2054
(dp2055
g61
(dp2056
g69
I5
ssg70
g2050
sg63
(lp2057
g56
(g65
g58
NtRp2058
(dp2059
g61
(dp2060
g69
I4
ssg70
Nsg63
(lp2061
g56
(g72
g58
NtRp2062
(dp2063
g61
(dp2064
sg70
g2058
sg63
(lp2065
g56
(g77
g58
NtRp2066
(dp2067
g61
(dp2068
g81
g82
ssg70
g2062
sg63
(lp2069
g1030
asbag56
(g77
g58
NtRp2070
(dp2071
g61
(dp2072
g88
g89
ssg70
g2062
sg63
(lp2073
S':'
asbag56
(g77
g58
NtRp2074
(dp2075
g61
(dp2076
sg70
g2062
sg63
(lp2077
g56
(g57
g58
NtRp2078
(dp2079
g61
(dp2080
g69
I4
ssg70
g2074
sg63
(lp2081
S"set(['/home/ian/web2py/applications/welcome/', '/home/ian/web2py/applications/grades/', '/home/ian/web2py/applications/admin/'])"
p2082
asbasbasbag56
(g72
g58
NtRp2083
(dp2084
g61
(dp2085
sg70
g2058
sg63
(lp2086
g56
(g77
g58
NtRp2087
(dp2088
g61
(dp2089
g81
g82
ssg70
g2083
sg63
(lp2090
g1052
asbag56
(g77
g58
NtRp2091
(dp2092
g61
(dp2093
g88
g89
ssg70
g2083
sg63
(lp2094
S':'
asbag56
(g77
g58
NtRp2095
(dp2096
g61
(dp2097
sg70
g2083
sg63
(lp2098
g56
(g57
g58
NtRp2099
(dp2100
g61
(dp2101
g69
I4
ssg70
g2095
sg63
(lp2102
g1065
asbasbasbag56
(g72
g58
NtRp2103
(dp2104
g61
(dp2105
sg70
g2058
sg63
(lp2106
g56
(g77
g58
NtRp2107
(dp2108
g61
(dp2109
g81
g82
ssg70
g2103
sg63
(lp2110
g1074
asbag56
(g77
g58
NtRp2111
(dp2112
g61
(dp2113
g88
g89
ssg70
g2103
sg63
(lp2114
S':'
asbag56
(g77
g58
NtRp2115
(dp2116
g61
(dp2117
sg70
g2103
sg63
(lp2118
g56
(g57
g58
NtRp2119
(dp2120
g61
(dp2121
g69
I4
ssg70
g2115
sg63
(lp2122
g56
(g65
g58
NtRp2123
(dp2124
g61
(dp2125
g69
I3
ssg70
Nsg63
(lp2126
sbasbasbasbag56
(g72
g58
NtRp2127
(dp2128
g61
(dp2129
sg70
g2058
sg63
(lp2130
g56
(g77
g58
NtRp2131
(dp2132
g61
(dp2133
g81
g82
ssg70
g2127
sg63
(lp2134
g1099
asbag56
(g77
g58
NtRp2135
(dp2136
g61
(dp2137
g88
g89
ssg70
g2127
sg63
(lp2138
S':'
asbag56
(g77
g58
NtRp2139
(dp2140
g61
(dp2141
sg70
g2127
sg63
(lp2142
g56
(g57
g58
NtRp2143
(dp2144
g61
(dp2145
g69
I4
ssg70
g2139
sg63
(lp2146
S"<Values at 0x1ffe758: {'verbose': False, 'ip': '127.0.0.1', 'shutdown_timeout': 5, 'taskbar': False, 'nocron': False, 'pid_filename': 'httpserver.pid', 'maxthreads': None, 'softcron': False, 'server_name': 'uriel', 'bpython': False, 'nogui': False, 'port': 8000, 'extcron': False, 'debuglevel': 30, 'test': None, 'folder': '/home/ian/web2py', 'config': '', 'import_models': False, 'winservice': '', 'shell': None, 'run': '', 'log_filename': 'httpserver.log', 'args': [''], 'ssl_ca_certificate': None, 'scheduler': None, 'profiler_filename': None, 'ssl_private_key': '', 'password': '<ask>', 'request_queue_size': 5, 'ssl_certificate': '', 'cronjob': False, 'plain': False, 'quiet': False, 'interfaces': None, 'minthreads': None, 'timeout': 10, 'numthreads': None, 'nobanner': False}>"
p2147
asbasbasbag56
(g72
g58
NtRp2148
(dp2149
g61
(dp2150
sg70
g2058
sg63
(lp2151
g56
(g77
g58
NtRp2152
(dp2153
g61
(dp2154
g81
g82
ssg70
g2148
sg63
(lp2155
g1121
asbag56
(g77
g58
NtRp2156
(dp2157
g61
(dp2158
g88
g89
ssg70
g2148
sg63
(lp2159
S':'
asbag56
(g77
g58
NtRp2160
(dp2161
g61
(dp2162
sg70
g2148
sg63
(lp2163
g56
(g57
g58
NtRp2164
(dp2165
g61
(dp2166
g69
I4
ssg70
g2160
sg63
(lp2167
S'set([])'
p2168
asbasbasbag56
(g72
g58
NtRp2169
(dp2170
g61
(dp2171
sg70
g2058
sg63
(lp2172
g56
(g77
g58
NtRp2173
(dp2174
g61
(dp2175
g81
g82
ssg70
g2169
sg63
(lp2176
g1143
asbag56
(g77
g58
NtRp2177
(dp2178
g61
(dp2179
g88
g89
ssg70
g2169
sg63
(lp2180
S':'
asbag56
(g77
g58
NtRp2181
(dp2182
g61
(dp2183
sg70
g2169
sg63
(lp2184
g56
(g57
g58
NtRp2185
(dp2186
g61
(dp2187
g69
I4
ssg70
g2181
sg63
(lp2188
g99
asbasbasbag56
(g72
g58
NtRp2189
(dp2190
g61
(dp2191
sg70
g2058
sg63
(lp2192
g56
(g77
g58
NtRp2193
(dp2194
g61
(dp2195
g81
g82
ssg70
g2189
sg63
(lp2196
g1164
asbag56
(g77
g58
NtRp2197
(dp2198
g61
(dp2199
g88
g89
ssg70
g2189
sg63
(lp2200
S':'
asbag56
(g77
g58
NtRp2201
(dp2202
g61
(dp2203
sg70
g2189
sg63
(lp2204
g56
(g57
g58
NtRp2205
(dp2206
g61
(dp2207
g69
I4
ssg70
g2201
sg63
(lp2208
g1177
asbasbasbag56
(g72
g58
NtRp2209
(dp2210
g61
(dp2211
sg70
g2058
sg63
(lp2212
g56
(g77
g58
NtRp2213
(dp2214
g61
(dp2215
g81
g82
ssg70
g2209
sg63
(lp2216
g1384
asbag56
(g77
g58
NtRp2217
(dp2218
g61
(dp2219
g88
g89
ssg70
g2209
sg63
(lp2220
S':'
asbag56
(g77
g58
NtRp2221
(dp2222
g61
(dp2223
sg70
g2209
sg63
(lp2224
g56
(g57
g58
NtRp2225
(dp2226
g61
(dp2227
g69
I4
ssg70
g2221
sg63
(lp2228
g99
asbasbasbag56
(g72
g58
NtRp2229
(dp2230
g61
(dp2231
sg70
g2058
sg63
(lp2232
g56
(g77
g58
NtRp2233
(dp2234
g61
(dp2235
g81
g82
ssg70
g2229
sg63
(lp2236
g1622
asbag56
(g77
g58
NtRp2237
(dp2238
g61
(dp2239
g88
g89
ssg70
g2229
sg63
(lp2240
S':'
asbag56
(g77
g58
NtRp2241
(dp2242
g61
(dp2243
sg70
g2229
sg63
(lp2244
g56
(g57
g58
NtRp2245
(dp2246
g61
(dp2247
g69
I4
ssg70
g2241
sg63
(lp2248
g1635
asbasbasbag56
(g72
g58
NtRp2249
(dp2250
g61
(dp2251
sg70
g2058
sg63
(lp2252
g56
(g77
g58
NtRp2253
(dp2254
g61
(dp2255
g81
g82
ssg70
g2249
sg63
(lp2256
g1665
asbag56
(g77
g58
NtRp2257
(dp2258
g61
(dp2259
g88
g89
ssg70
g2249
sg63
(lp2260
S':'
asbag56
(g77
g58
NtRp2261
(dp2262
g61
(dp2263
sg70
g2249
sg63
(lp2264
g56
(g57
g58
NtRp2265
(dp2266
g61
(dp2267
g69
I4
ssg70
g2261
sg63
(lp2268
g56
(g65
g58
NtRp2269
(dp2270
g61
(dp2271
g69
I3
ssg70
Nsg63
(lp2272
g56
(g72
g58
NtRp2273
(dp2274
g61
(dp2275
sg70
g2269
sg63
(lp2276
g56
(g77
g58
NtRp2277
(dp2278
g61
(dp2279
sg70
g2273
sg63
(lp2280
g56
(g57
g58
NtRp2281
(dp2282
g61
(dp2283
g69
I3
ssg70
g2277
sg63
(lp2284
S'1'
asbasbasbag56
(g72
g58
NtRp2285
(dp2286
g61
(dp2287
sg70
g2269
sg63
(lp2288
g56
(g77
g58
NtRp2289
(dp2290
g61
(dp2291
sg70
g2285
sg63
(lp2292
g56
(g57
g58
NtRp2293
(dp2294
g61
(dp2295
g69
I3
ssg70
g2289
sg63
(lp2296
S'99'
p2297
asbasbasbag56
(g72
g58
NtRp2298
(dp2299
g61
(dp2300
sg70
g2269
sg63
(lp2301
g56
(g77
g58
NtRp2302
(dp2303
g61
(dp2304
sg70
g2298
sg63
(lp2305
g56
(g57
g58
NtRp2306
(dp2307
g61
(dp2308
g69
I3
ssg70
g2302
sg63
(lp2309
S'2'
asbasbasbag56
(g72
g58
NtRp2310
(dp2311
g61
(dp2312
sg70
g2269
sg63
(lp2313
g56
(g77
g58
NtRp2314
(dp2315
g61
(dp2316
sg70
g2310
sg63
(lp2317
g56
(g57
g58
NtRp2318
(dp2319
g61
(dp2320
g69
I3
ssg70
g2314
sg63
(lp2321
S'datetime.datetime(2011, 9, 26, 6, 55, 33)'
p2322
asbasbasbag56
(g72
g58
NtRp2323
(dp2324
g61
(dp2325
sg70
g2269
sg63
(lp2326
g56
(g77
g58
NtRp2327
(dp2328
g61
(dp2329
sg70
g2323
sg63
(lp2330
g56
(g57
g58
NtRp2331
(dp2332
g61
(dp2333
g69
I3
ssg70
g2327
sg63
(lp2334
g1744
asbasbasbasbasbasbasbasbasbasbasbag56
(g72
g58
NtRp2335
(dp2336
g61
(dp2337
sg70
g66
sg63
(lp2338
g56
(g77
g58
NtRp2339
(dp2340
g61
(dp2341
g81
g82
ssg70
g2335
sg63
(lp2342
S'is_https'
p2343
asbag56
(g77
g58
NtRp2344
(dp2345
g61
(dp2346
g88
g89
ssg70
g2335
sg63
(lp2347
S':'
asbag56
(g77
g58
NtRp2348
(dp2349
g61
(dp2350
sg70
g2335
sg63
(lp2351
g56
(g57
g58
NtRp2352
(dp2353
g61
(dp2354
g69
I5
ssg70
g2348
sg63
(lp2355
g99
asbasbasbag56
(g72
g58
NtRp2356
(dp2357
g61
(dp2358
sg70
g66
sg63
(lp2359
g56
(g77
g58
NtRp2360
(dp2361
g61
(dp2362
g81
g82
ssg70
g2356
sg63
(lp2363
S'is_local'
p2364
asbag56
(g77
g58
NtRp2365
(dp2366
g61
(dp2367
g88
g89
ssg70
g2356
sg63
(lp2368
S':'
asbag56
(g77
g58
NtRp2369
(dp2370
g61
(dp2371
sg70
g2356
sg63
(lp2372
g56
(g57
g58
NtRp2373
(dp2374
g61
(dp2375
g69
I5
ssg70
g2369
sg63
(lp2376
g1853
asbasbasbag56
(g72
g58
NtRp2377
(dp2378
g61
(dp2379
sg70
g66
sg63
(lp2380
g56
(g77
g58
NtRp2381
(dp2382
g61
(dp2383
g81
g82
ssg70
g2377
sg63
(lp2384
S'is_restful'
p2385
asbag56
(g77
g58
NtRp2386
(dp2387
g61
(dp2388
g88
g89
ssg70
g2377
sg63
(lp2389
S':'
asbag56
(g77
g58
NtRp2390
(dp2391
g61
(dp2392
sg70
g2377
sg63
(lp2393
g56
(g57
g58
NtRp2394
(dp2395
g61
(dp2396
g69
I5
ssg70
g2390
sg63
(lp2397
g99
asbasbasbag56
(g72
g58
NtRp2398
(dp2399
g61
(dp2400
sg70
g66
sg63
(lp2401
g56
(g77
g58
NtRp2402
(dp2403
g61
(dp2404
g81
g82
ssg70
g2398
sg63
(lp2405
S'now'
p2406
asbag56
(g77
g58
NtRp2407
(dp2408
g61
(dp2409
g88
g89
ssg70
g2398
sg63
(lp2410
S':'
asbag56
(g77
g58
NtRp2411
(dp2412
g61
(dp2413
sg70
g2398
sg63
(lp2414
g56
(g57
g58
NtRp2415
(dp2416
g61
(dp2417
g69
I5
ssg70
g2411
sg63
(lp2418
S'datetime.datetime(2011, 11, 9, 11, 24, 45, 386296)'
p2419
asbasbasbag56
(g72
g58
NtRp2420
(dp2421
g61
(dp2422
sg70
g66
sg63
(lp2423
g56
(g77
g58
NtRp2424
(dp2425
g61
(dp2426
g81
g82
ssg70
g2420
sg63
(lp2427
S'post_vars'
p2428
asbag56
(g77
g58
NtRp2429
(dp2430
g61
(dp2431
g88
g89
ssg70
g2420
sg63
(lp2432
S':'
asbag56
(g77
g58
NtRp2433
(dp2434
g61
(dp2435
sg70
g2420
sg63
(lp2436
g56
(g57
g58
NtRp2437
(dp2438
g61
(dp2439
g69
I5
ssg70
g2433
sg63
(lp2440
g56
(g65
g58
NtRp2441
(dp2442
g61
(dp2443
g69
I4
ssg70
Nsg63
(lp2444
sbasbasbasbag56
(g72
g58
NtRp2445
(dp2446
g61
(dp2447
sg70
g66
sg63
(lp2448
g56
(g77
g58
NtRp2449
(dp2450
g61
(dp2451
g81
g82
ssg70
g2445
sg63
(lp2452
S'raw_args'
p2453
asbag56
(g77
g58
NtRp2454
(dp2455
g61
(dp2456
g88
g89
ssg70
g2445
sg63
(lp2457
S':'
asbag56
(g77
g58
NtRp2458
(dp2459
g61
(dp2460
sg70
g2445
sg63
(lp2461
g56
(g57
g58
NtRp2462
(dp2463
g61
(dp2464
g69
I5
ssg70
g2458
sg63
(lp2465
S'1'
asbasbasbag56
(g72
g58
NtRp2466
(dp2467
g61
(dp2468
sg70
g66
sg63
(lp2469
g56
(g77
g58
NtRp2470
(dp2471
g61
(dp2472
g81
g82
ssg70
g2466
sg63
(lp2473
S'url'
p2474
asbag56
(g77
g58
NtRp2475
(dp2476
g61
(dp2477
g88
g89
ssg70
g2466
sg63
(lp2478
S':'
asbag56
(g77
g58
NtRp2479
(dp2480
g61
(dp2481
sg70
g2466
sg63
(lp2482
g56
(g57
g58
NtRp2483
(dp2484
g61
(dp2485
g69
I5
ssg70
g2479
sg63
(lp2486
S'/grades/default/create_grade/1'
p2487
asbasbasbag56
(g72
g58
NtRp2488
(dp2489
g61
(dp2490
sg70
g66
sg63
(lp2491
g56
(g77
g58
NtRp2492
(dp2493
g61
(dp2494
g81
g82
ssg70
g2488
sg63
(lp2495
S'utcnow'
p2496
asbag56
(g77
g58
NtRp2497
(dp2498
g61
(dp2499
g88
g89
ssg70
g2488
sg63
(lp2500
S':'
asbag56
(g77
g58
NtRp2501
(dp2502
g61
(dp2503
sg70
g2488
sg63
(lp2504
g56
(g57
g58
NtRp2505
(dp2506
g61
(dp2507
g69
I5
ssg70
g2501
sg63
(lp2508
S'datetime.datetime(2011, 11, 9, 16, 24, 45, 386339)'
p2509
asbasbasbag56
(g72
g58
NtRp2510
(dp2511
g61
(dp2512
sg70
g66
sg63
(lp2513
g56
(g77
g58
NtRp2514
(dp2515
g61
(dp2516
g81
g82
ssg70
g2510
sg63
(lp2517
S'uuid'
p2518
asbag56
(g77
g58
NtRp2519
(dp2520
g61
(dp2521
g88
g89
ssg70
g2510
sg63
(lp2522
S':'
asbag56
(g77
g58
NtRp2523
(dp2524
g61
(dp2525
sg70
g2510
sg63
(lp2526
g56
(g57
g58
NtRp2527
(dp2528
g61
(dp2529
g69
I5
ssg70
g2523
sg63
(lp2530
S'grades/127.0.0.1.2011-11-09.11-24-45.70768f7d-5a5a-4dd4-95ee-cb20a9b9058d'
p2531
asbasbasbag56
(g72
g58
NtRp2532
(dp2533
g61
(dp2534
sg70
g66
sg63
(lp2535
g56
(g77
g58
NtRp2536
(dp2537
g61
(dp2538
g81
g82
ssg70
g2532
sg63
(lp2539
S'vars'
p2540
asbag56
(g77
g58
NtRp2541
(dp2542
g61
(dp2543
g88
g89
ssg70
g2532
sg63
(lp2544
S':'
asbag56
(g77
g58
NtRp2545
(dp2546
g61
(dp2547
sg70
g2532
sg63
(lp2548
g56
(g57
g58
NtRp2549
(dp2550
g61
(dp2551
g69
I5
ssg70
g2545
sg63
(lp2552
g56
(g65
g58
NtRp2553
(dp2554
g61
(dp2555
g69
I4
ssg70
Nsg63
(lp2556
sbasbasbasbag56
(g72
g58
NtRp2557
(dp2558
g61
(dp2559
sg70
g66
sg63
(lp2560
g56
(g77
g58
NtRp2561
(dp2562
g61
(dp2563
g81
g82
ssg70
g2557
sg63
(lp2564
S'wsgi'
p2565
asbag56
(g77
g58
NtRp2566
(dp2567
g61
(dp2568
g88
g89
ssg70
g2557
sg63
(lp2569
S':'
asbag56
(g77
g58
NtRp2570
(dp2571
g61
(dp2572
sg70
g2557
sg63
(lp2573
g56
(g57
g58
NtRp2574
(dp2575
g61
(dp2576
g69
I5
ssg70
g2570
sg63
(lp2577
g56
(g65
g58
NtRp2578
(dp2579
g61
(dp2580
g69
I4
ssg70
Nsg63
(lp2581
g56
(g72
g58
NtRp2582
(dp2583
g61
(dp2584
sg70
g2578
sg63
(lp2585
g56
(g77
g58
NtRp2586
(dp2587
g61
(dp2588
g81
g82
ssg70
g2582
sg63
(lp2589
S'environ'
p2590
asbag56
(g77
g58
NtRp2591
(dp2592
g61
(dp2593
g88
g89
ssg70
g2582
sg63
(lp2594
S':'
asbag56
(g77
g58
NtRp2595
(dp2596
g61
(dp2597
sg70
g2582
sg63
(lp2598
g56
(g57
g58
NtRp2599
(dp2600
g61
(dp2601
g69
I4
ssg70
g2595
sg63
(lp2602
g56
(g65
g58
NtRp2603
(dp2604
g61
(dp2605
g69
I3
ssg70
Nsg63
(lp2606
g56
(g72
g58
NtRp2607
(dp2608
g61
(dp2609
sg70
g2603
sg63
(lp2610
g56
(g77
g58
NtRp2611
(dp2612
g61
(dp2613
g81
g82
ssg70
g2607
sg63
(lp2614
S'HTTP_ACCEPT'
p2615
asbag56
(g77
g58
NtRp2616
(dp2617
g61
(dp2618
g88
g89
ssg70
g2607
sg63
(lp2619
S':'
asbag56
(g77
g58
NtRp2620
(dp2621
g61
(dp2622
sg70
g2607
sg63
(lp2623
g56
(g57
g58
NtRp2624
(dp2625
g61
(dp2626
g69
I3
ssg70
g2620
sg63
(lp2627
g1199
asbasbasbag56
(g72
g58
NtRp2628
(dp2629
g61
(dp2630
sg70
g2603
sg63
(lp2631
g56
(g77
g58
NtRp2632
(dp2633
g61
(dp2634
g81
g82
ssg70
g2628
sg63
(lp2635
S'HTTP_ACCEPT_ENCODING'
p2636
asbag56
(g77
g58
NtRp2637
(dp2638
g61
(dp2639
g88
g89
ssg70
g2628
sg63
(lp2640
S':'
asbag56
(g77
g58
NtRp2641
(dp2642
g61
(dp2643
sg70
g2628
sg63
(lp2644
g56
(g57
g58
NtRp2645
(dp2646
g61
(dp2647
g69
I3
ssg70
g2641
sg63
(lp2648
g1221
asbasbasbag56
(g72
g58
NtRp2649
(dp2650
g61
(dp2651
sg70
g2603
sg63
(lp2652
g56
(g77
g58
NtRp2653
(dp2654
g61
(dp2655
g81
g82
ssg70
g2649
sg63
(lp2656
S'HTTP_ACCEPT_LANGUAGE'
p2657
asbag56
(g77
g58
NtRp2658
(dp2659
g61
(dp2660
g88
g89
ssg70
g2649
sg63
(lp2661
S':'
asbag56
(g77
g58
NtRp2662
(dp2663
g61
(dp2664
sg70
g2649
sg63
(lp2665
g56
(g57
g58
NtRp2666
(dp2667
g61
(dp2668
g69
I3
ssg70
g2662
sg63
(lp2669
g1243
asbasbasbag56
(g72
g58
NtRp2670
(dp2671
g61
(dp2672
sg70
g2603
sg63
(lp2673
g56
(g77
g58
NtRp2674
(dp2675
g61
(dp2676
g81
g82
ssg70
g2670
sg63
(lp2677
S'HTTP_CACHE_CONTROL'
p2678
asbag56
(g77
g58
NtRp2679
(dp2680
g61
(dp2681
g88
g89
ssg70
g2670
sg63
(lp2682
S':'
asbag56
(g77
g58
NtRp2683
(dp2684
g61
(dp2685
sg70
g2670
sg63
(lp2686
g56
(g57
g58
NtRp2687
(dp2688
g61
(dp2689
g69
I3
ssg70
g2683
sg63
(lp2690
g1265
asbasbasbag56
(g72
g58
NtRp2691
(dp2692
g61
(dp2693
sg70
g2603
sg63
(lp2694
g56
(g77
g58
NtRp2695
(dp2696
g61
(dp2697
g81
g82
ssg70
g2691
sg63
(lp2698
S'HTTP_CONNECTION'
p2699
asbag56
(g77
g58
NtRp2700
(dp2701
g61
(dp2702
g88
g89
ssg70
g2691
sg63
(lp2703
S':'
asbag56
(g77
g58
NtRp2704
(dp2705
g61
(dp2706
sg70
g2691
sg63
(lp2707
g56
(g57
g58
NtRp2708
(dp2709
g61
(dp2710
g69
I3
ssg70
g2704
sg63
(lp2711
g1287
asbasbasbag56
(g72
g58
NtRp2712
(dp2713
g61
(dp2714
sg70
g2603
sg63
(lp2715
g56
(g77
g58
NtRp2716
(dp2717
g61
(dp2718
g81
g82
ssg70
g2712
sg63
(lp2719
S'HTTP_COOKIE'
p2720
asbag56
(g77
g58
NtRp2721
(dp2722
g61
(dp2723
g88
g89
ssg70
g2712
sg63
(lp2724
S':'
asbag56
(g77
g58
NtRp2725
(dp2726
g61
(dp2727
sg70
g2712
sg63
(lp2728
g56
(g57
g58
NtRp2729
(dp2730
g61
(dp2731
g69
I3
ssg70
g2725
sg63
(lp2732
g1309
asbasbasbag56
(g72
g58
NtRp2733
(dp2734
g61
(dp2735
sg70
g2603
sg63
(lp2736
g56
(g77
g58
NtRp2737
(dp2738
g61
(dp2739
g81
g82
ssg70
g2733
sg63
(lp2740
S'HTTP_HOST'
p2741
asbag56
(g77
g58
NtRp2742
(dp2743
g61
(dp2744
g88
g89
ssg70
g2733
sg63
(lp2745
S':'
asbag56
(g77
g58
NtRp2746
(dp2747
g61
(dp2748
sg70
g2733
sg63
(lp2749
g56
(g57
g58
NtRp2750
(dp2751
g61
(dp2752
g69
I3
ssg70
g2746
sg63
(lp2753
g1331
asbasbasbag56
(g72
g58
NtRp2754
(dp2755
g61
(dp2756
sg70
g2603
sg63
(lp2757
g56
(g77
g58
NtRp2758
(dp2759
g61
(dp2760
g81
g82
ssg70
g2754
sg63
(lp2761
S'HTTP_REFERER'
p2762
asbag56
(g77
g58
NtRp2763
(dp2764
g61
(dp2765
g88
g89
ssg70
g2754
sg63
(lp2766
S':'
asbag56
(g77
g58
NtRp2767
(dp2768
g61
(dp2769
sg70
g2754
sg63
(lp2770
g56
(g57
g58
NtRp2771
(dp2772
g61
(dp2773
g69
I3
ssg70
g2767
sg63
(lp2774
g1353
asbasbasbag56
(g72
g58
NtRp2775
(dp2776
g61
(dp2777
sg70
g2603
sg63
(lp2778
g56
(g77
g58
NtRp2779
(dp2780
g61
(dp2781
g81
g82
ssg70
g2775
sg63
(lp2782
S'HTTP_USER_AGENT'
p2783
asbag56
(g77
g58
NtRp2784
(dp2785
g61
(dp2786
g88
g89
ssg70
g2775
sg63
(lp2787
S':'
asbag56
(g77
g58
NtRp2788
(dp2789
g61
(dp2790
sg70
g2775
sg63
(lp2791
g56
(g57
g58
NtRp2792
(dp2793
g61
(dp2794
g69
I3
ssg70
g2788
sg63
(lp2795
g1375
asbasbasbag56
(g72
g58
NtRp2796
(dp2797
g61
(dp2798
sg70
g2603
sg63
(lp2799
g56
(g77
g58
NtRp2800
(dp2801
g61
(dp2802
g81
g82
ssg70
g2796
sg63
(lp2803
S'PATH_INFO'
p2804
asbag56
(g77
g58
NtRp2805
(dp2806
g61
(dp2807
g88
g89
ssg70
g2796
sg63
(lp2808
S':'
asbag56
(g77
g58
NtRp2809
(dp2810
g61
(dp2811
sg70
g2796
sg63
(lp2812
g56
(g57
g58
NtRp2813
(dp2814
g61
(dp2815
g69
I3
ssg70
g2809
sg63
(lp2816
g1418
asbasbasbag56
(g72
g58
NtRp2817
(dp2818
g61
(dp2819
sg70
g2603
sg63
(lp2820
g56
(g77
g58
NtRp2821
(dp2822
g61
(dp2823
g81
g82
ssg70
g2817
sg63
(lp2824
S'QUERY_STRING'
p2825
asbag56
(g77
g58
NtRp2826
(dp2827
g61
(dp2828
g88
g89
ssg70
g2817
sg63
(lp2829
S':'
asbag56
(g77
g58
NtRp2830
(dp2831
g61
(dp2832
sg70
g2817
sg63
(lp2833
g56
(g57
g58
NtRp2834
(dp2835
g61
(dp2836
g69
I3
ssg70
g2830
sg63
(lp2837
S''
asbasbasbag56
(g72
g58
NtRp2838
(dp2839
g61
(dp2840
sg70
g2603
sg63
(lp2841
g56
(g77
g58
NtRp2842
(dp2843
g61
(dp2844
g81
g82
ssg70
g2838
sg63
(lp2845
S'REMOTE_ADDR'
p2846
asbag56
(g77
g58
NtRp2847
(dp2848
g61
(dp2849
g88
g89
ssg70
g2838
sg63
(lp2850
S':'
asbag56
(g77
g58
NtRp2851
(dp2852
g61
(dp2853
sg70
g2838
sg63
(lp2854
g56
(g57
g58
NtRp2855
(dp2856
g61
(dp2857
g69
I3
ssg70
g2851
sg63
(lp2858
g201
asbasbasbag56
(g72
g58
NtRp2859
(dp2860
g61
(dp2861
sg70
g2603
sg63
(lp2862
g56
(g77
g58
NtRp2863
(dp2864
g61
(dp2865
g81
g82
ssg70
g2859
sg63
(lp2866
S'REMOTE_PORT'
p2867
asbag56
(g77
g58
NtRp2868
(dp2869
g61
(dp2870
g88
g89
ssg70
g2859
sg63
(lp2871
S':'
asbag56
(g77
g58
NtRp2872
(dp2873
g61
(dp2874
sg70
g2859
sg63
(lp2875
g56
(g57
g58
NtRp2876
(dp2877
g61
(dp2878
g69
I3
ssg70
g2872
sg63
(lp2879
g1482
asbasbasbag56
(g72
g58
NtRp2880
(dp2881
g61
(dp2882
sg70
g2603
sg63
(lp2883
g56
(g77
g58
NtRp2884
(dp2885
g61
(dp2886
g81
g82
ssg70
g2880
sg63
(lp2887
S'REQUEST_METHOD'
p2888
asbag56
(g77
g58
NtRp2889
(dp2890
g61
(dp2891
g88
g89
ssg70
g2880
sg63
(lp2892
S':'
asbag56
(g77
g58
NtRp2893
(dp2894
g61
(dp2895
sg70
g2880
sg63
(lp2896
g56
(g57
g58
NtRp2897
(dp2898
g61
(dp2899
g69
I3
ssg70
g2893
sg63
(lp2900
g1504
asbasbasbag56
(g72
g58
NtRp2901
(dp2902
g61
(dp2903
sg70
g2603
sg63
(lp2904
g56
(g77
g58
NtRp2905
(dp2906
g61
(dp2907
g81
g82
ssg70
g2901
sg63
(lp2908
S'SCRIPT_NAME'
p2909
asbag56
(g77
g58
NtRp2910
(dp2911
g61
(dp2912
g88
g89
ssg70
g2901
sg63
(lp2913
S':'
asbag56
(g77
g58
NtRp2914
(dp2915
g61
(dp2916
sg70
g2901
sg63
(lp2917
g56
(g57
g58
NtRp2918
(dp2919
g61
(dp2920
g69
I3
ssg70
g2914
sg63
(lp2921
S''
asbasbasbag56
(g72
g58
NtRp2922
(dp2923
g61
(dp2924
sg70
g2603
sg63
(lp2925
g56
(g77
g58
NtRp2926
(dp2927
g61
(dp2928
g81
g82
ssg70
g2922
sg63
(lp2929
S'SERVER_NAME'
p2930
asbag56
(g77
g58
NtRp2931
(dp2932
g61
(dp2933
g88
g89
ssg70
g2922
sg63
(lp2934
S':'
asbag56
(g77
g58
NtRp2935
(dp2936
g61
(dp2937
sg70
g2922
sg63
(lp2938
g56
(g57
g58
NtRp2939
(dp2940
g61
(dp2941
g69
I3
ssg70
g2935
sg63
(lp2942
g1547
asbasbasbag56
(g72
g58
NtRp2943
(dp2944
g61
(dp2945
sg70
g2603
sg63
(lp2946
g56
(g77
g58
NtRp2947
(dp2948
g61
(dp2949
g81
g82
ssg70
g2943
sg63
(lp2950
S'SERVER_PORT'
p2951
asbag56
(g77
g58
NtRp2952
(dp2953
g61
(dp2954
g88
g89
ssg70
g2943
sg63
(lp2955
S':'
asbag56
(g77
g58
NtRp2956
(dp2957
g61
(dp2958
sg70
g2943
sg63
(lp2959
g56
(g57
g58
NtRp2960
(dp2961
g61
(dp2962
g69
I3
ssg70
g2956
sg63
(lp2963
g1569
asbasbasbag56
(g72
g58
NtRp2964
(dp2965
g61
(dp2966
sg70
g2603
sg63
(lp2967
g56
(g77
g58
NtRp2968
(dp2969
g61
(dp2970
g81
g82
ssg70
g2964
sg63
(lp2971
S'SERVER_PROTOCOL'
p2972
asbag56
(g77
g58
NtRp2973
(dp2974
g61
(dp2975
g88
g89
ssg70
g2964
sg63
(lp2976
S':'
asbag56
(g77
g58
NtRp2977
(dp2978
g61
(dp2979
sg70
g2964
sg63
(lp2980
g56
(g57
g58
NtRp2981
(dp2982
g61
(dp2983
g69
I3
ssg70
g2977
sg63
(lp2984
g1591
asbasbasbag56
(g72
g58
NtRp2985
(dp2986
g61
(dp2987
sg70
g2603
sg63
(lp2988
g56
(g77
g58
NtRp2989
(dp2990
g61
(dp2991
g81
g82
ssg70
g2985
sg63
(lp2992
S'SERVER_SOFTWARE'
p2993
asbag56
(g77
g58
NtRp2994
(dp2995
g61
(dp2996
g88
g89
ssg70
g2985
sg63
(lp2997
S':'
asbag56
(g77
g58
NtRp2998
(dp2999
g61
(dp3000
sg70
g2985
sg63
(lp3001
g56
(g57
g58
NtRp3002
(dp3003
g61
(dp3004
g69
I3
ssg70
g2998
sg63
(lp3005
g1613
asbasbasbag56
(g72
g58
NtRp3006
(dp3007
g61
(dp3008
sg70
g2603
sg63
(lp3009
g56
(g77
g58
NtRp3010
(dp3011
g61
(dp3012
g81
g82
ssg70
g3006
sg63
(lp3013
S'wsgi.errors'
p3014
asbag56
(g77
g58
NtRp3015
(dp3016
g61
(dp3017
g88
g89
ssg70
g3006
sg63
(lp3018
S':'
asbag56
(g77
g58
NtRp3019
(dp3020
g61
(dp3021
sg70
g3006
sg63
(lp3022
g56
(g57
g58
NtRp3023
(dp3024
g61
(dp3025
g69
I3
ssg70
g3019
sg63
(lp3026
S"<open file '<stderr>', mode 'w' at 0x7f9678b3d270>"
p3027
asbasbasbag56
(g72
g58
NtRp3028
(dp3029
g61
(dp3030
sg70
g2603
sg63
(lp3031
g56
(g77
g58
NtRp3032
(dp3033
g61
(dp3034
g81
g82
ssg70
g3028
sg63
(lp3035
S'wsgi.file_wrapper'
p3036
asbag56
(g77
g58
NtRp3037
(dp3038
g61
(dp3039
g88
g89
ssg70
g3028
sg63
(lp3040
S':'
asbag56
(g77
g58
NtRp3041
(dp3042
g61
(dp3043
sg70
g3028
sg63
(lp3044
g56
(g57
g58
NtRp3045
(dp3046
g61
(dp3047
g69
I3
ssg70
g3041
sg63
(lp3048
S'<class wsgiref.util.FileWrapper at 0x1ec9870>'
p3049
asbasbasbag56
(g72
g58
NtRp3050
(dp3051
g61
(dp3052
sg70
g2603
sg63
(lp3053
g56
(g77
g58
NtRp3054
(dp3055
g61
(dp3056
g81
g82
ssg70
g3050
sg63
(lp3057
S'wsgi.input'
p3058
asbag56
(g77
g58
NtRp3059
(dp3060
g61
(dp3061
g88
g89
ssg70
g3050
sg63
(lp3062
S':'
asbag56
(g77
g58
NtRp3063
(dp3064
g61
(dp3065
sg70
g3050
sg63
(lp3066
g56
(g57
g58
NtRp3067
(dp3068
g61
(dp3069
g69
I3
ssg70
g3063
sg63
(lp3070
S'<cStringIO.StringO object at 0x2e10f48>'
p3071
asbasbasbag56
(g72
g58
NtRp3072
(dp3073
g61
(dp3074
sg70
g2603
sg63
(lp3075
g56
(g77
g58
NtRp3076
(dp3077
g61
(dp3078
g81
g82
ssg70
g3072
sg63
(lp3079
S'wsgi.multiprocess'
p3080
asbag56
(g77
g58
NtRp3081
(dp3082
g61
(dp3083
g88
g89
ssg70
g3072
sg63
(lp3084
S':'
asbag56
(g77
g58
NtRp3085
(dp3086
g61
(dp3087
sg70
g3072
sg63
(lp3088
g56
(g57
g58
NtRp3089
(dp3090
g61
(dp3091
g69
I3
ssg70
g3085
sg63
(lp3092
g99
asbasbasbag56
(g72
g58
NtRp3093
(dp3094
g61
(dp3095
sg70
g2603
sg63
(lp3096
g56
(g77
g58
NtRp3097
(dp3098
g61
(dp3099
g81
g82
ssg70
g3093
sg63
(lp3100
S'wsgi.multithread'
p3101
asbag56
(g77
g58
NtRp3102
(dp3103
g61
(dp3104
g88
g89
ssg70
g3093
sg63
(lp3105
S':'
asbag56
(g77
g58
NtRp3106
(dp3107
g61
(dp3108
sg70
g3093
sg63
(lp3109
g56
(g57
g58
NtRp3110
(dp3111
g61
(dp3112
g69
I3
ssg70
g3106
sg63
(lp3113
g1853
asbasbasbag56
(g72
g58
NtRp3114
(dp3115
g61
(dp3116
sg70
g2603
sg63
(lp3117
g56
(g77
g58
NtRp3118
(dp3119
g61
(dp3120
g81
g82
ssg70
g3114
sg63
(lp3121
S'wsgi.run_once'
p3122
asbag56
(g77
g58
NtRp3123
(dp3124
g61
(dp3125
g88
g89
ssg70
g3114
sg63
(lp3126
S':'
asbag56
(g77
g58
NtRp3127
(dp3128
g61
(dp3129
sg70
g3114
sg63
(lp3130
g56
(g57
g58
NtRp3131
(dp3132
g61
(dp3133
g69
I3
ssg70
g3127
sg63
(lp3134
g99
asbasbasbag56
(g72
g58
NtRp3135
(dp3136
g61
(dp3137
sg70
g2603
sg63
(lp3138
g56
(g77
g58
NtRp3139
(dp3140
g61
(dp3141
g81
g82
ssg70
g3135
sg63
(lp3142
S'wsgi.url_scheme'
p3143
asbag56
(g77
g58
NtRp3144
(dp3145
g61
(dp3146
g88
g89
ssg70
g3135
sg63
(lp3147
S':'
asbag56
(g77
g58
NtRp3148
(dp3149
g61
(dp3150
sg70
g3135
sg63
(lp3151
g56
(g57
g58
NtRp3152
(dp3153
g61
(dp3154
g69
I3
ssg70
g3148
sg63
(lp3155
g1896
asbasbasbag56
(g72
g58
NtRp3156
(dp3157
g61
(dp3158
sg70
g2603
sg63
(lp3159
g56
(g77
g58
NtRp3160
(dp3161
g61
(dp3162
g81
g82
ssg70
g3156
sg63
(lp3163
S'wsgi.version'
p3164
asbag56
(g77
g58
NtRp3165
(dp3166
g61
(dp3167
g88
g89
ssg70
g3156
sg63
(lp3168
S':'
asbag56
(g77
g58
NtRp3169
(dp3170
g61
(dp3171
sg70
g3156
sg63
(lp3172
g56
(g57
g58
NtRp3173
(dp3174
g61
(dp3175
g69
I3
ssg70
g3169
sg63
(lp3176
S'1'
asbasbasbasbasbasbasbasbasbasbasbasbasbsS'frames'
p3177
(lp3178
(dp3179
S'file'
p3180
S'/home/ian/web2py/gluon/restricted.py'
p3181
sS'dump'
p3182
(dp3183
S'environment'
p3184
S"{'A': <class 'gluon.html.A'>, 'Auth': <class 'gluon.tools.Auth'>, 'B': <class 'gluon.html.B'>, 'BEAUTIFY': <class 'gluon.html.BEAUTIFY'>, 'BODY': <class 'gluon.html.BODY'>, 'BR': <class 'gluon.html.BR'>, 'BUTTON': <class 'gluon.html.BUTTON'>, 'CAT': <class 'gluon.html.CAT'>, 'CENTER': <class 'gluon.html.CENTER'>, 'CLEANUP': <class 'gluon.validators.CLEANUP'>, ...}"
p3185
sS'ccode'
p3186
S'<code object <module> at 0x38c21b0, file "/home/...lications/grades/controllers/default.py", line 1>'
p3187
ssS'lnum'
p3188
I194
sS'lines'
p3189
(dp3190
I192
S'        else:'
p3191
sI193
S'            ccode = compile2(code,layer)'
p3192
sI194
S'        exec ccode in environment'
p3193
sI195
S'    except HTTP:'
p3194
sI196
S'        raise'
p3195
sI197
S'    except Exception, error:'
p3196
sI198
S'        # XXX Show exception in Wing IDE if running in debugger'
p3197
sI189
S'    try:'
p3198
sI190
S'        if type(code) == types.CodeType:'
p3199
sI191
S'            ccode = code'
p3200
ssS'call'
p3201
S"(code='# -*- coding: utf-8 -*-\\nif 0:\\n    from gluon imp...  \\nresponse._vars=response._caller(create_grade)\\n', environment={'A': <class 'gluon.html.A'>, 'Auth': <class 'gluon.tools.Auth'>, 'B': <class 'gluon.html.B'>, 'BEAUTIFY': <class 'gluon.html.BEAUTIFY'>, 'BODY': <class 'gluon.html.BODY'>, 'BR': <class 'gluon.html.BR'>, 'BUTTON': <class 'gluon.html.BUTTON'>, 'CAT': <class 'gluon.html.CAT'>, 'CENTER': <class 'gluon.html.CENTER'>, 'CLEANUP': <class 'gluon.validators.CLEANUP'>, ...}, layer='/home/ian/web2py/applications/grades/controllers/default.py')"
p3202
sS'func'
p3203
S'restricted'
p3204
sa(dp3205
g3180
S'/home/ian/web2py/applications/grades/controllers/default.py'
p3206
sg3182
(dp3207
sg3188
I78
sg3189
(dp3208
I68
S'            dates = g[the_course]'
p3209
sI69
S'            if the_date in dates:'
p3210
sI70
S'                dates[the_date].append(r.grade)'
p3211
sI71
S'            else:'
p3212
sI72
S'                dates[the_date] = [r.grade]'
p3213
sI73
S'        else:'
p3214
sI74
S'            l = [r.grade]'
p3215
sI75
S'            the_date = r.class_date'
p3216
sI76
S'            g[r.course] = dict(the_date = l)'
p3217
sI77
S'    return dict(grades = g, students = students, student = student)'
p3218
ssg3201
S'()'
p3219
sg3203
S'<module>'
p3220
sa(dp3221
g3180
S'/home/ian/web2py/gluon/globals.py'
p3222
sg3182
(dp3223
S'self'
p3224
S'undefined'
p3225
sS'f'
S'<function create_grade>'
p3226
ssg3188
I149
sg3189
(dp3227
I144
S'        self.meta = Storage()      # used by web2py_ajax.html'
p3228
sI145
S'        self.menu = []             # used by the default view layout'
p3229
sI146
S'        self.files = []            # used by web2py_ajax.html'
p3230
sI147
S'        self.generic_patterns = [] # patterns to allow generic views'
p3231
sI148
S'        self._vars = None'
p3232
sI149
S'        self._caller = lambda f: f()'
p3233
sI150
S'        self._view_environment = None'
p3234
sI151
S'        self._custom_commit = None'
p3235
sI152
S'        self._custom_rollback = None'
p3236
sI153
S''
ssg3201
S'(f=<function create_grade>)'
p3237
sg3203
S'<lambda>'
p3238
sa(dp3239
g3180
S'/home/ian/web2py/gluon/tools.py'
p3240
sg3182
(dp3241
S'action'
p3242
S'<function create_grade>'
p3243
sS'a'
S'()'
p3244
sS'b'
g44
ssg3188
I2456
sg3189
(dp3245
I2451
S"                            '?_next='+urllib.quote(next))"
p3246
sI2452
S'                if not condition:'
p3247
sI2453
S'                    current.session.flash = self.messages.access_denied'
p3248
sI2454
S'                    return call_or_redirect('
p3249
sI2455
S'                        self.settings.on_failed_authorization)'
p3250
sI2456
S'                return action(*a, **b)'
p3251
sI2457
S'            f.__doc__ = action.__doc__'
p3252
sI2458
S'            f.__name__ = action.__name__'
p3253
sI2459
S'            f.__dict__.update(action.__dict__)'
p3254
sI2460
S'            return f'
p3255
ssg3201
S'(*a=(), **b={})'
p3256
sg3203
S'f'
sa(dp3257
g3180
S'/home/ian/web2py/applications/grades/controllers/default.py'
p3258
sg3182
(dp3259
S'the_user.first_name'
p3260
g3225
sS'the_user'
p3261
S'<gluon.dal.Rows object>'
p3262
sS'fn'
p3263
g3225
ssg3188
I44
sg3189
(dp3264
I39
S'def create_grade():'
p3265
sI40
S"    form = SQLFORM(db.grades, separator='', fields=['name', 'course', 'grade', 'class_date'], labels={'name':'Student receiving grade'})"
p3266
sI41
S'    if form.process().accepted:'
p3267
sI42
S"        response.flash = 'Thanks! The grade was recorded.'"
p3268
sI43
S'    the_user = db(db.auth_user.id == auth.user_id).select()'
p3269
sI44
S'    fn = the_user.first_name'
p3270
sI45
S"    cancel_button = A('cancel', _href=URL('index'), _class='cancel')"
p3271
sI46
S'    return dict(form = form, cancel_button = cancel_button, fn = fn)'
p3272
sI47
S''
sI48
S"@auth.requires_membership(role='administrators')"
p3273
ssg3201
S'()'
p3274
sg3203
S'create_grade'
p3275
sasS'pyver'
p3276
S'Python 2.7.2+: /usr/bin/python2.7'
p3277
sS'session'
p3278
g56
(g57
g58
NtRp3279
(dp3280
g61
(dp3281
sg63
(lp3282
g56
(g65
g58
NtRp3283
(dp3284
g61
(dp3285
g69
I5
ssg70
Nsg63
(lp3286
g56
(g72
g58
NtRp3287
(dp3288
g61
(dp3289
sg70
g3283
sg63
(lp3290
g56
(g77
g58
NtRp3291
(dp3292
g61
(dp3293
g81
g82
ssg70
g3287
sg63
(lp3294
S'auth'
p3295
asbag56
(g77
g58
NtRp3296
(dp3297
g61
(dp3298
g88
g89
ssg70
g3287
sg63
(lp3299
S':'
asbag56
(g77
g58
NtRp3300
(dp3301
g61
(dp3302
sg70
g3287
sg63
(lp3303
g56
(g57
g58
NtRp3304
(dp3305
g61
(dp3306
g69
I5
ssg70
g3300
sg63
(lp3307
g56
(g65
g58
NtRp3308
(dp3309
g61
(dp3310
g69
I4
ssg70
Nsg63
(lp3311
g56
(g72
g58
NtRp3312
(dp3313
g61
(dp3314
sg70
g3308
sg63
(lp3315
g56
(g77
g58
NtRp3316
(dp3317
g61
(dp3318
g81
g82
ssg70
g3312
sg63
(lp3319
S'expiration'
p3320
asbag56
(g77
g58
NtRp3321
(dp3322
g61
(dp3323
g88
g89
ssg70
g3312
sg63
(lp3324
S':'
asbag56
(g77
g58
NtRp3325
(dp3326
g61
(dp3327
sg70
g3312
sg63
(lp3328
g56
(g57
g58
NtRp3329
(dp3330
g61
(dp3331
g69
I4
ssg70
g3325
sg63
(lp3332
S'2592000'
p3333
asbasbasbag56
(g72
g58
NtRp3334
(dp3335
g61
(dp3336
sg70
g3308
sg63
(lp3337
g56
(g77
g58
NtRp3338
(dp3339
g61
(dp3340
g81
g82
ssg70
g3334
sg63
(lp3341
S'hmac_key'
p3342
asbag56
(g77
g58
NtRp3343
(dp3344
g61
(dp3345
g88
g89
ssg70
g3334
sg63
(lp3346
S':'
asbag56
(g77
g58
NtRp3347
(dp3348
g61
(dp3349
sg70
g3334
sg63
(lp3350
g56
(g57
g58
NtRp3351
(dp3352
g61
(dp3353
g69
I4
ssg70
g3347
sg63
(lp3354
S'9b7ebcac-3930-4d2e-b821-147c95f7c4c2'
p3355
asbasbasbag56
(g72
g58
NtRp3356
(dp3357
g61
(dp3358
sg70
g3308
sg63
(lp3359
g56
(g77
g58
NtRp3360
(dp3361
g61
(dp3362
g81
g82
ssg70
g3356
sg63
(lp3363
S'last_visit'
p3364
asbag56
(g77
g58
NtRp3365
(dp3366
g61
(dp3367
g88
g89
ssg70
g3356
sg63
(lp3368
S':'
asbag56
(g77
g58
NtRp3369
(dp3370
g61
(dp3371
sg70
g3356
sg63
(lp3372
g56
(g57
g58
NtRp3373
(dp3374
g61
(dp3375
g69
I4
ssg70
g3369
sg63
(lp3376
S'datetime.datetime(2011, 11, 6, 15, 31, 56, 972407)'
p3377
asbasbasbag56
(g72
g58
NtRp3378
(dp3379
g61
(dp3380
sg70
g3308
sg63
(lp3381
g56
(g77
g58
NtRp3382
(dp3383
g61
(dp3384
g81
g82
ssg70
g3378
sg63
(lp3385
S'remember'
p3386
asbag56
(g77
g58
NtRp3387
(dp3388
g61
(dp3389
g88
g89
ssg70
g3378
sg63
(lp3390
S':'
asbag56
(g77
g58
NtRp3391
(dp3392
g61
(dp3393
sg70
g3378
sg63
(lp3394
g56
(g57
g58
NtRp3395
(dp3396
g61
(dp3397
g69
I4
ssg70
g3391
sg63
(lp3398
g99
asbasbasbag56
(g72
g58
NtRp3399
(dp3400
g61
(dp3401
sg70
g3308
sg63
(lp3402
g56
(g77
g58
NtRp3403
(dp3404
g61
(dp3405
g81
g82
ssg70
g3399
sg63
(lp3406
S'user'
p3407
asbag56
(g77
g58
NtRp3408
(dp3409
g61
(dp3410
g88
g89
ssg70
g3399
sg63
(lp3411
S':'
asbag56
(g77
g58
NtRp3412
(dp3413
g61
(dp3414
sg70
g3399
sg63
(lp3415
g56
(g57
g58
NtRp3416
(dp3417
g61
(dp3418
g69
I4
ssg70
g3412
sg63
(lp3419
g56
(g65
g58
NtRp3420
(dp3421
g61
(dp3422
g69
I3
ssg70
Nsg63
(lp3423
g56
(g72
g58
NtRp3424
(dp3425
g61
(dp3426
sg70
g3420
sg63
(lp3427
g56
(g77
g58
NtRp3428
(dp3429
g61
(dp3430
g81
g82
ssg70
g3424
sg63
(lp3431
S'email'
p3432
asbag56
(g77
g58
NtRp3433
(dp3434
g61
(dp3435
g88
g89
ssg70
g3424
sg63
(lp3436
S':'
asbag56
(g77
g58
NtRp3437
(dp3438
g61
(dp3439
sg70
g3424
sg63
(lp3440
g56
(g57
g58
NtRp3441
(dp3442
g61
(dp3443
g69
I3
ssg70
g3437
sg63
(lp3444
S'scottianw@gmail.com'
p3445
asbasbasbag56
(g72
g58
NtRp3446
(dp3447
g61
(dp3448
sg70
g3420
sg63
(lp3449
g56
(g77
g58
NtRp3450
(dp3451
g61
(dp3452
g81
g82
ssg70
g3446
sg63
(lp3453
S'first_name'
p3454
asbag56
(g77
g58
NtRp3455
(dp3456
g61
(dp3457
g88
g89
ssg70
g3446
sg63
(lp3458
S':'
asbag56
(g77
g58
NtRp3459
(dp3460
g61
(dp3461
sg70
g3446
sg63
(lp3462
g56
(g57
g58
NtRp3463
(dp3464
g61
(dp3465
g69
I3
ssg70
g3459
sg63
(lp3466
S'Ian'
p3467
asbasbasbag56
(g72
g58
NtRp3468
(dp3469
g61
(dp3470
sg70
g3420
sg63
(lp3471
g56
(g77
g58
NtRp3472
(dp3473
g61
(dp3474
g81
g82
ssg70
g3468
sg63
(lp3475
S'id'
p3476
asbag56
(g77
g58
NtRp3477
(dp3478
g61
(dp3479
g88
g89
ssg70
g3468
sg63
(lp3480
S':'
asbag56
(g77
g58
NtRp3481
(dp3482
g61
(dp3483
sg70
g3468
sg63
(lp3484
g56
(g57
g58
NtRp3485
(dp3486
g61
(dp3487
g69
I3
ssg70
g3481
sg63
(lp3488
S'11'
p3489
asbasbasbag56
(g72
g58
NtRp3490
(dp3491
g61
(dp3492
sg70
g3420
sg63
(lp3493
g56
(g77
g58
NtRp3494
(dp3495
g61
(dp3496
g81
g82
ssg70
g3490
sg63
(lp3497
S'last_name'
p3498
asbag56
(g77
g58
NtRp3499
(dp3500
g61
(dp3501
g88
g89
ssg70
g3490
sg63
(lp3502
S':'
asbag56
(g77
g58
NtRp3503
(dp3504
g61
(dp3505
sg70
g3490
sg63
(lp3506
g56
(g57
g58
NtRp3507
(dp3508
g61
(dp3509
g69
I3
ssg70
g3503
sg63
(lp3510
S'Scott'
p3511
asbasbasbag56
(g72
g58
NtRp3512
(dp3513
g61
(dp3514
sg70
g3420
sg63
(lp3515
g56
(g77
g58
NtRp3516
(dp3517
g61
(dp3518
g81
g82
ssg70
g3512
sg63
(lp3519
S'password'
p3520
asbag56
(g77
g58
NtRp3521
(dp3522
g61
(dp3523
g88
g89
ssg70
g3512
sg63
(lp3524
S':'
asbag56
(g77
g58
NtRp3525
(dp3526
g61
(dp3527
sg70
g3512
sg63
(lp3528
g56
(g57
g58
NtRp3529
(dp3530
g61
(dp3531
g69
I3
ssg70
g3525
sg63
(lp3532
S'351bc855a8ae4839e89ee60d2f279ed9'
p3533
asbasbasbag56
(g72
g58
NtRp3534
(dp3535
g61
(dp3536
sg70
g3420
sg63
(lp3537
g56
(g77
g58
NtRp3538
(dp3539
g61
(dp3540
g81
g82
ssg70
g3534
sg63
(lp3541
S'registration_key'
p3542
asbag56
(g77
g58
NtRp3543
(dp3544
g61
(dp3545
g88
g89
ssg70
g3534
sg63
(lp3546
S':'
asbag56
(g77
g58
NtRp3547
(dp3548
g61
(dp3549
sg70
g3534
sg63
(lp3550
g56
(g57
g58
NtRp3551
(dp3552
g61
(dp3553
g69
I3
ssg70
g3547
sg63
(lp3554
S''
asbasbasbag56
(g72
g58
NtRp3555
(dp3556
g61
(dp3557
sg70
g3420
sg63
(lp3558
g56
(g77
g58
NtRp3559
(dp3560
g61
(dp3561
g81
g82
ssg70
g3555
sg63
(lp3562
S'reset_password_key'
p3563
asbag56
(g77
g58
NtRp3564
(dp3565
g61
(dp3566
g88
g89
ssg70
g3555
sg63
(lp3567
S':'
asbag56
(g77
g58
NtRp3568
(dp3569
g61
(dp3570
sg70
g3555
sg63
(lp3571
g56
(g57
g58
NtRp3572
(dp3573
g61
(dp3574
g69
I3
ssg70
g3568
sg63
(lp3575
S''
asbasbasbasbasbasbasbasbasbasbasbasbasbsS'etype'
p3576
S"<type 'exceptions.AttributeError'>"
p3577
sS'date'
p3578
S'Wed Nov  9 11:24:45 2011'
p3579
sS'response'
p3580
g56
(g57
g58
NtRp3581
(dp3582
g61
(dp3583
sg63
(lp3584
g56
(g65
g58
NtRp3585
(dp3586
g61
(dp3587
g69
I5
ssg70
Nsg63
(lp3588
g56
(g72
g58
NtRp3589
(dp3590
g61
(dp3591
sg70
g3585
sg63
(lp3592
g56
(g77
g58
NtRp3593
(dp3594
g61
(dp3595
g81
g82
ssg70
g3589
sg63
(lp3596
g166
asbag56
(g77
g58
NtRp3597
(dp3598
g61
(dp3599
g88
g89
ssg70
g3589
sg63
(lp3600
S':'
asbag56
(g77
g58
NtRp3601
(dp3602
g61
(dp3603
sg70
g3589
sg63
(lp3604
g56
(g57
g58
NtRp3605
(dp3606
g61
(dp3607
g69
I5
ssg70
g3601
sg63
(lp3608
S'<cStringIO.StringO object at 0x364d688>'
p3609
asbasbasbag56
(g72
g58
NtRp3610
(dp3611
g61
(dp3612
sg70
g3585
sg63
(lp3613
g56
(g77
g58
NtRp3614
(dp3615
g61
(dp3616
g81
g82
ssg70
g3610
sg63
(lp3617
g232
asbag56
(g77
g58
NtRp3618
(dp3619
g61
(dp3620
g88
g89
ssg70
g3610
sg63
(lp3621
S':'
asbag56
(g77
g58
NtRp3622
(dp3623
g61
(dp3624
sg70
g3610
sg63
(lp3625
g56
(g57
g58
NtRp3626
(dp3627
g61
(dp3628
g69
I5
ssg70
g3622
sg63
(lp3629
g56
(g65
g58
NtRp3630
(dp3631
g61
(dp3632
g69
I4
ssg70
Nsg63
(lp3633
g56
(g72
g58
NtRp3634
(dp3635
g61
(dp3636
sg70
g3630
sg63
(lp3637
g56
(g77
g58
NtRp3638
(dp3639
g61
(dp3640
g81
g82
ssg70
g3634
sg63
(lp3641
S'session_id_grades'
p3642
asbag56
(g77
g58
NtRp3643
(dp3644
g61
(dp3645
g88
g89
ssg70
g3634
sg63
(lp3646
S':'
asbag56
(g77
g58
NtRp3647
(dp3648
g61
(dp3649
sg70
g3634
sg63
(lp3650
g56
(g57
g58
NtRp3651
(dp3652
g61
(dp3653
g69
I4
ssg70
g3647
sg63
(lp3654
g56
(g65
g58
NtRp3655
(dp3656
g61
(dp3657
g69
I3
ssg70
Nsg63
(lp3658
g56
(g72
g58
NtRp3659
(dp3660
g61
(dp3661
sg70
g3655
sg63
(lp3662
g56
(g77
g58
NtRp3663
(dp3664
g61
(dp3665
g81
g82
ssg70
g3659
sg63
(lp3666
g282
asbag56
(g77
g58
NtRp3667
(dp3668
g61
(dp3669
g88
g89
ssg70
g3659
sg63
(lp3670
S':'
asbag56
(g77
g58
NtRp3671
(dp3672
g61
(dp3673
sg70
g3659
sg63
(lp3674
g56
(g57
g58
NtRp3675
(dp3676
g61
(dp3677
g69
I3
ssg70
g3671
sg63
(lp3678
S''
asbasbasbag56
(g72
g58
NtRp3679
(dp3680
g61
(dp3681
sg70
g3655
sg63
(lp3682
g56
(g77
g58
NtRp3683
(dp3684
g61
(dp3685
g81
g82
ssg70
g3679
sg63
(lp3686
g303
asbag56
(g77
g58
NtRp3687
(dp3688
g61
(dp3689
g88
g89
ssg70
g3679
sg63
(lp3690
S':'
asbag56
(g77
g58
NtRp3691
(dp3692
g61
(dp3693
sg70
g3679
sg63
(lp3694
g56
(g57
g58
NtRp3695
(dp3696
g61
(dp3697
g69
I3
ssg70
g3691
sg63
(lp3698
S''
asbasbasbag56
(g72
g58
NtRp3699
(dp3700
g61
(dp3701
sg70
g3655
sg63
(lp3702
g56
(g77
g58
NtRp3703
(dp3704
g61
(dp3705
g81
g82
ssg70
g3699
sg63
(lp3706
g324
asbag56
(g77
g58
NtRp3707
(dp3708
g61
(dp3709
g88
g89
ssg70
g3699
sg63
(lp3710
S':'
asbag56
(g77
g58
NtRp3711
(dp3712
g61
(dp3713
sg70
g3699
sg63
(lp3714
g56
(g57
g58
NtRp3715
(dp3716
g61
(dp3717
g69
I3
ssg70
g3711
sg63
(lp3718
S''
asbasbasbag56
(g72
g58
NtRp3719
(dp3720
g61
(dp3721
sg70
g3655
sg63
(lp3722
g56
(g77
g58
NtRp3723
(dp3724
g61
(dp3725
g81
g82
ssg70
g3719
sg63
(lp3726
g345
asbag56
(g77
g58
NtRp3727
(dp3728
g61
(dp3729
g88
g89
ssg70
g3719
sg63
(lp3730
S':'
asbag56
(g77
g58
NtRp3731
(dp3732
g61
(dp3733
sg70
g3719
sg63
(lp3734
g56
(g57
g58
NtRp3735
(dp3736
g61
(dp3737
g69
I3
ssg70
g3731
sg63
(lp3738
S''
asbasbasbag56
(g72
g58
NtRp3739
(dp3740
g61
(dp3741
sg70
g3655
sg63
(lp3742
g56
(g77
g58
NtRp3743
(dp3744
g61
(dp3745
g81
g82
ssg70
g3739
sg63
(lp3746
g366
asbag56
(g77
g58
NtRp3747
(dp3748
g61
(dp3749
g88
g89
ssg70
g3739
sg63
(lp3750
S':'
asbag56
(g77
g58
NtRp3751
(dp3752
g61
(dp3753
sg70
g3739
sg63
(lp3754
g56
(g57
g58
NtRp3755
(dp3756
g61
(dp3757
g69
I3
ssg70
g3751
sg63
(lp3758
S''
asbasbasbag56
(g72
g58
NtRp3759
(dp3760
g61
(dp3761
sg70
g3655
sg63
(lp3762
g56
(g77
g58
NtRp3763
(dp3764
g61
(dp3765
g81
g82
ssg70
g3759
sg63
(lp3766
g387
asbag56
(g77
g58
NtRp3767
(dp3768
g61
(dp3769
g88
g89
ssg70
g3759
sg63
(lp3770
S':'
asbag56
(g77
g58
NtRp3771
(dp3772
g61
(dp3773
sg70
g3759
sg63
(lp3774
g56
(g57
g58
NtRp3775
(dp3776
g61
(dp3777
g69
I3
ssg70
g3771
sg63
(lp3778
S'/'
asbasbasbag56
(g72
g58
NtRp3779
(dp3780
g61
(dp3781
sg70
g3655
sg63
(lp3782
g56
(g77
g58
NtRp3783
(dp3784
g61
(dp3785
g81
g82
ssg70
g3779
sg63
(lp3786
g408
asbag56
(g77
g58
NtRp3787
(dp3788
g61
(dp3789
g88
g89
ssg70
g3779
sg63
(lp3790
S':'
asbag56
(g77
g58
NtRp3791
(dp3792
g61
(dp3793
sg70
g3779
sg63
(lp3794
g56
(g57
g58
NtRp3795
(dp3796
g61
(dp3797
g69
I3
ssg70
g3791
sg63
(lp3798
S''
asbasbasbag56
(g72
g58
NtRp3799
(dp3800
g61
(dp3801
sg70
g3655
sg63
(lp3802
g56
(g77
g58
NtRp3803
(dp3804
g61
(dp3805
g81
g82
ssg70
g3799
sg63
(lp3806
g429
asbag56
(g77
g58
NtRp3807
(dp3808
g61
(dp3809
g88
g89
ssg70
g3799
sg63
(lp3810
S':'
asbag56
(g77
g58
NtRp3811
(dp3812
g61
(dp3813
sg70
g3799
sg63
(lp3814
g56
(g57
g58
NtRp3815
(dp3816
g61
(dp3817
g69
I3
ssg70
g3811
sg63
(lp3818
S''
asbasbasbasbasbasbasbasbasbasbasbag56
(g72
g58
NtRp3819
(dp3820
g61
(dp3821
sg70
g3585
sg63
(lp3822
g56
(g77
g58
NtRp3823
(dp3824
g61
(dp3825
g81
g82
ssg70
g3819
sg63
(lp3826
S'files'
p3827
asbag56
(g77
g58
NtRp3828
(dp3829
g61
(dp3830
g88
g89
ssg70
g3819
sg63
(lp3831
S':'
asbag56
(g77
g58
NtRp3832
(dp3833
g61
(dp3834
sg70
g3819
sg63
(lp3835
g56
(g57
g58
NtRp3836
(dp3837
g61
(dp3838
g69
I5
ssg70
g3832
sg63
(lp3839
g56
(g65
g58
NtRp3840
(dp3841
g61
(dp3842
g69
I4
ssg70
Nsg63
(lp3843
sbasbasbasbag56
(g72
g58
NtRp3844
(dp3845
g61
(dp3846
sg70
g3585
sg63
(lp3847
g56
(g77
g58
NtRp3848
(dp3849
g61
(dp3850
g81
g82
ssg70
g3844
sg63
(lp3851
S'flash'
p3852
asbag56
(g77
g58
NtRp3853
(dp3854
g61
(dp3855
g88
g89
ssg70
g3844
sg63
(lp3856
S':'
asbag56
(g77
g58
NtRp3857
(dp3858
g61
(dp3859
sg70
g3844
sg63
(lp3860
g56
(g57
g58
NtRp3861
(dp3862
g61
(dp3863
g69
I5
ssg70
g3857
sg63
(lp3864
S''
asbasbasbag56
(g72
g58
NtRp3865
(dp3866
g61
(dp3867
sg70
g3585
sg63
(lp3868
g56
(g77
g58
NtRp3869
(dp3870
g61
(dp3871
g81
g82
ssg70
g3865
sg63
(lp3872
S'generic_patterns'
p3873
asbag56
(g77
g58
NtRp3874
(dp3875
g61
(dp3876
g88
g89
ssg70
g3865
sg63
(lp3877
S':'
asbag56
(g77
g58
NtRp3878
(dp3879
g61
(dp3880
sg70
g3865
sg63
(lp3881
g56
(g57
g58
NtRp3882
(dp3883
g61
(dp3884
g69
I5
ssg70
g3878
sg63
(lp3885
g56
(g65
g58
NtRp3886
(dp3887
g61
(dp3888
g69
I4
ssg70
Nsg63
(lp3889
g56
(g72
g58
NtRp3890
(dp3891
g61
(dp3892
sg70
g3886
sg63
(lp3893
g56
(g77
g58
NtRp3894
(dp3895
g61
(dp3896
sg70
g3890
sg63
(lp3897
g56
(g57
g58
NtRp3898
(dp3899
g61
(dp3900
g69
I4
ssg70
g3894
sg63
(lp3901
S'*'
asbasbasbasbasbasbasbag56
(g72
g58
NtRp3902
(dp3903
g61
(dp3904
sg70
g3585
sg63
(lp3905
g56
(g77
g58
NtRp3906
(dp3907
g61
(dp3908
g81
g82
ssg70
g3902
sg63
(lp3909
S'headers'
p3910
asbag56
(g77
g58
NtRp3911
(dp3912
g61
(dp3913
g88
g89
ssg70
g3902
sg63
(lp3914
S':'
asbag56
(g77
g58
NtRp3915
(dp3916
g61
(dp3917
sg70
g3902
sg63
(lp3918
g56
(g57
g58
NtRp3919
(dp3920
g61
(dp3921
g69
I5
ssg70
g3915
sg63
(lp3922
g56
(g65
g58
NtRp3923
(dp3924
g61
(dp3925
g69
I4
ssg70
Nsg63
(lp3926
g56
(g72
g58
NtRp3927
(dp3928
g61
(dp3929
sg70
g3923
sg63
(lp3930
g56
(g77
g58
NtRp3931
(dp3932
g61
(dp3933
g81
g82
ssg70
g3927
sg63
(lp3934
S'Cache-Control'
p3935
asbag56
(g77
g58
NtRp3936
(dp3937
g61
(dp3938
g88
g89
ssg70
g3927
sg63
(lp3939
S':'
asbag56
(g77
g58
NtRp3940
(dp3941
g61
(dp3942
sg70
g3927
sg63
(lp3943
g56
(g57
g58
NtRp3944
(dp3945
g61
(dp3946
g69
I4
ssg70
g3940
sg63
(lp3947
S'no-store, no-cache, must-revalidate, post-check=0, pre-check=0'
p3948
asbasbasbag56
(g72
g58
NtRp3949
(dp3950
g61
(dp3951
sg70
g3923
sg63
(lp3952
g56
(g77
g58
NtRp3953
(dp3954
g61
(dp3955
g81
g82
ssg70
g3949
sg63
(lp3956
S'Content-Type'
p3957
asbag56
(g77
g58
NtRp3958
(dp3959
g61
(dp3960
g88
g89
ssg70
g3949
sg63
(lp3961
S':'
asbag56
(g77
g58
NtRp3962
(dp3963
g61
(dp3964
sg70
g3949
sg63
(lp3965
g56
(g57
g58
NtRp3966
(dp3967
g61
(dp3968
g69
I4
ssg70
g3962
sg63
(lp3969
S'text/html; charset=utf-8'
p3970
asbasbasbag56
(g72
g58
NtRp3971
(dp3972
g61
(dp3973
sg70
g3923
sg63
(lp3974
g56
(g77
g58
NtRp3975
(dp3976
g61
(dp3977
g81
g82
ssg70
g3971
sg63
(lp3978
S'Expires'
p3979
asbag56
(g77
g58
NtRp3980
(dp3981
g61
(dp3982
g88
g89
ssg70
g3971
sg63
(lp3983
S':'
asbag56
(g77
g58
NtRp3984
(dp3985
g61
(dp3986
sg70
g3971
sg63
(lp3987
g56
(g57
g58
NtRp3988
(dp3989
g61
(dp3990
g69
I4
ssg70
g3984
sg63
(lp3991
S'Wed, 09 Nov 2011 16:24:45 GMT'
p3992
asbasbasbag56
(g72
g58
NtRp3993
(dp3994
g61
(dp3995
sg70
g3923
sg63
(lp3996
g56
(g77
g58
NtRp3997
(dp3998
g61
(dp3999
g81
g82
ssg70
g3993
sg63
(lp4000
S'Pragma'
p4001
asbag56
(g77
g58
NtRp4002
(dp4003
g61
(dp4004
g88
g89
ssg70
g3993
sg63
(lp4005
S':'
asbag56
(g77
g58
NtRp4006
(dp4007
g61
(dp4008
sg70
g3993
sg63
(lp4009
g56
(g57
g58
NtRp4010
(dp4011
g61
(dp4012
g69
I4
ssg70
g4006
sg63
(lp4013
S'no-cache'
p4014
asbasbasbag56
(g72
g58
NtRp4015
(dp4016
g61
(dp4017
sg70
g3923
sg63
(lp4018
g56
(g77
g58
NtRp4019
(dp4020
g61
(dp4021
g81
g82
ssg70
g4015
sg63
(lp4022
S'X-Powered-By'
p4023
asbag56
(g77
g58
NtRp4024
(dp4025
g61
(dp4026
g88
g89
ssg70
g4015
sg63
(lp4027
S':'
asbag56
(g77
g58
NtRp4028
(dp4029
g61
(dp4030
sg70
g4015
sg63
(lp4031
g56
(g57
g58
NtRp4032
(dp4033
g61
(dp4034
g69
I4
ssg70
g4028
sg63
(lp4035
S'web2py'
p4036
asbasbasbasbasbasbasbag56
(g72
g58
NtRp4037
(dp4038
g61
(dp4039
sg70
g3585
sg63
(lp4040
g56
(g77
g58
NtRp4041
(dp4042
g61
(dp4043
g81
g82
ssg70
g4037
sg63
(lp4044
S'menu'
p4045
asbag56
(g77
g58
NtRp4046
(dp4047
g61
(dp4048
g88
g89
ssg70
g4037
sg63
(lp4049
S':'
asbag56
(g77
g58
NtRp4050
(dp4051
g61
(dp4052
sg70
g4037
sg63
(lp4053
g56
(g57
g58
NtRp4054
(dp4055
g61
(dp4056
g69
I5
ssg70
g4050
sg63
(lp4057
g56
(g65
g58
NtRp4058
(dp4059
g61
(dp4060
g69
I4
ssg70
Nsg63
(lp4061
g56
(g72
g58
NtRp4062
(dp4063
g61
(dp4064
sg70
g4058
sg63
(lp4065
g56
(g77
g58
NtRp4066
(dp4067
g61
(dp4068
sg70
g4062
sg63
(lp4069
g56
(g57
g58
NtRp4070
(dp4071
g61
(dp4072
g69
I4
ssg70
g4066
sg63
(lp4073
g56
(g65
g58
NtRp4074
(dp4075
g61
(dp4076
g69
I3
ssg70
Nsg63
(lp4077
g56
(g72
g58
NtRp4078
(dp4079
g61
(dp4080
sg70
g4074
sg63
(lp4081
g56
(g77
g58
NtRp4082
(dp4083
g61
(dp4084
sg70
g4078
sg63
(lp4085
g56
(g57
g58
NtRp4086
(dp4087
g61
(dp4088
g69
I3
ssg70
g4082
sg63
(lp4089
cgluon.languages
lazyT_unpickle
p4090
(S't\x05\x00\x00\x00Index'
tRp4091
asbasbasbag56
(g72
g58
NtRp4092
(dp4093
g61
(dp4094
sg70
g4074
sg63
(lp4095
g56
(g77
g58
NtRp4096
(dp4097
g61
(dp4098
sg70
g4092
sg63
(lp4099
g56
(g57
g58
NtRp4100
(dp4101
g61
(dp4102
g69
I3
ssg70
g4096
sg63
(lp4103
g99
asbasbasbag56
(g72
g58
NtRp4104
(dp4105
g61
(dp4106
sg70
g4074
sg63
(lp4107
g56
(g77
g58
NtRp4108
(dp4109
g61
(dp4110
sg70
g4104
sg63
(lp4111
g56
(g57
g58
NtRp4112
(dp4113
g61
(dp4114
g69
I3
ssg70
g4108
sg63
(lp4115
S'/grades/default/index'
p4116
asbasbasbag56
(g72
g58
NtRp4117
(dp4118
g61
(dp4119
sg70
g4074
sg63
(lp4120
g56
(g77
g58
NtRp4121
(dp4122
g61
(dp4123
sg70
g4117
sg63
(lp4124
g56
(g57
g58
NtRp4125
(dp4126
g61
(dp4127
g69
I3
ssg70
g4121
sg63
(lp4128
g56
(g65
g58
NtRp4129
(dp4130
g61
(dp4131
g69
I2
ssg70
Nsg63
(lp4132
sbasbasbasbasbasbasbasbag56
(g72
g58
NtRp4133
(dp4134
g61
(dp4135
sg70
g4058
sg63
(lp4136
g56
(g77
g58
NtRp4137
(dp4138
g61
(dp4139
sg70
g4133
sg63
(lp4140
g56
(g57
g58
NtRp4141
(dp4142
g61
(dp4143
g69
I4
ssg70
g4137
sg63
(lp4144
g56
(g65
g58
NtRp4145
(dp4146
g61
(dp4147
g69
I3
ssg70
Nsg63
(lp4148
g56
(g72
g58
NtRp4149
(dp4150
g61
(dp4151
sg70
g4145
sg63
(lp4152
g56
(g77
g58
NtRp4153
(dp4154
g61
(dp4155
sg70
g4149
sg63
(lp4156
g56
(g57
g58
NtRp4157
(dp4158
g61
(dp4159
g69
I3
ssg70
g4153
sg63
(lp4160
g4090
(S't\x06\x00\x00\x00Grades'
tRp4161
asbasbasbag56
(g72
g58
NtRp4162
(dp4163
g61
(dp4164
sg70
g4145
sg63
(lp4165
g56
(g77
g58
NtRp4166
(dp4167
g61
(dp4168
sg70
g4162
sg63
(lp4169
g56
(g57
g58
NtRp4170
(dp4171
g61
(dp4172
g69
I3
ssg70
g4166
sg63
(lp4173
g99
asbasbasbag56
(g72
g58
NtRp4174
(dp4175
g61
(dp4176
sg70
g4145
sg63
(lp4177
g56
(g77
g58
NtRp4178
(dp4179
g61
(dp4180
sg70
g4174
sg63
(lp4181
g56
(g57
g58
NtRp4182
(dp4183
g61
(dp4184
g69
I3
ssg70
g4178
sg63
(lp4185
S'/grades/default/grades_manage'
p4186
asbasbasbag56
(g72
g58
NtRp4187
(dp4188
g61
(dp4189
sg70
g4145
sg63
(lp4190
g56
(g77
g58
NtRp4191
(dp4192
g61
(dp4193
sg70
g4187
sg63
(lp4194
g56
(g57
g58
NtRp4195
(dp4196
g61
(dp4197
g69
I3
ssg70
g4191
sg63
(lp4198
g56
(g65
g58
NtRp4199
(dp4200
g61
(dp4201
g69
I2
ssg70
Nsg63
(lp4202
sbasbasbasbasbasbasbasbag56
(g72
g58
NtRp4203
(dp4204
g61
(dp4205
sg70
g4058
sg63
(lp4206
g56
(g77
g58
NtRp4207
(dp4208
g61
(dp4209
sg70
g4203
sg63
(lp4210
g56
(g57
g58
NtRp4211
(dp4212
g61
(dp4213
g69
I4
ssg70
g4207
sg63
(lp4214
g56
(g65
g58
NtRp4215
(dp4216
g61
(dp4217
g69
I3
ssg70
Nsg63
(lp4218
g56
(g72
g58
NtRp4219
(dp4220
g61
(dp4221
sg70
g4215
sg63
(lp4222
g56
(g77
g58
NtRp4223
(dp4224
g61
(dp4225
sg70
g4219
sg63
(lp4226
g56
(g57
g58
NtRp4227
(dp4228
g61
(dp4229
g69
I3
ssg70
g4223
sg63
(lp4230
g4090
(S't\x07\x00\x00\x00Classes'
tRp4231
asbasbasbag56
(g72
g58
NtRp4232
(dp4233
g61
(dp4234
sg70
g4215
sg63
(lp4235
g56
(g77
g58
NtRp4236
(dp4237
g61
(dp4238
sg70
g4232
sg63
(lp4239
g56
(g57
g58
NtRp4240
(dp4241
g61
(dp4242
g69
I3
ssg70
g4236
sg63
(lp4243
g99
asbasbasbag56
(g72
g58
NtRp4244
(dp4245
g61
(dp4246
sg70
g4215
sg63
(lp4247
g56
(g77
g58
NtRp4248
(dp4249
g61
(dp4250
sg70
g4244
sg63
(lp4251
g56
(g57
g58
NtRp4252
(dp4253
g61
(dp4254
g69
I3
ssg70
g4248
sg63
(lp4255
S'/grades/default/classes_manage'
p4256
asbasbasbag56
(g72
g58
NtRp4257
(dp4258
g61
(dp4259
sg70
g4215
sg63
(lp4260
g56
(g77
g58
NtRp4261
(dp4262
g61
(dp4263
sg70
g4257
sg63
(lp4264
g56
(g57
g58
NtRp4265
(dp4266
g61
(dp4267
g69
I3
ssg70
g4261
sg63
(lp4268
g56
(g65
g58
NtRp4269
(dp4270
g61
(dp4271
g69
I2
ssg70
Nsg63
(lp4272
sbasbasbasbasbasbasbasbasbasbasbasbag56
(g72
g58
NtRp4273
(dp4274
g61
(dp4275
sg70
g3585
sg63
(lp4276
g56
(g77
g58
NtRp4277
(dp4278
g61
(dp4279
g81
g82
ssg70
g4273
sg63
(lp4280
S'meta'
p4281
asbag56
(g77
g58
NtRp4282
(dp4283
g61
(dp4284
g88
g89
ssg70
g4273
sg63
(lp4285
S':'
asbag56
(g77
g58
NtRp4286
(dp4287
g61
(dp4288
sg70
g4273
sg63
(lp4289
g56
(g57
g58
NtRp4290
(dp4291
g61
(dp4292
g69
I5
ssg70
g4286
sg63
(lp4293
g56
(g65
g58
NtRp4294
(dp4295
g61
(dp4296
g69
I4
ssg70
Nsg63
(lp4297
g56
(g72
g58
NtRp4298
(dp4299
g61
(dp4300
sg70
g4294
sg63
(lp4301
g56
(g77
g58
NtRp4302
(dp4303
g61
(dp4304
g81
g82
ssg70
g4298
sg63
(lp4305
S'author'
p4306
asbag56
(g77
g58
NtRp4307
(dp4308
g61
(dp4309
g88
g89
ssg70
g4298
sg63
(lp4310
S':'
asbag56
(g77
g58
NtRp4311
(dp4312
g61
(dp4313
sg70
g4298
sg63
(lp4314
g56
(g57
g58
NtRp4315
(dp4316
g61
(dp4317
g69
I4
ssg70
g4311
sg63
(lp4318
S'Ian W. Scott <scottianw@gmail.com>'
p4319
asbasbasbag56
(g72
g58
NtRp4320
(dp4321
g61
(dp4322
sg70
g4294
sg63
(lp4323
g56
(g77
g58
NtRp4324
(dp4325
g61
(dp4326
g81
g82
ssg70
g4320
sg63
(lp4327
S'description'
p4328
asbag56
(g77
g58
NtRp4329
(dp4330
g61
(dp4331
g88
g89
ssg70
g4320
sg63
(lp4332
S':'
asbag56
(g77
g58
NtRp4333
(dp4334
g61
(dp4335
sg70
g4320
sg63
(lp4336
g56
(g57
g58
NtRp4337
(dp4338
g61
(dp4339
g69
I4
ssg70
g4333
sg63
(lp4340
S''
asbasbasbag56
(g72
g58
NtRp4341
(dp4342
g61
(dp4343
sg70
g4294
sg63
(lp4344
g56
(g77
g58
NtRp4345
(dp4346
g61
(dp4347
g81
g82
ssg70
g4341
sg63
(lp4348
S'keywords'
p4349
asbag56
(g77
g58
NtRp4350
(dp4351
g61
(dp4352
g88
g89
ssg70
g4341
sg63
(lp4353
S':'
asbag56
(g77
g58
NtRp4354
(dp4355
g61
(dp4356
sg70
g4341
sg63
(lp4357
g56
(g57
g58
NtRp4358
(dp4359
g61
(dp4360
g69
I4
ssg70
g4354
sg63
(lp4361
S''
asbasbasbasbasbasbasbag56
(g72
g58
NtRp4362
(dp4363
g61
(dp4364
sg70
g3585
sg63
(lp4365
g56
(g77
g58
NtRp4366
(dp4367
g61
(dp4368
g81
g82
ssg70
g4362
sg63
(lp4369
S'postprocessing'
p4370
asbag56
(g77
g58
NtRp4371
(dp4372
g61
(dp4373
g88
g89
ssg70
g4362
sg63
(lp4374
S':'
asbag56
(g77
g58
NtRp4375
(dp4376
g61
(dp4377
sg70
g4362
sg63
(lp4378
g56
(g57
g58
NtRp4379
(dp4380
g61
(dp4381
g69
I5
ssg70
g4375
sg63
(lp4382
g56
(g65
g58
NtRp4383
(dp4384
g61
(dp4385
g69
I4
ssg70
Nsg63
(lp4386
sbasbasbasbag56
(g72
g58
NtRp4387
(dp4388
g61
(dp4389
sg70
g3585
sg63
(lp4390
g56
(g77
g58
NtRp4391
(dp4392
g61
(dp4393
g81
g82
ssg70
g4387
sg63
(lp4394
S'session_file'
p4395
asbag56
(g77
g58
NtRp4396
(dp4397
g61
(dp4398
g88
g89
ssg70
g4387
sg63
(lp4399
S':'
asbag56
(g77
g58
NtRp4400
(dp4401
g61
(dp4402
sg70
g4387
sg63
(lp4403
g56
(g57
g58
NtRp4404
(dp4405
g61
(dp4406
g69
I5
ssg70
g4400
sg63
(lp4407
S"<open file '/home/ian/web2py/applications/grades/sessions/127.0.0.1-7e779f51-d72f-4159-aa81-826b4f2d26c1', mode 'rb+' at 0x30b46f0>"
p4408
asbasbasbag56
(g72
g58
NtRp4409
(dp4410
g61
(dp4411
sg70
g3585
sg63
(lp4412
g56
(g77
g58
NtRp4413
(dp4414
g61
(dp4415
g81
g82
ssg70
g4409
sg63
(lp4416
S'session_filename'
p4417
asbag56
(g77
g58
NtRp4418
(dp4419
g61
(dp4420
g88
g89
ssg70
g4409
sg63
(lp4421
S':'
asbag56
(g77
g58
NtRp4422
(dp4423
g61
(dp4424
sg70
g4409
sg63
(lp4425
g56
(g57
g58
NtRp4426
(dp4427
g61
(dp4428
g69
I5
ssg70
g4422
sg63
(lp4429
S'/home/ian/web2py/applications/grades/sessions/127.0.0.1-7e779f51-d72f-4159-aa81-826b4f2d26c1'
p4430
asbasbasbag56
(g72
g58
NtRp4431
(dp4432
g61
(dp4433
sg70
g3585
sg63
(lp4434
g56
(g77
g58
NtRp4435
(dp4436
g61
(dp4437
g81
g82
ssg70
g4431
sg63
(lp4438
S'session_id'
p4439
asbag56
(g77
g58
NtRp4440
(dp4441
g61
(dp4442
g88
g89
ssg70
g4431
sg63
(lp4443
S':'
asbag56
(g77
g58
NtRp4444
(dp4445
g61
(dp4446
sg70
g4431
sg63
(lp4447
g56
(g57
g58
NtRp4448
(dp4449
g61
(dp4450
g69
I5
ssg70
g4444
sg63
(lp4451
S'127.0.0.1-7e779f51-d72f-4159-aa81-826b4f2d26c1'
p4452
asbasbasbag56
(g72
g58
NtRp4453
(dp4454
g61
(dp4455
sg70
g3585
sg63
(lp4456
g56
(g77
g58
NtRp4457
(dp4458
g61
(dp4459
g81
g82
ssg70
g4453
sg63
(lp4460
S'session_id_name'
p4461
asbag56
(g77
g58
NtRp4462
(dp4463
g61
(dp4464
g88
g89
ssg70
g4453
sg63
(lp4465
S':'
asbag56
(g77
g58
NtRp4466
(dp4467
g61
(dp4468
sg70
g4453
sg63
(lp4469
g56
(g57
g58
NtRp4470
(dp4471
g61
(dp4472
g69
I5
ssg70
g4466
sg63
(lp4473
g3642
asbasbasbag56
(g72
g58
NtRp4474
(dp4475
g61
(dp4476
sg70
g3585
sg63
(lp4477
g56
(g77
g58
NtRp4478
(dp4479
g61
(dp4480
g81
g82
ssg70
g4474
sg63
(lp4481
S'session_locked'
p4482
asbag56
(g77
g58
NtRp4483
(dp4484
g61
(dp4485
g88
g89
ssg70
g4474
sg63
(lp4486
S':'
asbag56
(g77
g58
NtRp4487
(dp4488
g61
(dp4489
sg70
g4474
sg63
(lp4490
g56
(g57
g58
NtRp4491
(dp4492
g61
(dp4493
g69
I5
ssg70
g4487
sg63
(lp4494
g1853
asbasbasbag56
(g72
g58
NtRp4495
(dp4496
g61
(dp4497
sg70
g3585
sg63
(lp4498
g56
(g77
g58
NtRp4499
(dp4500
g61
(dp4501
g81
g82
ssg70
g4495
sg63
(lp4502
S'session_new'
p4503
asbag56
(g77
g58
NtRp4504
(dp4505
g61
(dp4506
g88
g89
ssg70
g4495
sg63
(lp4507
S':'
asbag56
(g77
g58
NtRp4508
(dp4509
g61
(dp4510
sg70
g4495
sg63
(lp4511
g56
(g57
g58
NtRp4512
(dp4513
g61
(dp4514
g69
I5
ssg70
g4508
sg63
(lp4515
g99
asbasbasbag56
(g72
g58
NtRp4516
(dp4517
g61
(dp4518
sg70
g3585
sg63
(lp4519
g56
(g77
g58
NtRp4520
(dp4521
g61
(dp4522
g81
g82
ssg70
g4516
sg63
(lp4523
S'status'
p4524
asbag56
(g77
g58
NtRp4525
(dp4526
g61
(dp4527
g88
g89
ssg70
g4516
sg63
(lp4528
S':'
asbag56
(g77
g58
NtRp4529
(dp4530
g61
(dp4531
sg70
g4516
sg63
(lp4532
g56
(g57
g58
NtRp4533
(dp4534
g61
(dp4535
g69
I5
ssg70
g4529
sg63
(lp4536
S'200'
p4537
asbasbasbag56
(g72
g58
NtRp4538
(dp4539
g61
(dp4540
sg70
g3585
sg63
(lp4541
g56
(g77
g58
NtRp4542
(dp4543
g61
(dp4544
g81
g82
ssg70
g4538
sg63
(lp4545
S'subtitle'
p4546
asbag56
(g77
g58
NtRp4547
(dp4548
g61
(dp4549
g88
g89
ssg70
g4538
sg63
(lp4550
S':'
asbag56
(g77
g58
NtRp4551
(dp4552
g61
(dp4553
sg70
g4538
sg63
(lp4554
g56
(g57
g58
NtRp4555
(dp4556
g61
(dp4557
g69
I5
ssg70
g4551
sg63
(lp4558
S'a platform for easy submission of peer grades'
p4559
asbasbasbag56
(g72
g58
NtRp4560
(dp4561
g61
(dp4562
sg70
g3585
sg63
(lp4563
g56
(g77
g58
NtRp4564
(dp4565
g61
(dp4566
g81
g82
ssg70
g4560
sg63
(lp4567
S'title'
p4568
asbag56
(g77
g58
NtRp4569
(dp4570
g61
(dp4571
g88
g89
ssg70
g4560
sg63
(lp4572
S':'
asbag56
(g77
g58
NtRp4573
(dp4574
g61
(dp4575
sg70
g4560
sg63
(lp4576
g56
(g57
g58
NtRp4577
(dp4578
g61
(dp4579
g69
I5
ssg70
g4573
sg63
(lp4580
S'Grades'
p4581
asbasbasbag56
(g72
g58
NtRp4582
(dp4583
g61
(dp4584
sg70
g3585
sg63
(lp4585
g56
(g77
g58
NtRp4586
(dp4587
g61
(dp4588
g81
g82
ssg70
g4582
sg63
(lp4589
g2518
asbag56
(g77
g58
NtRp4590
(dp4591
g61
(dp4592
g88
g89
ssg70
g4582
sg63
(lp4593
S':'
asbag56
(g77
g58
NtRp4594
(dp4595
g61
(dp4596
sg70
g4582
sg63
(lp4597
g56
(g57
g58
NtRp4598
(dp4599
g61
(dp4600
g69
I5
ssg70
g4594
sg63
(lp4601
g2531
asbasbasbag56
(g72
g58
NtRp4602
(dp4603
g61
(dp4604
sg70
g3585
sg63
(lp4605
g56
(g77
g58
NtRp4606
(dp4607
g61
(dp4608
g81
g82
ssg70
g4602
sg63
(lp4609
S'view'
p4610
asbag56
(g77
g58
NtRp4611
(dp4612
g61
(dp4613
g88
g89
ssg70
g4602
sg63
(lp4614
S':'
asbag56
(g77
g58
NtRp4615
(dp4616
g61
(dp4617
sg70
g4602
sg63
(lp4618
g56
(g57
g58
NtRp4619
(dp4620
g61
(dp4621
g69
I5
ssg70
g4615
sg63
(lp4622
S'default/create_grade.html'
p4623
asbasbasbasbasbsS'locals'
p4624
(dp4625
S'the_user'
p4626
S'<gluon.dal.Rows object>'
p4627
sS'form'
p4628
S'<gluon.sqlhtml.SQLFORM object>'
p4629
sssS'traceback'
p4630
S'Traceback (most recent call last):\n  File "/home/ian/web2py/gluon/restricted.py", line 194, in restricted\n    exec ccode in environment\n  File "/home/ian/web2py/applications/grades/controllers/default.py", line 78, in <module>\n  File "/home/ian/web2py/gluon/globals.py", line 149, in <lambda>\n    self._caller = lambda f: f()\n  File "/home/ian/web2py/gluon/tools.py", line 2456, in f\n    return action(*a, **b)\n  File "/home/ian/web2py/applications/grades/controllers/default.py", line 44, in create_grade\n    fn = the_user.first_name\nAttributeError: \'Rows\' object has no attribute \'first_name\'\n'
p4631
s.