(dp1
S'output'
p2
S''
sS'layer'
p3
S'/home/ian/web2py/applications/grades/controllers/default.py'
p4
sS'code'
p5
S'# -*- coding: utf-8 -*-\nif 0:\n    from gluon import current, SQLFORM, redirect, A, URL\n    from gluon.tools import Auth, Crud\n    from gluon.dal import DAL\n    db = DAL()\n    auth = Auth()\n    response = current.response\n    service = current.service\n    request = current.request\n    session = current.session\n    crud = Crud()\n    \nimport datetime\n\n### required - do no delete\ndef user(): return dict(form=auth())\ndef download(): return response.download(request,db)\ndef call(): return service()\n### end requires\ndef index():\n    courses = db(db.courses.id > 0).select()\n    return dict(courses = courses)\n\ndef error():\n    return dict()\n\n@auth.requires_membership(role=\'administrators\')\ndef grades_manage():\n    form = SQLFORM.smartgrid(db.grades,onupdate=auth.archive)\n    return locals()\n\n@auth.requires_membership(role=\'administrators\')\ndef classes_manage():\n    form = SQLFORM.smartgrid(db.courses,onupdate=auth.archive)\n    return locals()\n\n@auth.requires_login()\ndef create_grade():\n    """\n    TODO: Restrict course field to the id# presented in args[0]. \n    If no args[0] present message and redirect to index\n    Present name of course as part of intro message above form \n    (so send course name as part of returned dict()).\n    Make sure these fields are all required. \n    """\n    if request.args:\n        c = db.courses[request.args[0]]\n    else:\n        redirect(URL(\'index\'))\n    cname = c.course_name\n    m = str(c.max_score)\n    c_records = db(db.grades.course == request.args[0]).select()\n    form = SQLFORM(\n        c_records, separator=\'\', \n        fields=[\'name\', \'course\', \'grade\', \'class_date\'], \n        labels={\'name\':"student\'s name", \'grade\':"grade", \'class_date\':\'class date\'}, \n        col3={\'name\':\'The student to receive the grade.\', \'grade\':\'a number out of \'+m, \'class_date\':"the date when the class took place"}\n        )\n    form.vars.course = cname \n    if form.process().accepted:\n        response.flash = \'Thanks! The grade was recorded.\'\n    the_user = db(db.auth_user.id == auth.user_id).select().first()\n    fn = the_user.first_name\n    cancel_button = A(\'cancel\', _href=URL(\'index\'), _class=\'cancel\')\n    return dict(form = form, cancel_button = cancel_button, fn = fn, cname = cname)\n\n@auth.requires_membership(role=\'administrators\')\ndef grades_report():\n    student_list = db(db.auth_user.id > 0).select()\n    students = {}\n    for s in student_list:\n        sindex = s.id\n        slast = s.last_name\n        sfirst = s.first_name\n        students[sindex] = slast + \', \' + sfirst\n    u = request.args[0]\n    n = db.auth_user[u]\n    student = n.last_name + \', \' + n.first_name\n    gradelist = db(db.grades.name == u).select()\n    session.debug = request.args[0]\n    g = {}\n    for r in gradelist:\n        the_date = r.class_date\n        c = db(db.courses.id == r.course).select().first()\n        the_course = c.course_name\n        if the_course in g:\n            dates = g[the_course]\n            if the_date in dates:\n                dates[the_date].append(r.grade)\n            else:\n                dates[the_date] = [r.grade]                \n        else:\n            l = [r.grade]\n            the_date = r.class_date\n            g[r.course] = dict(the_date = l)\n    return dict(grades = g, students = students, student = student)                \nresponse._vars=response._caller(create_grade)\n'
p6
sS'snapshot'
p7
(dp8
S'exception'
p9
(dp10
S'__hash__'
p11
S"<method-wrapper '__hash__' of exceptions.AttributeError object>"
p12
sS'__setattr__'
p13
S"<method-wrapper '__setattr__' of exceptions.AttributeError object>"
p14
sS'__reduce_ex__'
p15
S'<built-in method __reduce_ex__ of exceptions.AttributeError object>'
p16
sS'__getslice__'
p17
S"<method-wrapper '__getslice__' of exceptions.AttributeError object>"
p18
sS'__getitem__'
p19
S"<method-wrapper '__getitem__' of exceptions.AttributeError object>"
p20
sS'__setstate__'
p21
S'<built-in method __setstate__ of exceptions.AttributeError object>'
p22
sS'args'
p23
S'("\'Rows\' object has no attribute \'fields\'",)'
p24
sS'__reduce__'
p25
S'<built-in method __reduce__ of exceptions.AttributeError object>'
p26
sS'__str__'
p27
S"<method-wrapper '__str__' of exceptions.AttributeError object>"
p28
sS'__format__'
p29
S'<built-in method __format__ of exceptions.AttributeError object>'
p30
sS'__getattribute__'
p31
S"<method-wrapper '__getattribute__' of exceptions.AttributeError object>"
p32
sS'__class__'
p33
S"<type 'exceptions.AttributeError'>"
p34
sS'__unicode__'
p35
S'<built-in method __unicode__ of exceptions.AttributeError object>'
p36
sS'__delattr__'
p37
S"<method-wrapper '__delattr__' of exceptions.AttributeError object>"
p38
sS'__subclasshook__'
p39
S'<built-in method __subclasshook__ of type object>'
p40
sS'__repr__'
p41
S"<method-wrapper '__repr__' of exceptions.AttributeError object>"
p42
sS'__dict__'
p43
S'{}'
p44
sS'__sizeof__'
p45
S'<built-in method __sizeof__ of exceptions.AttributeError object>'
p46
sS'__doc__'
p47
S"'Attribute not found.'"
p48
sS'__init__'
p49
S"<method-wrapper '__init__' of exceptions.AttributeError object>"
p50
sS'__new__'
p51
S'<built-in method __new__ of type object>'
p52
ssS'evalue'
p53
S"'Rows' object has no attribute 'fields'"
p54
sS'request'
p55
ccopy_reg
_reconstructor
p56
(cgluon.html
BEAUTIFY
p57
c__builtin__
object
p58
NtRp59
(dp60
S'attributes'
p61
(dp62
sS'components'
p63
(lp64
g56
(cgluon.html
TABLE
p65
g58
NtRp66
(dp67
g61
(dp68
S'level'
p69
I5
ssS'parent'
p70
Nsg63
(lp71
g56
(cgluon.html
TR
p72
g58
NtRp73
(dp74
g61
(dp75
sg70
g66
sg63
(lp76
g56
(cgluon.html
TD
p77
g58
NtRp78
(dp79
g61
(dp80
S'_style'
p81
S'font-weight:bold;'
p82
ssg70
g73
sg63
(lp83
S'ajax'
p84
asbag56
(g77
g58
NtRp85
(dp86
g61
(dp87
S'_valign'
p88
S'top'
p89
ssg70
g73
sg63
(lp90
S':'
asbag56
(g77
g58
NtRp91
(dp92
g61
(dp93
sg70
g73
sg63
(lp94
g56
(g57
g58
NtRp95
(dp96
g61
(dp97
g69
I5
ssg70
g91
sg63
(lp98
S'False'
p99
asbasbasbag56
(g72
g58
NtRp100
(dp101
g61
(dp102
sg70
g66
sg63
(lp103
g56
(g77
g58
NtRp104
(dp105
g61
(dp106
g81
g82
ssg70
g100
sg63
(lp107
S'application'
p108
asbag56
(g77
g58
NtRp109
(dp110
g61
(dp111
g88
g89
ssg70
g100
sg63
(lp112
S':'
asbag56
(g77
g58
NtRp113
(dp114
g61
(dp115
sg70
g100
sg63
(lp116
g56
(g57
g58
NtRp117
(dp118
g61
(dp119
g69
I5
ssg70
g113
sg63
(lp120
S'grades'
p121
asbasbasbag56
(g72
g58
NtRp122
(dp123
g61
(dp124
sg70
g66
sg63
(lp125
g56
(g77
g58
NtRp126
(dp127
g61
(dp128
g81
g82
ssg70
g122
sg63
(lp129
g23
asbag56
(g77
g58
NtRp130
(dp131
g61
(dp132
g88
g89
ssg70
g122
sg63
(lp133
S':'
asbag56
(g77
g58
NtRp134
(dp135
g61
(dp136
sg70
g122
sg63
(lp137
g56
(g57
g58
NtRp138
(dp139
g61
(dp140
g69
I5
ssg70
g134
sg63
(lp141
g56
(g65
g58
NtRp142
(dp143
g61
(dp144
g69
I4
ssg70
Nsg63
(lp145
g56
(g72
g58
NtRp146
(dp147
g61
(dp148
sg70
g142
sg63
(lp149
g56
(g77
g58
NtRp150
(dp151
g61
(dp152
sg70
g146
sg63
(lp153
g56
(g57
g58
NtRp154
(dp155
g61
(dp156
g69
I4
ssg70
g150
sg63
(lp157
S'1'
asbasbasbasbasbasbasbag56
(g72
g58
NtRp158
(dp159
g61
(dp160
sg70
g66
sg63
(lp161
g56
(g77
g58
NtRp162
(dp163
g61
(dp164
g81
g82
ssg70
g158
sg63
(lp165
S'body'
p166
asbag56
(g77
g58
NtRp167
(dp168
g61
(dp169
g88
g89
ssg70
g158
sg63
(lp170
S':'
asbag56
(g77
g58
NtRp171
(dp172
g61
(dp173
sg70
g158
sg63
(lp174
g56
(g57
g58
NtRp175
(dp176
g61
(dp177
g69
I5
ssg70
g171
sg63
(lp178
S'<cStringIO.StringO object at 0x392aab0>'
p179
asbasbasbag56
(g72
g58
NtRp180
(dp181
g61
(dp182
sg70
g66
sg63
(lp183
g56
(g77
g58
NtRp184
(dp185
g61
(dp186
g81
g82
ssg70
g180
sg63
(lp187
S'client'
p188
asbag56
(g77
g58
NtRp189
(dp190
g61
(dp191
g88
g89
ssg70
g180
sg63
(lp192
S':'
asbag56
(g77
g58
NtRp193
(dp194
g61
(dp195
sg70
g180
sg63
(lp196
g56
(g57
g58
NtRp197
(dp198
g61
(dp199
g69
I5
ssg70
g193
sg63
(lp200
S'127.0.0.1'
p201
asbasbasbag56
(g72
g58
NtRp202
(dp203
g61
(dp204
sg70
g66
sg63
(lp205
g56
(g77
g58
NtRp206
(dp207
g61
(dp208
g81
g82
ssg70
g202
sg63
(lp209
S'controller'
p210
asbag56
(g77
g58
NtRp211
(dp212
g61
(dp213
g88
g89
ssg70
g202
sg63
(lp214
S':'
asbag56
(g77
g58
NtRp215
(dp216
g61
(dp217
sg70
g202
sg63
(lp218
g56
(g57
g58
NtRp219
(dp220
g61
(dp221
g69
I5
ssg70
g215
sg63
(lp222
S'default'
p223
asbasbasbag56
(g72
g58
NtRp224
(dp225
g61
(dp226
sg70
g66
sg63
(lp227
g56
(g77
g58
NtRp228
(dp229
g61
(dp230
g81
g82
ssg70
g224
sg63
(lp231
S'cookies'
p232
asbag56
(g77
g58
NtRp233
(dp234
g61
(dp235
g88
g89
ssg70
g224
sg63
(lp236
S':'
asbag56
(g77
g58
NtRp237
(dp238
g61
(dp239
sg70
g224
sg63
(lp240
g56
(g57
g58
NtRp241
(dp242
g61
(dp243
g69
I5
ssg70
g237
sg63
(lp244
g56
(g65
g58
NtRp245
(dp246
g61
(dp247
g69
I4
ssg70
Nsg63
(lp248
g56
(g72
g58
NtRp249
(dp250
g61
(dp251
sg70
g245
sg63
(lp252
g56
(g77
g58
NtRp253
(dp254
g61
(dp255
g81
g82
ssg70
g249
sg63
(lp256
S'session_id_admin'
p257
asbag56
(g77
g58
NtRp258
(dp259
g61
(dp260
g88
g89
ssg70
g249
sg63
(lp261
S':'
asbag56
(g77
g58
NtRp262
(dp263
g61
(dp264
sg70
g249
sg63
(lp265
g56
(g57
g58
NtRp266
(dp267
g61
(dp268
g69
I4
ssg70
g262
sg63
(lp269
g56
(g65
g58
NtRp270
(dp271
g61
(dp272
g69
I3
ssg70
Nsg63
(lp273
g56
(g72
g58
NtRp274
(dp275
g61
(dp276
sg70
g270
sg63
(lp277
g56
(g77
g58
NtRp278
(dp279
g61
(dp280
g81
g82
ssg70
g274
sg63
(lp281
S'comment'
p282
asbag56
(g77
g58
NtRp283
(dp284
g61
(dp285
g88
g89
ssg70
g274
sg63
(lp286
S':'
asbag56
(g77
g58
NtRp287
(dp288
g61
(dp289
sg70
g274
sg63
(lp290
g56
(g57
g58
NtRp291
(dp292
g61
(dp293
g69
I3
ssg70
g287
sg63
(lp294
S''
asbasbasbag56
(g72
g58
NtRp295
(dp296
g61
(dp297
sg70
g270
sg63
(lp298
g56
(g77
g58
NtRp299
(dp300
g61
(dp301
g81
g82
ssg70
g295
sg63
(lp302
S'domain'
p303
asbag56
(g77
g58
NtRp304
(dp305
g61
(dp306
g88
g89
ssg70
g295
sg63
(lp307
S':'
asbag56
(g77
g58
NtRp308
(dp309
g61
(dp310
sg70
g295
sg63
(lp311
g56
(g57
g58
NtRp312
(dp313
g61
(dp314
g69
I3
ssg70
g308
sg63
(lp315
S''
asbasbasbag56
(g72
g58
NtRp316
(dp317
g61
(dp318
sg70
g270
sg63
(lp319
g56
(g77
g58
NtRp320
(dp321
g61
(dp322
g81
g82
ssg70
g316
sg63
(lp323
S'expires'
p324
asbag56
(g77
g58
NtRp325
(dp326
g61
(dp327
g88
g89
ssg70
g316
sg63
(lp328
S':'
asbag56
(g77
g58
NtRp329
(dp330
g61
(dp331
sg70
g316
sg63
(lp332
g56
(g57
g58
NtRp333
(dp334
g61
(dp335
g69
I3
ssg70
g329
sg63
(lp336
S''
asbasbasbag56
(g72
g58
NtRp337
(dp338
g61
(dp339
sg70
g270
sg63
(lp340
g56
(g77
g58
NtRp341
(dp342
g61
(dp343
g81
g82
ssg70
g337
sg63
(lp344
S'httponly'
p345
asbag56
(g77
g58
NtRp346
(dp347
g61
(dp348
g88
g89
ssg70
g337
sg63
(lp349
S':'
asbag56
(g77
g58
NtRp350
(dp351
g61
(dp352
sg70
g337
sg63
(lp353
g56
(g57
g58
NtRp354
(dp355
g61
(dp356
g69
I3
ssg70
g350
sg63
(lp357
S''
asbasbasbag56
(g72
g58
NtRp358
(dp359
g61
(dp360
sg70
g270
sg63
(lp361
g56
(g77
g58
NtRp362
(dp363
g61
(dp364
g81
g82
ssg70
g358
sg63
(lp365
S'max-age'
p366
asbag56
(g77
g58
NtRp367
(dp368
g61
(dp369
g88
g89
ssg70
g358
sg63
(lp370
S':'
asbag56
(g77
g58
NtRp371
(dp372
g61
(dp373
sg70
g358
sg63
(lp374
g56
(g57
g58
NtRp375
(dp376
g61
(dp377
g69
I3
ssg70
g371
sg63
(lp378
S''
asbasbasbag56
(g72
g58
NtRp379
(dp380
g61
(dp381
sg70
g270
sg63
(lp382
g56
(g77
g58
NtRp383
(dp384
g61
(dp385
g81
g82
ssg70
g379
sg63
(lp386
S'path'
p387
asbag56
(g77
g58
NtRp388
(dp389
g61
(dp390
g88
g89
ssg70
g379
sg63
(lp391
S':'
asbag56
(g77
g58
NtRp392
(dp393
g61
(dp394
sg70
g379
sg63
(lp395
g56
(g57
g58
NtRp396
(dp397
g61
(dp398
g69
I3
ssg70
g392
sg63
(lp399
S''
asbasbasbag56
(g72
g58
NtRp400
(dp401
g61
(dp402
sg70
g270
sg63
(lp403
g56
(g77
g58
NtRp404
(dp405
g61
(dp406
g81
g82
ssg70
g400
sg63
(lp407
S'secure'
p408
asbag56
(g77
g58
NtRp409
(dp410
g61
(dp411
g88
g89
ssg70
g400
sg63
(lp412
S':'
asbag56
(g77
g58
NtRp413
(dp414
g61
(dp415
sg70
g400
sg63
(lp416
g56
(g57
g58
NtRp417
(dp418
g61
(dp419
g69
I3
ssg70
g413
sg63
(lp420
S''
asbasbasbag56
(g72
g58
NtRp421
(dp422
g61
(dp423
sg70
g270
sg63
(lp424
g56
(g77
g58
NtRp425
(dp426
g61
(dp427
g81
g82
ssg70
g421
sg63
(lp428
S'version'
p429
asbag56
(g77
g58
NtRp430
(dp431
g61
(dp432
g88
g89
ssg70
g421
sg63
(lp433
S':'
asbag56
(g77
g58
NtRp434
(dp435
g61
(dp436
sg70
g421
sg63
(lp437
g56
(g57
g58
NtRp438
(dp439
g61
(dp440
g69
I3
ssg70
g434
sg63
(lp441
S''
asbasbasbasbasbasbasbag56
(g72
g58
NtRp442
(dp443
g61
(dp444
sg70
g245
sg63
(lp445
g56
(g77
g58
NtRp446
(dp447
g61
(dp448
g81
g82
ssg70
g442
sg63
(lp449
S'session_id_grades'
p450
asbag56
(g77
g58
NtRp451
(dp452
g61
(dp453
g88
g89
ssg70
g442
sg63
(lp454
S':'
asbag56
(g77
g58
NtRp455
(dp456
g61
(dp457
sg70
g442
sg63
(lp458
g56
(g57
g58
NtRp459
(dp460
g61
(dp461
g69
I4
ssg70
g455
sg63
(lp462
g56
(g65
g58
NtRp463
(dp464
g61
(dp465
g69
I3
ssg70
Nsg63
(lp466
g56
(g72
g58
NtRp467
(dp468
g61
(dp469
sg70
g463
sg63
(lp470
g56
(g77
g58
NtRp471
(dp472
g61
(dp473
g81
g82
ssg70
g467
sg63
(lp474
g282
asbag56
(g77
g58
NtRp475
(dp476
g61
(dp477
g88
g89
ssg70
g467
sg63
(lp478
S':'
asbag56
(g77
g58
NtRp479
(dp480
g61
(dp481
sg70
g467
sg63
(lp482
g56
(g57
g58
NtRp483
(dp484
g61
(dp485
g69
I3
ssg70
g479
sg63
(lp486
S''
asbasbasbag56
(g72
g58
NtRp487
(dp488
g61
(dp489
sg70
g463
sg63
(lp490
g56
(g77
g58
NtRp491
(dp492
g61
(dp493
g81
g82
ssg70
g487
sg63
(lp494
g303
asbag56
(g77
g58
NtRp495
(dp496
g61
(dp497
g88
g89
ssg70
g487
sg63
(lp498
S':'
asbag56
(g77
g58
NtRp499
(dp500
g61
(dp501
sg70
g487
sg63
(lp502
g56
(g57
g58
NtRp503
(dp504
g61
(dp505
g69
I3
ssg70
g499
sg63
(lp506
S''
asbasbasbag56
(g72
g58
NtRp507
(dp508
g61
(dp509
sg70
g463
sg63
(lp510
g56
(g77
g58
NtRp511
(dp512
g61
(dp513
g81
g82
ssg70
g507
sg63
(lp514
g324
asbag56
(g77
g58
NtRp515
(dp516
g61
(dp517
g88
g89
ssg70
g507
sg63
(lp518
S':'
asbag56
(g77
g58
NtRp519
(dp520
g61
(dp521
sg70
g507
sg63
(lp522
g56
(g57
g58
NtRp523
(dp524
g61
(dp525
g69
I3
ssg70
g519
sg63
(lp526
S''
asbasbasbag56
(g72
g58
NtRp527
(dp528
g61
(dp529
sg70
g463
sg63
(lp530
g56
(g77
g58
NtRp531
(dp532
g61
(dp533
g81
g82
ssg70
g527
sg63
(lp534
g345
asbag56
(g77
g58
NtRp535
(dp536
g61
(dp537
g88
g89
ssg70
g527
sg63
(lp538
S':'
asbag56
(g77
g58
NtRp539
(dp540
g61
(dp541
sg70
g527
sg63
(lp542
g56
(g57
g58
NtRp543
(dp544
g61
(dp545
g69
I3
ssg70
g539
sg63
(lp546
S''
asbasbasbag56
(g72
g58
NtRp547
(dp548
g61
(dp549
sg70
g463
sg63
(lp550
g56
(g77
g58
NtRp551
(dp552
g61
(dp553
g81
g82
ssg70
g547
sg63
(lp554
g366
asbag56
(g77
g58
NtRp555
(dp556
g61
(dp557
g88
g89
ssg70
g547
sg63
(lp558
S':'
asbag56
(g77
g58
NtRp559
(dp560
g61
(dp561
sg70
g547
sg63
(lp562
g56
(g57
g58
NtRp563
(dp564
g61
(dp565
g69
I3
ssg70
g559
sg63
(lp566
S''
asbasbasbag56
(g72
g58
NtRp567
(dp568
g61
(dp569
sg70
g463
sg63
(lp570
g56
(g77
g58
NtRp571
(dp572
g61
(dp573
g81
g82
ssg70
g567
sg63
(lp574
g387
asbag56
(g77
g58
NtRp575
(dp576
g61
(dp577
g88
g89
ssg70
g567
sg63
(lp578
S':'
asbag56
(g77
g58
NtRp579
(dp580
g61
(dp581
sg70
g567
sg63
(lp582
g56
(g57
g58
NtRp583
(dp584
g61
(dp585
g69
I3
ssg70
g579
sg63
(lp586
S''
asbasbasbag56
(g72
g58
NtRp587
(dp588
g61
(dp589
sg70
g463
sg63
(lp590
g56
(g77
g58
NtRp591
(dp592
g61
(dp593
g81
g82
ssg70
g587
sg63
(lp594
g408
asbag56
(g77
g58
NtRp595
(dp596
g61
(dp597
g88
g89
ssg70
g587
sg63
(lp598
S':'
asbag56
(g77
g58
NtRp599
(dp600
g61
(dp601
sg70
g587
sg63
(lp602
g56
(g57
g58
NtRp603
(dp604
g61
(dp605
g69
I3
ssg70
g599
sg63
(lp606
S''
asbasbasbag56
(g72
g58
NtRp607
(dp608
g61
(dp609
sg70
g463
sg63
(lp610
g56
(g77
g58
NtRp611
(dp612
g61
(dp613
g81
g82
ssg70
g607
sg63
(lp614
g429
asbag56
(g77
g58
NtRp615
(dp616
g61
(dp617
g88
g89
ssg70
g607
sg63
(lp618
S':'
asbag56
(g77
g58
NtRp619
(dp620
g61
(dp621
sg70
g607
sg63
(lp622
g56
(g57
g58
NtRp623
(dp624
g61
(dp625
g69
I3
ssg70
g619
sg63
(lp626
S''
asbasbasbasbasbasbasbag56
(g72
g58
NtRp627
(dp628
g61
(dp629
sg70
g245
sg63
(lp630
g56
(g77
g58
NtRp631
(dp632
g61
(dp633
g81
g82
ssg70
g627
sg63
(lp634
S'session_id_paideia'
p635
asbag56
(g77
g58
NtRp636
(dp637
g61
(dp638
g88
g89
ssg70
g627
sg63
(lp639
S':'
asbag56
(g77
g58
NtRp640
(dp641
g61
(dp642
sg70
g627
sg63
(lp643
g56
(g57
g58
NtRp644
(dp645
g61
(dp646
g69
I4
ssg70
g640
sg63
(lp647
g56
(g65
g58
NtRp648
(dp649
g61
(dp650
g69
I3
ssg70
Nsg63
(lp651
g56
(g72
g58
NtRp652
(dp653
g61
(dp654
sg70
g648
sg63
(lp655
g56
(g77
g58
NtRp656
(dp657
g61
(dp658
g81
g82
ssg70
g652
sg63
(lp659
g282
asbag56
(g77
g58
NtRp660
(dp661
g61
(dp662
g88
g89
ssg70
g652
sg63
(lp663
S':'
asbag56
(g77
g58
NtRp664
(dp665
g61
(dp666
sg70
g652
sg63
(lp667
g56
(g57
g58
NtRp668
(dp669
g61
(dp670
g69
I3
ssg70
g664
sg63
(lp671
S''
asbasbasbag56
(g72
g58
NtRp672
(dp673
g61
(dp674
sg70
g648
sg63
(lp675
g56
(g77
g58
NtRp676
(dp677
g61
(dp678
g81
g82
ssg70
g672
sg63
(lp679
g303
asbag56
(g77
g58
NtRp680
(dp681
g61
(dp682
g88
g89
ssg70
g672
sg63
(lp683
S':'
asbag56
(g77
g58
NtRp684
(dp685
g61
(dp686
sg70
g672
sg63
(lp687
g56
(g57
g58
NtRp688
(dp689
g61
(dp690
g69
I3
ssg70
g684
sg63
(lp691
S''
asbasbasbag56
(g72
g58
NtRp692
(dp693
g61
(dp694
sg70
g648
sg63
(lp695
g56
(g77
g58
NtRp696
(dp697
g61
(dp698
g81
g82
ssg70
g692
sg63
(lp699
g324
asbag56
(g77
g58
NtRp700
(dp701
g61
(dp702
g88
g89
ssg70
g692
sg63
(lp703
S':'
asbag56
(g77
g58
NtRp704
(dp705
g61
(dp706
sg70
g692
sg63
(lp707
g56
(g57
g58
NtRp708
(dp709
g61
(dp710
g69
I3
ssg70
g704
sg63
(lp711
S''
asbasbasbag56
(g72
g58
NtRp712
(dp713
g61
(dp714
sg70
g648
sg63
(lp715
g56
(g77
g58
NtRp716
(dp717
g61
(dp718
g81
g82
ssg70
g712
sg63
(lp719
g345
asbag56
(g77
g58
NtRp720
(dp721
g61
(dp722
g88
g89
ssg70
g712
sg63
(lp723
S':'
asbag56
(g77
g58
NtRp724
(dp725
g61
(dp726
sg70
g712
sg63
(lp727
g56
(g57
g58
NtRp728
(dp729
g61
(dp730
g69
I3
ssg70
g724
sg63
(lp731
S''
asbasbasbag56
(g72
g58
NtRp732
(dp733
g61
(dp734
sg70
g648
sg63
(lp735
g56
(g77
g58
NtRp736
(dp737
g61
(dp738
g81
g82
ssg70
g732
sg63
(lp739
g366
asbag56
(g77
g58
NtRp740
(dp741
g61
(dp742
g88
g89
ssg70
g732
sg63
(lp743
S':'
asbag56
(g77
g58
NtRp744
(dp745
g61
(dp746
sg70
g732
sg63
(lp747
g56
(g57
g58
NtRp748
(dp749
g61
(dp750
g69
I3
ssg70
g744
sg63
(lp751
S''
asbasbasbag56
(g72
g58
NtRp752
(dp753
g61
(dp754
sg70
g648
sg63
(lp755
g56
(g77
g58
NtRp756
(dp757
g61
(dp758
g81
g82
ssg70
g752
sg63
(lp759
g387
asbag56
(g77
g58
NtRp760
(dp761
g61
(dp762
g88
g89
ssg70
g752
sg63
(lp763
S':'
asbag56
(g77
g58
NtRp764
(dp765
g61
(dp766
sg70
g752
sg63
(lp767
g56
(g57
g58
NtRp768
(dp769
g61
(dp770
g69
I3
ssg70
g764
sg63
(lp771
S''
asbasbasbag56
(g72
g58
NtRp772
(dp773
g61
(dp774
sg70
g648
sg63
(lp775
g56
(g77
g58
NtRp776
(dp777
g61
(dp778
g81
g82
ssg70
g772
sg63
(lp779
g408
asbag56
(g77
g58
NtRp780
(dp781
g61
(dp782
g88
g89
ssg70
g772
sg63
(lp783
S':'
asbag56
(g77
g58
NtRp784
(dp785
g61
(dp786
sg70
g772
sg63
(lp787
g56
(g57
g58
NtRp788
(dp789
g61
(dp790
g69
I3
ssg70
g784
sg63
(lp791
S''
asbasbasbag56
(g72
g58
NtRp792
(dp793
g61
(dp794
sg70
g648
sg63
(lp795
g56
(g77
g58
NtRp796
(dp797
g61
(dp798
g81
g82
ssg70
g792
sg63
(lp799
g429
asbag56
(g77
g58
NtRp800
(dp801
g61
(dp802
g88
g89
ssg70
g792
sg63
(lp803
S':'
asbag56
(g77
g58
NtRp804
(dp805
g61
(dp806
sg70
g792
sg63
(lp807
g56
(g57
g58
NtRp808
(dp809
g61
(dp810
g69
I3
ssg70
g804
sg63
(lp811
S''
asbasbasbasbasbasbasbag56
(g72
g58
NtRp812
(dp813
g61
(dp814
sg70
g245
sg63
(lp815
g56
(g77
g58
NtRp816
(dp817
g61
(dp818
g81
g82
ssg70
g812
sg63
(lp819
S'session_id_welcome'
p820
asbag56
(g77
g58
NtRp821
(dp822
g61
(dp823
g88
g89
ssg70
g812
sg63
(lp824
S':'
asbag56
(g77
g58
NtRp825
(dp826
g61
(dp827
sg70
g812
sg63
(lp828
g56
(g57
g58
NtRp829
(dp830
g61
(dp831
g69
I4
ssg70
g825
sg63
(lp832
g56
(g65
g58
NtRp833
(dp834
g61
(dp835
g69
I3
ssg70
Nsg63
(lp836
g56
(g72
g58
NtRp837
(dp838
g61
(dp839
sg70
g833
sg63
(lp840
g56
(g77
g58
NtRp841
(dp842
g61
(dp843
g81
g82
ssg70
g837
sg63
(lp844
g282
asbag56
(g77
g58
NtRp845
(dp846
g61
(dp847
g88
g89
ssg70
g837
sg63
(lp848
S':'
asbag56
(g77
g58
NtRp849
(dp850
g61
(dp851
sg70
g837
sg63
(lp852
g56
(g57
g58
NtRp853
(dp854
g61
(dp855
g69
I3
ssg70
g849
sg63
(lp856
S''
asbasbasbag56
(g72
g58
NtRp857
(dp858
g61
(dp859
sg70
g833
sg63
(lp860
g56
(g77
g58
NtRp861
(dp862
g61
(dp863
g81
g82
ssg70
g857
sg63
(lp864
g303
asbag56
(g77
g58
NtRp865
(dp866
g61
(dp867
g88
g89
ssg70
g857
sg63
(lp868
S':'
asbag56
(g77
g58
NtRp869
(dp870
g61
(dp871
sg70
g857
sg63
(lp872
g56
(g57
g58
NtRp873
(dp874
g61
(dp875
g69
I3
ssg70
g869
sg63
(lp876
S''
asbasbasbag56
(g72
g58
NtRp877
(dp878
g61
(dp879
sg70
g833
sg63
(lp880
g56
(g77
g58
NtRp881
(dp882
g61
(dp883
g81
g82
ssg70
g877
sg63
(lp884
g324
asbag56
(g77
g58
NtRp885
(dp886
g61
(dp887
g88
g89
ssg70
g877
sg63
(lp888
S':'
asbag56
(g77
g58
NtRp889
(dp890
g61
(dp891
sg70
g877
sg63
(lp892
g56
(g57
g58
NtRp893
(dp894
g61
(dp895
g69
I3
ssg70
g889
sg63
(lp896
S''
asbasbasbag56
(g72
g58
NtRp897
(dp898
g61
(dp899
sg70
g833
sg63
(lp900
g56
(g77
g58
NtRp901
(dp902
g61
(dp903
g81
g82
ssg70
g897
sg63
(lp904
g345
asbag56
(g77
g58
NtRp905
(dp906
g61
(dp907
g88
g89
ssg70
g897
sg63
(lp908
S':'
asbag56
(g77
g58
NtRp909
(dp910
g61
(dp911
sg70
g897
sg63
(lp912
g56
(g57
g58
NtRp913
(dp914
g61
(dp915
g69
I3
ssg70
g909
sg63
(lp916
S''
asbasbasbag56
(g72
g58
NtRp917
(dp918
g61
(dp919
sg70
g833
sg63
(lp920
g56
(g77
g58
NtRp921
(dp922
g61
(dp923
g81
g82
ssg70
g917
sg63
(lp924
g366
asbag56
(g77
g58
NtRp925
(dp926
g61
(dp927
g88
g89
ssg70
g917
sg63
(lp928
S':'
asbag56
(g77
g58
NtRp929
(dp930
g61
(dp931
sg70
g917
sg63
(lp932
g56
(g57
g58
NtRp933
(dp934
g61
(dp935
g69
I3
ssg70
g929
sg63
(lp936
S''
asbasbasbag56
(g72
g58
NtRp937
(dp938
g61
(dp939
sg70
g833
sg63
(lp940
g56
(g77
g58
NtRp941
(dp942
g61
(dp943
g81
g82
ssg70
g937
sg63
(lp944
g387
asbag56
(g77
g58
NtRp945
(dp946
g61
(dp947
g88
g89
ssg70
g937
sg63
(lp948
S':'
asbag56
(g77
g58
NtRp949
(dp950
g61
(dp951
sg70
g937
sg63
(lp952
g56
(g57
g58
NtRp953
(dp954
g61
(dp955
g69
I3
ssg70
g949
sg63
(lp956
S''
asbasbasbag56
(g72
g58
NtRp957
(dp958
g61
(dp959
sg70
g833
sg63
(lp960
g56
(g77
g58
NtRp961
(dp962
g61
(dp963
g81
g82
ssg70
g957
sg63
(lp964
g408
asbag56
(g77
g58
NtRp965
(dp966
g61
(dp967
g88
g89
ssg70
g957
sg63
(lp968
S':'
asbag56
(g77
g58
NtRp969
(dp970
g61
(dp971
sg70
g957
sg63
(lp972
g56
(g57
g58
NtRp973
(dp974
g61
(dp975
g69
I3
ssg70
g969
sg63
(lp976
S''
asbasbasbag56
(g72
g58
NtRp977
(dp978
g61
(dp979
sg70
g833
sg63
(lp980
g56
(g77
g58
NtRp981
(dp982
g61
(dp983
g81
g82
ssg70
g977
sg63
(lp984
g429
asbag56
(g77
g58
NtRp985
(dp986
g61
(dp987
g88
g89
ssg70
g977
sg63
(lp988
S':'
asbag56
(g77
g58
NtRp989
(dp990
g61
(dp991
sg70
g977
sg63
(lp992
g56
(g57
g58
NtRp993
(dp994
g61
(dp995
g69
I3
ssg70
g989
sg63
(lp996
S''
asbasbasbasbasbasbasbasbasbasbasbag56
(g72
g58
NtRp997
(dp998
g61
(dp999
sg70
g66
sg63
(lp1000
g56
(g77
g58
NtRp1001
(dp1002
g61
(dp1003
g81
g82
ssg70
g997
sg63
(lp1004
S'env'
p1005
asbag56
(g77
g58
NtRp1006
(dp1007
g61
(dp1008
g88
g89
ssg70
g997
sg63
(lp1009
S':'
asbag56
(g77
g58
NtRp1010
(dp1011
g61
(dp1012
sg70
g997
sg63
(lp1013
g56
(g57
g58
NtRp1014
(dp1015
g61
(dp1016
g69
I5
ssg70
g1010
sg63
(lp1017
g56
(g65
g58
NtRp1018
(dp1019
g61
(dp1020
g69
I4
ssg70
Nsg63
(lp1021
g56
(g72
g58
NtRp1022
(dp1023
g61
(dp1024
sg70
g1018
sg63
(lp1025
g56
(g77
g58
NtRp1026
(dp1027
g61
(dp1028
g81
g82
ssg70
g1022
sg63
(lp1029
S'app_folders'
p1030
asbag56
(g77
g58
NtRp1031
(dp1032
g61
(dp1033
g88
g89
ssg70
g1022
sg63
(lp1034
S':'
asbag56
(g77
g58
NtRp1035
(dp1036
g61
(dp1037
sg70
g1022
sg63
(lp1038
g56
(g57
g58
NtRp1039
(dp1040
g61
(dp1041
g69
I4
ssg70
g1035
sg63
(lp1042
S"set(['/home/ian/web2py/applications/welcome/', '/home/ian/web2py/applications/grades/', '/home/ian/web2py/applications/admin/'])"
p1043
asbasbasbag56
(g72
g58
NtRp1044
(dp1045
g61
(dp1046
sg70
g1018
sg63
(lp1047
g56
(g77
g58
NtRp1048
(dp1049
g61
(dp1050
g81
g82
ssg70
g1044
sg63
(lp1051
S'applications_parent'
p1052
asbag56
(g77
g58
NtRp1053
(dp1054
g61
(dp1055
g88
g89
ssg70
g1044
sg63
(lp1056
S':'
asbag56
(g77
g58
NtRp1057
(dp1058
g61
(dp1059
sg70
g1044
sg63
(lp1060
g56
(g57
g58
NtRp1061
(dp1062
g61
(dp1063
g69
I4
ssg70
g1057
sg63
(lp1064
S'/home/ian/web2py'
p1065
asbasbasbag56
(g72
g58
NtRp1066
(dp1067
g61
(dp1068
sg70
g1018
sg63
(lp1069
g56
(g77
g58
NtRp1070
(dp1071
g61
(dp1072
g81
g82
ssg70
g1066
sg63
(lp1073
S'cmd_args'
p1074
asbag56
(g77
g58
NtRp1075
(dp1076
g61
(dp1077
g88
g89
ssg70
g1066
sg63
(lp1078
S':'
asbag56
(g77
g58
NtRp1079
(dp1080
g61
(dp1081
sg70
g1066
sg63
(lp1082
g56
(g57
g58
NtRp1083
(dp1084
g61
(dp1085
g69
I4
ssg70
g1079
sg63
(lp1086
g56
(g65
g58
NtRp1087
(dp1088
g61
(dp1089
g69
I3
ssg70
Nsg63
(lp1090
sbasbasbasbag56
(g72
g58
NtRp1091
(dp1092
g61
(dp1093
sg70
g1018
sg63
(lp1094
g56
(g77
g58
NtRp1095
(dp1096
g61
(dp1097
g81
g82
ssg70
g1091
sg63
(lp1098
S'cmd_options'
p1099
asbag56
(g77
g58
NtRp1100
(dp1101
g61
(dp1102
g88
g89
ssg70
g1091
sg63
(lp1103
S':'
asbag56
(g77
g58
NtRp1104
(dp1105
g61
(dp1106
sg70
g1091
sg63
(lp1107
g56
(g57
g58
NtRp1108
(dp1109
g61
(dp1110
g69
I4
ssg70
g1104
sg63
(lp1111
S"<Values at 0x1ffe758: {'verbose': False, 'ip': '127.0.0.1', 'shutdown_timeout': 5, 'taskbar': False, 'nocron': False, 'pid_filename': 'httpserver.pid', 'maxthreads': None, 'softcron': False, 'server_name': 'uriel', 'bpython': False, 'nogui': False, 'port': 8000, 'extcron': False, 'debuglevel': 30, 'test': None, 'folder': '/home/ian/web2py', 'config': '', 'import_models': False, 'winservice': '', 'shell': None, 'run': '', 'log_filename': 'httpserver.log', 'args': [''], 'ssl_ca_certificate': None, 'scheduler': None, 'profiler_filename': None, 'ssl_private_key': '', 'password': '<ask>', 'request_queue_size': 5, 'ssl_certificate': '', 'cronjob': False, 'plain': False, 'quiet': False, 'interfaces': None, 'minthreads': None, 'timeout': 10, 'numthreads': None, 'nobanner': False}>"
p1112
asbasbasbag56
(g72
g58
NtRp1113
(dp1114
g61
(dp1115
sg70
g1018
sg63
(lp1116
g56
(g77
g58
NtRp1117
(dp1118
g61
(dp1119
g81
g82
ssg70
g1113
sg63
(lp1120
S'db_sessions'
p1121
asbag56
(g77
g58
NtRp1122
(dp1123
g61
(dp1124
g88
g89
ssg70
g1113
sg63
(lp1125
S':'
asbag56
(g77
g58
NtRp1126
(dp1127
g61
(dp1128
sg70
g1113
sg63
(lp1129
g56
(g57
g58
NtRp1130
(dp1131
g61
(dp1132
g69
I4
ssg70
g1126
sg63
(lp1133
S'set([])'
p1134
asbasbasbag56
(g72
g58
NtRp1135
(dp1136
g61
(dp1137
sg70
g1018
sg63
(lp1138
g56
(g77
g58
NtRp1139
(dp1140
g61
(dp1141
g81
g82
ssg70
g1135
sg63
(lp1142
S'debugging'
p1143
asbag56
(g77
g58
NtRp1144
(dp1145
g61
(dp1146
g88
g89
ssg70
g1135
sg63
(lp1147
S':'
asbag56
(g77
g58
NtRp1148
(dp1149
g61
(dp1150
sg70
g1135
sg63
(lp1151
g56
(g57
g58
NtRp1152
(dp1153
g61
(dp1154
g69
I4
ssg70
g1148
sg63
(lp1155
g99
asbasbasbag56
(g72
g58
NtRp1156
(dp1157
g61
(dp1158
sg70
g1018
sg63
(lp1159
g56
(g77
g58
NtRp1160
(dp1161
g61
(dp1162
g81
g82
ssg70
g1156
sg63
(lp1163
S'gluon_parent'
p1164
asbag56
(g77
g58
NtRp1165
(dp1166
g61
(dp1167
g88
g89
ssg70
g1156
sg63
(lp1168
S':'
asbag56
(g77
g58
NtRp1169
(dp1170
g61
(dp1171
sg70
g1156
sg63
(lp1172
g56
(g57
g58
NtRp1173
(dp1174
g61
(dp1175
g69
I4
ssg70
g1169
sg63
(lp1176
S'/home/ian/web2py'
p1177
asbasbasbag56
(g72
g58
NtRp1178
(dp1179
g61
(dp1180
sg70
g1018
sg63
(lp1181
g56
(g77
g58
NtRp1182
(dp1183
g61
(dp1184
g81
g82
ssg70
g1178
sg63
(lp1185
S'http_accept'
p1186
asbag56
(g77
g58
NtRp1187
(dp1188
g61
(dp1189
g88
g89
ssg70
g1178
sg63
(lp1190
S':'
asbag56
(g77
g58
NtRp1191
(dp1192
g61
(dp1193
sg70
g1178
sg63
(lp1194
g56
(g57
g58
NtRp1195
(dp1196
g61
(dp1197
g69
I4
ssg70
g1191
sg63
(lp1198
S'text/html,application/xhtml+xml,application/xml;q=0.9,*/*;q=0.8'
p1199
asbasbasbag56
(g72
g58
NtRp1200
(dp1201
g61
(dp1202
sg70
g1018
sg63
(lp1203
g56
(g77
g58
NtRp1204
(dp1205
g61
(dp1206
g81
g82
ssg70
g1200
sg63
(lp1207
S'http_accept_encoding'
p1208
asbag56
(g77
g58
NtRp1209
(dp1210
g61
(dp1211
g88
g89
ssg70
g1200
sg63
(lp1212
S':'
asbag56
(g77
g58
NtRp1213
(dp1214
g61
(dp1215
sg70
g1200
sg63
(lp1216
g56
(g57
g58
NtRp1217
(dp1218
g61
(dp1219
g69
I4
ssg70
g1213
sg63
(lp1220
S'gzip, deflate'
p1221
asbasbasbag56
(g72
g58
NtRp1222
(dp1223
g61
(dp1224
sg70
g1018
sg63
(lp1225
g56
(g77
g58
NtRp1226
(dp1227
g61
(dp1228
g81
g82
ssg70
g1222
sg63
(lp1229
S'http_accept_language'
p1230
asbag56
(g77
g58
NtRp1231
(dp1232
g61
(dp1233
g88
g89
ssg70
g1222
sg63
(lp1234
S':'
asbag56
(g77
g58
NtRp1235
(dp1236
g61
(dp1237
sg70
g1222
sg63
(lp1238
g56
(g57
g58
NtRp1239
(dp1240
g61
(dp1241
g69
I4
ssg70
g1235
sg63
(lp1242
S'en-us,en;q=0.5'
p1243
asbasbasbag56
(g72
g58
NtRp1244
(dp1245
g61
(dp1246
sg70
g1018
sg63
(lp1247
g56
(g77
g58
NtRp1248
(dp1249
g61
(dp1250
g81
g82
ssg70
g1244
sg63
(lp1251
S'http_cache_control'
p1252
asbag56
(g77
g58
NtRp1253
(dp1254
g61
(dp1255
g88
g89
ssg70
g1244
sg63
(lp1256
S':'
asbag56
(g77
g58
NtRp1257
(dp1258
g61
(dp1259
sg70
g1244
sg63
(lp1260
g56
(g57
g58
NtRp1261
(dp1262
g61
(dp1263
g69
I4
ssg70
g1257
sg63
(lp1264
S'max-age=0'
p1265
asbasbasbag56
(g72
g58
NtRp1266
(dp1267
g61
(dp1268
sg70
g1018
sg63
(lp1269
g56
(g77
g58
NtRp1270
(dp1271
g61
(dp1272
g81
g82
ssg70
g1266
sg63
(lp1273
S'http_connection'
p1274
asbag56
(g77
g58
NtRp1275
(dp1276
g61
(dp1277
g88
g89
ssg70
g1266
sg63
(lp1278
S':'
asbag56
(g77
g58
NtRp1279
(dp1280
g61
(dp1281
sg70
g1266
sg63
(lp1282
g56
(g57
g58
NtRp1283
(dp1284
g61
(dp1285
g69
I4
ssg70
g1279
sg63
(lp1286
S'keep-alive'
p1287
asbasbasbag56
(g72
g58
NtRp1288
(dp1289
g61
(dp1290
sg70
g1018
sg63
(lp1291
g56
(g77
g58
NtRp1292
(dp1293
g61
(dp1294
g81
g82
ssg70
g1288
sg63
(lp1295
S'http_cookie'
p1296
asbag56
(g77
g58
NtRp1297
(dp1298
g61
(dp1299
g88
g89
ssg70
g1288
sg63
(lp1300
S':'
asbag56
(g77
g58
NtRp1301
(dp1302
g61
(dp1303
sg70
g1288
sg63
(lp1304
g56
(g57
g58
NtRp1305
(dp1306
g61
(dp1307
g69
I4
ssg70
g1301
sg63
(lp1308
S'session_id_paideia=127.0.0.1-5296f1e9-849e-4717-b7d4-f5f298041148; session_id_welcome=127.0.0.1-cbd9183f-89a3-433a-9c7b-93d2c556d545; session_id_grades=127.0.0.1-7e779f51-d72f-4159-aa81-826b4f2d26c1; session_id_admin=127.0.0.1-0a4d4364-3576-4988-bc56-f95aeecb4481'
p1309
asbasbasbag56
(g72
g58
NtRp1310
(dp1311
g61
(dp1312
sg70
g1018
sg63
(lp1313
g56
(g77
g58
NtRp1314
(dp1315
g61
(dp1316
g81
g82
ssg70
g1310
sg63
(lp1317
S'http_host'
p1318
asbag56
(g77
g58
NtRp1319
(dp1320
g61
(dp1321
g88
g89
ssg70
g1310
sg63
(lp1322
S':'
asbag56
(g77
g58
NtRp1323
(dp1324
g61
(dp1325
sg70
g1310
sg63
(lp1326
g56
(g57
g58
NtRp1327
(dp1328
g61
(dp1329
g69
I4
ssg70
g1323
sg63
(lp1330
S'127.0.0.1:8000'
p1331
asbasbasbag56
(g72
g58
NtRp1332
(dp1333
g61
(dp1334
sg70
g1018
sg63
(lp1335
g56
(g77
g58
NtRp1336
(dp1337
g61
(dp1338
g81
g82
ssg70
g1332
sg63
(lp1339
S'http_referer'
p1340
asbag56
(g77
g58
NtRp1341
(dp1342
g61
(dp1343
g88
g89
ssg70
g1332
sg63
(lp1344
S':'
asbag56
(g77
g58
NtRp1345
(dp1346
g61
(dp1347
sg70
g1332
sg63
(lp1348
g56
(g57
g58
NtRp1349
(dp1350
g61
(dp1351
g69
I4
ssg70
g1345
sg63
(lp1352
S'http://127.0.0.1:8000/grades/default/index'
p1353
asbasbasbag56
(g72
g58
NtRp1354
(dp1355
g61
(dp1356
sg70
g1018
sg63
(lp1357
g56
(g77
g58
NtRp1358
(dp1359
g61
(dp1360
g81
g82
ssg70
g1354
sg63
(lp1361
S'http_user_agent'
p1362
asbag56
(g77
g58
NtRp1363
(dp1364
g61
(dp1365
g88
g89
ssg70
g1354
sg63
(lp1366
S':'
asbag56
(g77
g58
NtRp1367
(dp1368
g61
(dp1369
sg70
g1354
sg63
(lp1370
g56
(g57
g58
NtRp1371
(dp1372
g61
(dp1373
g69
I4
ssg70
g1367
sg63
(lp1374
S'Mozilla/5.0 (X11; Linux x86_64; rv:8.0) Gecko/20100101 Firefox/8.0'
p1375
asbasbasbag56
(g72
g58
NtRp1376
(dp1377
g61
(dp1378
sg70
g1018
sg63
(lp1379
g56
(g77
g58
NtRp1380
(dp1381
g61
(dp1382
g81
g82
ssg70
g1376
sg63
(lp1383
S'is_jython'
p1384
asbag56
(g77
g58
NtRp1385
(dp1386
g61
(dp1387
g88
g89
ssg70
g1376
sg63
(lp1388
S':'
asbag56
(g77
g58
NtRp1389
(dp1390
g61
(dp1391
sg70
g1376
sg63
(lp1392
g56
(g57
g58
NtRp1393
(dp1394
g61
(dp1395
g69
I4
ssg70
g1389
sg63
(lp1396
g99
asbasbasbag56
(g72
g58
NtRp1397
(dp1398
g61
(dp1399
sg70
g1018
sg63
(lp1400
g56
(g77
g58
NtRp1401
(dp1402
g61
(dp1403
g81
g82
ssg70
g1397
sg63
(lp1404
S'path_info'
p1405
asbag56
(g77
g58
NtRp1406
(dp1407
g61
(dp1408
g88
g89
ssg70
g1397
sg63
(lp1409
S':'
asbag56
(g77
g58
NtRp1410
(dp1411
g61
(dp1412
sg70
g1397
sg63
(lp1413
g56
(g57
g58
NtRp1414
(dp1415
g61
(dp1416
g69
I4
ssg70
g1410
sg63
(lp1417
S'/grades/default/create_grade/1'
p1418
asbasbasbag56
(g72
g58
NtRp1419
(dp1420
g61
(dp1421
sg70
g1018
sg63
(lp1422
g56
(g77
g58
NtRp1423
(dp1424
g61
(dp1425
g81
g82
ssg70
g1419
sg63
(lp1426
S'query_string'
p1427
asbag56
(g77
g58
NtRp1428
(dp1429
g61
(dp1430
g88
g89
ssg70
g1419
sg63
(lp1431
S':'
asbag56
(g77
g58
NtRp1432
(dp1433
g61
(dp1434
sg70
g1419
sg63
(lp1435
g56
(g57
g58
NtRp1436
(dp1437
g61
(dp1438
g69
I4
ssg70
g1432
sg63
(lp1439
S''
asbasbasbag56
(g72
g58
NtRp1440
(dp1441
g61
(dp1442
sg70
g1018
sg63
(lp1443
g56
(g77
g58
NtRp1444
(dp1445
g61
(dp1446
g81
g82
ssg70
g1440
sg63
(lp1447
S'remote_addr'
p1448
asbag56
(g77
g58
NtRp1449
(dp1450
g61
(dp1451
g88
g89
ssg70
g1440
sg63
(lp1452
S':'
asbag56
(g77
g58
NtRp1453
(dp1454
g61
(dp1455
sg70
g1440
sg63
(lp1456
g56
(g57
g58
NtRp1457
(dp1458
g61
(dp1459
g69
I4
ssg70
g1453
sg63
(lp1460
g201
asbasbasbag56
(g72
g58
NtRp1461
(dp1462
g61
(dp1463
sg70
g1018
sg63
(lp1464
g56
(g77
g58
NtRp1465
(dp1466
g61
(dp1467
g81
g82
ssg70
g1461
sg63
(lp1468
S'remote_port'
p1469
asbag56
(g77
g58
NtRp1470
(dp1471
g61
(dp1472
g88
g89
ssg70
g1461
sg63
(lp1473
S':'
asbag56
(g77
g58
NtRp1474
(dp1475
g61
(dp1476
sg70
g1461
sg63
(lp1477
g56
(g57
g58
NtRp1478
(dp1479
g61
(dp1480
g69
I4
ssg70
g1474
sg63
(lp1481
S'60538'
p1482
asbasbasbag56
(g72
g58
NtRp1483
(dp1484
g61
(dp1485
sg70
g1018
sg63
(lp1486
g56
(g77
g58
NtRp1487
(dp1488
g61
(dp1489
g81
g82
ssg70
g1483
sg63
(lp1490
S'request_method'
p1491
asbag56
(g77
g58
NtRp1492
(dp1493
g61
(dp1494
g88
g89
ssg70
g1483
sg63
(lp1495
S':'
asbag56
(g77
g58
NtRp1496
(dp1497
g61
(dp1498
sg70
g1483
sg63
(lp1499
g56
(g57
g58
NtRp1500
(dp1501
g61
(dp1502
g69
I4
ssg70
g1496
sg63
(lp1503
S'GET'
p1504
asbasbasbag56
(g72
g58
NtRp1505
(dp1506
g61
(dp1507
sg70
g1018
sg63
(lp1508
g56
(g77
g58
NtRp1509
(dp1510
g61
(dp1511
g81
g82
ssg70
g1505
sg63
(lp1512
S'script_name'
p1513
asbag56
(g77
g58
NtRp1514
(dp1515
g61
(dp1516
g88
g89
ssg70
g1505
sg63
(lp1517
S':'
asbag56
(g77
g58
NtRp1518
(dp1519
g61
(dp1520
sg70
g1505
sg63
(lp1521
g56
(g57
g58
NtRp1522
(dp1523
g61
(dp1524
g69
I4
ssg70
g1518
sg63
(lp1525
S''
asbasbasbag56
(g72
g58
NtRp1526
(dp1527
g61
(dp1528
sg70
g1018
sg63
(lp1529
g56
(g77
g58
NtRp1530
(dp1531
g61
(dp1532
g81
g82
ssg70
g1526
sg63
(lp1533
S'server_name'
p1534
asbag56
(g77
g58
NtRp1535
(dp1536
g61
(dp1537
g88
g89
ssg70
g1526
sg63
(lp1538
S':'
asbag56
(g77
g58
NtRp1539
(dp1540
g61
(dp1541
sg70
g1526
sg63
(lp1542
g56
(g57
g58
NtRp1543
(dp1544
g61
(dp1545
g69
I4
ssg70
g1539
sg63
(lp1546
S'uriel'
p1547
asbasbasbag56
(g72
g58
NtRp1548
(dp1549
g61
(dp1550
sg70
g1018
sg63
(lp1551
g56
(g77
g58
NtRp1552
(dp1553
g61
(dp1554
g81
g82
ssg70
g1548
sg63
(lp1555
S'server_port'
p1556
asbag56
(g77
g58
NtRp1557
(dp1558
g61
(dp1559
g88
g89
ssg70
g1548
sg63
(lp1560
S':'
asbag56
(g77
g58
NtRp1561
(dp1562
g61
(dp1563
sg70
g1548
sg63
(lp1564
g56
(g57
g58
NtRp1565
(dp1566
g61
(dp1567
g69
I4
ssg70
g1561
sg63
(lp1568
S'8000'
p1569
asbasbasbag56
(g72
g58
NtRp1570
(dp1571
g61
(dp1572
sg70
g1018
sg63
(lp1573
g56
(g77
g58
NtRp1574
(dp1575
g61
(dp1576
g81
g82
ssg70
g1570
sg63
(lp1577
S'server_protocol'
p1578
asbag56
(g77
g58
NtRp1579
(dp1580
g61
(dp1581
g88
g89
ssg70
g1570
sg63
(lp1582
S':'
asbag56
(g77
g58
NtRp1583
(dp1584
g61
(dp1585
sg70
g1570
sg63
(lp1586
g56
(g57
g58
NtRp1587
(dp1588
g61
(dp1589
g69
I4
ssg70
g1583
sg63
(lp1590
S'HTTP/1.1'
p1591
asbasbasbag56
(g72
g58
NtRp1592
(dp1593
g61
(dp1594
sg70
g1018
sg63
(lp1595
g56
(g77
g58
NtRp1596
(dp1597
g61
(dp1598
g81
g82
ssg70
g1592
sg63
(lp1599
S'server_software'
p1600
asbag56
(g77
g58
NtRp1601
(dp1602
g61
(dp1603
g88
g89
ssg70
g1592
sg63
(lp1604
S':'
asbag56
(g77
g58
NtRp1605
(dp1606
g61
(dp1607
sg70
g1592
sg63
(lp1608
g56
(g57
g58
NtRp1609
(dp1610
g61
(dp1611
g69
I4
ssg70
g1605
sg63
(lp1612
S'Rocket 1.2.4'
p1613
asbasbasbag56
(g72
g58
NtRp1614
(dp1615
g61
(dp1616
sg70
g1018
sg63
(lp1617
g56
(g77
g58
NtRp1618
(dp1619
g61
(dp1620
g81
g82
ssg70
g1614
sg63
(lp1621
S'web2py_crontype'
p1622
asbag56
(g77
g58
NtRp1623
(dp1624
g61
(dp1625
g88
g89
ssg70
g1614
sg63
(lp1626
S':'
asbag56
(g77
g58
NtRp1627
(dp1628
g61
(dp1629
sg70
g1614
sg63
(lp1630
g56
(g57
g58
NtRp1631
(dp1632
g61
(dp1633
g69
I4
ssg70
g1627
sg63
(lp1634
S'hard'
p1635
asbasbasbag56
(g72
g58
NtRp1636
(dp1637
g61
(dp1638
sg70
g1018
sg63
(lp1639
g56
(g77
g58
NtRp1640
(dp1641
g61
(dp1642
g81
g82
ssg70
g1636
sg63
(lp1643
S'web2py_path'
p1644
asbag56
(g77
g58
NtRp1645
(dp1646
g61
(dp1647
g88
g89
ssg70
g1636
sg63
(lp1648
S':'
asbag56
(g77
g58
NtRp1649
(dp1650
g61
(dp1651
sg70
g1636
sg63
(lp1652
g56
(g57
g58
NtRp1653
(dp1654
g61
(dp1655
g69
I4
ssg70
g1649
sg63
(lp1656
g1065
asbasbasbag56
(g72
g58
NtRp1657
(dp1658
g61
(dp1659
sg70
g1018
sg63
(lp1660
g56
(g77
g58
NtRp1661
(dp1662
g61
(dp1663
g81
g82
ssg70
g1657
sg63
(lp1664
S'web2py_version'
p1665
asbag56
(g77
g58
NtRp1666
(dp1667
g61
(dp1668
g88
g89
ssg70
g1657
sg63
(lp1669
S':'
asbag56
(g77
g58
NtRp1670
(dp1671
g61
(dp1672
sg70
g1657
sg63
(lp1673
g56
(g57
g58
NtRp1674
(dp1675
g61
(dp1676
g69
I4
ssg70
g1670
sg63
(lp1677
g56
(g65
g58
NtRp1678
(dp1679
g61
(dp1680
g69
I3
ssg70
Nsg63
(lp1681
g56
(g72
g58
NtRp1682
(dp1683
g61
(dp1684
sg70
g1678
sg63
(lp1685
g56
(g77
g58
NtRp1686
(dp1687
g61
(dp1688
sg70
g1682
sg63
(lp1689
g56
(g57
g58
NtRp1690
(dp1691
g61
(dp1692
g69
I3
ssg70
g1686
sg63
(lp1693
S'1'
asbasbasbag56
(g72
g58
NtRp1694
(dp1695
g61
(dp1696
sg70
g1678
sg63
(lp1697
g56
(g77
g58
NtRp1698
(dp1699
g61
(dp1700
sg70
g1694
sg63
(lp1701
g56
(g57
g58
NtRp1702
(dp1703
g61
(dp1704
g69
I3
ssg70
g1698
sg63
(lp1705
S'99'
p1706
asbasbasbag56
(g72
g58
NtRp1707
(dp1708
g61
(dp1709
sg70
g1678
sg63
(lp1710
g56
(g77
g58
NtRp1711
(dp1712
g61
(dp1713
sg70
g1707
sg63
(lp1714
g56
(g57
g58
NtRp1715
(dp1716
g61
(dp1717
g69
I3
ssg70
g1711
sg63
(lp1718
S'2'
asbasbasbag56
(g72
g58
NtRp1719
(dp1720
g61
(dp1721
sg70
g1678
sg63
(lp1722
g56
(g77
g58
NtRp1723
(dp1724
g61
(dp1725
sg70
g1719
sg63
(lp1726
g56
(g57
g58
NtRp1727
(dp1728
g61
(dp1729
g69
I3
ssg70
g1723
sg63
(lp1730
S'datetime.datetime(2011, 9, 26, 6, 55, 33)'
p1731
asbasbasbag56
(g72
g58
NtRp1732
(dp1733
g61
(dp1734
sg70
g1678
sg63
(lp1735
g56
(g77
g58
NtRp1736
(dp1737
g61
(dp1738
sg70
g1732
sg63
(lp1739
g56
(g57
g58
NtRp1740
(dp1741
g61
(dp1742
g69
I3
ssg70
g1736
sg63
(lp1743
S'stable'
p1744
asbasbasbasbasbasbasbag56
(g72
g58
NtRp1745
(dp1746
g61
(dp1747
sg70
g1018
sg63
(lp1748
g56
(g77
g58
NtRp1749
(dp1750
g61
(dp1751
g81
g82
ssg70
g1745
sg63
(lp1752
S'wsgi_errors'
p1753
asbag56
(g77
g58
NtRp1754
(dp1755
g61
(dp1756
g88
g89
ssg70
g1745
sg63
(lp1757
S':'
asbag56
(g77
g58
NtRp1758
(dp1759
g61
(dp1760
sg70
g1745
sg63
(lp1761
g56
(g57
g58
NtRp1762
(dp1763
g61
(dp1764
g69
I4
ssg70
g1758
sg63
(lp1765
S"<open file '<stderr>', mode 'w' at 0x7f9678b3d270>"
p1766
asbasbasbag56
(g72
g58
NtRp1767
(dp1768
g61
(dp1769
sg70
g1018
sg63
(lp1770
g56
(g77
g58
NtRp1771
(dp1772
g61
(dp1773
g81
g82
ssg70
g1767
sg63
(lp1774
S'wsgi_file_wrapper'
p1775
asbag56
(g77
g58
NtRp1776
(dp1777
g61
(dp1778
g88
g89
ssg70
g1767
sg63
(lp1779
S':'
asbag56
(g77
g58
NtRp1780
(dp1781
g61
(dp1782
sg70
g1767
sg63
(lp1783
g56
(g57
g58
NtRp1784
(dp1785
g61
(dp1786
g69
I4
ssg70
g1780
sg63
(lp1787
S'<class wsgiref.util.FileWrapper at 0x1ec9870>'
p1788
asbasbasbag56
(g72
g58
NtRp1789
(dp1790
g61
(dp1791
sg70
g1018
sg63
(lp1792
g56
(g77
g58
NtRp1793
(dp1794
g61
(dp1795
g81
g82
ssg70
g1789
sg63
(lp1796
S'wsgi_input'
p1797
asbag56
(g77
g58
NtRp1798
(dp1799
g61
(dp1800
g88
g89
ssg70
g1789
sg63
(lp1801
S':'
asbag56
(g77
g58
NtRp1802
(dp1803
g61
(dp1804
sg70
g1789
sg63
(lp1805
g56
(g57
g58
NtRp1806
(dp1807
g61
(dp1808
g69
I4
ssg70
g1802
sg63
(lp1809
S'<socket._fileobject object at 0x26bbd50>'
p1810
asbasbasbag56
(g72
g58
NtRp1811
(dp1812
g61
(dp1813
sg70
g1018
sg63
(lp1814
g56
(g77
g58
NtRp1815
(dp1816
g61
(dp1817
g81
g82
ssg70
g1811
sg63
(lp1818
S'wsgi_multiprocess'
p1819
asbag56
(g77
g58
NtRp1820
(dp1821
g61
(dp1822
g88
g89
ssg70
g1811
sg63
(lp1823
S':'
asbag56
(g77
g58
NtRp1824
(dp1825
g61
(dp1826
sg70
g1811
sg63
(lp1827
g56
(g57
g58
NtRp1828
(dp1829
g61
(dp1830
g69
I4
ssg70
g1824
sg63
(lp1831
g99
asbasbasbag56
(g72
g58
NtRp1832
(dp1833
g61
(dp1834
sg70
g1018
sg63
(lp1835
g56
(g77
g58
NtRp1836
(dp1837
g61
(dp1838
g81
g82
ssg70
g1832
sg63
(lp1839
S'wsgi_multithread'
p1840
asbag56
(g77
g58
NtRp1841
(dp1842
g61
(dp1843
g88
g89
ssg70
g1832
sg63
(lp1844
S':'
asbag56
(g77
g58
NtRp1845
(dp1846
g61
(dp1847
sg70
g1832
sg63
(lp1848
g56
(g57
g58
NtRp1849
(dp1850
g61
(dp1851
g69
I4
ssg70
g1845
sg63
(lp1852
S'True'
p1853
asbasbasbag56
(g72
g58
NtRp1854
(dp1855
g61
(dp1856
sg70
g1018
sg63
(lp1857
g56
(g77
g58
NtRp1858
(dp1859
g61
(dp1860
g81
g82
ssg70
g1854
sg63
(lp1861
S'wsgi_run_once'
p1862
asbag56
(g77
g58
NtRp1863
(dp1864
g61
(dp1865
g88
g89
ssg70
g1854
sg63
(lp1866
S':'
asbag56
(g77
g58
NtRp1867
(dp1868
g61
(dp1869
sg70
g1854
sg63
(lp1870
g56
(g57
g58
NtRp1871
(dp1872
g61
(dp1873
g69
I4
ssg70
g1867
sg63
(lp1874
g99
asbasbasbag56
(g72
g58
NtRp1875
(dp1876
g61
(dp1877
sg70
g1018
sg63
(lp1878
g56
(g77
g58
NtRp1879
(dp1880
g61
(dp1881
g81
g82
ssg70
g1875
sg63
(lp1882
S'wsgi_url_scheme'
p1883
asbag56
(g77
g58
NtRp1884
(dp1885
g61
(dp1886
g88
g89
ssg70
g1875
sg63
(lp1887
S':'
asbag56
(g77
g58
NtRp1888
(dp1889
g61
(dp1890
sg70
g1875
sg63
(lp1891
g56
(g57
g58
NtRp1892
(dp1893
g61
(dp1894
g69
I4
ssg70
g1888
sg63
(lp1895
S'http'
p1896
asbasbasbag56
(g72
g58
NtRp1897
(dp1898
g61
(dp1899
sg70
g1018
sg63
(lp1900
g56
(g77
g58
NtRp1901
(dp1902
g61
(dp1903
g81
g82
ssg70
g1897
sg63
(lp1904
S'wsgi_version'
p1905
asbag56
(g77
g58
NtRp1906
(dp1907
g61
(dp1908
g88
g89
ssg70
g1897
sg63
(lp1909
S':'
asbag56
(g77
g58
NtRp1910
(dp1911
g61
(dp1912
sg70
g1897
sg63
(lp1913
g56
(g57
g58
NtRp1914
(dp1915
g61
(dp1916
g69
I4
ssg70
g1910
sg63
(lp1917
g56
(g65
g58
NtRp1918
(dp1919
g61
(dp1920
g69
I3
ssg70
Nsg63
(lp1921
g56
(g72
g58
NtRp1922
(dp1923
g61
(dp1924
sg70
g1918
sg63
(lp1925
g56
(g77
g58
NtRp1926
(dp1927
g61
(dp1928
sg70
g1922
sg63
(lp1929
g56
(g57
g58
NtRp1930
(dp1931
g61
(dp1932
g69
I3
ssg70
g1926
sg63
(lp1933
S'1'
asbasbasbag56
(g72
g58
NtRp1934
(dp1935
g61
(dp1936
sg70
g1918
sg63
(lp1937
g56
(g77
g58
NtRp1938
(dp1939
g61
(dp1940
sg70
g1934
sg63
(lp1941
g56
(g57
g58
NtRp1942
(dp1943
g61
(dp1944
g69
I3
ssg70
g1938
sg63
(lp1945
S'0'
asbasbasbasbasbasbasbasbasbasbasbag56
(g72
g58
NtRp1946
(dp1947
g61
(dp1948
sg70
g66
sg63
(lp1949
g56
(g77
g58
NtRp1950
(dp1951
g61
(dp1952
g81
g82
ssg70
g1946
sg63
(lp1953
S'extension'
p1954
asbag56
(g77
g58
NtRp1955
(dp1956
g61
(dp1957
g88
g89
ssg70
g1946
sg63
(lp1958
S':'
asbag56
(g77
g58
NtRp1959
(dp1960
g61
(dp1961
sg70
g1946
sg63
(lp1962
g56
(g57
g58
NtRp1963
(dp1964
g61
(dp1965
g69
I5
ssg70
g1959
sg63
(lp1966
S'html'
p1967
asbasbasbag56
(g72
g58
NtRp1968
(dp1969
g61
(dp1970
sg70
g66
sg63
(lp1971
g56
(g77
g58
NtRp1972
(dp1973
g61
(dp1974
g81
g82
ssg70
g1968
sg63
(lp1975
S'folder'
p1976
asbag56
(g77
g58
NtRp1977
(dp1978
g61
(dp1979
g88
g89
ssg70
g1968
sg63
(lp1980
S':'
asbag56
(g77
g58
NtRp1981
(dp1982
g61
(dp1983
sg70
g1968
sg63
(lp1984
g56
(g57
g58
NtRp1985
(dp1986
g61
(dp1987
g69
I5
ssg70
g1981
sg63
(lp1988
S'/home/ian/web2py/applications/grades/'
p1989
asbasbasbag56
(g72
g58
NtRp1990
(dp1991
g61
(dp1992
sg70
g66
sg63
(lp1993
g56
(g77
g58
NtRp1994
(dp1995
g61
(dp1996
g81
g82
ssg70
g1990
sg63
(lp1997
S'function'
p1998
asbag56
(g77
g58
NtRp1999
(dp2000
g61
(dp2001
g88
g89
ssg70
g1990
sg63
(lp2002
S':'
asbag56
(g77
g58
NtRp2003
(dp2004
g61
(dp2005
sg70
g1990
sg63
(lp2006
g56
(g57
g58
NtRp2007
(dp2008
g61
(dp2009
g69
I5
ssg70
g2003
sg63
(lp2010
S'create_grade'
p2011
asbasbasbag56
(g72
g58
NtRp2012
(dp2013
g61
(dp2014
sg70
g66
sg63
(lp2015
g56
(g77
g58
NtRp2016
(dp2017
g61
(dp2018
g81
g82
ssg70
g2012
sg63
(lp2019
S'get_vars'
p2020
asbag56
(g77
g58
NtRp2021
(dp2022
g61
(dp2023
g88
g89
ssg70
g2012
sg63
(lp2024
S':'
asbag56
(g77
g58
NtRp2025
(dp2026
g61
(dp2027
sg70
g2012
sg63
(lp2028
g56
(g57
g58
NtRp2029
(dp2030
g61
(dp2031
g69
I5
ssg70
g2025
sg63
(lp2032
g56
(g65
g58
NtRp2033
(dp2034
g61
(dp2035
g69
I4
ssg70
Nsg63
(lp2036
sbasbasbasbag56
(g72
g58
NtRp2037
(dp2038
g61
(dp2039
sg70
g66
sg63
(lp2040
g56
(g77
g58
NtRp2041
(dp2042
g61
(dp2043
g81
g82
ssg70
g2037
sg63
(lp2044
S'global_settings'
p2045
asbag56
(g77
g58
NtRp2046
(dp2047
g61
(dp2048
g88
g89
ssg70
g2037
sg63
(lp2049
S':'
asbag56
(g77
g58
NtRp2050
(dp2051
g61
(dp2052
sg70
g2037
sg63
(lp2053
g56
(g57
g58
NtRp2054
(dp2055
g61
(dp2056
g69
I5
ssg70
g2050
sg63
(lp2057
g56
(g65
g58
NtRp2058
(dp2059
g61
(dp2060
g69
I4
ssg70
Nsg63
(lp2061
g56
(g72
g58
NtRp2062
(dp2063
g61
(dp2064
sg70
g2058
sg63
(lp2065
g56
(g77
g58
NtRp2066
(dp2067
g61
(dp2068
g81
g82
ssg70
g2062
sg63
(lp2069
g1030
asbag56
(g77
g58
NtRp2070
(dp2071
g61
(dp2072
g88
g89
ssg70
g2062
sg63
(lp2073
S':'
asbag56
(g77
g58
NtRp2074
(dp2075
g61
(dp2076
sg70
g2062
sg63
(lp2077
g56
(g57
g58
NtRp2078
(dp2079
g61
(dp2080
g69
I4
ssg70
g2074
sg63
(lp2081
S"set(['/home/ian/web2py/applications/welcome/', '/home/ian/web2py/applications/grades/', '/home/ian/web2py/applications/admin/'])"
p2082
asbasbasbag56
(g72
g58
NtRp2083
(dp2084
g61
(dp2085
sg70
g2058
sg63
(lp2086
g56
(g77
g58
NtRp2087
(dp2088
g61
(dp2089
g81
g82
ssg70
g2083
sg63
(lp2090
g1052
asbag56
(g77
g58
NtRp2091
(dp2092
g61
(dp2093
g88
g89
ssg70
g2083
sg63
(lp2094
S':'
asbag56
(g77
g58
NtRp2095
(dp2096
g61
(dp2097
sg70
g2083
sg63
(lp2098
g56
(g57
g58
NtRp2099
(dp2100
g61
(dp2101
g69
I4
ssg70
g2095
sg63
(lp2102
g1065
asbasbasbag56
(g72
g58
NtRp2103
(dp2104
g61
(dp2105
sg70
g2058
sg63
(lp2106
g56
(g77
g58
NtRp2107
(dp2108
g61
(dp2109
g81
g82
ssg70
g2103
sg63
(lp2110
g1074
asbag56
(g77
g58
NtRp2111
(dp2112
g61
(dp2113
g88
g89
ssg70
g2103
sg63
(lp2114
S':'
asbag56
(g77
g58
NtRp2115
(dp2116
g61
(dp2117
sg70
g2103
sg63
(lp2118
g56
(g57
g58
NtRp2119
(dp2120
g61
(dp2121
g69
I4
ssg70
g2115
sg63
(lp2122
g56
(g65
g58
NtRp2123
(dp2124
g61
(dp2125
g69
I3
ssg70
Nsg63
(lp2126
sbasbasbasbag56
(g72
g58
NtRp2127
(dp2128
g61
(dp2129
sg70
g2058
sg63
(lp2130
g56
(g77
g58
NtRp2131
(dp2132
g61
(dp2133
g81
g82
ssg70
g2127
sg63
(lp2134
g1099
asbag56
(g77
g58
NtRp2135
(dp2136
g61
(dp2137
g88
g89
ssg70
g2127
sg63
(lp2138
S':'
asbag56
(g77
g58
NtRp2139
(dp2140
g61
(dp2141
sg70
g2127
sg63
(lp2142
g56
(g57
g58
NtRp2143
(dp2144
g61
(dp2145
g69
I4
ssg70
g2139
sg63
(lp2146
S"<Values at 0x1ffe758: {'verbose': False, 'ip': '127.0.0.1', 'shutdown_timeout': 5, 'taskbar': False, 'nocron': False, 'pid_filename': 'httpserver.pid', 'maxthreads': None, 'softcron': False, 'server_name': 'uriel', 'bpython': False, 'nogui': False, 'port': 8000, 'extcron': False, 'debuglevel': 30, 'test': None, 'folder': '/home/ian/web2py', 'config': '', 'import_models': False, 'winservice': '', 'shell': None, 'run': '', 'log_filename': 'httpserver.log', 'args': [''], 'ssl_ca_certificate': None, 'scheduler': None, 'profiler_filename': None, 'ssl_private_key': '', 'password': '<ask>', 'request_queue_size': 5, 'ssl_certificate': '', 'cronjob': False, 'plain': False, 'quiet': False, 'interfaces': None, 'minthreads': None, 'timeout': 10, 'numthreads': None, 'nobanner': False}>"
p2147
asbasbasbag56
(g72
g58
NtRp2148
(dp2149
g61
(dp2150
sg70
g2058
sg63
(lp2151
g56
(g77
g58
NtRp2152
(dp2153
g61
(dp2154
g81
g82
ssg70
g2148
sg63
(lp2155
g1121
asbag56
(g77
g58
NtRp2156
(dp2157
g61
(dp2158
g88
g89
ssg70
g2148
sg63
(lp2159
S':'
asbag56
(g77
g58
NtRp2160
(dp2161
g61
(dp2162
sg70
g2148
sg63
(lp2163
g56
(g57
g58
NtRp2164
(dp2165
g61
(dp2166
g69
I4
ssg70
g2160
sg63
(lp2167
S'set([])'
p2168
asbasbasbag56
(g72
g58
NtRp2169
(dp2170
g61
(dp2171
sg70
g2058
sg63
(lp2172
g56
(g77
g58
NtRp2173
(dp2174
g61
(dp2175
g81
g82
ssg70
g2169
sg63
(lp2176
g1143
asbag56
(g77
g58
NtRp2177
(dp2178
g61
(dp2179
g88
g89
ssg70
g2169
sg63
(lp2180
S':'
asbag56
(g77
g58
NtRp2181
(dp2182
g61
(dp2183
sg70
g2169
sg63
(lp2184
g56
(g57
g58
NtRp2185
(dp2186
g61
(dp2187
g69
I4
ssg70
g2181
sg63
(lp2188
g99
asbasbasbag56
(g72
g58
NtRp2189
(dp2190
g61
(dp2191
sg70
g2058
sg63
(lp2192
g56
(g77
g58
NtRp2193
(dp2194
g61
(dp2195
g81
g82
ssg70
g2189
sg63
(lp2196
g1164
asbag56
(g77
g58
NtRp2197
(dp2198
g61
(dp2199
g88
g89
ssg70
g2189
sg63
(lp2200
S':'
asbag56
(g77
g58
NtRp2201
(dp2202
g61
(dp2203
sg70
g2189
sg63
(lp2204
g56
(g57
g58
NtRp2205
(dp2206
g61
(dp2207
g69
I4
ssg70
g2201
sg63
(lp2208
g1177
asbasbasbag56
(g72
g58
NtRp2209
(dp2210
g61
(dp2211
sg70
g2058
sg63
(lp2212
g56
(g77
g58
NtRp2213
(dp2214
g61
(dp2215
g81
g82
ssg70
g2209
sg63
(lp2216
g1384
asbag56
(g77
g58
NtRp2217
(dp2218
g61
(dp2219
g88
g89
ssg70
g2209
sg63
(lp2220
S':'
asbag56
(g77
g58
NtRp2221
(dp2222
g61
(dp2223
sg70
g2209
sg63
(lp2224
g56
(g57
g58
NtRp2225
(dp2226
g61
(dp2227
g69
I4
ssg70
g2221
sg63
(lp2228
g99
asbasbasbag56
(g72
g58
NtRp2229
(dp2230
g61
(dp2231
sg70
g2058
sg63
(lp2232
g56
(g77
g58
NtRp2233
(dp2234
g61
(dp2235
g81
g82
ssg70
g2229
sg63
(lp2236
g1622
asbag56
(g77
g58
NtRp2237
(dp2238
g61
(dp2239
g88
g89
ssg70
g2229
sg63
(lp2240
S':'
asbag56
(g77
g58
NtRp2241
(dp2242
g61
(dp2243
sg70
g2229
sg63
(lp2244
g56
(g57
g58
NtRp2245
(dp2246
g61
(dp2247
g69
I4
ssg70
g2241
sg63
(lp2248
g1635
asbasbasbag56
(g72
g58
NtRp2249
(dp2250
g61
(dp2251
sg70
g2058
sg63
(lp2252
g56
(g77
g58
NtRp2253
(dp2254
g61
(dp2255
g81
g82
ssg70
g2249
sg63
(lp2256
g1665
asbag56
(g77
g58
NtRp2257
(dp2258
g61
(dp2259
g88
g89
ssg70
g2249
sg63
(lp2260
S':'
asbag56
(g77
g58
NtRp2261
(dp2262
g61
(dp2263
sg70
g2249
sg63
(lp2264
g56
(g57
g58
NtRp2265
(dp2266
g61
(dp2267
g69
I4
ssg70
g2261
sg63
(lp2268
g56
(g65
g58
NtRp2269
(dp2270
g61
(dp2271
g69
I3
ssg70
Nsg63
(lp2272
g56
(g72
g58
NtRp2273
(dp2274
g61
(dp2275
sg70
g2269
sg63
(lp2276
g56
(g77
g58
NtRp2277
(dp2278
g61
(dp2279
sg70
g2273
sg63
(lp2280
g56
(g57
g58
NtRp2281
(dp2282
g61
(dp2283
g69
I3
ssg70
g2277
sg63
(lp2284
S'1'
asbasbasbag56
(g72
g58
NtRp2285
(dp2286
g61
(dp2287
sg70
g2269
sg63
(lp2288
g56
(g77
g58
NtRp2289
(dp2290
g61
(dp2291
sg70
g2285
sg63
(lp2292
g56
(g57
g58
NtRp2293
(dp2294
g61
(dp2295
g69
I3
ssg70
g2289
sg63
(lp2296
S'99'
p2297
asbasbasbag56
(g72
g58
NtRp2298
(dp2299
g61
(dp2300
sg70
g2269
sg63
(lp2301
g56
(g77
g58
NtRp2302
(dp2303
g61
(dp2304
sg70
g2298
sg63
(lp2305
g56
(g57
g58
NtRp2306
(dp2307
g61
(dp2308
g69
I3
ssg70
g2302
sg63
(lp2309
S'2'
asbasbasbag56
(g72
g58
NtRp2310
(dp2311
g61
(dp2312
sg70
g2269
sg63
(lp2313
g56
(g77
g58
NtRp2314
(dp2315
g61
(dp2316
sg70
g2310
sg63
(lp2317
g56
(g57
g58
NtRp2318
(dp2319
g61
(dp2320
g69
I3
ssg70
g2314
sg63
(lp2321
S'datetime.datetime(2011, 9, 26, 6, 55, 33)'
p2322
asbasbasbag56
(g72
g58
NtRp2323
(dp2324
g61
(dp2325
sg70
g2269
sg63
(lp2326
g56
(g77
g58
NtRp2327
(dp2328
g61
(dp2329
sg70
g2323
sg63
(lp2330
g56
(g57
g58
NtRp2331
(dp2332
g61
(dp2333
g69
I3
ssg70
g2327
sg63
(lp2334
g1744
asbasbasbasbasbasbasbasbasbasbasbag56
(g72
g58
NtRp2335
(dp2336
g61
(dp2337
sg70
g66
sg63
(lp2338
g56
(g77
g58
NtRp2339
(dp2340
g61
(dp2341
g81
g82
ssg70
g2335
sg63
(lp2342
S'is_https'
p2343
asbag56
(g77
g58
NtRp2344
(dp2345
g61
(dp2346
g88
g89
ssg70
g2335
sg63
(lp2347
S':'
asbag56
(g77
g58
NtRp2348
(dp2349
g61
(dp2350
sg70
g2335
sg63
(lp2351
g56
(g57
g58
NtRp2352
(dp2353
g61
(dp2354
g69
I5
ssg70
g2348
sg63
(lp2355
g99
asbasbasbag56
(g72
g58
NtRp2356
(dp2357
g61
(dp2358
sg70
g66
sg63
(lp2359
g56
(g77
g58
NtRp2360
(dp2361
g61
(dp2362
g81
g82
ssg70
g2356
sg63
(lp2363
S'is_local'
p2364
asbag56
(g77
g58
NtRp2365
(dp2366
g61
(dp2367
g88
g89
ssg70
g2356
sg63
(lp2368
S':'
asbag56
(g77
g58
NtRp2369
(dp2370
g61
(dp2371
sg70
g2356
sg63
(lp2372
g56
(g57
g58
NtRp2373
(dp2374
g61
(dp2375
g69
I5
ssg70
g2369
sg63
(lp2376
g1853
asbasbasbag56
(g72
g58
NtRp2377
(dp2378
g61
(dp2379
sg70
g66
sg63
(lp2380
g56
(g77
g58
NtRp2381
(dp2382
g61
(dp2383
g81
g82
ssg70
g2377
sg63
(lp2384
S'is_restful'
p2385
asbag56
(g77
g58
NtRp2386
(dp2387
g61
(dp2388
g88
g89
ssg70
g2377
sg63
(lp2389
S':'
asbag56
(g77
g58
NtRp2390
(dp2391
g61
(dp2392
sg70
g2377
sg63
(lp2393
g56
(g57
g58
NtRp2394
(dp2395
g61
(dp2396
g69
I5
ssg70
g2390
sg63
(lp2397
g99
asbasbasbag56
(g72
g58
NtRp2398
(dp2399
g61
(dp2400
sg70
g66
sg63
(lp2401
g56
(g77
g58
NtRp2402
(dp2403
g61
(dp2404
g81
g82
ssg70
g2398
sg63
(lp2405
S'now'
p2406
asbag56
(g77
g58
NtRp2407
(dp2408
g61
(dp2409
g88
g89
ssg70
g2398
sg63
(lp2410
S':'
asbag56
(g77
g58
NtRp2411
(dp2412
g61
(dp2413
sg70
g2398
sg63
(lp2414
g56
(g57
g58
NtRp2415
(dp2416
g61
(dp2417
g69
I5
ssg70
g2411
sg63
(lp2418
S'datetime.datetime(2011, 11, 9, 12, 19, 45, 364980)'
p2419
asbasbasbag56
(g72
g58
NtRp2420
(dp2421
g61
(dp2422
sg70
g66
sg63
(lp2423
g56
(g77
g58
NtRp2424
(dp2425
g61
(dp2426
g81
g82
ssg70
g2420
sg63
(lp2427
S'post_vars'
p2428
asbag56
(g77
g58
NtRp2429
(dp2430
g61
(dp2431
g88
g89
ssg70
g2420
sg63
(lp2432
S':'
asbag56
(g77
g58
NtRp2433
(dp2434
g61
(dp2435
sg70
g2420
sg63
(lp2436
g56
(g57
g58
NtRp2437
(dp2438
g61
(dp2439
g69
I5
ssg70
g2433
sg63
(lp2440
g56
(g65
g58
NtRp2441
(dp2442
g61
(dp2443
g69
I4
ssg70
Nsg63
(lp2444
sbasbasbasbag56
(g72
g58
NtRp2445
(dp2446
g61
(dp2447
sg70
g66
sg63
(lp2448
g56
(g77
g58
NtRp2449
(dp2450
g61
(dp2451
g81
g82
ssg70
g2445
sg63
(lp2452
S'raw_args'
p2453
asbag56
(g77
g58
NtRp2454
(dp2455
g61
(dp2456
g88
g89
ssg70
g2445
sg63
(lp2457
S':'
asbag56
(g77
g58
NtRp2458
(dp2459
g61
(dp2460
sg70
g2445
sg63
(lp2461
g56
(g57
g58
NtRp2462
(dp2463
g61
(dp2464
g69
I5
ssg70
g2458
sg63
(lp2465
S'1'
asbasbasbag56
(g72
g58
NtRp2466
(dp2467
g61
(dp2468
sg70
g66
sg63
(lp2469
g56
(g77
g58
NtRp2470
(dp2471
g61
(dp2472
g81
g82
ssg70
g2466
sg63
(lp2473
S'url'
p2474
asbag56
(g77
g58
NtRp2475
(dp2476
g61
(dp2477
g88
g89
ssg70
g2466
sg63
(lp2478
S':'
asbag56
(g77
g58
NtRp2479
(dp2480
g61
(dp2481
sg70
g2466
sg63
(lp2482
g56
(g57
g58
NtRp2483
(dp2484
g61
(dp2485
g69
I5
ssg70
g2479
sg63
(lp2486
S'/grades/default/create_grade/1'
p2487
asbasbasbag56
(g72
g58
NtRp2488
(dp2489
g61
(dp2490
sg70
g66
sg63
(lp2491
g56
(g77
g58
NtRp2492
(dp2493
g61
(dp2494
g81
g82
ssg70
g2488
sg63
(lp2495
S'utcnow'
p2496
asbag56
(g77
g58
NtRp2497
(dp2498
g61
(dp2499
g88
g89
ssg70
g2488
sg63
(lp2500
S':'
asbag56
(g77
g58
NtRp2501
(dp2502
g61
(dp2503
sg70
g2488
sg63
(lp2504
g56
(g57
g58
NtRp2505
(dp2506
g61
(dp2507
g69
I5
ssg70
g2501
sg63
(lp2508
S'datetime.datetime(2011, 11, 9, 17, 19, 45, 365037)'
p2509
asbasbasbag56
(g72
g58
NtRp2510
(dp2511
g61
(dp2512
sg70
g66
sg63
(lp2513
g56
(g77
g58
NtRp2514
(dp2515
g61
(dp2516
g81
g82
ssg70
g2510
sg63
(lp2517
S'uuid'
p2518
asbag56
(g77
g58
NtRp2519
(dp2520
g61
(dp2521
g88
g89
ssg70
g2510
sg63
(lp2522
S':'
asbag56
(g77
g58
NtRp2523
(dp2524
g61
(dp2525
sg70
g2510
sg63
(lp2526
g56
(g57
g58
NtRp2527
(dp2528
g61
(dp2529
g69
I5
ssg70
g2523
sg63
(lp2530
S'grades/127.0.0.1.2011-11-09.12-19-45.f9b3e40b-1e3b-4e26-8206-a4e147fe3120'
p2531
asbasbasbag56
(g72
g58
NtRp2532
(dp2533
g61
(dp2534
sg70
g66
sg63
(lp2535
g56
(g77
g58
NtRp2536
(dp2537
g61
(dp2538
g81
g82
ssg70
g2532
sg63
(lp2539
S'vars'
p2540
asbag56
(g77
g58
NtRp2541
(dp2542
g61
(dp2543
g88
g89
ssg70
g2532
sg63
(lp2544
S':'
asbag56
(g77
g58
NtRp2545
(dp2546
g61
(dp2547
sg70
g2532
sg63
(lp2548
g56
(g57
g58
NtRp2549
(dp2550
g61
(dp2551
g69
I5
ssg70
g2545
sg63
(lp2552
g56
(g65
g58
NtRp2553
(dp2554
g61
(dp2555
g69
I4
ssg70
Nsg63
(lp2556
sbasbasbasbag56
(g72
g58
NtRp2557
(dp2558
g61
(dp2559
sg70
g66
sg63
(lp2560
g56
(g77
g58
NtRp2561
(dp2562
g61
(dp2563
g81
g82
ssg70
g2557
sg63
(lp2564
S'wsgi'
p2565
asbag56
(g77
g58
NtRp2566
(dp2567
g61
(dp2568
g88
g89
ssg70
g2557
sg63
(lp2569
S':'
asbag56
(g77
g58
NtRp2570
(dp2571
g61
(dp2572
sg70
g2557
sg63
(lp2573
g56
(g57
g58
NtRp2574
(dp2575
g61
(dp2576
g69
I5
ssg70
g2570
sg63
(lp2577
g56
(g65
g58
NtRp2578
(dp2579
g61
(dp2580
g69
I4
ssg70
Nsg63
(lp2581
g56
(g72
g58
NtRp2582
(dp2583
g61
(dp2584
sg70
g2578
sg63
(lp2585
g56
(g77
g58
NtRp2586
(dp2587
g61
(dp2588
g81
g82
ssg70
g2582
sg63
(lp2589
S'environ'
p2590
asbag56
(g77
g58
NtRp2591
(dp2592
g61
(dp2593
g88
g89
ssg70
g2582
sg63
(lp2594
S':'
asbag56
(g77
g58
NtRp2595
(dp2596
g61
(dp2597
sg70
g2582
sg63
(lp2598
g56
(g57
g58
NtRp2599
(dp2600
g61
(dp2601
g69
I4
ssg70
g2595
sg63
(lp2602
g56
(g65
g58
NtRp2603
(dp2604
g61
(dp2605
g69
I3
ssg70
Nsg63
(lp2606
g56
(g72
g58
NtRp2607
(dp2608
g61
(dp2609
sg70
g2603
sg63
(lp2610
g56
(g77
g58
NtRp2611
(dp2612
g61
(dp2613
g81
g82
ssg70
g2607
sg63
(lp2614
S'HTTP_ACCEPT'
p2615
asbag56
(g77
g58
NtRp2616
(dp2617
g61
(dp2618
g88
g89
ssg70
g2607
sg63
(lp2619
S':'
asbag56
(g77
g58
NtRp2620
(dp2621
g61
(dp2622
sg70
g2607
sg63
(lp2623
g56
(g57
g58
NtRp2624
(dp2625
g61
(dp2626
g69
I3
ssg70
g2620
sg63
(lp2627
g1199
asbasbasbag56
(g72
g58
NtRp2628
(dp2629
g61
(dp2630
sg70
g2603
sg63
(lp2631
g56
(g77
g58
NtRp2632
(dp2633
g61
(dp2634
g81
g82
ssg70
g2628
sg63
(lp2635
S'HTTP_ACCEPT_ENCODING'
p2636
asbag56
(g77
g58
NtRp2637
(dp2638
g61
(dp2639
g88
g89
ssg70
g2628
sg63
(lp2640
S':'
asbag56
(g77
g58
NtRp2641
(dp2642
g61
(dp2643
sg70
g2628
sg63
(lp2644
g56
(g57
g58
NtRp2645
(dp2646
g61
(dp2647
g69
I3
ssg70
g2641
sg63
(lp2648
g1221
asbasbasbag56
(g72
g58
NtRp2649
(dp2650
g61
(dp2651
sg70
g2603
sg63
(lp2652
g56
(g77
g58
NtRp2653
(dp2654
g61
(dp2655
g81
g82
ssg70
g2649
sg63
(lp2656
S'HTTP_ACCEPT_LANGUAGE'
p2657
asbag56
(g77
g58
NtRp2658
(dp2659
g61
(dp2660
g88
g89
ssg70
g2649
sg63
(lp2661
S':'
asbag56
(g77
g58
NtRp2662
(dp2663
g61
(dp2664
sg70
g2649
sg63
(lp2665
g56
(g57
g58
NtRp2666
(dp2667
g61
(dp2668
g69
I3
ssg70
g2662
sg63
(lp2669
g1243
asbasbasbag56
(g72
g58
NtRp2670
(dp2671
g61
(dp2672
sg70
g2603
sg63
(lp2673
g56
(g77
g58
NtRp2674
(dp2675
g61
(dp2676
g81
g82
ssg70
g2670
sg63
(lp2677
S'HTTP_CACHE_CONTROL'
p2678
asbag56
(g77
g58
NtRp2679
(dp2680
g61
(dp2681
g88
g89
ssg70
g2670
sg63
(lp2682
S':'
asbag56
(g77
g58
NtRp2683
(dp2684
g61
(dp2685
sg70
g2670
sg63
(lp2686
g56
(g57
g58
NtRp2687
(dp2688
g61
(dp2689
g69
I3
ssg70
g2683
sg63
(lp2690
g1265
asbasbasbag56
(g72
g58
NtRp2691
(dp2692
g61
(dp2693
sg70
g2603
sg63
(lp2694
g56
(g77
g58
NtRp2695
(dp2696
g61
(dp2697
g81
g82
ssg70
g2691
sg63
(lp2698
S'HTTP_CONNECTION'
p2699
asbag56
(g77
g58
NtRp2700
(dp2701
g61
(dp2702
g88
g89
ssg70
g2691
sg63
(lp2703
S':'
asbag56
(g77
g58
NtRp2704
(dp2705
g61
(dp2706
sg70
g2691
sg63
(lp2707
g56
(g57
g58
NtRp2708
(dp2709
g61
(dp2710
g69
I3
ssg70
g2704
sg63
(lp2711
g1287
asbasbasbag56
(g72
g58
NtRp2712
(dp2713
g61
(dp2714
sg70
g2603
sg63
(lp2715
g56
(g77
g58
NtRp2716
(dp2717
g61
(dp2718
g81
g82
ssg70
g2712
sg63
(lp2719
S'HTTP_COOKIE'
p2720
asbag56
(g77
g58
NtRp2721
(dp2722
g61
(dp2723
g88
g89
ssg70
g2712
sg63
(lp2724
S':'
asbag56
(g77
g58
NtRp2725
(dp2726
g61
(dp2727
sg70
g2712
sg63
(lp2728
g56
(g57
g58
NtRp2729
(dp2730
g61
(dp2731
g69
I3
ssg70
g2725
sg63
(lp2732
g1309
asbasbasbag56
(g72
g58
NtRp2733
(dp2734
g61
(dp2735
sg70
g2603
sg63
(lp2736
g56
(g77
g58
NtRp2737
(dp2738
g61
(dp2739
g81
g82
ssg70
g2733
sg63
(lp2740
S'HTTP_HOST'
p2741
asbag56
(g77
g58
NtRp2742
(dp2743
g61
(dp2744
g88
g89
ssg70
g2733
sg63
(lp2745
S':'
asbag56
(g77
g58
NtRp2746
(dp2747
g61
(dp2748
sg70
g2733
sg63
(lp2749
g56
(g57
g58
NtRp2750
(dp2751
g61
(dp2752
g69
I3
ssg70
g2746
sg63
(lp2753
g1331
asbasbasbag56
(g72
g58
NtRp2754
(dp2755
g61
(dp2756
sg70
g2603
sg63
(lp2757
g56
(g77
g58
NtRp2758
(dp2759
g61
(dp2760
g81
g82
ssg70
g2754
sg63
(lp2761
S'HTTP_REFERER'
p2762
asbag56
(g77
g58
NtRp2763
(dp2764
g61
(dp2765
g88
g89
ssg70
g2754
sg63
(lp2766
S':'
asbag56
(g77
g58
NtRp2767
(dp2768
g61
(dp2769
sg70
g2754
sg63
(lp2770
g56
(g57
g58
NtRp2771
(dp2772
g61
(dp2773
g69
I3
ssg70
g2767
sg63
(lp2774
g1353
asbasbasbag56
(g72
g58
NtRp2775
(dp2776
g61
(dp2777
sg70
g2603
sg63
(lp2778
g56
(g77
g58
NtRp2779
(dp2780
g61
(dp2781
g81
g82
ssg70
g2775
sg63
(lp2782
S'HTTP_USER_AGENT'
p2783
asbag56
(g77
g58
NtRp2784
(dp2785
g61
(dp2786
g88
g89
ssg70
g2775
sg63
(lp2787
S':'
asbag56
(g77
g58
NtRp2788
(dp2789
g61
(dp2790
sg70
g2775
sg63
(lp2791
g56
(g57
g58
NtRp2792
(dp2793
g61
(dp2794
g69
I3
ssg70
g2788
sg63
(lp2795
g1375
asbasbasbag56
(g72
g58
NtRp2796
(dp2797
g61
(dp2798
sg70
g2603
sg63
(lp2799
g56
(g77
g58
NtRp2800
(dp2801
g61
(dp2802
g81
g82
ssg70
g2796
sg63
(lp2803
S'PATH_INFO'
p2804
asbag56
(g77
g58
NtRp2805
(dp2806
g61
(dp2807
g88
g89
ssg70
g2796
sg63
(lp2808
S':'
asbag56
(g77
g58
NtRp2809
(dp2810
g61
(dp2811
sg70
g2796
sg63
(lp2812
g56
(g57
g58
NtRp2813
(dp2814
g61
(dp2815
g69
I3
ssg70
g2809
sg63
(lp2816
g1418
asbasbasbag56
(g72
g58
NtRp2817
(dp2818
g61
(dp2819
sg70
g2603
sg63
(lp2820
g56
(g77
g58
NtRp2821
(dp2822
g61
(dp2823
g81
g82
ssg70
g2817
sg63
(lp2824
S'QUERY_STRING'
p2825
asbag56
(g77
g58
NtRp2826
(dp2827
g61
(dp2828
g88
g89
ssg70
g2817
sg63
(lp2829
S':'
asbag56
(g77
g58
NtRp2830
(dp2831
g61
(dp2832
sg70
g2817
sg63
(lp2833
g56
(g57
g58
NtRp2834
(dp2835
g61
(dp2836
g69
I3
ssg70
g2830
sg63
(lp2837
S''
asbasbasbag56
(g72
g58
NtRp2838
(dp2839
g61
(dp2840
sg70
g2603
sg63
(lp2841
g56
(g77
g58
NtRp2842
(dp2843
g61
(dp2844
g81
g82
ssg70
g2838
sg63
(lp2845
S'REMOTE_ADDR'
p2846
asbag56
(g77
g58
NtRp2847
(dp2848
g61
(dp2849
g88
g89
ssg70
g2838
sg63
(lp2850
S':'
asbag56
(g77
g58
NtRp2851
(dp2852
g61
(dp2853
sg70
g2838
sg63
(lp2854
g56
(g57
g58
NtRp2855
(dp2856
g61
(dp2857
g69
I3
ssg70
g2851
sg63
(lp2858
g201
asbasbasbag56
(g72
g58
NtRp2859
(dp2860
g61
(dp2861
sg70
g2603
sg63
(lp2862
g56
(g77
g58
NtRp2863
(dp2864
g61
(dp2865
g81
g82
ssg70
g2859
sg63
(lp2866
S'REMOTE_PORT'
p2867
asbag56
(g77
g58
NtRp2868
(dp2869
g61
(dp2870
g88
g89
ssg70
g2859
sg63
(lp2871
S':'
asbag56
(g77
g58
NtRp2872
(dp2873
g61
(dp2874
sg70
g2859
sg63
(lp2875
g56
(g57
g58
NtRp2876
(dp2877
g61
(dp2878
g69
I3
ssg70
g2872
sg63
(lp2879
g1482
asbasbasbag56
(g72
g58
NtRp2880
(dp2881
g61
(dp2882
sg70
g2603
sg63
(lp2883
g56
(g77
g58
NtRp2884
(dp2885
g61
(dp2886
g81
g82
ssg70
g2880
sg63
(lp2887
S'REQUEST_METHOD'
p2888
asbag56
(g77
g58
NtRp2889
(dp2890
g61
(dp2891
g88
g89
ssg70
g2880
sg63
(lp2892
S':'
asbag56
(g77
g58
NtRp2893
(dp2894
g61
(dp2895
sg70
g2880
sg63
(lp2896
g56
(g57
g58
NtRp2897
(dp2898
g61
(dp2899
g69
I3
ssg70
g2893
sg63
(lp2900
g1504
asbasbasbag56
(g72
g58
NtRp2901
(dp2902
g61
(dp2903
sg70
g2603
sg63
(lp2904
g56
(g77
g58
NtRp2905
(dp2906
g61
(dp2907
g81
g82
ssg70
g2901
sg63
(lp2908
S'SCRIPT_NAME'
p2909
asbag56
(g77
g58
NtRp2910
(dp2911
g61
(dp2912
g88
g89
ssg70
g2901
sg63
(lp2913
S':'
asbag56
(g77
g58
NtRp2914
(dp2915
g61
(dp2916
sg70
g2901
sg63
(lp2917
g56
(g57
g58
NtRp2918
(dp2919
g61
(dp2920
g69
I3
ssg70
g2914
sg63
(lp2921
S''
asbasbasbag56
(g72
g58
NtRp2922
(dp2923
g61
(dp2924
sg70
g2603
sg63
(lp2925
g56
(g77
g58
NtRp2926
(dp2927
g61
(dp2928
g81
g82
ssg70
g2922
sg63
(lp2929
S'SERVER_NAME'
p2930
asbag56
(g77
g58
NtRp2931
(dp2932
g61
(dp2933
g88
g89
ssg70
g2922
sg63
(lp2934
S':'
asbag56
(g77
g58
NtRp2935
(dp2936
g61
(dp2937
sg70
g2922
sg63
(lp2938
g56
(g57
g58
NtRp2939
(dp2940
g61
(dp2941
g69
I3
ssg70
g2935
sg63
(lp2942
g1547
asbasbasbag56
(g72
g58
NtRp2943
(dp2944
g61
(dp2945
sg70
g2603
sg63
(lp2946
g56
(g77
g58
NtRp2947
(dp2948
g61
(dp2949
g81
g82
ssg70
g2943
sg63
(lp2950
S'SERVER_PORT'
p2951
asbag56
(g77
g58
NtRp2952
(dp2953
g61
(dp2954
g88
g89
ssg70
g2943
sg63
(lp2955
S':'
asbag56
(g77
g58
NtRp2956
(dp2957
g61
(dp2958
sg70
g2943
sg63
(lp2959
g56
(g57
g58
NtRp2960
(dp2961
g61
(dp2962
g69
I3
ssg70
g2956
sg63
(lp2963
g1569
asbasbasbag56
(g72
g58
NtRp2964
(dp2965
g61
(dp2966
sg70
g2603
sg63
(lp2967
g56
(g77
g58
NtRp2968
(dp2969
g61
(dp2970
g81
g82
ssg70
g2964
sg63
(lp2971
S'SERVER_PROTOCOL'
p2972
asbag56
(g77
g58
NtRp2973
(dp2974
g61
(dp2975
g88
g89
ssg70
g2964
sg63
(lp2976
S':'
asbag56
(g77
g58
NtRp2977
(dp2978
g61
(dp2979
sg70
g2964
sg63
(lp2980
g56
(g57
g58
NtRp2981
(dp2982
g61
(dp2983
g69
I3
ssg70
g2977
sg63
(lp2984
g1591
asbasbasbag56
(g72
g58
NtRp2985
(dp2986
g61
(dp2987
sg70
g2603
sg63
(lp2988
g56
(g77
g58
NtRp2989
(dp2990
g61
(dp2991
g81
g82
ssg70
g2985
sg63
(lp2992
S'SERVER_SOFTWARE'
p2993
asbag56
(g77
g58
NtRp2994
(dp2995
g61
(dp2996
g88
g89
ssg70
g2985
sg63
(lp2997
S':'
asbag56
(g77
g58
NtRp2998
(dp2999
g61
(dp3000
sg70
g2985
sg63
(lp3001
g56
(g57
g58
NtRp3002
(dp3003
g61
(dp3004
g69
I3
ssg70
g2998
sg63
(lp3005
g1613
asbasbasbag56
(g72
g58
NtRp3006
(dp3007
g61
(dp3008
sg70
g2603
sg63
(lp3009
g56
(g77
g58
NtRp3010
(dp3011
g61
(dp3012
g81
g82
ssg70
g3006
sg63
(lp3013
S'wsgi.errors'
p3014
asbag56
(g77
g58
NtRp3015
(dp3016
g61
(dp3017
g88
g89
ssg70
g3006
sg63
(lp3018
S':'
asbag56
(g77
g58
NtRp3019
(dp3020
g61
(dp3021
sg70
g3006
sg63
(lp3022
g56
(g57
g58
NtRp3023
(dp3024
g61
(dp3025
g69
I3
ssg70
g3019
sg63
(lp3026
S"<open file '<stderr>', mode 'w' at 0x7f9678b3d270>"
p3027
asbasbasbag56
(g72
g58
NtRp3028
(dp3029
g61
(dp3030
sg70
g2603
sg63
(lp3031
g56
(g77
g58
NtRp3032
(dp3033
g61
(dp3034
g81
g82
ssg70
g3028
sg63
(lp3035
S'wsgi.file_wrapper'
p3036
asbag56
(g77
g58
NtRp3037
(dp3038
g61
(dp3039
g88
g89
ssg70
g3028
sg63
(lp3040
S':'
asbag56
(g77
g58
NtRp3041
(dp3042
g61
(dp3043
sg70
g3028
sg63
(lp3044
g56
(g57
g58
NtRp3045
(dp3046
g61
(dp3047
g69
I3
ssg70
g3041
sg63
(lp3048
S'<class wsgiref.util.FileWrapper at 0x1ec9870>'
p3049
asbasbasbag56
(g72
g58
NtRp3050
(dp3051
g61
(dp3052
sg70
g2603
sg63
(lp3053
g56
(g77
g58
NtRp3054
(dp3055
g61
(dp3056
g81
g82
ssg70
g3050
sg63
(lp3057
S'wsgi.input'
p3058
asbag56
(g77
g58
NtRp3059
(dp3060
g61
(dp3061
g88
g89
ssg70
g3050
sg63
(lp3062
S':'
asbag56
(g77
g58
NtRp3063
(dp3064
g61
(dp3065
sg70
g3050
sg63
(lp3066
g56
(g57
g58
NtRp3067
(dp3068
g61
(dp3069
g69
I3
ssg70
g3063
sg63
(lp3070
S'<cStringIO.StringO object at 0x392aab0>'
p3071
asbasbasbag56
(g72
g58
NtRp3072
(dp3073
g61
(dp3074
sg70
g2603
sg63
(lp3075
g56
(g77
g58
NtRp3076
(dp3077
g61
(dp3078
g81
g82
ssg70
g3072
sg63
(lp3079
S'wsgi.multiprocess'
p3080
asbag56
(g77
g58
NtRp3081
(dp3082
g61
(dp3083
g88
g89
ssg70
g3072
sg63
(lp3084
S':'
asbag56
(g77
g58
NtRp3085
(dp3086
g61
(dp3087
sg70
g3072
sg63
(lp3088
g56
(g57
g58
NtRp3089
(dp3090
g61
(dp3091
g69
I3
ssg70
g3085
sg63
(lp3092
g99
asbasbasbag56
(g72
g58
NtRp3093
(dp3094
g61
(dp3095
sg70
g2603
sg63
(lp3096
g56
(g77
g58
NtRp3097
(dp3098
g61
(dp3099
g81
g82
ssg70
g3093
sg63
(lp3100
S'wsgi.multithread'
p3101
asbag56
(g77
g58
NtRp3102
(dp3103
g61
(dp3104
g88
g89
ssg70
g3093
sg63
(lp3105
S':'
asbag56
(g77
g58
NtRp3106
(dp3107
g61
(dp3108
sg70
g3093
sg63
(lp3109
g56
(g57
g58
NtRp3110
(dp3111
g61
(dp3112
g69
I3
ssg70
g3106
sg63
(lp3113
g1853
asbasbasbag56
(g72
g58
NtRp3114
(dp3115
g61
(dp3116
sg70
g2603
sg63
(lp3117
g56
(g77
g58
NtRp3118
(dp3119
g61
(dp3120
g81
g82
ssg70
g3114
sg63
(lp3121
S'wsgi.run_once'
p3122
asbag56
(g77
g58
NtRp3123
(dp3124
g61
(dp3125
g88
g89
ssg70
g3114
sg63
(lp3126
S':'
asbag56
(g77
g58
NtRp3127
(dp3128
g61
(dp3129
sg70
g3114
sg63
(lp3130
g56
(g57
g58
NtRp3131
(dp3132
g61
(dp3133
g69
I3
ssg70
g3127
sg63
(lp3134
g99
asbasbasbag56
(g72
g58
NtRp3135
(dp3136
g61
(dp3137
sg70
g2603
sg63
(lp3138
g56
(g77
g58
NtRp3139
(dp3140
g61
(dp3141
g81
g82
ssg70
g3135
sg63
(lp3142
S'wsgi.url_scheme'
p3143
asbag56
(g77
g58
NtRp3144
(dp3145
g61
(dp3146
g88
g89
ssg70
g3135
sg63
(lp3147
S':'
asbag56
(g77
g58
NtRp3148
(dp3149
g61
(dp3150
sg70
g3135
sg63
(lp3151
g56
(g57
g58
NtRp3152
(dp3153
g61
(dp3154
g69
I3
ssg70
g3148
sg63
(lp3155
g1896
asbasbasbag56
(g72
g58
NtRp3156
(dp3157
g61
(dp3158
sg70
g2603
sg63
(lp3159
g56
(g77
g58
NtRp3160
(dp3161
g61
(dp3162
g81
g82
ssg70
g3156
sg63
(lp3163
S'wsgi.version'
p3164
asbag56
(g77
g58
NtRp3165
(dp3166
g61
(dp3167
g88
g89
ssg70
g3156
sg63
(lp3168
S':'
asbag56
(g77
g58
NtRp3169
(dp3170
g61
(dp3171
sg70
g3156
sg63
(lp3172
g56
(g57
g58
NtRp3173
(dp3174
g61
(dp3175
g69
I3
ssg70
g3169
sg63
(lp3176
S'1'
asbasbasbasbasbasbasbasbasbasbasbasbasbsS'frames'
p3177
(lp3178
(dp3179
S'file'
p3180
S'/home/ian/web2py/gluon/restricted.py'
p3181
sS'dump'
p3182
(dp3183
S'environment'
p3184
S"{'A': <class 'gluon.html.A'>, 'Auth': <class 'gluon.tools.Auth'>, 'B': <class 'gluon.html.B'>, 'BEAUTIFY': <class 'gluon.html.BEAUTIFY'>, 'BODY': <class 'gluon.html.BODY'>, 'BR': <class 'gluon.html.BR'>, 'BUTTON': <class 'gluon.html.BUTTON'>, 'CAT': <class 'gluon.html.CAT'>, 'CENTER': <class 'gluon.html.CENTER'>, 'CLEANUP': <class 'gluon.validators.CLEANUP'>, ...}"
p3185
sS'ccode'
p3186
S'<code object <module> at 0x35b1430, file "/home/...lications/grades/controllers/default.py", line 1>'
p3187
ssS'lnum'
p3188
I194
sS'lines'
p3189
(dp3190
I192
S'        else:'
p3191
sI193
S'            ccode = compile2(code,layer)'
p3192
sI194
S'        exec ccode in environment'
p3193
sI195
S'    except HTTP:'
p3194
sI196
S'        raise'
p3195
sI197
S'    except Exception, error:'
p3196
sI198
S'        # XXX Show exception in Wing IDE if running in debugger'
p3197
sI189
S'    try:'
p3198
sI190
S'        if type(code) == types.CodeType:'
p3199
sI191
S'            ccode = code'
p3200
ssS'call'
p3201
S"(code='# -*- coding: utf-8 -*-\\nif 0:\\n    from gluon imp...  \\nresponse._vars=response._caller(create_grade)\\n', environment={'A': <class 'gluon.html.A'>, 'Auth': <class 'gluon.tools.Auth'>, 'B': <class 'gluon.html.B'>, 'BEAUTIFY': <class 'gluon.html.BEAUTIFY'>, 'BODY': <class 'gluon.html.BODY'>, 'BR': <class 'gluon.html.BR'>, 'BUTTON': <class 'gluon.html.BUTTON'>, 'CAT': <class 'gluon.html.CAT'>, 'CENTER': <class 'gluon.html.CENTER'>, 'CLEANUP': <class 'gluon.validators.CLEANUP'>, ...}, layer='/home/ian/web2py/applications/grades/controllers/default.py')"
p3202
sS'func'
p3203
S'restricted'
p3204
sa(dp3205
g3180
S'/home/ian/web2py/applications/grades/controllers/default.py'
p3206
sg3182
(dp3207
sg3188
I98
sg3189
(dp3208
I96
S'            g[r.course] = dict(the_date = l)'
p3209
sI97
S'    return dict(grades = g, students = students, student = student)'
p3210
sI88
S'            dates = g[the_course]'
p3211
sI89
S'            if the_date in dates:'
p3212
sI90
S'                dates[the_date].append(r.grade)'
p3213
sI91
S'            else:'
p3214
sI92
S'                dates[the_date] = [r.grade]'
p3215
sI93
S'        else:'
p3216
sI94
S'            l = [r.grade]'
p3217
sI95
S'            the_date = r.class_date'
p3218
ssg3201
S'()'
p3219
sg3203
S'<module>'
p3220
sa(dp3221
g3180
S'/home/ian/web2py/gluon/globals.py'
p3222
sg3182
(dp3223
S'self'
p3224
S'undefined'
p3225
sS'f'
S'<function create_grade>'
p3226
ssg3188
I149
sg3189
(dp3227
I144
S'        self.meta = Storage()      # used by web2py_ajax.html'
p3228
sI145
S'        self.menu = []             # used by the default view layout'
p3229
sI146
S'        self.files = []            # used by web2py_ajax.html'
p3230
sI147
S'        self.generic_patterns = [] # patterns to allow generic views'
p3231
sI148
S'        self._vars = None'
p3232
sI149
S'        self._caller = lambda f: f()'
p3233
sI150
S'        self._view_environment = None'
p3234
sI151
S'        self._custom_commit = None'
p3235
sI152
S'        self._custom_rollback = None'
p3236
sI153
S''
ssg3201
S'(f=<function create_grade>)'
p3237
sg3203
S'<lambda>'
p3238
sa(dp3239
g3180
S'/home/ian/web2py/gluon/tools.py'
p3240
sg3182
(dp3241
S'action'
p3242
S'<function create_grade>'
p3243
sS'a'
S'()'
p3244
sS'b'
g44
ssg3188
I2456
sg3189
(dp3245
I2451
S"                            '?_next='+urllib.quote(next))"
p3246
sI2452
S'                if not condition:'
p3247
sI2453
S'                    current.session.flash = self.messages.access_denied'
p3248
sI2454
S'                    return call_or_redirect('
p3249
sI2455
S'                        self.settings.on_failed_authorization)'
p3250
sI2456
S'                return action(*a, **b)'
p3251
sI2457
S'            f.__doc__ = action.__doc__'
p3252
sI2458
S'            f.__name__ = action.__name__'
p3253
sI2459
S'            f.__dict__.update(action.__dict__)'
p3254
sI2460
S'            return f'
p3255
ssg3201
S'(*a=(), **b={})'
p3256
sg3203
S'f'
sa(dp3257
g3180
S'/home/ian/web2py/applications/grades/controllers/default.py'
p3258
sg3182
(dp3259
S'm'
S"'None'"
p3260
sS'col3'
p3261
g3225
ssg3188
I58
sg3189
(dp3262
I53
S'    c_records = db(db.grades.course == request.args[0]).select()'
p3263
sI54
S'    form = SQLFORM('
p3264
sI55
S"        c_records, separator='',"
p3265
sI56
S"        fields=['name', 'course', 'grade', 'class_date'],"
p3266
sI57
S'        labels={\'name\':"student\'s name", \'grade\':"grade", \'class_date\':\'class date\'},'
p3267
sI58
S'        col3={\'name\':\'The student to receive the grade.\', \'grade\':\'a number out of \'+m, \'class_date\':"the date when the class took place"}'
p3268
sI59
S'        )'
p3269
sI60
S'    form.vars.course = cname'
p3270
sI61
S'    if form.process().accepted:'
p3271
sI62
S"        response.flash = 'Thanks! The grade was recorded.'"
p3272
ssg3201
S'()'
p3273
sg3203
S'create_grade'
p3274
sa(dp3275
g3180
S'/home/ian/web2py/gluon/sqlhtml.py'
p3276
sg3182
(dp3277
S'global Table'
p3278
S"<class 'gluon.dal.Table'>"
p3279
sS'self'
p3280
S'<gluon.sqlhtml.SQLFORM object>'
p3281
sS'keyed'
p3282
g99
sS'builtinisinstance'
p3283
S'<built-in function isinstance>'
p3284
sS'table.fields'
p3285
g3225
sS'self.fields'
p3286
S"['name', 'course', 'grade', 'class_date']"
p3287
sS'table'
p3288
S'<gluon.dal.Rows object>'
p3289
ssg3188
I739
sg3189
(dp3290
I736
S'        self.fields = fields'
p3291
sI737
S''
sI738
S'        # make sure we have an id'
p3292
sI739
S'        if self.fields[0] != table.fields[0] and \\'
p3293
sI740
S'                isinstance(table,Table) and not keyed:'
p3294
sI741
S'            self.fields.insert(0, table.fields[0])'
p3295
sI742
S''
sI743
S'        self.table = table'
p3296
sI734
S'        if fields is None:'
p3297
sI735
S'            fields = [f.name for f in table if (ignore_rw or f.writable or f.readable) and not f.compute]'
p3298
ssg3201
S'(self=<gluon.sqlhtml.SQLFORM object>, table=<gluon.dal.Rows object>, record=None, deletable=False, linkto=None, upload=None, fields=[\'name\', \'course\', \'grade\', \'class_date\'], labels={\'class_date\': \'class date\', \'grade\': \'grade\', \'name\': "student\'s name"}, col3={\'class_date\': \'the date when the class took place\', \'grade\': \'a number out of None\', \'name\': \'The student to receive the grade.\'}, submit_button=\'Submit\', delete_label=\'Check to delete:\', showid=True, readonly=False, comments=True, keepopts=[], ignore_rw=False, record_id=None, formstyle=\'table3cols\', buttons=[\'submit\'], separator=\'\', **attributes={})'
p3299
sg3203
g49
sasS'pyver'
p3300
S'Python 2.7.2+: /usr/bin/python2.7'
p3301
sS'session'
p3302
g56
(g57
g58
NtRp3303
(dp3304
g61
(dp3305
sg63
(lp3306
g56
(g65
g58
NtRp3307
(dp3308
g61
(dp3309
g69
I5
ssg70
Nsg63
(lp3310
g56
(g72
g58
NtRp3311
(dp3312
g61
(dp3313
sg70
g3307
sg63
(lp3314
g56
(g77
g58
NtRp3315
(dp3316
g61
(dp3317
g81
g82
ssg70
g3311
sg63
(lp3318
S'auth'
p3319
asbag56
(g77
g58
NtRp3320
(dp3321
g61
(dp3322
g88
g89
ssg70
g3311
sg63
(lp3323
S':'
asbag56
(g77
g58
NtRp3324
(dp3325
g61
(dp3326
sg70
g3311
sg63
(lp3327
g56
(g57
g58
NtRp3328
(dp3329
g61
(dp3330
g69
I5
ssg70
g3324
sg63
(lp3331
g56
(g65
g58
NtRp3332
(dp3333
g61
(dp3334
g69
I4
ssg70
Nsg63
(lp3335
g56
(g72
g58
NtRp3336
(dp3337
g61
(dp3338
sg70
g3332
sg63
(lp3339
g56
(g77
g58
NtRp3340
(dp3341
g61
(dp3342
g81
g82
ssg70
g3336
sg63
(lp3343
S'expiration'
p3344
asbag56
(g77
g58
NtRp3345
(dp3346
g61
(dp3347
g88
g89
ssg70
g3336
sg63
(lp3348
S':'
asbag56
(g77
g58
NtRp3349
(dp3350
g61
(dp3351
sg70
g3336
sg63
(lp3352
g56
(g57
g58
NtRp3353
(dp3354
g61
(dp3355
g69
I4
ssg70
g3349
sg63
(lp3356
S'2592000'
p3357
asbasbasbag56
(g72
g58
NtRp3358
(dp3359
g61
(dp3360
sg70
g3332
sg63
(lp3361
g56
(g77
g58
NtRp3362
(dp3363
g61
(dp3364
g81
g82
ssg70
g3358
sg63
(lp3365
S'hmac_key'
p3366
asbag56
(g77
g58
NtRp3367
(dp3368
g61
(dp3369
g88
g89
ssg70
g3358
sg63
(lp3370
S':'
asbag56
(g77
g58
NtRp3371
(dp3372
g61
(dp3373
sg70
g3358
sg63
(lp3374
g56
(g57
g58
NtRp3375
(dp3376
g61
(dp3377
g69
I4
ssg70
g3371
sg63
(lp3378
S'9b7ebcac-3930-4d2e-b821-147c95f7c4c2'
p3379
asbasbasbag56
(g72
g58
NtRp3380
(dp3381
g61
(dp3382
sg70
g3332
sg63
(lp3383
g56
(g77
g58
NtRp3384
(dp3385
g61
(dp3386
g81
g82
ssg70
g3380
sg63
(lp3387
S'last_visit'
p3388
asbag56
(g77
g58
NtRp3389
(dp3390
g61
(dp3391
g88
g89
ssg70
g3380
sg63
(lp3392
S':'
asbag56
(g77
g58
NtRp3393
(dp3394
g61
(dp3395
sg70
g3380
sg63
(lp3396
g56
(g57
g58
NtRp3397
(dp3398
g61
(dp3399
g69
I4
ssg70
g3393
sg63
(lp3400
S'datetime.datetime(2011, 11, 6, 15, 31, 56, 972407)'
p3401
asbasbasbag56
(g72
g58
NtRp3402
(dp3403
g61
(dp3404
sg70
g3332
sg63
(lp3405
g56
(g77
g58
NtRp3406
(dp3407
g61
(dp3408
g81
g82
ssg70
g3402
sg63
(lp3409
S'remember'
p3410
asbag56
(g77
g58
NtRp3411
(dp3412
g61
(dp3413
g88
g89
ssg70
g3402
sg63
(lp3414
S':'
asbag56
(g77
g58
NtRp3415
(dp3416
g61
(dp3417
sg70
g3402
sg63
(lp3418
g56
(g57
g58
NtRp3419
(dp3420
g61
(dp3421
g69
I4
ssg70
g3415
sg63
(lp3422
g99
asbasbasbag56
(g72
g58
NtRp3423
(dp3424
g61
(dp3425
sg70
g3332
sg63
(lp3426
g56
(g77
g58
NtRp3427
(dp3428
g61
(dp3429
g81
g82
ssg70
g3423
sg63
(lp3430
S'user'
p3431
asbag56
(g77
g58
NtRp3432
(dp3433
g61
(dp3434
g88
g89
ssg70
g3423
sg63
(lp3435
S':'
asbag56
(g77
g58
NtRp3436
(dp3437
g61
(dp3438
sg70
g3423
sg63
(lp3439
g56
(g57
g58
NtRp3440
(dp3441
g61
(dp3442
g69
I4
ssg70
g3436
sg63
(lp3443
g56
(g65
g58
NtRp3444
(dp3445
g61
(dp3446
g69
I3
ssg70
Nsg63
(lp3447
g56
(g72
g58
NtRp3448
(dp3449
g61
(dp3450
sg70
g3444
sg63
(lp3451
g56
(g77
g58
NtRp3452
(dp3453
g61
(dp3454
g81
g82
ssg70
g3448
sg63
(lp3455
S'email'
p3456
asbag56
(g77
g58
NtRp3457
(dp3458
g61
(dp3459
g88
g89
ssg70
g3448
sg63
(lp3460
S':'
asbag56
(g77
g58
NtRp3461
(dp3462
g61
(dp3463
sg70
g3448
sg63
(lp3464
g56
(g57
g58
NtRp3465
(dp3466
g61
(dp3467
g69
I3
ssg70
g3461
sg63
(lp3468
S'scottianw@gmail.com'
p3469
asbasbasbag56
(g72
g58
NtRp3470
(dp3471
g61
(dp3472
sg70
g3444
sg63
(lp3473
g56
(g77
g58
NtRp3474
(dp3475
g61
(dp3476
g81
g82
ssg70
g3470
sg63
(lp3477
S'first_name'
p3478
asbag56
(g77
g58
NtRp3479
(dp3480
g61
(dp3481
g88
g89
ssg70
g3470
sg63
(lp3482
S':'
asbag56
(g77
g58
NtRp3483
(dp3484
g61
(dp3485
sg70
g3470
sg63
(lp3486
g56
(g57
g58
NtRp3487
(dp3488
g61
(dp3489
g69
I3
ssg70
g3483
sg63
(lp3490
S'Ian'
p3491
asbasbasbag56
(g72
g58
NtRp3492
(dp3493
g61
(dp3494
sg70
g3444
sg63
(lp3495
g56
(g77
g58
NtRp3496
(dp3497
g61
(dp3498
g81
g82
ssg70
g3492
sg63
(lp3499
S'id'
p3500
asbag56
(g77
g58
NtRp3501
(dp3502
g61
(dp3503
g88
g89
ssg70
g3492
sg63
(lp3504
S':'
asbag56
(g77
g58
NtRp3505
(dp3506
g61
(dp3507
sg70
g3492
sg63
(lp3508
g56
(g57
g58
NtRp3509
(dp3510
g61
(dp3511
g69
I3
ssg70
g3505
sg63
(lp3512
S'11'
p3513
asbasbasbag56
(g72
g58
NtRp3514
(dp3515
g61
(dp3516
sg70
g3444
sg63
(lp3517
g56
(g77
g58
NtRp3518
(dp3519
g61
(dp3520
g81
g82
ssg70
g3514
sg63
(lp3521
S'last_name'
p3522
asbag56
(g77
g58
NtRp3523
(dp3524
g61
(dp3525
g88
g89
ssg70
g3514
sg63
(lp3526
S':'
asbag56
(g77
g58
NtRp3527
(dp3528
g61
(dp3529
sg70
g3514
sg63
(lp3530
g56
(g57
g58
NtRp3531
(dp3532
g61
(dp3533
g69
I3
ssg70
g3527
sg63
(lp3534
S'Scott'
p3535
asbasbasbag56
(g72
g58
NtRp3536
(dp3537
g61
(dp3538
sg70
g3444
sg63
(lp3539
g56
(g77
g58
NtRp3540
(dp3541
g61
(dp3542
g81
g82
ssg70
g3536
sg63
(lp3543
S'password'
p3544
asbag56
(g77
g58
NtRp3545
(dp3546
g61
(dp3547
g88
g89
ssg70
g3536
sg63
(lp3548
S':'
asbag56
(g77
g58
NtRp3549
(dp3550
g61
(dp3551
sg70
g3536
sg63
(lp3552
g56
(g57
g58
NtRp3553
(dp3554
g61
(dp3555
g69
I3
ssg70
g3549
sg63
(lp3556
S'351bc855a8ae4839e89ee60d2f279ed9'
p3557
asbasbasbag56
(g72
g58
NtRp3558
(dp3559
g61
(dp3560
sg70
g3444
sg63
(lp3561
g56
(g77
g58
NtRp3562
(dp3563
g61
(dp3564
g81
g82
ssg70
g3558
sg63
(lp3565
S'registration_key'
p3566
asbag56
(g77
g58
NtRp3567
(dp3568
g61
(dp3569
g88
g89
ssg70
g3558
sg63
(lp3570
S':'
asbag56
(g77
g58
NtRp3571
(dp3572
g61
(dp3573
sg70
g3558
sg63
(lp3574
g56
(g57
g58
NtRp3575
(dp3576
g61
(dp3577
g69
I3
ssg70
g3571
sg63
(lp3578
S''
asbasbasbag56
(g72
g58
NtRp3579
(dp3580
g61
(dp3581
sg70
g3444
sg63
(lp3582
g56
(g77
g58
NtRp3583
(dp3584
g61
(dp3585
g81
g82
ssg70
g3579
sg63
(lp3586
S'reset_password_key'
p3587
asbag56
(g77
g58
NtRp3588
(dp3589
g61
(dp3590
g88
g89
ssg70
g3579
sg63
(lp3591
S':'
asbag56
(g77
g58
NtRp3592
(dp3593
g61
(dp3594
sg70
g3579
sg63
(lp3595
g56
(g57
g58
NtRp3596
(dp3597
g61
(dp3598
g69
I3
ssg70
g3592
sg63
(lp3599
S''
asbasbasbasbasbasbasbasbasbasbasbasbasbsS'etype'
p3600
S"<type 'exceptions.AttributeError'>"
p3601
sS'date'
p3602
S'Wed Nov  9 12:19:45 2011'
p3603
sS'response'
p3604
g56
(g57
g58
NtRp3605
(dp3606
g61
(dp3607
sg63
(lp3608
g56
(g65
g58
NtRp3609
(dp3610
g61
(dp3611
g69
I5
ssg70
Nsg63
(lp3612
g56
(g72
g58
NtRp3613
(dp3614
g61
(dp3615
sg70
g3609
sg63
(lp3616
g56
(g77
g58
NtRp3617
(dp3618
g61
(dp3619
g81
g82
ssg70
g3613
sg63
(lp3620
g166
asbag56
(g77
g58
NtRp3621
(dp3622
g61
(dp3623
g88
g89
ssg70
g3613
sg63
(lp3624
S':'
asbag56
(g77
g58
NtRp3625
(dp3626
g61
(dp3627
sg70
g3613
sg63
(lp3628
g56
(g57
g58
NtRp3629
(dp3630
g61
(dp3631
g69
I5
ssg70
g3625
sg63
(lp3632
S'<cStringIO.StringO object at 0x3bcc810>'
p3633
asbasbasbag56
(g72
g58
NtRp3634
(dp3635
g61
(dp3636
sg70
g3609
sg63
(lp3637
g56
(g77
g58
NtRp3638
(dp3639
g61
(dp3640
g81
g82
ssg70
g3634
sg63
(lp3641
g232
asbag56
(g77
g58
NtRp3642
(dp3643
g61
(dp3644
g88
g89
ssg70
g3634
sg63
(lp3645
S':'
asbag56
(g77
g58
NtRp3646
(dp3647
g61
(dp3648
sg70
g3634
sg63
(lp3649
g56
(g57
g58
NtRp3650
(dp3651
g61
(dp3652
g69
I5
ssg70
g3646
sg63
(lp3653
g56
(g65
g58
NtRp3654
(dp3655
g61
(dp3656
g69
I4
ssg70
Nsg63
(lp3657
g56
(g72
g58
NtRp3658
(dp3659
g61
(dp3660
sg70
g3654
sg63
(lp3661
g56
(g77
g58
NtRp3662
(dp3663
g61
(dp3664
g81
g82
ssg70
g3658
sg63
(lp3665
S'session_id_grades'
p3666
asbag56
(g77
g58
NtRp3667
(dp3668
g61
(dp3669
g88
g89
ssg70
g3658
sg63
(lp3670
S':'
asbag56
(g77
g58
NtRp3671
(dp3672
g61
(dp3673
sg70
g3658
sg63
(lp3674
g56
(g57
g58
NtRp3675
(dp3676
g61
(dp3677
g69
I4
ssg70
g3671
sg63
(lp3678
g56
(g65
g58
NtRp3679
(dp3680
g61
(dp3681
g69
I3
ssg70
Nsg63
(lp3682
g56
(g72
g58
NtRp3683
(dp3684
g61
(dp3685
sg70
g3679
sg63
(lp3686
g56
(g77
g58
NtRp3687
(dp3688
g61
(dp3689
g81
g82
ssg70
g3683
sg63
(lp3690
g282
asbag56
(g77
g58
NtRp3691
(dp3692
g61
(dp3693
g88
g89
ssg70
g3683
sg63
(lp3694
S':'
asbag56
(g77
g58
NtRp3695
(dp3696
g61
(dp3697
sg70
g3683
sg63
(lp3698
g56
(g57
g58
NtRp3699
(dp3700
g61
(dp3701
g69
I3
ssg70
g3695
sg63
(lp3702
S''
asbasbasbag56
(g72
g58
NtRp3703
(dp3704
g61
(dp3705
sg70
g3679
sg63
(lp3706
g56
(g77
g58
NtRp3707
(dp3708
g61
(dp3709
g81
g82
ssg70
g3703
sg63
(lp3710
g303
asbag56
(g77
g58
NtRp3711
(dp3712
g61
(dp3713
g88
g89
ssg70
g3703
sg63
(lp3714
S':'
asbag56
(g77
g58
NtRp3715
(dp3716
g61
(dp3717
sg70
g3703
sg63
(lp3718
g56
(g57
g58
NtRp3719
(dp3720
g61
(dp3721
g69
I3
ssg70
g3715
sg63
(lp3722
S''
asbasbasbag56
(g72
g58
NtRp3723
(dp3724
g61
(dp3725
sg70
g3679
sg63
(lp3726
g56
(g77
g58
NtRp3727
(dp3728
g61
(dp3729
g81
g82
ssg70
g3723
sg63
(lp3730
g324
asbag56
(g77
g58
NtRp3731
(dp3732
g61
(dp3733
g88
g89
ssg70
g3723
sg63
(lp3734
S':'
asbag56
(g77
g58
NtRp3735
(dp3736
g61
(dp3737
sg70
g3723
sg63
(lp3738
g56
(g57
g58
NtRp3739
(dp3740
g61
(dp3741
g69
I3
ssg70
g3735
sg63
(lp3742
S''
asbasbasbag56
(g72
g58
NtRp3743
(dp3744
g61
(dp3745
sg70
g3679
sg63
(lp3746
g56
(g77
g58
NtRp3747
(dp3748
g61
(dp3749
g81
g82
ssg70
g3743
sg63
(lp3750
g345
asbag56
(g77
g58
NtRp3751
(dp3752
g61
(dp3753
g88
g89
ssg70
g3743
sg63
(lp3754
S':'
asbag56
(g77
g58
NtRp3755
(dp3756
g61
(dp3757
sg70
g3743
sg63
(lp3758
g56
(g57
g58
NtRp3759
(dp3760
g61
(dp3761
g69
I3
ssg70
g3755
sg63
(lp3762
S''
asbasbasbag56
(g72
g58
NtRp3763
(dp3764
g61
(dp3765
sg70
g3679
sg63
(lp3766
g56
(g77
g58
NtRp3767
(dp3768
g61
(dp3769
g81
g82
ssg70
g3763
sg63
(lp3770
g366
asbag56
(g77
g58
NtRp3771
(dp3772
g61
(dp3773
g88
g89
ssg70
g3763
sg63
(lp3774
S':'
asbag56
(g77
g58
NtRp3775
(dp3776
g61
(dp3777
sg70
g3763
sg63
(lp3778
g56
(g57
g58
NtRp3779
(dp3780
g61
(dp3781
g69
I3
ssg70
g3775
sg63
(lp3782
S''
asbasbasbag56
(g72
g58
NtRp3783
(dp3784
g61
(dp3785
sg70
g3679
sg63
(lp3786
g56
(g77
g58
NtRp3787
(dp3788
g61
(dp3789
g81
g82
ssg70
g3783
sg63
(lp3790
g387
asbag56
(g77
g58
NtRp3791
(dp3792
g61
(dp3793
g88
g89
ssg70
g3783
sg63
(lp3794
S':'
asbag56
(g77
g58
NtRp3795
(dp3796
g61
(dp3797
sg70
g3783
sg63
(lp3798
g56
(g57
g58
NtRp3799
(dp3800
g61
(dp3801
g69
I3
ssg70
g3795
sg63
(lp3802
S'/'
asbasbasbag56
(g72
g58
NtRp3803
(dp3804
g61
(dp3805
sg70
g3679
sg63
(lp3806
g56
(g77
g58
NtRp3807
(dp3808
g61
(dp3809
g81
g82
ssg70
g3803
sg63
(lp3810
g408
asbag56
(g77
g58
NtRp3811
(dp3812
g61
(dp3813
g88
g89
ssg70
g3803
sg63
(lp3814
S':'
asbag56
(g77
g58
NtRp3815
(dp3816
g61
(dp3817
sg70
g3803
sg63
(lp3818
g56
(g57
g58
NtRp3819
(dp3820
g61
(dp3821
g69
I3
ssg70
g3815
sg63
(lp3822
S''
asbasbasbag56
(g72
g58
NtRp3823
(dp3824
g61
(dp3825
sg70
g3679
sg63
(lp3826
g56
(g77
g58
NtRp3827
(dp3828
g61
(dp3829
g81
g82
ssg70
g3823
sg63
(lp3830
g429
asbag56
(g77
g58
NtRp3831
(dp3832
g61
(dp3833
g88
g89
ssg70
g3823
sg63
(lp3834
S':'
asbag56
(g77
g58
NtRp3835
(dp3836
g61
(dp3837
sg70
g3823
sg63
(lp3838
g56
(g57
g58
NtRp3839
(dp3840
g61
(dp3841
g69
I3
ssg70
g3835
sg63
(lp3842
S''
asbasbasbasbasbasbasbasbasbasbasbag56
(g72
g58
NtRp3843
(dp3844
g61
(dp3845
sg70
g3609
sg63
(lp3846
g56
(g77
g58
NtRp3847
(dp3848
g61
(dp3849
g81
g82
ssg70
g3843
sg63
(lp3850
S'files'
p3851
asbag56
(g77
g58
NtRp3852
(dp3853
g61
(dp3854
g88
g89
ssg70
g3843
sg63
(lp3855
S':'
asbag56
(g77
g58
NtRp3856
(dp3857
g61
(dp3858
sg70
g3843
sg63
(lp3859
g56
(g57
g58
NtRp3860
(dp3861
g61
(dp3862
g69
I5
ssg70
g3856
sg63
(lp3863
g56
(g65
g58
NtRp3864
(dp3865
g61
(dp3866
g69
I4
ssg70
Nsg63
(lp3867
sbasbasbasbag56
(g72
g58
NtRp3868
(dp3869
g61
(dp3870
sg70
g3609
sg63
(lp3871
g56
(g77
g58
NtRp3872
(dp3873
g61
(dp3874
g81
g82
ssg70
g3868
sg63
(lp3875
S'flash'
p3876
asbag56
(g77
g58
NtRp3877
(dp3878
g61
(dp3879
g88
g89
ssg70
g3868
sg63
(lp3880
S':'
asbag56
(g77
g58
NtRp3881
(dp3882
g61
(dp3883
sg70
g3868
sg63
(lp3884
g56
(g57
g58
NtRp3885
(dp3886
g61
(dp3887
g69
I5
ssg70
g3881
sg63
(lp3888
S''
asbasbasbag56
(g72
g58
NtRp3889
(dp3890
g61
(dp3891
sg70
g3609
sg63
(lp3892
g56
(g77
g58
NtRp3893
(dp3894
g61
(dp3895
g81
g82
ssg70
g3889
sg63
(lp3896
S'generic_patterns'
p3897
asbag56
(g77
g58
NtRp3898
(dp3899
g61
(dp3900
g88
g89
ssg70
g3889
sg63
(lp3901
S':'
asbag56
(g77
g58
NtRp3902
(dp3903
g61
(dp3904
sg70
g3889
sg63
(lp3905
g56
(g57
g58
NtRp3906
(dp3907
g61
(dp3908
g69
I5
ssg70
g3902
sg63
(lp3909
g56
(g65
g58
NtRp3910
(dp3911
g61
(dp3912
g69
I4
ssg70
Nsg63
(lp3913
g56
(g72
g58
NtRp3914
(dp3915
g61
(dp3916
sg70
g3910
sg63
(lp3917
g56
(g77
g58
NtRp3918
(dp3919
g61
(dp3920
sg70
g3914
sg63
(lp3921
g56
(g57
g58
NtRp3922
(dp3923
g61
(dp3924
g69
I4
ssg70
g3918
sg63
(lp3925
S'*'
asbasbasbasbasbasbasbag56
(g72
g58
NtRp3926
(dp3927
g61
(dp3928
sg70
g3609
sg63
(lp3929
g56
(g77
g58
NtRp3930
(dp3931
g61
(dp3932
g81
g82
ssg70
g3926
sg63
(lp3933
S'headers'
p3934
asbag56
(g77
g58
NtRp3935
(dp3936
g61
(dp3937
g88
g89
ssg70
g3926
sg63
(lp3938
S':'
asbag56
(g77
g58
NtRp3939
(dp3940
g61
(dp3941
sg70
g3926
sg63
(lp3942
g56
(g57
g58
NtRp3943
(dp3944
g61
(dp3945
g69
I5
ssg70
g3939
sg63
(lp3946
g56
(g65
g58
NtRp3947
(dp3948
g61
(dp3949
g69
I4
ssg70
Nsg63
(lp3950
g56
(g72
g58
NtRp3951
(dp3952
g61
(dp3953
sg70
g3947
sg63
(lp3954
g56
(g77
g58
NtRp3955
(dp3956
g61
(dp3957
g81
g82
ssg70
g3951
sg63
(lp3958
S'Cache-Control'
p3959
asbag56
(g77
g58
NtRp3960
(dp3961
g61
(dp3962
g88
g89
ssg70
g3951
sg63
(lp3963
S':'
asbag56
(g77
g58
NtRp3964
(dp3965
g61
(dp3966
sg70
g3951
sg63
(lp3967
g56
(g57
g58
NtRp3968
(dp3969
g61
(dp3970
g69
I4
ssg70
g3964
sg63
(lp3971
S'no-store, no-cache, must-revalidate, post-check=0, pre-check=0'
p3972
asbasbasbag56
(g72
g58
NtRp3973
(dp3974
g61
(dp3975
sg70
g3947
sg63
(lp3976
g56
(g77
g58
NtRp3977
(dp3978
g61
(dp3979
g81
g82
ssg70
g3973
sg63
(lp3980
S'Content-Type'
p3981
asbag56
(g77
g58
NtRp3982
(dp3983
g61
(dp3984
g88
g89
ssg70
g3973
sg63
(lp3985
S':'
asbag56
(g77
g58
NtRp3986
(dp3987
g61
(dp3988
sg70
g3973
sg63
(lp3989
g56
(g57
g58
NtRp3990
(dp3991
g61
(dp3992
g69
I4
ssg70
g3986
sg63
(lp3993
S'text/html; charset=utf-8'
p3994
asbasbasbag56
(g72
g58
NtRp3995
(dp3996
g61
(dp3997
sg70
g3947
sg63
(lp3998
g56
(g77
g58
NtRp3999
(dp4000
g61
(dp4001
g81
g82
ssg70
g3995
sg63
(lp4002
S'Expires'
p4003
asbag56
(g77
g58
NtRp4004
(dp4005
g61
(dp4006
g88
g89
ssg70
g3995
sg63
(lp4007
S':'
asbag56
(g77
g58
NtRp4008
(dp4009
g61
(dp4010
sg70
g3995
sg63
(lp4011
g56
(g57
g58
NtRp4012
(dp4013
g61
(dp4014
g69
I4
ssg70
g4008
sg63
(lp4015
S'Wed, 09 Nov 2011 17:19:45 GMT'
p4016
asbasbasbag56
(g72
g58
NtRp4017
(dp4018
g61
(dp4019
sg70
g3947
sg63
(lp4020
g56
(g77
g58
NtRp4021
(dp4022
g61
(dp4023
g81
g82
ssg70
g4017
sg63
(lp4024
S'Pragma'
p4025
asbag56
(g77
g58
NtRp4026
(dp4027
g61
(dp4028
g88
g89
ssg70
g4017
sg63
(lp4029
S':'
asbag56
(g77
g58
NtRp4030
(dp4031
g61
(dp4032
sg70
g4017
sg63
(lp4033
g56
(g57
g58
NtRp4034
(dp4035
g61
(dp4036
g69
I4
ssg70
g4030
sg63
(lp4037
S'no-cache'
p4038
asbasbasbag56
(g72
g58
NtRp4039
(dp4040
g61
(dp4041
sg70
g3947
sg63
(lp4042
g56
(g77
g58
NtRp4043
(dp4044
g61
(dp4045
g81
g82
ssg70
g4039
sg63
(lp4046
S'X-Powered-By'
p4047
asbag56
(g77
g58
NtRp4048
(dp4049
g61
(dp4050
g88
g89
ssg70
g4039
sg63
(lp4051
S':'
asbag56
(g77
g58
NtRp4052
(dp4053
g61
(dp4054
sg70
g4039
sg63
(lp4055
g56
(g57
g58
NtRp4056
(dp4057
g61
(dp4058
g69
I4
ssg70
g4052
sg63
(lp4059
S'web2py'
p4060
asbasbasbasbasbasbasbag56
(g72
g58
NtRp4061
(dp4062
g61
(dp4063
sg70
g3609
sg63
(lp4064
g56
(g77
g58
NtRp4065
(dp4066
g61
(dp4067
g81
g82
ssg70
g4061
sg63
(lp4068
S'menu'
p4069
asbag56
(g77
g58
NtRp4070
(dp4071
g61
(dp4072
g88
g89
ssg70
g4061
sg63
(lp4073
S':'
asbag56
(g77
g58
NtRp4074
(dp4075
g61
(dp4076
sg70
g4061
sg63
(lp4077
g56
(g57
g58
NtRp4078
(dp4079
g61
(dp4080
g69
I5
ssg70
g4074
sg63
(lp4081
g56
(g65
g58
NtRp4082
(dp4083
g61
(dp4084
g69
I4
ssg70
Nsg63
(lp4085
g56
(g72
g58
NtRp4086
(dp4087
g61
(dp4088
sg70
g4082
sg63
(lp4089
g56
(g77
g58
NtRp4090
(dp4091
g61
(dp4092
sg70
g4086
sg63
(lp4093
g56
(g57
g58
NtRp4094
(dp4095
g61
(dp4096
g69
I4
ssg70
g4090
sg63
(lp4097
g56
(g65
g58
NtRp4098
(dp4099
g61
(dp4100
g69
I3
ssg70
Nsg63
(lp4101
g56
(g72
g58
NtRp4102
(dp4103
g61
(dp4104
sg70
g4098
sg63
(lp4105
g56
(g77
g58
NtRp4106
(dp4107
g61
(dp4108
sg70
g4102
sg63
(lp4109
g56
(g57
g58
NtRp4110
(dp4111
g61
(dp4112
g69
I3
ssg70
g4106
sg63
(lp4113
cgluon.languages
lazyT_unpickle
p4114
(S't\x05\x00\x00\x00Index'
tRp4115
asbasbasbag56
(g72
g58
NtRp4116
(dp4117
g61
(dp4118
sg70
g4098
sg63
(lp4119
g56
(g77
g58
NtRp4120
(dp4121
g61
(dp4122
sg70
g4116
sg63
(lp4123
g56
(g57
g58
NtRp4124
(dp4125
g61
(dp4126
g69
I3
ssg70
g4120
sg63
(lp4127
g99
asbasbasbag56
(g72
g58
NtRp4128
(dp4129
g61
(dp4130
sg70
g4098
sg63
(lp4131
g56
(g77
g58
NtRp4132
(dp4133
g61
(dp4134
sg70
g4128
sg63
(lp4135
g56
(g57
g58
NtRp4136
(dp4137
g61
(dp4138
g69
I3
ssg70
g4132
sg63
(lp4139
S'/grades/default/index'
p4140
asbasbasbag56
(g72
g58
NtRp4141
(dp4142
g61
(dp4143
sg70
g4098
sg63
(lp4144
g56
(g77
g58
NtRp4145
(dp4146
g61
(dp4147
sg70
g4141
sg63
(lp4148
g56
(g57
g58
NtRp4149
(dp4150
g61
(dp4151
g69
I3
ssg70
g4145
sg63
(lp4152
g56
(g65
g58
NtRp4153
(dp4154
g61
(dp4155
g69
I2
ssg70
Nsg63
(lp4156
sbasbasbasbasbasbasbasbag56
(g72
g58
NtRp4157
(dp4158
g61
(dp4159
sg70
g4082
sg63
(lp4160
g56
(g77
g58
NtRp4161
(dp4162
g61
(dp4163
sg70
g4157
sg63
(lp4164
g56
(g57
g58
NtRp4165
(dp4166
g61
(dp4167
g69
I4
ssg70
g4161
sg63
(lp4168
g56
(g65
g58
NtRp4169
(dp4170
g61
(dp4171
g69
I3
ssg70
Nsg63
(lp4172
g56
(g72
g58
NtRp4173
(dp4174
g61
(dp4175
sg70
g4169
sg63
(lp4176
g56
(g77
g58
NtRp4177
(dp4178
g61
(dp4179
sg70
g4173
sg63
(lp4180
g56
(g57
g58
NtRp4181
(dp4182
g61
(dp4183
g69
I3
ssg70
g4177
sg63
(lp4184
g4114
(S't\x06\x00\x00\x00Grades'
tRp4185
asbasbasbag56
(g72
g58
NtRp4186
(dp4187
g61
(dp4188
sg70
g4169
sg63
(lp4189
g56
(g77
g58
NtRp4190
(dp4191
g61
(dp4192
sg70
g4186
sg63
(lp4193
g56
(g57
g58
NtRp4194
(dp4195
g61
(dp4196
g69
I3
ssg70
g4190
sg63
(lp4197
g99
asbasbasbag56
(g72
g58
NtRp4198
(dp4199
g61
(dp4200
sg70
g4169
sg63
(lp4201
g56
(g77
g58
NtRp4202
(dp4203
g61
(dp4204
sg70
g4198
sg63
(lp4205
g56
(g57
g58
NtRp4206
(dp4207
g61
(dp4208
g69
I3
ssg70
g4202
sg63
(lp4209
S'/grades/default/grades_manage'
p4210
asbasbasbag56
(g72
g58
NtRp4211
(dp4212
g61
(dp4213
sg70
g4169
sg63
(lp4214
g56
(g77
g58
NtRp4215
(dp4216
g61
(dp4217
sg70
g4211
sg63
(lp4218
g56
(g57
g58
NtRp4219
(dp4220
g61
(dp4221
g69
I3
ssg70
g4215
sg63
(lp4222
g56
(g65
g58
NtRp4223
(dp4224
g61
(dp4225
g69
I2
ssg70
Nsg63
(lp4226
sbasbasbasbasbasbasbasbag56
(g72
g58
NtRp4227
(dp4228
g61
(dp4229
sg70
g4082
sg63
(lp4230
g56
(g77
g58
NtRp4231
(dp4232
g61
(dp4233
sg70
g4227
sg63
(lp4234
g56
(g57
g58
NtRp4235
(dp4236
g61
(dp4237
g69
I4
ssg70
g4231
sg63
(lp4238
g56
(g65
g58
NtRp4239
(dp4240
g61
(dp4241
g69
I3
ssg70
Nsg63
(lp4242
g56
(g72
g58
NtRp4243
(dp4244
g61
(dp4245
sg70
g4239
sg63
(lp4246
g56
(g77
g58
NtRp4247
(dp4248
g61
(dp4249
sg70
g4243
sg63
(lp4250
g56
(g57
g58
NtRp4251
(dp4252
g61
(dp4253
g69
I3
ssg70
g4247
sg63
(lp4254
g4114
(S't\x07\x00\x00\x00Classes'
tRp4255
asbasbasbag56
(g72
g58
NtRp4256
(dp4257
g61
(dp4258
sg70
g4239
sg63
(lp4259
g56
(g77
g58
NtRp4260
(dp4261
g61
(dp4262
sg70
g4256
sg63
(lp4263
g56
(g57
g58
NtRp4264
(dp4265
g61
(dp4266
g69
I3
ssg70
g4260
sg63
(lp4267
g99
asbasbasbag56
(g72
g58
NtRp4268
(dp4269
g61
(dp4270
sg70
g4239
sg63
(lp4271
g56
(g77
g58
NtRp4272
(dp4273
g61
(dp4274
sg70
g4268
sg63
(lp4275
g56
(g57
g58
NtRp4276
(dp4277
g61
(dp4278
g69
I3
ssg70
g4272
sg63
(lp4279
S'/grades/default/classes_manage'
p4280
asbasbasbag56
(g72
g58
NtRp4281
(dp4282
g61
(dp4283
sg70
g4239
sg63
(lp4284
g56
(g77
g58
NtRp4285
(dp4286
g61
(dp4287
sg70
g4281
sg63
(lp4288
g56
(g57
g58
NtRp4289
(dp4290
g61
(dp4291
g69
I3
ssg70
g4285
sg63
(lp4292
g56
(g65
g58
NtRp4293
(dp4294
g61
(dp4295
g69
I2
ssg70
Nsg63
(lp4296
sbasbasbasbasbasbasbasbasbasbasbasbag56
(g72
g58
NtRp4297
(dp4298
g61
(dp4299
sg70
g3609
sg63
(lp4300
g56
(g77
g58
NtRp4301
(dp4302
g61
(dp4303
g81
g82
ssg70
g4297
sg63
(lp4304
S'meta'
p4305
asbag56
(g77
g58
NtRp4306
(dp4307
g61
(dp4308
g88
g89
ssg70
g4297
sg63
(lp4309
S':'
asbag56
(g77
g58
NtRp4310
(dp4311
g61
(dp4312
sg70
g4297
sg63
(lp4313
g56
(g57
g58
NtRp4314
(dp4315
g61
(dp4316
g69
I5
ssg70
g4310
sg63
(lp4317
g56
(g65
g58
NtRp4318
(dp4319
g61
(dp4320
g69
I4
ssg70
Nsg63
(lp4321
g56
(g72
g58
NtRp4322
(dp4323
g61
(dp4324
sg70
g4318
sg63
(lp4325
g56
(g77
g58
NtRp4326
(dp4327
g61
(dp4328
g81
g82
ssg70
g4322
sg63
(lp4329
S'author'
p4330
asbag56
(g77
g58
NtRp4331
(dp4332
g61
(dp4333
g88
g89
ssg70
g4322
sg63
(lp4334
S':'
asbag56
(g77
g58
NtRp4335
(dp4336
g61
(dp4337
sg70
g4322
sg63
(lp4338
g56
(g57
g58
NtRp4339
(dp4340
g61
(dp4341
g69
I4
ssg70
g4335
sg63
(lp4342
S'Ian W. Scott <scottianw@gmail.com>'
p4343
asbasbasbag56
(g72
g58
NtRp4344
(dp4345
g61
(dp4346
sg70
g4318
sg63
(lp4347
g56
(g77
g58
NtRp4348
(dp4349
g61
(dp4350
g81
g82
ssg70
g4344
sg63
(lp4351
S'description'
p4352
asbag56
(g77
g58
NtRp4353
(dp4354
g61
(dp4355
g88
g89
ssg70
g4344
sg63
(lp4356
S':'
asbag56
(g77
g58
NtRp4357
(dp4358
g61
(dp4359
sg70
g4344
sg63
(lp4360
g56
(g57
g58
NtRp4361
(dp4362
g61
(dp4363
g69
I4
ssg70
g4357
sg63
(lp4364
S''
asbasbasbag56
(g72
g58
NtRp4365
(dp4366
g61
(dp4367
sg70
g4318
sg63
(lp4368
g56
(g77
g58
NtRp4369
(dp4370
g61
(dp4371
g81
g82
ssg70
g4365
sg63
(lp4372
S'keywords'
p4373
asbag56
(g77
g58
NtRp4374
(dp4375
g61
(dp4376
g88
g89
ssg70
g4365
sg63
(lp4377
S':'
asbag56
(g77
g58
NtRp4378
(dp4379
g61
(dp4380
sg70
g4365
sg63
(lp4381
g56
(g57
g58
NtRp4382
(dp4383
g61
(dp4384
g69
I4
ssg70
g4378
sg63
(lp4385
S''
asbasbasbasbasbasbasbag56
(g72
g58
NtRp4386
(dp4387
g61
(dp4388
sg70
g3609
sg63
(lp4389
g56
(g77
g58
NtRp4390
(dp4391
g61
(dp4392
g81
g82
ssg70
g4386
sg63
(lp4393
S'postprocessing'
p4394
asbag56
(g77
g58
NtRp4395
(dp4396
g61
(dp4397
g88
g89
ssg70
g4386
sg63
(lp4398
S':'
asbag56
(g77
g58
NtRp4399
(dp4400
g61
(dp4401
sg70
g4386
sg63
(lp4402
g56
(g57
g58
NtRp4403
(dp4404
g61
(dp4405
g69
I5
ssg70
g4399
sg63
(lp4406
g56
(g65
g58
NtRp4407
(dp4408
g61
(dp4409
g69
I4
ssg70
Nsg63
(lp4410
sbasbasbasbag56
(g72
g58
NtRp4411
(dp4412
g61
(dp4413
sg70
g3609
sg63
(lp4414
g56
(g77
g58
NtRp4415
(dp4416
g61
(dp4417
g81
g82
ssg70
g4411
sg63
(lp4418
S'session_file'
p4419
asbag56
(g77
g58
NtRp4420
(dp4421
g61
(dp4422
g88
g89
ssg70
g4411
sg63
(lp4423
S':'
asbag56
(g77
g58
NtRp4424
(dp4425
g61
(dp4426
sg70
g4411
sg63
(lp4427
g56
(g57
g58
NtRp4428
(dp4429
g61
(dp4430
g69
I5
ssg70
g4424
sg63
(lp4431
S"<open file '/home/ian/web2py/applications/grades/sessions/127.0.0.1-7e779f51-d72f-4159-aa81-826b4f2d26c1', mode 'rb+' at 0x254f270>"
p4432
asbasbasbag56
(g72
g58
NtRp4433
(dp4434
g61
(dp4435
sg70
g3609
sg63
(lp4436
g56
(g77
g58
NtRp4437
(dp4438
g61
(dp4439
g81
g82
ssg70
g4433
sg63
(lp4440
S'session_filename'
p4441
asbag56
(g77
g58
NtRp4442
(dp4443
g61
(dp4444
g88
g89
ssg70
g4433
sg63
(lp4445
S':'
asbag56
(g77
g58
NtRp4446
(dp4447
g61
(dp4448
sg70
g4433
sg63
(lp4449
g56
(g57
g58
NtRp4450
(dp4451
g61
(dp4452
g69
I5
ssg70
g4446
sg63
(lp4453
S'/home/ian/web2py/applications/grades/sessions/127.0.0.1-7e779f51-d72f-4159-aa81-826b4f2d26c1'
p4454
asbasbasbag56
(g72
g58
NtRp4455
(dp4456
g61
(dp4457
sg70
g3609
sg63
(lp4458
g56
(g77
g58
NtRp4459
(dp4460
g61
(dp4461
g81
g82
ssg70
g4455
sg63
(lp4462
S'session_id'
p4463
asbag56
(g77
g58
NtRp4464
(dp4465
g61
(dp4466
g88
g89
ssg70
g4455
sg63
(lp4467
S':'
asbag56
(g77
g58
NtRp4468
(dp4469
g61
(dp4470
sg70
g4455
sg63
(lp4471
g56
(g57
g58
NtRp4472
(dp4473
g61
(dp4474
g69
I5
ssg70
g4468
sg63
(lp4475
S'127.0.0.1-7e779f51-d72f-4159-aa81-826b4f2d26c1'
p4476
asbasbasbag56
(g72
g58
NtRp4477
(dp4478
g61
(dp4479
sg70
g3609
sg63
(lp4480
g56
(g77
g58
NtRp4481
(dp4482
g61
(dp4483
g81
g82
ssg70
g4477
sg63
(lp4484
S'session_id_name'
p4485
asbag56
(g77
g58
NtRp4486
(dp4487
g61
(dp4488
g88
g89
ssg70
g4477
sg63
(lp4489
S':'
asbag56
(g77
g58
NtRp4490
(dp4491
g61
(dp4492
sg70
g4477
sg63
(lp4493
g56
(g57
g58
NtRp4494
(dp4495
g61
(dp4496
g69
I5
ssg70
g4490
sg63
(lp4497
g3666
asbasbasbag56
(g72
g58
NtRp4498
(dp4499
g61
(dp4500
sg70
g3609
sg63
(lp4501
g56
(g77
g58
NtRp4502
(dp4503
g61
(dp4504
g81
g82
ssg70
g4498
sg63
(lp4505
S'session_locked'
p4506
asbag56
(g77
g58
NtRp4507
(dp4508
g61
(dp4509
g88
g89
ssg70
g4498
sg63
(lp4510
S':'
asbag56
(g77
g58
NtRp4511
(dp4512
g61
(dp4513
sg70
g4498
sg63
(lp4514
g56
(g57
g58
NtRp4515
(dp4516
g61
(dp4517
g69
I5
ssg70
g4511
sg63
(lp4518
g1853
asbasbasbag56
(g72
g58
NtRp4519
(dp4520
g61
(dp4521
sg70
g3609
sg63
(lp4522
g56
(g77
g58
NtRp4523
(dp4524
g61
(dp4525
g81
g82
ssg70
g4519
sg63
(lp4526
S'session_new'
p4527
asbag56
(g77
g58
NtRp4528
(dp4529
g61
(dp4530
g88
g89
ssg70
g4519
sg63
(lp4531
S':'
asbag56
(g77
g58
NtRp4532
(dp4533
g61
(dp4534
sg70
g4519
sg63
(lp4535
g56
(g57
g58
NtRp4536
(dp4537
g61
(dp4538
g69
I5
ssg70
g4532
sg63
(lp4539
g99
asbasbasbag56
(g72
g58
NtRp4540
(dp4541
g61
(dp4542
sg70
g3609
sg63
(lp4543
g56
(g77
g58
NtRp4544
(dp4545
g61
(dp4546
g81
g82
ssg70
g4540
sg63
(lp4547
S'status'
p4548
asbag56
(g77
g58
NtRp4549
(dp4550
g61
(dp4551
g88
g89
ssg70
g4540
sg63
(lp4552
S':'
asbag56
(g77
g58
NtRp4553
(dp4554
g61
(dp4555
sg70
g4540
sg63
(lp4556
g56
(g57
g58
NtRp4557
(dp4558
g61
(dp4559
g69
I5
ssg70
g4553
sg63
(lp4560
S'200'
p4561
asbasbasbag56
(g72
g58
NtRp4562
(dp4563
g61
(dp4564
sg70
g3609
sg63
(lp4565
g56
(g77
g58
NtRp4566
(dp4567
g61
(dp4568
g81
g82
ssg70
g4562
sg63
(lp4569
S'subtitle'
p4570
asbag56
(g77
g58
NtRp4571
(dp4572
g61
(dp4573
g88
g89
ssg70
g4562
sg63
(lp4574
S':'
asbag56
(g77
g58
NtRp4575
(dp4576
g61
(dp4577
sg70
g4562
sg63
(lp4578
g56
(g57
g58
NtRp4579
(dp4580
g61
(dp4581
g69
I5
ssg70
g4575
sg63
(lp4582
S'a platform for easy submission of peer grades'
p4583
asbasbasbag56
(g72
g58
NtRp4584
(dp4585
g61
(dp4586
sg70
g3609
sg63
(lp4587
g56
(g77
g58
NtRp4588
(dp4589
g61
(dp4590
g81
g82
ssg70
g4584
sg63
(lp4591
S'title'
p4592
asbag56
(g77
g58
NtRp4593
(dp4594
g61
(dp4595
g88
g89
ssg70
g4584
sg63
(lp4596
S':'
asbag56
(g77
g58
NtRp4597
(dp4598
g61
(dp4599
sg70
g4584
sg63
(lp4600
g56
(g57
g58
NtRp4601
(dp4602
g61
(dp4603
g69
I5
ssg70
g4597
sg63
(lp4604
S'Grades'
p4605
asbasbasbag56
(g72
g58
NtRp4606
(dp4607
g61
(dp4608
sg70
g3609
sg63
(lp4609
g56
(g77
g58
NtRp4610
(dp4611
g61
(dp4612
g81
g82
ssg70
g4606
sg63
(lp4613
g2518
asbag56
(g77
g58
NtRp4614
(dp4615
g61
(dp4616
g88
g89
ssg70
g4606
sg63
(lp4617
S':'
asbag56
(g77
g58
NtRp4618
(dp4619
g61
(dp4620
sg70
g4606
sg63
(lp4621
g56
(g57
g58
NtRp4622
(dp4623
g61
(dp4624
g69
I5
ssg70
g4618
sg63
(lp4625
g2531
asbasbasbag56
(g72
g58
NtRp4626
(dp4627
g61
(dp4628
sg70
g3609
sg63
(lp4629
g56
(g77
g58
NtRp4630
(dp4631
g61
(dp4632
g81
g82
ssg70
g4626
sg63
(lp4633
S'view'
p4634
asbag56
(g77
g58
NtRp4635
(dp4636
g61
(dp4637
g88
g89
ssg70
g4626
sg63
(lp4638
S':'
asbag56
(g77
g58
NtRp4639
(dp4640
g61
(dp4641
sg70
g4626
sg63
(lp4642
g56
(g57
g58
NtRp4643
(dp4644
g61
(dp4645
g69
I5
ssg70
g4639
sg63
(lp4646
S'default/create_grade.html'
p4647
asbasbasbasbasbsS'locals'
p4648
(dp4649
S'showid'
p4650
g1853
sS'ofields'
p4651
S"['name', 'course', 'grade', 'class_date']"
p4652
sS'delete_label'
p4653
S"'Check to delete:'"
p4654
sS'nbsp'
p4655
S'<gluon.html.XML object>'
p4656
sS'submit_button'
p4657
S"'Submit'"
p4658
sS'table'
p4659
S'<gluon.dal.Rows object>'
p4660
sS'formstyle'
p4661
S"'table3cols'"
p4662
sS'self'
p4663
S'<gluon.sqlhtml.SQLFORM object>'
p4664
sS'comments'
p4665
g1853
sS'buttons'
p4666
S"['submit']"
p4667
sS'ignore_rw'
p4668
g99
sS'readonly'
p4669
g99
sS'record_id'
p4670
S'None'
p4671
sS'labels'
p4672
S'{\'class_date\': \'class date\', \'grade\': \'grade\', \'name\': "student\'s name"}'
p4673
sS'col3'
p4674
S"{'class_date': 'the date when the class took place', 'grade': 'a number out of None', 'name': 'The student to receive the grade.'}"
p4675
sS'deletable'
p4676
g99
sS'linkto'
p4677
S'None'
p4678
sS'fields'
p4679
S"['name', 'course', 'grade', 'class_date']"
p4680
sS'upload'
p4681
S'None'
p4682
sS'keyed'
p4683
g99
sS'record'
p4684
S'None'
p4685
sS'separator'
p4686
S"''"
p4687
sS'keepopts'
p4688
S'[]'
p4689
sg61
g44
sssS'traceback'
p4690
S'Traceback (most recent call last):\n  File "/home/ian/web2py/gluon/restricted.py", line 194, in restricted\n    exec ccode in environment\n  File "/home/ian/web2py/applications/grades/controllers/default.py", line 98, in <module>\n  File "/home/ian/web2py/gluon/globals.py", line 149, in <lambda>\n    self._caller = lambda f: f()\n  File "/home/ian/web2py/gluon/tools.py", line 2456, in f\n    return action(*a, **b)\n  File "/home/ian/web2py/applications/grades/controllers/default.py", line 58, in create_grade\n    col3={\'name\':\'The student to receive the grade.\', \'grade\':\'a number out of \'+m, \'class_date\':"the date when the class took place"}\n  File "/home/ian/web2py/gluon/sqlhtml.py", line 739, in __init__\n    if self.fields[0] != table.fields[0] and \\\nAttributeError: \'Rows\' object has no attribute \'fields\'\n'
p4691
s.