(dp1
S'output'
p2
S''
sS'layer'
p3
S'/home/ian/web2py/applications/grades/controllers/default.py'
p4
sS'code'
p5
S"# -*- coding: utf-8 -*-\nif 0:\n    from gluon import current, SQLFORM, redirect, A, URL\n    from gluon.tools import Auth, Crud\n    from gluon.dal import DAL\n    db = DAL()\n    auth = Auth()\n    response = current.response\n    service = current.service\n    request = current.request\n    session = current.session\n    crud = Crud()\n    \nimport datetime\n\n### required - do no delete\ndef user(): return dict(form=auth())\ndef download(): return response.download(request,db)\ndef call(): return service()\n### end requires\ndef index():\n    courses = db(db.courses.id > 0).select()\n    return dict(courses = courses)\n\ndef error():\n    return dict()\n\n@auth.requires_membership(role='administrators')\ndef grades_manage():\n    form = SQLFORM.smartgrid(db.grades,onupdate=auth.archive)\n    return locals()\n\n@auth.requires_membership(role='administrators')\ndef classes_manage():\n    form = SQLFORM.smartgrid(db.courses,onupdate=auth.archive)\n    return locals()\n\n@auth.requires_login()\ndef create_grade():\n    form = SQLFORM(db.grades, separator='', fields=['name', 'course', 'grade', 'class_date'], labels={'name':'Student receiving grade'})\n    if form.process().accepted:\n        response.flash = 'Thanks! The grade was recorded.'\n    the_user = db(auth.user.id == auth.user_id).select()\n    fn = the_user.first_name\n    cancel_button = A('cancel', _href=URL('index'), _class='cancel')\n    return dict(form = form, cancel_button = cancel_button, fn = fn)\n\n@auth.requires_membership(role='administrators')\ndef grades_report():\n    student_list = db(db.auth_user.id > 0).select()\n    students = {}\n    for s in student_list:\n        sindex = s.id\n        slast = s.last_name\n        sfirst = s.first_name\n        students[sindex] = slast + ', ' + sfirst\n    u = request.args[0]\n    n = db.auth_user[u]\n    student = n.last_name + ', ' + n.first_name\n    gradelist = db(db.grades.name == u).select()\n    session.debug = request.args[0]\n    g = {}\n    for r in gradelist:\n        the_date = r.class_date\n        c = db(db.courses.id == r.course).select().first()\n        the_course = c.course_name\n        if the_course in g:\n            dates = g[the_course]\n            if the_date in dates:\n                dates[the_date].append(r.grade)\n            else:\n                dates[the_date] = [r.grade]                \n        else:\n            l = [r.grade]\n            the_date = r.class_date\n            g[r.course] = dict(the_date = l)\n    return dict(grades = g, students = students, student = student)                \nresponse._vars=response._caller(create_grade)\n"
p6
sS'snapshot'
p7
(dp8
S'exception'
p9
(dp10
S'__getslice__'
p11
S"<method-wrapper '__getslice__' of exceptions.SyntaxError object>"
p12
sS'text'
p13
S'None'
p14
sS'__str__'
p15
S"<method-wrapper '__str__' of exceptions.SyntaxError object>"
p16
sS'__reduce__'
p17
S'<built-in method __reduce__ of exceptions.SyntaxError object>'
p18
sS'__dict__'
p19
S'{}'
p20
sS'__sizeof__'
p21
S'<built-in method __sizeof__ of exceptions.SyntaxError object>'
p22
sS'__init__'
p23
S"<method-wrapper '__init__' of exceptions.SyntaxError object>"
p24
sS'__setattr__'
p25
S"<method-wrapper '__setattr__' of exceptions.SyntaxError object>"
p26
sS'__reduce_ex__'
p27
S'<built-in method __reduce_ex__ of exceptions.SyntaxError object>'
p28
sS'__new__'
p29
S'<built-in method __new__ of type object>'
p30
sS'__format__'
p31
S'<built-in method __format__ of exceptions.SyntaxError object>'
p32
sS'__class__'
p33
S"<type 'exceptions.SyntaxError'>"
p34
sS'filename'
p35
S'None'
p36
sS'lineno'
p37
S'None'
p38
sS'msg'
p39
S"'Set: no tables selected'"
p40
sS'__doc__'
p41
S"'Invalid syntax.'"
p42
sS'__getitem__'
p43
S"<method-wrapper '__getitem__' of exceptions.SyntaxError object>"
p44
sS'__setstate__'
p45
S'<built-in method __setstate__ of exceptions.SyntaxError object>'
p46
sS'__getattribute__'
p47
S"<method-wrapper '__getattribute__' of exceptions.SyntaxError object>"
p48
sS'print_file_and_line'
p49
S'None'
p50
sS'args'
p51
S"('Set: no tables selected',)"
p52
sS'__subclasshook__'
p53
S'<built-in method __subclasshook__ of type object>'
p54
sS'offset'
p55
S'None'
p56
sS'__unicode__'
p57
S'<built-in method __unicode__ of exceptions.SyntaxError object>'
p58
sS'__delattr__'
p59
S"<method-wrapper '__delattr__' of exceptions.SyntaxError object>"
p60
sS'__repr__'
p61
S"<method-wrapper '__repr__' of exceptions.SyntaxError object>"
p62
sS'__hash__'
p63
S"<method-wrapper '__hash__' of exceptions.SyntaxError object>"
p64
ssS'evalue'
p65
S'Set: no tables selected'
p66
sS'request'
p67
ccopy_reg
_reconstructor
p68
(cgluon.html
BEAUTIFY
p69
c__builtin__
object
p70
NtRp71
(dp72
S'attributes'
p73
(dp74
sS'components'
p75
(lp76
g68
(cgluon.html
TABLE
p77
g70
NtRp78
(dp79
g73
(dp80
S'level'
p81
I5
ssS'parent'
p82
Nsg75
(lp83
g68
(cgluon.html
TR
p84
g70
NtRp85
(dp86
g73
(dp87
sg82
g78
sg75
(lp88
g68
(cgluon.html
TD
p89
g70
NtRp90
(dp91
g73
(dp92
S'_style'
p93
S'font-weight:bold;'
p94
ssg82
g85
sg75
(lp95
S'ajax'
p96
asbag68
(g89
g70
NtRp97
(dp98
g73
(dp99
S'_valign'
p100
S'top'
p101
ssg82
g85
sg75
(lp102
S':'
asbag68
(g89
g70
NtRp103
(dp104
g73
(dp105
sg82
g85
sg75
(lp106
g68
(g69
g70
NtRp107
(dp108
g73
(dp109
g81
I5
ssg82
g103
sg75
(lp110
S'False'
p111
asbasbasbag68
(g84
g70
NtRp112
(dp113
g73
(dp114
sg82
g78
sg75
(lp115
g68
(g89
g70
NtRp116
(dp117
g73
(dp118
g93
g94
ssg82
g112
sg75
(lp119
S'application'
p120
asbag68
(g89
g70
NtRp121
(dp122
g73
(dp123
g100
g101
ssg82
g112
sg75
(lp124
S':'
asbag68
(g89
g70
NtRp125
(dp126
g73
(dp127
sg82
g112
sg75
(lp128
g68
(g69
g70
NtRp129
(dp130
g73
(dp131
g81
I5
ssg82
g125
sg75
(lp132
S'grades'
p133
asbasbasbag68
(g84
g70
NtRp134
(dp135
g73
(dp136
sg82
g78
sg75
(lp137
g68
(g89
g70
NtRp138
(dp139
g73
(dp140
g93
g94
ssg82
g134
sg75
(lp141
g51
asbag68
(g89
g70
NtRp142
(dp143
g73
(dp144
g100
g101
ssg82
g134
sg75
(lp145
S':'
asbag68
(g89
g70
NtRp146
(dp147
g73
(dp148
sg82
g134
sg75
(lp149
g68
(g69
g70
NtRp150
(dp151
g73
(dp152
g81
I5
ssg82
g146
sg75
(lp153
g68
(g77
g70
NtRp154
(dp155
g73
(dp156
g81
I4
ssg82
Nsg75
(lp157
g68
(g84
g70
NtRp158
(dp159
g73
(dp160
sg82
g154
sg75
(lp161
g68
(g89
g70
NtRp162
(dp163
g73
(dp164
sg82
g158
sg75
(lp165
g68
(g69
g70
NtRp166
(dp167
g73
(dp168
g81
I4
ssg82
g162
sg75
(lp169
S'1'
asbasbasbasbasbasbasbag68
(g84
g70
NtRp170
(dp171
g73
(dp172
sg82
g78
sg75
(lp173
g68
(g89
g70
NtRp174
(dp175
g73
(dp176
g93
g94
ssg82
g170
sg75
(lp177
S'body'
p178
asbag68
(g89
g70
NtRp179
(dp180
g73
(dp181
g100
g101
ssg82
g170
sg75
(lp182
S':'
asbag68
(g89
g70
NtRp183
(dp184
g73
(dp185
sg82
g170
sg75
(lp186
g68
(g69
g70
NtRp187
(dp188
g73
(dp189
g81
I5
ssg82
g183
sg75
(lp190
S'<cStringIO.StringO object at 0x34071f0>'
p191
asbasbasbag68
(g84
g70
NtRp192
(dp193
g73
(dp194
sg82
g78
sg75
(lp195
g68
(g89
g70
NtRp196
(dp197
g73
(dp198
g93
g94
ssg82
g192
sg75
(lp199
S'client'
p200
asbag68
(g89
g70
NtRp201
(dp202
g73
(dp203
g100
g101
ssg82
g192
sg75
(lp204
S':'
asbag68
(g89
g70
NtRp205
(dp206
g73
(dp207
sg82
g192
sg75
(lp208
g68
(g69
g70
NtRp209
(dp210
g73
(dp211
g81
I5
ssg82
g205
sg75
(lp212
S'127.0.0.1'
p213
asbasbasbag68
(g84
g70
NtRp214
(dp215
g73
(dp216
sg82
g78
sg75
(lp217
g68
(g89
g70
NtRp218
(dp219
g73
(dp220
g93
g94
ssg82
g214
sg75
(lp221
S'controller'
p222
asbag68
(g89
g70
NtRp223
(dp224
g73
(dp225
g100
g101
ssg82
g214
sg75
(lp226
S':'
asbag68
(g89
g70
NtRp227
(dp228
g73
(dp229
sg82
g214
sg75
(lp230
g68
(g69
g70
NtRp231
(dp232
g73
(dp233
g81
I5
ssg82
g227
sg75
(lp234
S'default'
p235
asbasbasbag68
(g84
g70
NtRp236
(dp237
g73
(dp238
sg82
g78
sg75
(lp239
g68
(g89
g70
NtRp240
(dp241
g73
(dp242
g93
g94
ssg82
g236
sg75
(lp243
S'cookies'
p244
asbag68
(g89
g70
NtRp245
(dp246
g73
(dp247
g100
g101
ssg82
g236
sg75
(lp248
S':'
asbag68
(g89
g70
NtRp249
(dp250
g73
(dp251
sg82
g236
sg75
(lp252
g68
(g69
g70
NtRp253
(dp254
g73
(dp255
g81
I5
ssg82
g249
sg75
(lp256
g68
(g77
g70
NtRp257
(dp258
g73
(dp259
g81
I4
ssg82
Nsg75
(lp260
g68
(g84
g70
NtRp261
(dp262
g73
(dp263
sg82
g257
sg75
(lp264
g68
(g89
g70
NtRp265
(dp266
g73
(dp267
g93
g94
ssg82
g261
sg75
(lp268
S'session_id_admin'
p269
asbag68
(g89
g70
NtRp270
(dp271
g73
(dp272
g100
g101
ssg82
g261
sg75
(lp273
S':'
asbag68
(g89
g70
NtRp274
(dp275
g73
(dp276
sg82
g261
sg75
(lp277
g68
(g69
g70
NtRp278
(dp279
g73
(dp280
g81
I4
ssg82
g274
sg75
(lp281
g68
(g77
g70
NtRp282
(dp283
g73
(dp284
g81
I3
ssg82
Nsg75
(lp285
g68
(g84
g70
NtRp286
(dp287
g73
(dp288
sg82
g282
sg75
(lp289
g68
(g89
g70
NtRp290
(dp291
g73
(dp292
g93
g94
ssg82
g286
sg75
(lp293
S'comment'
p294
asbag68
(g89
g70
NtRp295
(dp296
g73
(dp297
g100
g101
ssg82
g286
sg75
(lp298
S':'
asbag68
(g89
g70
NtRp299
(dp300
g73
(dp301
sg82
g286
sg75
(lp302
g68
(g69
g70
NtRp303
(dp304
g73
(dp305
g81
I3
ssg82
g299
sg75
(lp306
S''
asbasbasbag68
(g84
g70
NtRp307
(dp308
g73
(dp309
sg82
g282
sg75
(lp310
g68
(g89
g70
NtRp311
(dp312
g73
(dp313
g93
g94
ssg82
g307
sg75
(lp314
S'domain'
p315
asbag68
(g89
g70
NtRp316
(dp317
g73
(dp318
g100
g101
ssg82
g307
sg75
(lp319
S':'
asbag68
(g89
g70
NtRp320
(dp321
g73
(dp322
sg82
g307
sg75
(lp323
g68
(g69
g70
NtRp324
(dp325
g73
(dp326
g81
I3
ssg82
g320
sg75
(lp327
S''
asbasbasbag68
(g84
g70
NtRp328
(dp329
g73
(dp330
sg82
g282
sg75
(lp331
g68
(g89
g70
NtRp332
(dp333
g73
(dp334
g93
g94
ssg82
g328
sg75
(lp335
S'expires'
p336
asbag68
(g89
g70
NtRp337
(dp338
g73
(dp339
g100
g101
ssg82
g328
sg75
(lp340
S':'
asbag68
(g89
g70
NtRp341
(dp342
g73
(dp343
sg82
g328
sg75
(lp344
g68
(g69
g70
NtRp345
(dp346
g73
(dp347
g81
I3
ssg82
g341
sg75
(lp348
S''
asbasbasbag68
(g84
g70
NtRp349
(dp350
g73
(dp351
sg82
g282
sg75
(lp352
g68
(g89
g70
NtRp353
(dp354
g73
(dp355
g93
g94
ssg82
g349
sg75
(lp356
S'httponly'
p357
asbag68
(g89
g70
NtRp358
(dp359
g73
(dp360
g100
g101
ssg82
g349
sg75
(lp361
S':'
asbag68
(g89
g70
NtRp362
(dp363
g73
(dp364
sg82
g349
sg75
(lp365
g68
(g69
g70
NtRp366
(dp367
g73
(dp368
g81
I3
ssg82
g362
sg75
(lp369
S''
asbasbasbag68
(g84
g70
NtRp370
(dp371
g73
(dp372
sg82
g282
sg75
(lp373
g68
(g89
g70
NtRp374
(dp375
g73
(dp376
g93
g94
ssg82
g370
sg75
(lp377
S'max-age'
p378
asbag68
(g89
g70
NtRp379
(dp380
g73
(dp381
g100
g101
ssg82
g370
sg75
(lp382
S':'
asbag68
(g89
g70
NtRp383
(dp384
g73
(dp385
sg82
g370
sg75
(lp386
g68
(g69
g70
NtRp387
(dp388
g73
(dp389
g81
I3
ssg82
g383
sg75
(lp390
S''
asbasbasbag68
(g84
g70
NtRp391
(dp392
g73
(dp393
sg82
g282
sg75
(lp394
g68
(g89
g70
NtRp395
(dp396
g73
(dp397
g93
g94
ssg82
g391
sg75
(lp398
S'path'
p399
asbag68
(g89
g70
NtRp400
(dp401
g73
(dp402
g100
g101
ssg82
g391
sg75
(lp403
S':'
asbag68
(g89
g70
NtRp404
(dp405
g73
(dp406
sg82
g391
sg75
(lp407
g68
(g69
g70
NtRp408
(dp409
g73
(dp410
g81
I3
ssg82
g404
sg75
(lp411
S''
asbasbasbag68
(g84
g70
NtRp412
(dp413
g73
(dp414
sg82
g282
sg75
(lp415
g68
(g89
g70
NtRp416
(dp417
g73
(dp418
g93
g94
ssg82
g412
sg75
(lp419
S'secure'
p420
asbag68
(g89
g70
NtRp421
(dp422
g73
(dp423
g100
g101
ssg82
g412
sg75
(lp424
S':'
asbag68
(g89
g70
NtRp425
(dp426
g73
(dp427
sg82
g412
sg75
(lp428
g68
(g69
g70
NtRp429
(dp430
g73
(dp431
g81
I3
ssg82
g425
sg75
(lp432
S''
asbasbasbag68
(g84
g70
NtRp433
(dp434
g73
(dp435
sg82
g282
sg75
(lp436
g68
(g89
g70
NtRp437
(dp438
g73
(dp439
g93
g94
ssg82
g433
sg75
(lp440
S'version'
p441
asbag68
(g89
g70
NtRp442
(dp443
g73
(dp444
g100
g101
ssg82
g433
sg75
(lp445
S':'
asbag68
(g89
g70
NtRp446
(dp447
g73
(dp448
sg82
g433
sg75
(lp449
g68
(g69
g70
NtRp450
(dp451
g73
(dp452
g81
I3
ssg82
g446
sg75
(lp453
S''
asbasbasbasbasbasbasbag68
(g84
g70
NtRp454
(dp455
g73
(dp456
sg82
g257
sg75
(lp457
g68
(g89
g70
NtRp458
(dp459
g73
(dp460
g93
g94
ssg82
g454
sg75
(lp461
S'session_id_grades'
p462
asbag68
(g89
g70
NtRp463
(dp464
g73
(dp465
g100
g101
ssg82
g454
sg75
(lp466
S':'
asbag68
(g89
g70
NtRp467
(dp468
g73
(dp469
sg82
g454
sg75
(lp470
g68
(g69
g70
NtRp471
(dp472
g73
(dp473
g81
I4
ssg82
g467
sg75
(lp474
g68
(g77
g70
NtRp475
(dp476
g73
(dp477
g81
I3
ssg82
Nsg75
(lp478
g68
(g84
g70
NtRp479
(dp480
g73
(dp481
sg82
g475
sg75
(lp482
g68
(g89
g70
NtRp483
(dp484
g73
(dp485
g93
g94
ssg82
g479
sg75
(lp486
g294
asbag68
(g89
g70
NtRp487
(dp488
g73
(dp489
g100
g101
ssg82
g479
sg75
(lp490
S':'
asbag68
(g89
g70
NtRp491
(dp492
g73
(dp493
sg82
g479
sg75
(lp494
g68
(g69
g70
NtRp495
(dp496
g73
(dp497
g81
I3
ssg82
g491
sg75
(lp498
S''
asbasbasbag68
(g84
g70
NtRp499
(dp500
g73
(dp501
sg82
g475
sg75
(lp502
g68
(g89
g70
NtRp503
(dp504
g73
(dp505
g93
g94
ssg82
g499
sg75
(lp506
g315
asbag68
(g89
g70
NtRp507
(dp508
g73
(dp509
g100
g101
ssg82
g499
sg75
(lp510
S':'
asbag68
(g89
g70
NtRp511
(dp512
g73
(dp513
sg82
g499
sg75
(lp514
g68
(g69
g70
NtRp515
(dp516
g73
(dp517
g81
I3
ssg82
g511
sg75
(lp518
S''
asbasbasbag68
(g84
g70
NtRp519
(dp520
g73
(dp521
sg82
g475
sg75
(lp522
g68
(g89
g70
NtRp523
(dp524
g73
(dp525
g93
g94
ssg82
g519
sg75
(lp526
g336
asbag68
(g89
g70
NtRp527
(dp528
g73
(dp529
g100
g101
ssg82
g519
sg75
(lp530
S':'
asbag68
(g89
g70
NtRp531
(dp532
g73
(dp533
sg82
g519
sg75
(lp534
g68
(g69
g70
NtRp535
(dp536
g73
(dp537
g81
I3
ssg82
g531
sg75
(lp538
S''
asbasbasbag68
(g84
g70
NtRp539
(dp540
g73
(dp541
sg82
g475
sg75
(lp542
g68
(g89
g70
NtRp543
(dp544
g73
(dp545
g93
g94
ssg82
g539
sg75
(lp546
g357
asbag68
(g89
g70
NtRp547
(dp548
g73
(dp549
g100
g101
ssg82
g539
sg75
(lp550
S':'
asbag68
(g89
g70
NtRp551
(dp552
g73
(dp553
sg82
g539
sg75
(lp554
g68
(g69
g70
NtRp555
(dp556
g73
(dp557
g81
I3
ssg82
g551
sg75
(lp558
S''
asbasbasbag68
(g84
g70
NtRp559
(dp560
g73
(dp561
sg82
g475
sg75
(lp562
g68
(g89
g70
NtRp563
(dp564
g73
(dp565
g93
g94
ssg82
g559
sg75
(lp566
g378
asbag68
(g89
g70
NtRp567
(dp568
g73
(dp569
g100
g101
ssg82
g559
sg75
(lp570
S':'
asbag68
(g89
g70
NtRp571
(dp572
g73
(dp573
sg82
g559
sg75
(lp574
g68
(g69
g70
NtRp575
(dp576
g73
(dp577
g81
I3
ssg82
g571
sg75
(lp578
S''
asbasbasbag68
(g84
g70
NtRp579
(dp580
g73
(dp581
sg82
g475
sg75
(lp582
g68
(g89
g70
NtRp583
(dp584
g73
(dp585
g93
g94
ssg82
g579
sg75
(lp586
g399
asbag68
(g89
g70
NtRp587
(dp588
g73
(dp589
g100
g101
ssg82
g579
sg75
(lp590
S':'
asbag68
(g89
g70
NtRp591
(dp592
g73
(dp593
sg82
g579
sg75
(lp594
g68
(g69
g70
NtRp595
(dp596
g73
(dp597
g81
I3
ssg82
g591
sg75
(lp598
S''
asbasbasbag68
(g84
g70
NtRp599
(dp600
g73
(dp601
sg82
g475
sg75
(lp602
g68
(g89
g70
NtRp603
(dp604
g73
(dp605
g93
g94
ssg82
g599
sg75
(lp606
g420
asbag68
(g89
g70
NtRp607
(dp608
g73
(dp609
g100
g101
ssg82
g599
sg75
(lp610
S':'
asbag68
(g89
g70
NtRp611
(dp612
g73
(dp613
sg82
g599
sg75
(lp614
g68
(g69
g70
NtRp615
(dp616
g73
(dp617
g81
I3
ssg82
g611
sg75
(lp618
S''
asbasbasbag68
(g84
g70
NtRp619
(dp620
g73
(dp621
sg82
g475
sg75
(lp622
g68
(g89
g70
NtRp623
(dp624
g73
(dp625
g93
g94
ssg82
g619
sg75
(lp626
g441
asbag68
(g89
g70
NtRp627
(dp628
g73
(dp629
g100
g101
ssg82
g619
sg75
(lp630
S':'
asbag68
(g89
g70
NtRp631
(dp632
g73
(dp633
sg82
g619
sg75
(lp634
g68
(g69
g70
NtRp635
(dp636
g73
(dp637
g81
I3
ssg82
g631
sg75
(lp638
S''
asbasbasbasbasbasbasbag68
(g84
g70
NtRp639
(dp640
g73
(dp641
sg82
g257
sg75
(lp642
g68
(g89
g70
NtRp643
(dp644
g73
(dp645
g93
g94
ssg82
g639
sg75
(lp646
S'session_id_paideia'
p647
asbag68
(g89
g70
NtRp648
(dp649
g73
(dp650
g100
g101
ssg82
g639
sg75
(lp651
S':'
asbag68
(g89
g70
NtRp652
(dp653
g73
(dp654
sg82
g639
sg75
(lp655
g68
(g69
g70
NtRp656
(dp657
g73
(dp658
g81
I4
ssg82
g652
sg75
(lp659
g68
(g77
g70
NtRp660
(dp661
g73
(dp662
g81
I3
ssg82
Nsg75
(lp663
g68
(g84
g70
NtRp664
(dp665
g73
(dp666
sg82
g660
sg75
(lp667
g68
(g89
g70
NtRp668
(dp669
g73
(dp670
g93
g94
ssg82
g664
sg75
(lp671
g294
asbag68
(g89
g70
NtRp672
(dp673
g73
(dp674
g100
g101
ssg82
g664
sg75
(lp675
S':'
asbag68
(g89
g70
NtRp676
(dp677
g73
(dp678
sg82
g664
sg75
(lp679
g68
(g69
g70
NtRp680
(dp681
g73
(dp682
g81
I3
ssg82
g676
sg75
(lp683
S''
asbasbasbag68
(g84
g70
NtRp684
(dp685
g73
(dp686
sg82
g660
sg75
(lp687
g68
(g89
g70
NtRp688
(dp689
g73
(dp690
g93
g94
ssg82
g684
sg75
(lp691
g315
asbag68
(g89
g70
NtRp692
(dp693
g73
(dp694
g100
g101
ssg82
g684
sg75
(lp695
S':'
asbag68
(g89
g70
NtRp696
(dp697
g73
(dp698
sg82
g684
sg75
(lp699
g68
(g69
g70
NtRp700
(dp701
g73
(dp702
g81
I3
ssg82
g696
sg75
(lp703
S''
asbasbasbag68
(g84
g70
NtRp704
(dp705
g73
(dp706
sg82
g660
sg75
(lp707
g68
(g89
g70
NtRp708
(dp709
g73
(dp710
g93
g94
ssg82
g704
sg75
(lp711
g336
asbag68
(g89
g70
NtRp712
(dp713
g73
(dp714
g100
g101
ssg82
g704
sg75
(lp715
S':'
asbag68
(g89
g70
NtRp716
(dp717
g73
(dp718
sg82
g704
sg75
(lp719
g68
(g69
g70
NtRp720
(dp721
g73
(dp722
g81
I3
ssg82
g716
sg75
(lp723
S''
asbasbasbag68
(g84
g70
NtRp724
(dp725
g73
(dp726
sg82
g660
sg75
(lp727
g68
(g89
g70
NtRp728
(dp729
g73
(dp730
g93
g94
ssg82
g724
sg75
(lp731
g357
asbag68
(g89
g70
NtRp732
(dp733
g73
(dp734
g100
g101
ssg82
g724
sg75
(lp735
S':'
asbag68
(g89
g70
NtRp736
(dp737
g73
(dp738
sg82
g724
sg75
(lp739
g68
(g69
g70
NtRp740
(dp741
g73
(dp742
g81
I3
ssg82
g736
sg75
(lp743
S''
asbasbasbag68
(g84
g70
NtRp744
(dp745
g73
(dp746
sg82
g660
sg75
(lp747
g68
(g89
g70
NtRp748
(dp749
g73
(dp750
g93
g94
ssg82
g744
sg75
(lp751
g378
asbag68
(g89
g70
NtRp752
(dp753
g73
(dp754
g100
g101
ssg82
g744
sg75
(lp755
S':'
asbag68
(g89
g70
NtRp756
(dp757
g73
(dp758
sg82
g744
sg75
(lp759
g68
(g69
g70
NtRp760
(dp761
g73
(dp762
g81
I3
ssg82
g756
sg75
(lp763
S''
asbasbasbag68
(g84
g70
NtRp764
(dp765
g73
(dp766
sg82
g660
sg75
(lp767
g68
(g89
g70
NtRp768
(dp769
g73
(dp770
g93
g94
ssg82
g764
sg75
(lp771
g399
asbag68
(g89
g70
NtRp772
(dp773
g73
(dp774
g100
g101
ssg82
g764
sg75
(lp775
S':'
asbag68
(g89
g70
NtRp776
(dp777
g73
(dp778
sg82
g764
sg75
(lp779
g68
(g69
g70
NtRp780
(dp781
g73
(dp782
g81
I3
ssg82
g776
sg75
(lp783
S''
asbasbasbag68
(g84
g70
NtRp784
(dp785
g73
(dp786
sg82
g660
sg75
(lp787
g68
(g89
g70
NtRp788
(dp789
g73
(dp790
g93
g94
ssg82
g784
sg75
(lp791
g420
asbag68
(g89
g70
NtRp792
(dp793
g73
(dp794
g100
g101
ssg82
g784
sg75
(lp795
S':'
asbag68
(g89
g70
NtRp796
(dp797
g73
(dp798
sg82
g784
sg75
(lp799
g68
(g69
g70
NtRp800
(dp801
g73
(dp802
g81
I3
ssg82
g796
sg75
(lp803
S''
asbasbasbag68
(g84
g70
NtRp804
(dp805
g73
(dp806
sg82
g660
sg75
(lp807
g68
(g89
g70
NtRp808
(dp809
g73
(dp810
g93
g94
ssg82
g804
sg75
(lp811
g441
asbag68
(g89
g70
NtRp812
(dp813
g73
(dp814
g100
g101
ssg82
g804
sg75
(lp815
S':'
asbag68
(g89
g70
NtRp816
(dp817
g73
(dp818
sg82
g804
sg75
(lp819
g68
(g69
g70
NtRp820
(dp821
g73
(dp822
g81
I3
ssg82
g816
sg75
(lp823
S''
asbasbasbasbasbasbasbag68
(g84
g70
NtRp824
(dp825
g73
(dp826
sg82
g257
sg75
(lp827
g68
(g89
g70
NtRp828
(dp829
g73
(dp830
g93
g94
ssg82
g824
sg75
(lp831
S'session_id_welcome'
p832
asbag68
(g89
g70
NtRp833
(dp834
g73
(dp835
g100
g101
ssg82
g824
sg75
(lp836
S':'
asbag68
(g89
g70
NtRp837
(dp838
g73
(dp839
sg82
g824
sg75
(lp840
g68
(g69
g70
NtRp841
(dp842
g73
(dp843
g81
I4
ssg82
g837
sg75
(lp844
g68
(g77
g70
NtRp845
(dp846
g73
(dp847
g81
I3
ssg82
Nsg75
(lp848
g68
(g84
g70
NtRp849
(dp850
g73
(dp851
sg82
g845
sg75
(lp852
g68
(g89
g70
NtRp853
(dp854
g73
(dp855
g93
g94
ssg82
g849
sg75
(lp856
g294
asbag68
(g89
g70
NtRp857
(dp858
g73
(dp859
g100
g101
ssg82
g849
sg75
(lp860
S':'
asbag68
(g89
g70
NtRp861
(dp862
g73
(dp863
sg82
g849
sg75
(lp864
g68
(g69
g70
NtRp865
(dp866
g73
(dp867
g81
I3
ssg82
g861
sg75
(lp868
S''
asbasbasbag68
(g84
g70
NtRp869
(dp870
g73
(dp871
sg82
g845
sg75
(lp872
g68
(g89
g70
NtRp873
(dp874
g73
(dp875
g93
g94
ssg82
g869
sg75
(lp876
g315
asbag68
(g89
g70
NtRp877
(dp878
g73
(dp879
g100
g101
ssg82
g869
sg75
(lp880
S':'
asbag68
(g89
g70
NtRp881
(dp882
g73
(dp883
sg82
g869
sg75
(lp884
g68
(g69
g70
NtRp885
(dp886
g73
(dp887
g81
I3
ssg82
g881
sg75
(lp888
S''
asbasbasbag68
(g84
g70
NtRp889
(dp890
g73
(dp891
sg82
g845
sg75
(lp892
g68
(g89
g70
NtRp893
(dp894
g73
(dp895
g93
g94
ssg82
g889
sg75
(lp896
g336
asbag68
(g89
g70
NtRp897
(dp898
g73
(dp899
g100
g101
ssg82
g889
sg75
(lp900
S':'
asbag68
(g89
g70
NtRp901
(dp902
g73
(dp903
sg82
g889
sg75
(lp904
g68
(g69
g70
NtRp905
(dp906
g73
(dp907
g81
I3
ssg82
g901
sg75
(lp908
S''
asbasbasbag68
(g84
g70
NtRp909
(dp910
g73
(dp911
sg82
g845
sg75
(lp912
g68
(g89
g70
NtRp913
(dp914
g73
(dp915
g93
g94
ssg82
g909
sg75
(lp916
g357
asbag68
(g89
g70
NtRp917
(dp918
g73
(dp919
g100
g101
ssg82
g909
sg75
(lp920
S':'
asbag68
(g89
g70
NtRp921
(dp922
g73
(dp923
sg82
g909
sg75
(lp924
g68
(g69
g70
NtRp925
(dp926
g73
(dp927
g81
I3
ssg82
g921
sg75
(lp928
S''
asbasbasbag68
(g84
g70
NtRp929
(dp930
g73
(dp931
sg82
g845
sg75
(lp932
g68
(g89
g70
NtRp933
(dp934
g73
(dp935
g93
g94
ssg82
g929
sg75
(lp936
g378
asbag68
(g89
g70
NtRp937
(dp938
g73
(dp939
g100
g101
ssg82
g929
sg75
(lp940
S':'
asbag68
(g89
g70
NtRp941
(dp942
g73
(dp943
sg82
g929
sg75
(lp944
g68
(g69
g70
NtRp945
(dp946
g73
(dp947
g81
I3
ssg82
g941
sg75
(lp948
S''
asbasbasbag68
(g84
g70
NtRp949
(dp950
g73
(dp951
sg82
g845
sg75
(lp952
g68
(g89
g70
NtRp953
(dp954
g73
(dp955
g93
g94
ssg82
g949
sg75
(lp956
g399
asbag68
(g89
g70
NtRp957
(dp958
g73
(dp959
g100
g101
ssg82
g949
sg75
(lp960
S':'
asbag68
(g89
g70
NtRp961
(dp962
g73
(dp963
sg82
g949
sg75
(lp964
g68
(g69
g70
NtRp965
(dp966
g73
(dp967
g81
I3
ssg82
g961
sg75
(lp968
S''
asbasbasbag68
(g84
g70
NtRp969
(dp970
g73
(dp971
sg82
g845
sg75
(lp972
g68
(g89
g70
NtRp973
(dp974
g73
(dp975
g93
g94
ssg82
g969
sg75
(lp976
g420
asbag68
(g89
g70
NtRp977
(dp978
g73
(dp979
g100
g101
ssg82
g969
sg75
(lp980
S':'
asbag68
(g89
g70
NtRp981
(dp982
g73
(dp983
sg82
g969
sg75
(lp984
g68
(g69
g70
NtRp985
(dp986
g73
(dp987
g81
I3
ssg82
g981
sg75
(lp988
S''
asbasbasbag68
(g84
g70
NtRp989
(dp990
g73
(dp991
sg82
g845
sg75
(lp992
g68
(g89
g70
NtRp993
(dp994
g73
(dp995
g93
g94
ssg82
g989
sg75
(lp996
g441
asbag68
(g89
g70
NtRp997
(dp998
g73
(dp999
g100
g101
ssg82
g989
sg75
(lp1000
S':'
asbag68
(g89
g70
NtRp1001
(dp1002
g73
(dp1003
sg82
g989
sg75
(lp1004
g68
(g69
g70
NtRp1005
(dp1006
g73
(dp1007
g81
I3
ssg82
g1001
sg75
(lp1008
S''
asbasbasbasbasbasbasbasbasbasbasbag68
(g84
g70
NtRp1009
(dp1010
g73
(dp1011
sg82
g78
sg75
(lp1012
g68
(g89
g70
NtRp1013
(dp1014
g73
(dp1015
g93
g94
ssg82
g1009
sg75
(lp1016
S'env'
p1017
asbag68
(g89
g70
NtRp1018
(dp1019
g73
(dp1020
g100
g101
ssg82
g1009
sg75
(lp1021
S':'
asbag68
(g89
g70
NtRp1022
(dp1023
g73
(dp1024
sg82
g1009
sg75
(lp1025
g68
(g69
g70
NtRp1026
(dp1027
g73
(dp1028
g81
I5
ssg82
g1022
sg75
(lp1029
g68
(g77
g70
NtRp1030
(dp1031
g73
(dp1032
g81
I4
ssg82
Nsg75
(lp1033
g68
(g84
g70
NtRp1034
(dp1035
g73
(dp1036
sg82
g1030
sg75
(lp1037
g68
(g89
g70
NtRp1038
(dp1039
g73
(dp1040
g93
g94
ssg82
g1034
sg75
(lp1041
S'app_folders'
p1042
asbag68
(g89
g70
NtRp1043
(dp1044
g73
(dp1045
g100
g101
ssg82
g1034
sg75
(lp1046
S':'
asbag68
(g89
g70
NtRp1047
(dp1048
g73
(dp1049
sg82
g1034
sg75
(lp1050
g68
(g69
g70
NtRp1051
(dp1052
g73
(dp1053
g81
I4
ssg82
g1047
sg75
(lp1054
S"set(['/home/ian/web2py/applications/welcome/', '/home/ian/web2py/applications/grades/', '/home/ian/web2py/applications/admin/'])"
p1055
asbasbasbag68
(g84
g70
NtRp1056
(dp1057
g73
(dp1058
sg82
g1030
sg75
(lp1059
g68
(g89
g70
NtRp1060
(dp1061
g73
(dp1062
g93
g94
ssg82
g1056
sg75
(lp1063
S'applications_parent'
p1064
asbag68
(g89
g70
NtRp1065
(dp1066
g73
(dp1067
g100
g101
ssg82
g1056
sg75
(lp1068
S':'
asbag68
(g89
g70
NtRp1069
(dp1070
g73
(dp1071
sg82
g1056
sg75
(lp1072
g68
(g69
g70
NtRp1073
(dp1074
g73
(dp1075
g81
I4
ssg82
g1069
sg75
(lp1076
S'/home/ian/web2py'
p1077
asbasbasbag68
(g84
g70
NtRp1078
(dp1079
g73
(dp1080
sg82
g1030
sg75
(lp1081
g68
(g89
g70
NtRp1082
(dp1083
g73
(dp1084
g93
g94
ssg82
g1078
sg75
(lp1085
S'cmd_args'
p1086
asbag68
(g89
g70
NtRp1087
(dp1088
g73
(dp1089
g100
g101
ssg82
g1078
sg75
(lp1090
S':'
asbag68
(g89
g70
NtRp1091
(dp1092
g73
(dp1093
sg82
g1078
sg75
(lp1094
g68
(g69
g70
NtRp1095
(dp1096
g73
(dp1097
g81
I4
ssg82
g1091
sg75
(lp1098
g68
(g77
g70
NtRp1099
(dp1100
g73
(dp1101
g81
I3
ssg82
Nsg75
(lp1102
sbasbasbasbag68
(g84
g70
NtRp1103
(dp1104
g73
(dp1105
sg82
g1030
sg75
(lp1106
g68
(g89
g70
NtRp1107
(dp1108
g73
(dp1109
g93
g94
ssg82
g1103
sg75
(lp1110
S'cmd_options'
p1111
asbag68
(g89
g70
NtRp1112
(dp1113
g73
(dp1114
g100
g101
ssg82
g1103
sg75
(lp1115
S':'
asbag68
(g89
g70
NtRp1116
(dp1117
g73
(dp1118
sg82
g1103
sg75
(lp1119
g68
(g69
g70
NtRp1120
(dp1121
g73
(dp1122
g81
I4
ssg82
g1116
sg75
(lp1123
S"<Values at 0x1ffe758: {'verbose': False, 'ip': '127.0.0.1', 'shutdown_timeout': 5, 'taskbar': False, 'nocron': False, 'pid_filename': 'httpserver.pid', 'maxthreads': None, 'softcron': False, 'server_name': 'uriel', 'bpython': False, 'nogui': False, 'port': 8000, 'extcron': False, 'debuglevel': 30, 'test': None, 'folder': '/home/ian/web2py', 'config': '', 'import_models': False, 'winservice': '', 'shell': None, 'run': '', 'log_filename': 'httpserver.log', 'args': [''], 'ssl_ca_certificate': None, 'scheduler': None, 'profiler_filename': None, 'ssl_private_key': '', 'password': '<ask>', 'request_queue_size': 5, 'ssl_certificate': '', 'cronjob': False, 'plain': False, 'quiet': False, 'interfaces': None, 'minthreads': None, 'timeout': 10, 'numthreads': None, 'nobanner': False}>"
p1124
asbasbasbag68
(g84
g70
NtRp1125
(dp1126
g73
(dp1127
sg82
g1030
sg75
(lp1128
g68
(g89
g70
NtRp1129
(dp1130
g73
(dp1131
g93
g94
ssg82
g1125
sg75
(lp1132
S'db_sessions'
p1133
asbag68
(g89
g70
NtRp1134
(dp1135
g73
(dp1136
g100
g101
ssg82
g1125
sg75
(lp1137
S':'
asbag68
(g89
g70
NtRp1138
(dp1139
g73
(dp1140
sg82
g1125
sg75
(lp1141
g68
(g69
g70
NtRp1142
(dp1143
g73
(dp1144
g81
I4
ssg82
g1138
sg75
(lp1145
S'set([])'
p1146
asbasbasbag68
(g84
g70
NtRp1147
(dp1148
g73
(dp1149
sg82
g1030
sg75
(lp1150
g68
(g89
g70
NtRp1151
(dp1152
g73
(dp1153
g93
g94
ssg82
g1147
sg75
(lp1154
S'debugging'
p1155
asbag68
(g89
g70
NtRp1156
(dp1157
g73
(dp1158
g100
g101
ssg82
g1147
sg75
(lp1159
S':'
asbag68
(g89
g70
NtRp1160
(dp1161
g73
(dp1162
sg82
g1147
sg75
(lp1163
g68
(g69
g70
NtRp1164
(dp1165
g73
(dp1166
g81
I4
ssg82
g1160
sg75
(lp1167
g111
asbasbasbag68
(g84
g70
NtRp1168
(dp1169
g73
(dp1170
sg82
g1030
sg75
(lp1171
g68
(g89
g70
NtRp1172
(dp1173
g73
(dp1174
g93
g94
ssg82
g1168
sg75
(lp1175
S'gluon_parent'
p1176
asbag68
(g89
g70
NtRp1177
(dp1178
g73
(dp1179
g100
g101
ssg82
g1168
sg75
(lp1180
S':'
asbag68
(g89
g70
NtRp1181
(dp1182
g73
(dp1183
sg82
g1168
sg75
(lp1184
g68
(g69
g70
NtRp1185
(dp1186
g73
(dp1187
g81
I4
ssg82
g1181
sg75
(lp1188
S'/home/ian/web2py'
p1189
asbasbasbag68
(g84
g70
NtRp1190
(dp1191
g73
(dp1192
sg82
g1030
sg75
(lp1193
g68
(g89
g70
NtRp1194
(dp1195
g73
(dp1196
g93
g94
ssg82
g1190
sg75
(lp1197
S'http_accept'
p1198
asbag68
(g89
g70
NtRp1199
(dp1200
g73
(dp1201
g100
g101
ssg82
g1190
sg75
(lp1202
S':'
asbag68
(g89
g70
NtRp1203
(dp1204
g73
(dp1205
sg82
g1190
sg75
(lp1206
g68
(g69
g70
NtRp1207
(dp1208
g73
(dp1209
g81
I4
ssg82
g1203
sg75
(lp1210
S'text/html,application/xhtml+xml,application/xml;q=0.9,*/*;q=0.8'
p1211
asbasbasbag68
(g84
g70
NtRp1212
(dp1213
g73
(dp1214
sg82
g1030
sg75
(lp1215
g68
(g89
g70
NtRp1216
(dp1217
g73
(dp1218
g93
g94
ssg82
g1212
sg75
(lp1219
S'http_accept_encoding'
p1220
asbag68
(g89
g70
NtRp1221
(dp1222
g73
(dp1223
g100
g101
ssg82
g1212
sg75
(lp1224
S':'
asbag68
(g89
g70
NtRp1225
(dp1226
g73
(dp1227
sg82
g1212
sg75
(lp1228
g68
(g69
g70
NtRp1229
(dp1230
g73
(dp1231
g81
I4
ssg82
g1225
sg75
(lp1232
S'gzip, deflate'
p1233
asbasbasbag68
(g84
g70
NtRp1234
(dp1235
g73
(dp1236
sg82
g1030
sg75
(lp1237
g68
(g89
g70
NtRp1238
(dp1239
g73
(dp1240
g93
g94
ssg82
g1234
sg75
(lp1241
S'http_accept_language'
p1242
asbag68
(g89
g70
NtRp1243
(dp1244
g73
(dp1245
g100
g101
ssg82
g1234
sg75
(lp1246
S':'
asbag68
(g89
g70
NtRp1247
(dp1248
g73
(dp1249
sg82
g1234
sg75
(lp1250
g68
(g69
g70
NtRp1251
(dp1252
g73
(dp1253
g81
I4
ssg82
g1247
sg75
(lp1254
S'en-us,en;q=0.5'
p1255
asbasbasbag68
(g84
g70
NtRp1256
(dp1257
g73
(dp1258
sg82
g1030
sg75
(lp1259
g68
(g89
g70
NtRp1260
(dp1261
g73
(dp1262
g93
g94
ssg82
g1256
sg75
(lp1263
S'http_cache_control'
p1264
asbag68
(g89
g70
NtRp1265
(dp1266
g73
(dp1267
g100
g101
ssg82
g1256
sg75
(lp1268
S':'
asbag68
(g89
g70
NtRp1269
(dp1270
g73
(dp1271
sg82
g1256
sg75
(lp1272
g68
(g69
g70
NtRp1273
(dp1274
g73
(dp1275
g81
I4
ssg82
g1269
sg75
(lp1276
S'max-age=0'
p1277
asbasbasbag68
(g84
g70
NtRp1278
(dp1279
g73
(dp1280
sg82
g1030
sg75
(lp1281
g68
(g89
g70
NtRp1282
(dp1283
g73
(dp1284
g93
g94
ssg82
g1278
sg75
(lp1285
S'http_connection'
p1286
asbag68
(g89
g70
NtRp1287
(dp1288
g73
(dp1289
g100
g101
ssg82
g1278
sg75
(lp1290
S':'
asbag68
(g89
g70
NtRp1291
(dp1292
g73
(dp1293
sg82
g1278
sg75
(lp1294
g68
(g69
g70
NtRp1295
(dp1296
g73
(dp1297
g81
I4
ssg82
g1291
sg75
(lp1298
S'keep-alive'
p1299
asbasbasbag68
(g84
g70
NtRp1300
(dp1301
g73
(dp1302
sg82
g1030
sg75
(lp1303
g68
(g89
g70
NtRp1304
(dp1305
g73
(dp1306
g93
g94
ssg82
g1300
sg75
(lp1307
S'http_cookie'
p1308
asbag68
(g89
g70
NtRp1309
(dp1310
g73
(dp1311
g100
g101
ssg82
g1300
sg75
(lp1312
S':'
asbag68
(g89
g70
NtRp1313
(dp1314
g73
(dp1315
sg82
g1300
sg75
(lp1316
g68
(g69
g70
NtRp1317
(dp1318
g73
(dp1319
g81
I4
ssg82
g1313
sg75
(lp1320
S'session_id_paideia=127.0.0.1-5296f1e9-849e-4717-b7d4-f5f298041148; session_id_welcome=127.0.0.1-cbd9183f-89a3-433a-9c7b-93d2c556d545; session_id_grades=127.0.0.1-7e779f51-d72f-4159-aa81-826b4f2d26c1; session_id_admin=127.0.0.1-0a4d4364-3576-4988-bc56-f95aeecb4481'
p1321
asbasbasbag68
(g84
g70
NtRp1322
(dp1323
g73
(dp1324
sg82
g1030
sg75
(lp1325
g68
(g89
g70
NtRp1326
(dp1327
g73
(dp1328
g93
g94
ssg82
g1322
sg75
(lp1329
S'http_host'
p1330
asbag68
(g89
g70
NtRp1331
(dp1332
g73
(dp1333
g100
g101
ssg82
g1322
sg75
(lp1334
S':'
asbag68
(g89
g70
NtRp1335
(dp1336
g73
(dp1337
sg82
g1322
sg75
(lp1338
g68
(g69
g70
NtRp1339
(dp1340
g73
(dp1341
g81
I4
ssg82
g1335
sg75
(lp1342
S'127.0.0.1:8000'
p1343
asbasbasbag68
(g84
g70
NtRp1344
(dp1345
g73
(dp1346
sg82
g1030
sg75
(lp1347
g68
(g89
g70
NtRp1348
(dp1349
g73
(dp1350
g93
g94
ssg82
g1344
sg75
(lp1351
S'http_referer'
p1352
asbag68
(g89
g70
NtRp1353
(dp1354
g73
(dp1355
g100
g101
ssg82
g1344
sg75
(lp1356
S':'
asbag68
(g89
g70
NtRp1357
(dp1358
g73
(dp1359
sg82
g1344
sg75
(lp1360
g68
(g69
g70
NtRp1361
(dp1362
g73
(dp1363
g81
I4
ssg82
g1357
sg75
(lp1364
S'http://127.0.0.1:8000/grades/default/index'
p1365
asbasbasbag68
(g84
g70
NtRp1366
(dp1367
g73
(dp1368
sg82
g1030
sg75
(lp1369
g68
(g89
g70
NtRp1370
(dp1371
g73
(dp1372
g93
g94
ssg82
g1366
sg75
(lp1373
S'http_user_agent'
p1374
asbag68
(g89
g70
NtRp1375
(dp1376
g73
(dp1377
g100
g101
ssg82
g1366
sg75
(lp1378
S':'
asbag68
(g89
g70
NtRp1379
(dp1380
g73
(dp1381
sg82
g1366
sg75
(lp1382
g68
(g69
g70
NtRp1383
(dp1384
g73
(dp1385
g81
I4
ssg82
g1379
sg75
(lp1386
S'Mozilla/5.0 (X11; Linux x86_64; rv:8.0) Gecko/20100101 Firefox/8.0'
p1387
asbasbasbag68
(g84
g70
NtRp1388
(dp1389
g73
(dp1390
sg82
g1030
sg75
(lp1391
g68
(g89
g70
NtRp1392
(dp1393
g73
(dp1394
g93
g94
ssg82
g1388
sg75
(lp1395
S'is_jython'
p1396
asbag68
(g89
g70
NtRp1397
(dp1398
g73
(dp1399
g100
g101
ssg82
g1388
sg75
(lp1400
S':'
asbag68
(g89
g70
NtRp1401
(dp1402
g73
(dp1403
sg82
g1388
sg75
(lp1404
g68
(g69
g70
NtRp1405
(dp1406
g73
(dp1407
g81
I4
ssg82
g1401
sg75
(lp1408
g111
asbasbasbag68
(g84
g70
NtRp1409
(dp1410
g73
(dp1411
sg82
g1030
sg75
(lp1412
g68
(g89
g70
NtRp1413
(dp1414
g73
(dp1415
g93
g94
ssg82
g1409
sg75
(lp1416
S'path_info'
p1417
asbag68
(g89
g70
NtRp1418
(dp1419
g73
(dp1420
g100
g101
ssg82
g1409
sg75
(lp1421
S':'
asbag68
(g89
g70
NtRp1422
(dp1423
g73
(dp1424
sg82
g1409
sg75
(lp1425
g68
(g69
g70
NtRp1426
(dp1427
g73
(dp1428
g81
I4
ssg82
g1422
sg75
(lp1429
S'/grades/default/create_grade/1'
p1430
asbasbasbag68
(g84
g70
NtRp1431
(dp1432
g73
(dp1433
sg82
g1030
sg75
(lp1434
g68
(g89
g70
NtRp1435
(dp1436
g73
(dp1437
g93
g94
ssg82
g1431
sg75
(lp1438
S'query_string'
p1439
asbag68
(g89
g70
NtRp1440
(dp1441
g73
(dp1442
g100
g101
ssg82
g1431
sg75
(lp1443
S':'
asbag68
(g89
g70
NtRp1444
(dp1445
g73
(dp1446
sg82
g1431
sg75
(lp1447
g68
(g69
g70
NtRp1448
(dp1449
g73
(dp1450
g81
I4
ssg82
g1444
sg75
(lp1451
S''
asbasbasbag68
(g84
g70
NtRp1452
(dp1453
g73
(dp1454
sg82
g1030
sg75
(lp1455
g68
(g89
g70
NtRp1456
(dp1457
g73
(dp1458
g93
g94
ssg82
g1452
sg75
(lp1459
S'remote_addr'
p1460
asbag68
(g89
g70
NtRp1461
(dp1462
g73
(dp1463
g100
g101
ssg82
g1452
sg75
(lp1464
S':'
asbag68
(g89
g70
NtRp1465
(dp1466
g73
(dp1467
sg82
g1452
sg75
(lp1468
g68
(g69
g70
NtRp1469
(dp1470
g73
(dp1471
g81
I4
ssg82
g1465
sg75
(lp1472
g213
asbasbasbag68
(g84
g70
NtRp1473
(dp1474
g73
(dp1475
sg82
g1030
sg75
(lp1476
g68
(g89
g70
NtRp1477
(dp1478
g73
(dp1479
g93
g94
ssg82
g1473
sg75
(lp1480
S'remote_port'
p1481
asbag68
(g89
g70
NtRp1482
(dp1483
g73
(dp1484
g100
g101
ssg82
g1473
sg75
(lp1485
S':'
asbag68
(g89
g70
NtRp1486
(dp1487
g73
(dp1488
sg82
g1473
sg75
(lp1489
g68
(g69
g70
NtRp1490
(dp1491
g73
(dp1492
g81
I4
ssg82
g1486
sg75
(lp1493
S'60124'
p1494
asbasbasbag68
(g84
g70
NtRp1495
(dp1496
g73
(dp1497
sg82
g1030
sg75
(lp1498
g68
(g89
g70
NtRp1499
(dp1500
g73
(dp1501
g93
g94
ssg82
g1495
sg75
(lp1502
S'request_method'
p1503
asbag68
(g89
g70
NtRp1504
(dp1505
g73
(dp1506
g100
g101
ssg82
g1495
sg75
(lp1507
S':'
asbag68
(g89
g70
NtRp1508
(dp1509
g73
(dp1510
sg82
g1495
sg75
(lp1511
g68
(g69
g70
NtRp1512
(dp1513
g73
(dp1514
g81
I4
ssg82
g1508
sg75
(lp1515
S'GET'
p1516
asbasbasbag68
(g84
g70
NtRp1517
(dp1518
g73
(dp1519
sg82
g1030
sg75
(lp1520
g68
(g89
g70
NtRp1521
(dp1522
g73
(dp1523
g93
g94
ssg82
g1517
sg75
(lp1524
S'script_name'
p1525
asbag68
(g89
g70
NtRp1526
(dp1527
g73
(dp1528
g100
g101
ssg82
g1517
sg75
(lp1529
S':'
asbag68
(g89
g70
NtRp1530
(dp1531
g73
(dp1532
sg82
g1517
sg75
(lp1533
g68
(g69
g70
NtRp1534
(dp1535
g73
(dp1536
g81
I4
ssg82
g1530
sg75
(lp1537
S''
asbasbasbag68
(g84
g70
NtRp1538
(dp1539
g73
(dp1540
sg82
g1030
sg75
(lp1541
g68
(g89
g70
NtRp1542
(dp1543
g73
(dp1544
g93
g94
ssg82
g1538
sg75
(lp1545
S'server_name'
p1546
asbag68
(g89
g70
NtRp1547
(dp1548
g73
(dp1549
g100
g101
ssg82
g1538
sg75
(lp1550
S':'
asbag68
(g89
g70
NtRp1551
(dp1552
g73
(dp1553
sg82
g1538
sg75
(lp1554
g68
(g69
g70
NtRp1555
(dp1556
g73
(dp1557
g81
I4
ssg82
g1551
sg75
(lp1558
S'uriel'
p1559
asbasbasbag68
(g84
g70
NtRp1560
(dp1561
g73
(dp1562
sg82
g1030
sg75
(lp1563
g68
(g89
g70
NtRp1564
(dp1565
g73
(dp1566
g93
g94
ssg82
g1560
sg75
(lp1567
S'server_port'
p1568
asbag68
(g89
g70
NtRp1569
(dp1570
g73
(dp1571
g100
g101
ssg82
g1560
sg75
(lp1572
S':'
asbag68
(g89
g70
NtRp1573
(dp1574
g73
(dp1575
sg82
g1560
sg75
(lp1576
g68
(g69
g70
NtRp1577
(dp1578
g73
(dp1579
g81
I4
ssg82
g1573
sg75
(lp1580
S'8000'
p1581
asbasbasbag68
(g84
g70
NtRp1582
(dp1583
g73
(dp1584
sg82
g1030
sg75
(lp1585
g68
(g89
g70
NtRp1586
(dp1587
g73
(dp1588
g93
g94
ssg82
g1582
sg75
(lp1589
S'server_protocol'
p1590
asbag68
(g89
g70
NtRp1591
(dp1592
g73
(dp1593
g100
g101
ssg82
g1582
sg75
(lp1594
S':'
asbag68
(g89
g70
NtRp1595
(dp1596
g73
(dp1597
sg82
g1582
sg75
(lp1598
g68
(g69
g70
NtRp1599
(dp1600
g73
(dp1601
g81
I4
ssg82
g1595
sg75
(lp1602
S'HTTP/1.1'
p1603
asbasbasbag68
(g84
g70
NtRp1604
(dp1605
g73
(dp1606
sg82
g1030
sg75
(lp1607
g68
(g89
g70
NtRp1608
(dp1609
g73
(dp1610
g93
g94
ssg82
g1604
sg75
(lp1611
S'server_software'
p1612
asbag68
(g89
g70
NtRp1613
(dp1614
g73
(dp1615
g100
g101
ssg82
g1604
sg75
(lp1616
S':'
asbag68
(g89
g70
NtRp1617
(dp1618
g73
(dp1619
sg82
g1604
sg75
(lp1620
g68
(g69
g70
NtRp1621
(dp1622
g73
(dp1623
g81
I4
ssg82
g1617
sg75
(lp1624
S'Rocket 1.2.4'
p1625
asbasbasbag68
(g84
g70
NtRp1626
(dp1627
g73
(dp1628
sg82
g1030
sg75
(lp1629
g68
(g89
g70
NtRp1630
(dp1631
g73
(dp1632
g93
g94
ssg82
g1626
sg75
(lp1633
S'web2py_crontype'
p1634
asbag68
(g89
g70
NtRp1635
(dp1636
g73
(dp1637
g100
g101
ssg82
g1626
sg75
(lp1638
S':'
asbag68
(g89
g70
NtRp1639
(dp1640
g73
(dp1641
sg82
g1626
sg75
(lp1642
g68
(g69
g70
NtRp1643
(dp1644
g73
(dp1645
g81
I4
ssg82
g1639
sg75
(lp1646
S'hard'
p1647
asbasbasbag68
(g84
g70
NtRp1648
(dp1649
g73
(dp1650
sg82
g1030
sg75
(lp1651
g68
(g89
g70
NtRp1652
(dp1653
g73
(dp1654
g93
g94
ssg82
g1648
sg75
(lp1655
S'web2py_path'
p1656
asbag68
(g89
g70
NtRp1657
(dp1658
g73
(dp1659
g100
g101
ssg82
g1648
sg75
(lp1660
S':'
asbag68
(g89
g70
NtRp1661
(dp1662
g73
(dp1663
sg82
g1648
sg75
(lp1664
g68
(g69
g70
NtRp1665
(dp1666
g73
(dp1667
g81
I4
ssg82
g1661
sg75
(lp1668
g1077
asbasbasbag68
(g84
g70
NtRp1669
(dp1670
g73
(dp1671
sg82
g1030
sg75
(lp1672
g68
(g89
g70
NtRp1673
(dp1674
g73
(dp1675
g93
g94
ssg82
g1669
sg75
(lp1676
S'web2py_version'
p1677
asbag68
(g89
g70
NtRp1678
(dp1679
g73
(dp1680
g100
g101
ssg82
g1669
sg75
(lp1681
S':'
asbag68
(g89
g70
NtRp1682
(dp1683
g73
(dp1684
sg82
g1669
sg75
(lp1685
g68
(g69
g70
NtRp1686
(dp1687
g73
(dp1688
g81
I4
ssg82
g1682
sg75
(lp1689
g68
(g77
g70
NtRp1690
(dp1691
g73
(dp1692
g81
I3
ssg82
Nsg75
(lp1693
g68
(g84
g70
NtRp1694
(dp1695
g73
(dp1696
sg82
g1690
sg75
(lp1697
g68
(g89
g70
NtRp1698
(dp1699
g73
(dp1700
sg82
g1694
sg75
(lp1701
g68
(g69
g70
NtRp1702
(dp1703
g73
(dp1704
g81
I3
ssg82
g1698
sg75
(lp1705
S'1'
asbasbasbag68
(g84
g70
NtRp1706
(dp1707
g73
(dp1708
sg82
g1690
sg75
(lp1709
g68
(g89
g70
NtRp1710
(dp1711
g73
(dp1712
sg82
g1706
sg75
(lp1713
g68
(g69
g70
NtRp1714
(dp1715
g73
(dp1716
g81
I3
ssg82
g1710
sg75
(lp1717
S'99'
p1718
asbasbasbag68
(g84
g70
NtRp1719
(dp1720
g73
(dp1721
sg82
g1690
sg75
(lp1722
g68
(g89
g70
NtRp1723
(dp1724
g73
(dp1725
sg82
g1719
sg75
(lp1726
g68
(g69
g70
NtRp1727
(dp1728
g73
(dp1729
g81
I3
ssg82
g1723
sg75
(lp1730
S'2'
asbasbasbag68
(g84
g70
NtRp1731
(dp1732
g73
(dp1733
sg82
g1690
sg75
(lp1734
g68
(g89
g70
NtRp1735
(dp1736
g73
(dp1737
sg82
g1731
sg75
(lp1738
g68
(g69
g70
NtRp1739
(dp1740
g73
(dp1741
g81
I3
ssg82
g1735
sg75
(lp1742
S'datetime.datetime(2011, 9, 26, 6, 55, 33)'
p1743
asbasbasbag68
(g84
g70
NtRp1744
(dp1745
g73
(dp1746
sg82
g1690
sg75
(lp1747
g68
(g89
g70
NtRp1748
(dp1749
g73
(dp1750
sg82
g1744
sg75
(lp1751
g68
(g69
g70
NtRp1752
(dp1753
g73
(dp1754
g81
I3
ssg82
g1748
sg75
(lp1755
S'stable'
p1756
asbasbasbasbasbasbasbag68
(g84
g70
NtRp1757
(dp1758
g73
(dp1759
sg82
g1030
sg75
(lp1760
g68
(g89
g70
NtRp1761
(dp1762
g73
(dp1763
g93
g94
ssg82
g1757
sg75
(lp1764
S'wsgi_errors'
p1765
asbag68
(g89
g70
NtRp1766
(dp1767
g73
(dp1768
g100
g101
ssg82
g1757
sg75
(lp1769
S':'
asbag68
(g89
g70
NtRp1770
(dp1771
g73
(dp1772
sg82
g1757
sg75
(lp1773
g68
(g69
g70
NtRp1774
(dp1775
g73
(dp1776
g81
I4
ssg82
g1770
sg75
(lp1777
S"<open file '<stderr>', mode 'w' at 0x7f9678b3d270>"
p1778
asbasbasbag68
(g84
g70
NtRp1779
(dp1780
g73
(dp1781
sg82
g1030
sg75
(lp1782
g68
(g89
g70
NtRp1783
(dp1784
g73
(dp1785
g93
g94
ssg82
g1779
sg75
(lp1786
S'wsgi_file_wrapper'
p1787
asbag68
(g89
g70
NtRp1788
(dp1789
g73
(dp1790
g100
g101
ssg82
g1779
sg75
(lp1791
S':'
asbag68
(g89
g70
NtRp1792
(dp1793
g73
(dp1794
sg82
g1779
sg75
(lp1795
g68
(g69
g70
NtRp1796
(dp1797
g73
(dp1798
g81
I4
ssg82
g1792
sg75
(lp1799
S'<class wsgiref.util.FileWrapper at 0x1ec9870>'
p1800
asbasbasbag68
(g84
g70
NtRp1801
(dp1802
g73
(dp1803
sg82
g1030
sg75
(lp1804
g68
(g89
g70
NtRp1805
(dp1806
g73
(dp1807
g93
g94
ssg82
g1801
sg75
(lp1808
S'wsgi_input'
p1809
asbag68
(g89
g70
NtRp1810
(dp1811
g73
(dp1812
g100
g101
ssg82
g1801
sg75
(lp1813
S':'
asbag68
(g89
g70
NtRp1814
(dp1815
g73
(dp1816
sg82
g1801
sg75
(lp1817
g68
(g69
g70
NtRp1818
(dp1819
g73
(dp1820
g81
I4
ssg82
g1814
sg75
(lp1821
S'<socket._fileobject object at 0x26bbd50>'
p1822
asbasbasbag68
(g84
g70
NtRp1823
(dp1824
g73
(dp1825
sg82
g1030
sg75
(lp1826
g68
(g89
g70
NtRp1827
(dp1828
g73
(dp1829
g93
g94
ssg82
g1823
sg75
(lp1830
S'wsgi_multiprocess'
p1831
asbag68
(g89
g70
NtRp1832
(dp1833
g73
(dp1834
g100
g101
ssg82
g1823
sg75
(lp1835
S':'
asbag68
(g89
g70
NtRp1836
(dp1837
g73
(dp1838
sg82
g1823
sg75
(lp1839
g68
(g69
g70
NtRp1840
(dp1841
g73
(dp1842
g81
I4
ssg82
g1836
sg75
(lp1843
g111
asbasbasbag68
(g84
g70
NtRp1844
(dp1845
g73
(dp1846
sg82
g1030
sg75
(lp1847
g68
(g89
g70
NtRp1848
(dp1849
g73
(dp1850
g93
g94
ssg82
g1844
sg75
(lp1851
S'wsgi_multithread'
p1852
asbag68
(g89
g70
NtRp1853
(dp1854
g73
(dp1855
g100
g101
ssg82
g1844
sg75
(lp1856
S':'
asbag68
(g89
g70
NtRp1857
(dp1858
g73
(dp1859
sg82
g1844
sg75
(lp1860
g68
(g69
g70
NtRp1861
(dp1862
g73
(dp1863
g81
I4
ssg82
g1857
sg75
(lp1864
S'True'
p1865
asbasbasbag68
(g84
g70
NtRp1866
(dp1867
g73
(dp1868
sg82
g1030
sg75
(lp1869
g68
(g89
g70
NtRp1870
(dp1871
g73
(dp1872
g93
g94
ssg82
g1866
sg75
(lp1873
S'wsgi_run_once'
p1874
asbag68
(g89
g70
NtRp1875
(dp1876
g73
(dp1877
g100
g101
ssg82
g1866
sg75
(lp1878
S':'
asbag68
(g89
g70
NtRp1879
(dp1880
g73
(dp1881
sg82
g1866
sg75
(lp1882
g68
(g69
g70
NtRp1883
(dp1884
g73
(dp1885
g81
I4
ssg82
g1879
sg75
(lp1886
g111
asbasbasbag68
(g84
g70
NtRp1887
(dp1888
g73
(dp1889
sg82
g1030
sg75
(lp1890
g68
(g89
g70
NtRp1891
(dp1892
g73
(dp1893
g93
g94
ssg82
g1887
sg75
(lp1894
S'wsgi_url_scheme'
p1895
asbag68
(g89
g70
NtRp1896
(dp1897
g73
(dp1898
g100
g101
ssg82
g1887
sg75
(lp1899
S':'
asbag68
(g89
g70
NtRp1900
(dp1901
g73
(dp1902
sg82
g1887
sg75
(lp1903
g68
(g69
g70
NtRp1904
(dp1905
g73
(dp1906
g81
I4
ssg82
g1900
sg75
(lp1907
S'http'
p1908
asbasbasbag68
(g84
g70
NtRp1909
(dp1910
g73
(dp1911
sg82
g1030
sg75
(lp1912
g68
(g89
g70
NtRp1913
(dp1914
g73
(dp1915
g93
g94
ssg82
g1909
sg75
(lp1916
S'wsgi_version'
p1917
asbag68
(g89
g70
NtRp1918
(dp1919
g73
(dp1920
g100
g101
ssg82
g1909
sg75
(lp1921
S':'
asbag68
(g89
g70
NtRp1922
(dp1923
g73
(dp1924
sg82
g1909
sg75
(lp1925
g68
(g69
g70
NtRp1926
(dp1927
g73
(dp1928
g81
I4
ssg82
g1922
sg75
(lp1929
g68
(g77
g70
NtRp1930
(dp1931
g73
(dp1932
g81
I3
ssg82
Nsg75
(lp1933
g68
(g84
g70
NtRp1934
(dp1935
g73
(dp1936
sg82
g1930
sg75
(lp1937
g68
(g89
g70
NtRp1938
(dp1939
g73
(dp1940
sg82
g1934
sg75
(lp1941
g68
(g69
g70
NtRp1942
(dp1943
g73
(dp1944
g81
I3
ssg82
g1938
sg75
(lp1945
S'1'
asbasbasbag68
(g84
g70
NtRp1946
(dp1947
g73
(dp1948
sg82
g1930
sg75
(lp1949
g68
(g89
g70
NtRp1950
(dp1951
g73
(dp1952
sg82
g1946
sg75
(lp1953
g68
(g69
g70
NtRp1954
(dp1955
g73
(dp1956
g81
I3
ssg82
g1950
sg75
(lp1957
S'0'
asbasbasbasbasbasbasbasbasbasbasbag68
(g84
g70
NtRp1958
(dp1959
g73
(dp1960
sg82
g78
sg75
(lp1961
g68
(g89
g70
NtRp1962
(dp1963
g73
(dp1964
g93
g94
ssg82
g1958
sg75
(lp1965
S'extension'
p1966
asbag68
(g89
g70
NtRp1967
(dp1968
g73
(dp1969
g100
g101
ssg82
g1958
sg75
(lp1970
S':'
asbag68
(g89
g70
NtRp1971
(dp1972
g73
(dp1973
sg82
g1958
sg75
(lp1974
g68
(g69
g70
NtRp1975
(dp1976
g73
(dp1977
g81
I5
ssg82
g1971
sg75
(lp1978
S'html'
p1979
asbasbasbag68
(g84
g70
NtRp1980
(dp1981
g73
(dp1982
sg82
g78
sg75
(lp1983
g68
(g89
g70
NtRp1984
(dp1985
g73
(dp1986
g93
g94
ssg82
g1980
sg75
(lp1987
S'folder'
p1988
asbag68
(g89
g70
NtRp1989
(dp1990
g73
(dp1991
g100
g101
ssg82
g1980
sg75
(lp1992
S':'
asbag68
(g89
g70
NtRp1993
(dp1994
g73
(dp1995
sg82
g1980
sg75
(lp1996
g68
(g69
g70
NtRp1997
(dp1998
g73
(dp1999
g81
I5
ssg82
g1993
sg75
(lp2000
S'/home/ian/web2py/applications/grades/'
p2001
asbasbasbag68
(g84
g70
NtRp2002
(dp2003
g73
(dp2004
sg82
g78
sg75
(lp2005
g68
(g89
g70
NtRp2006
(dp2007
g73
(dp2008
g93
g94
ssg82
g2002
sg75
(lp2009
S'function'
p2010
asbag68
(g89
g70
NtRp2011
(dp2012
g73
(dp2013
g100
g101
ssg82
g2002
sg75
(lp2014
S':'
asbag68
(g89
g70
NtRp2015
(dp2016
g73
(dp2017
sg82
g2002
sg75
(lp2018
g68
(g69
g70
NtRp2019
(dp2020
g73
(dp2021
g81
I5
ssg82
g2015
sg75
(lp2022
S'create_grade'
p2023
asbasbasbag68
(g84
g70
NtRp2024
(dp2025
g73
(dp2026
sg82
g78
sg75
(lp2027
g68
(g89
g70
NtRp2028
(dp2029
g73
(dp2030
g93
g94
ssg82
g2024
sg75
(lp2031
S'get_vars'
p2032
asbag68
(g89
g70
NtRp2033
(dp2034
g73
(dp2035
g100
g101
ssg82
g2024
sg75
(lp2036
S':'
asbag68
(g89
g70
NtRp2037
(dp2038
g73
(dp2039
sg82
g2024
sg75
(lp2040
g68
(g69
g70
NtRp2041
(dp2042
g73
(dp2043
g81
I5
ssg82
g2037
sg75
(lp2044
g68
(g77
g70
NtRp2045
(dp2046
g73
(dp2047
g81
I4
ssg82
Nsg75
(lp2048
sbasbasbasbag68
(g84
g70
NtRp2049
(dp2050
g73
(dp2051
sg82
g78
sg75
(lp2052
g68
(g89
g70
NtRp2053
(dp2054
g73
(dp2055
g93
g94
ssg82
g2049
sg75
(lp2056
S'global_settings'
p2057
asbag68
(g89
g70
NtRp2058
(dp2059
g73
(dp2060
g100
g101
ssg82
g2049
sg75
(lp2061
S':'
asbag68
(g89
g70
NtRp2062
(dp2063
g73
(dp2064
sg82
g2049
sg75
(lp2065
g68
(g69
g70
NtRp2066
(dp2067
g73
(dp2068
g81
I5
ssg82
g2062
sg75
(lp2069
g68
(g77
g70
NtRp2070
(dp2071
g73
(dp2072
g81
I4
ssg82
Nsg75
(lp2073
g68
(g84
g70
NtRp2074
(dp2075
g73
(dp2076
sg82
g2070
sg75
(lp2077
g68
(g89
g70
NtRp2078
(dp2079
g73
(dp2080
g93
g94
ssg82
g2074
sg75
(lp2081
g1042
asbag68
(g89
g70
NtRp2082
(dp2083
g73
(dp2084
g100
g101
ssg82
g2074
sg75
(lp2085
S':'
asbag68
(g89
g70
NtRp2086
(dp2087
g73
(dp2088
sg82
g2074
sg75
(lp2089
g68
(g69
g70
NtRp2090
(dp2091
g73
(dp2092
g81
I4
ssg82
g2086
sg75
(lp2093
S"set(['/home/ian/web2py/applications/welcome/', '/home/ian/web2py/applications/grades/', '/home/ian/web2py/applications/admin/'])"
p2094
asbasbasbag68
(g84
g70
NtRp2095
(dp2096
g73
(dp2097
sg82
g2070
sg75
(lp2098
g68
(g89
g70
NtRp2099
(dp2100
g73
(dp2101
g93
g94
ssg82
g2095
sg75
(lp2102
g1064
asbag68
(g89
g70
NtRp2103
(dp2104
g73
(dp2105
g100
g101
ssg82
g2095
sg75
(lp2106
S':'
asbag68
(g89
g70
NtRp2107
(dp2108
g73
(dp2109
sg82
g2095
sg75
(lp2110
g68
(g69
g70
NtRp2111
(dp2112
g73
(dp2113
g81
I4
ssg82
g2107
sg75
(lp2114
g1077
asbasbasbag68
(g84
g70
NtRp2115
(dp2116
g73
(dp2117
sg82
g2070
sg75
(lp2118
g68
(g89
g70
NtRp2119
(dp2120
g73
(dp2121
g93
g94
ssg82
g2115
sg75
(lp2122
g1086
asbag68
(g89
g70
NtRp2123
(dp2124
g73
(dp2125
g100
g101
ssg82
g2115
sg75
(lp2126
S':'
asbag68
(g89
g70
NtRp2127
(dp2128
g73
(dp2129
sg82
g2115
sg75
(lp2130
g68
(g69
g70
NtRp2131
(dp2132
g73
(dp2133
g81
I4
ssg82
g2127
sg75
(lp2134
g68
(g77
g70
NtRp2135
(dp2136
g73
(dp2137
g81
I3
ssg82
Nsg75
(lp2138
sbasbasbasbag68
(g84
g70
NtRp2139
(dp2140
g73
(dp2141
sg82
g2070
sg75
(lp2142
g68
(g89
g70
NtRp2143
(dp2144
g73
(dp2145
g93
g94
ssg82
g2139
sg75
(lp2146
g1111
asbag68
(g89
g70
NtRp2147
(dp2148
g73
(dp2149
g100
g101
ssg82
g2139
sg75
(lp2150
S':'
asbag68
(g89
g70
NtRp2151
(dp2152
g73
(dp2153
sg82
g2139
sg75
(lp2154
g68
(g69
g70
NtRp2155
(dp2156
g73
(dp2157
g81
I4
ssg82
g2151
sg75
(lp2158
S"<Values at 0x1ffe758: {'verbose': False, 'ip': '127.0.0.1', 'shutdown_timeout': 5, 'taskbar': False, 'nocron': False, 'pid_filename': 'httpserver.pid', 'maxthreads': None, 'softcron': False, 'server_name': 'uriel', 'bpython': False, 'nogui': False, 'port': 8000, 'extcron': False, 'debuglevel': 30, 'test': None, 'folder': '/home/ian/web2py', 'config': '', 'import_models': False, 'winservice': '', 'shell': None, 'run': '', 'log_filename': 'httpserver.log', 'args': [''], 'ssl_ca_certificate': None, 'scheduler': None, 'profiler_filename': None, 'ssl_private_key': '', 'password': '<ask>', 'request_queue_size': 5, 'ssl_certificate': '', 'cronjob': False, 'plain': False, 'quiet': False, 'interfaces': None, 'minthreads': None, 'timeout': 10, 'numthreads': None, 'nobanner': False}>"
p2159
asbasbasbag68
(g84
g70
NtRp2160
(dp2161
g73
(dp2162
sg82
g2070
sg75
(lp2163
g68
(g89
g70
NtRp2164
(dp2165
g73
(dp2166
g93
g94
ssg82
g2160
sg75
(lp2167
g1133
asbag68
(g89
g70
NtRp2168
(dp2169
g73
(dp2170
g100
g101
ssg82
g2160
sg75
(lp2171
S':'
asbag68
(g89
g70
NtRp2172
(dp2173
g73
(dp2174
sg82
g2160
sg75
(lp2175
g68
(g69
g70
NtRp2176
(dp2177
g73
(dp2178
g81
I4
ssg82
g2172
sg75
(lp2179
S'set([])'
p2180
asbasbasbag68
(g84
g70
NtRp2181
(dp2182
g73
(dp2183
sg82
g2070
sg75
(lp2184
g68
(g89
g70
NtRp2185
(dp2186
g73
(dp2187
g93
g94
ssg82
g2181
sg75
(lp2188
g1155
asbag68
(g89
g70
NtRp2189
(dp2190
g73
(dp2191
g100
g101
ssg82
g2181
sg75
(lp2192
S':'
asbag68
(g89
g70
NtRp2193
(dp2194
g73
(dp2195
sg82
g2181
sg75
(lp2196
g68
(g69
g70
NtRp2197
(dp2198
g73
(dp2199
g81
I4
ssg82
g2193
sg75
(lp2200
g111
asbasbasbag68
(g84
g70
NtRp2201
(dp2202
g73
(dp2203
sg82
g2070
sg75
(lp2204
g68
(g89
g70
NtRp2205
(dp2206
g73
(dp2207
g93
g94
ssg82
g2201
sg75
(lp2208
g1176
asbag68
(g89
g70
NtRp2209
(dp2210
g73
(dp2211
g100
g101
ssg82
g2201
sg75
(lp2212
S':'
asbag68
(g89
g70
NtRp2213
(dp2214
g73
(dp2215
sg82
g2201
sg75
(lp2216
g68
(g69
g70
NtRp2217
(dp2218
g73
(dp2219
g81
I4
ssg82
g2213
sg75
(lp2220
g1189
asbasbasbag68
(g84
g70
NtRp2221
(dp2222
g73
(dp2223
sg82
g2070
sg75
(lp2224
g68
(g89
g70
NtRp2225
(dp2226
g73
(dp2227
g93
g94
ssg82
g2221
sg75
(lp2228
g1396
asbag68
(g89
g70
NtRp2229
(dp2230
g73
(dp2231
g100
g101
ssg82
g2221
sg75
(lp2232
S':'
asbag68
(g89
g70
NtRp2233
(dp2234
g73
(dp2235
sg82
g2221
sg75
(lp2236
g68
(g69
g70
NtRp2237
(dp2238
g73
(dp2239
g81
I4
ssg82
g2233
sg75
(lp2240
g111
asbasbasbag68
(g84
g70
NtRp2241
(dp2242
g73
(dp2243
sg82
g2070
sg75
(lp2244
g68
(g89
g70
NtRp2245
(dp2246
g73
(dp2247
g93
g94
ssg82
g2241
sg75
(lp2248
g1634
asbag68
(g89
g70
NtRp2249
(dp2250
g73
(dp2251
g100
g101
ssg82
g2241
sg75
(lp2252
S':'
asbag68
(g89
g70
NtRp2253
(dp2254
g73
(dp2255
sg82
g2241
sg75
(lp2256
g68
(g69
g70
NtRp2257
(dp2258
g73
(dp2259
g81
I4
ssg82
g2253
sg75
(lp2260
g1647
asbasbasbag68
(g84
g70
NtRp2261
(dp2262
g73
(dp2263
sg82
g2070
sg75
(lp2264
g68
(g89
g70
NtRp2265
(dp2266
g73
(dp2267
g93
g94
ssg82
g2261
sg75
(lp2268
g1677
asbag68
(g89
g70
NtRp2269
(dp2270
g73
(dp2271
g100
g101
ssg82
g2261
sg75
(lp2272
S':'
asbag68
(g89
g70
NtRp2273
(dp2274
g73
(dp2275
sg82
g2261
sg75
(lp2276
g68
(g69
g70
NtRp2277
(dp2278
g73
(dp2279
g81
I4
ssg82
g2273
sg75
(lp2280
g68
(g77
g70
NtRp2281
(dp2282
g73
(dp2283
g81
I3
ssg82
Nsg75
(lp2284
g68
(g84
g70
NtRp2285
(dp2286
g73
(dp2287
sg82
g2281
sg75
(lp2288
g68
(g89
g70
NtRp2289
(dp2290
g73
(dp2291
sg82
g2285
sg75
(lp2292
g68
(g69
g70
NtRp2293
(dp2294
g73
(dp2295
g81
I3
ssg82
g2289
sg75
(lp2296
S'1'
asbasbasbag68
(g84
g70
NtRp2297
(dp2298
g73
(dp2299
sg82
g2281
sg75
(lp2300
g68
(g89
g70
NtRp2301
(dp2302
g73
(dp2303
sg82
g2297
sg75
(lp2304
g68
(g69
g70
NtRp2305
(dp2306
g73
(dp2307
g81
I3
ssg82
g2301
sg75
(lp2308
S'99'
p2309
asbasbasbag68
(g84
g70
NtRp2310
(dp2311
g73
(dp2312
sg82
g2281
sg75
(lp2313
g68
(g89
g70
NtRp2314
(dp2315
g73
(dp2316
sg82
g2310
sg75
(lp2317
g68
(g69
g70
NtRp2318
(dp2319
g73
(dp2320
g81
I3
ssg82
g2314
sg75
(lp2321
S'2'
asbasbasbag68
(g84
g70
NtRp2322
(dp2323
g73
(dp2324
sg82
g2281
sg75
(lp2325
g68
(g89
g70
NtRp2326
(dp2327
g73
(dp2328
sg82
g2322
sg75
(lp2329
g68
(g69
g70
NtRp2330
(dp2331
g73
(dp2332
g81
I3
ssg82
g2326
sg75
(lp2333
S'datetime.datetime(2011, 9, 26, 6, 55, 33)'
p2334
asbasbasbag68
(g84
g70
NtRp2335
(dp2336
g73
(dp2337
sg82
g2281
sg75
(lp2338
g68
(g89
g70
NtRp2339
(dp2340
g73
(dp2341
sg82
g2335
sg75
(lp2342
g68
(g69
g70
NtRp2343
(dp2344
g73
(dp2345
g81
I3
ssg82
g2339
sg75
(lp2346
g1756
asbasbasbasbasbasbasbasbasbasbasbag68
(g84
g70
NtRp2347
(dp2348
g73
(dp2349
sg82
g78
sg75
(lp2350
g68
(g89
g70
NtRp2351
(dp2352
g73
(dp2353
g93
g94
ssg82
g2347
sg75
(lp2354
S'is_https'
p2355
asbag68
(g89
g70
NtRp2356
(dp2357
g73
(dp2358
g100
g101
ssg82
g2347
sg75
(lp2359
S':'
asbag68
(g89
g70
NtRp2360
(dp2361
g73
(dp2362
sg82
g2347
sg75
(lp2363
g68
(g69
g70
NtRp2364
(dp2365
g73
(dp2366
g81
I5
ssg82
g2360
sg75
(lp2367
g111
asbasbasbag68
(g84
g70
NtRp2368
(dp2369
g73
(dp2370
sg82
g78
sg75
(lp2371
g68
(g89
g70
NtRp2372
(dp2373
g73
(dp2374
g93
g94
ssg82
g2368
sg75
(lp2375
S'is_local'
p2376
asbag68
(g89
g70
NtRp2377
(dp2378
g73
(dp2379
g100
g101
ssg82
g2368
sg75
(lp2380
S':'
asbag68
(g89
g70
NtRp2381
(dp2382
g73
(dp2383
sg82
g2368
sg75
(lp2384
g68
(g69
g70
NtRp2385
(dp2386
g73
(dp2387
g81
I5
ssg82
g2381
sg75
(lp2388
g1865
asbasbasbag68
(g84
g70
NtRp2389
(dp2390
g73
(dp2391
sg82
g78
sg75
(lp2392
g68
(g89
g70
NtRp2393
(dp2394
g73
(dp2395
g93
g94
ssg82
g2389
sg75
(lp2396
S'is_restful'
p2397
asbag68
(g89
g70
NtRp2398
(dp2399
g73
(dp2400
g100
g101
ssg82
g2389
sg75
(lp2401
S':'
asbag68
(g89
g70
NtRp2402
(dp2403
g73
(dp2404
sg82
g2389
sg75
(lp2405
g68
(g69
g70
NtRp2406
(dp2407
g73
(dp2408
g81
I5
ssg82
g2402
sg75
(lp2409
g111
asbasbasbag68
(g84
g70
NtRp2410
(dp2411
g73
(dp2412
sg82
g78
sg75
(lp2413
g68
(g89
g70
NtRp2414
(dp2415
g73
(dp2416
g93
g94
ssg82
g2410
sg75
(lp2417
S'now'
p2418
asbag68
(g89
g70
NtRp2419
(dp2420
g73
(dp2421
g100
g101
ssg82
g2410
sg75
(lp2422
S':'
asbag68
(g89
g70
NtRp2423
(dp2424
g73
(dp2425
sg82
g2410
sg75
(lp2426
g68
(g69
g70
NtRp2427
(dp2428
g73
(dp2429
g81
I5
ssg82
g2423
sg75
(lp2430
S'datetime.datetime(2011, 11, 9, 11, 23, 43, 489963)'
p2431
asbasbasbag68
(g84
g70
NtRp2432
(dp2433
g73
(dp2434
sg82
g78
sg75
(lp2435
g68
(g89
g70
NtRp2436
(dp2437
g73
(dp2438
g93
g94
ssg82
g2432
sg75
(lp2439
S'post_vars'
p2440
asbag68
(g89
g70
NtRp2441
(dp2442
g73
(dp2443
g100
g101
ssg82
g2432
sg75
(lp2444
S':'
asbag68
(g89
g70
NtRp2445
(dp2446
g73
(dp2447
sg82
g2432
sg75
(lp2448
g68
(g69
g70
NtRp2449
(dp2450
g73
(dp2451
g81
I5
ssg82
g2445
sg75
(lp2452
g68
(g77
g70
NtRp2453
(dp2454
g73
(dp2455
g81
I4
ssg82
Nsg75
(lp2456
sbasbasbasbag68
(g84
g70
NtRp2457
(dp2458
g73
(dp2459
sg82
g78
sg75
(lp2460
g68
(g89
g70
NtRp2461
(dp2462
g73
(dp2463
g93
g94
ssg82
g2457
sg75
(lp2464
S'raw_args'
p2465
asbag68
(g89
g70
NtRp2466
(dp2467
g73
(dp2468
g100
g101
ssg82
g2457
sg75
(lp2469
S':'
asbag68
(g89
g70
NtRp2470
(dp2471
g73
(dp2472
sg82
g2457
sg75
(lp2473
g68
(g69
g70
NtRp2474
(dp2475
g73
(dp2476
g81
I5
ssg82
g2470
sg75
(lp2477
S'1'
asbasbasbag68
(g84
g70
NtRp2478
(dp2479
g73
(dp2480
sg82
g78
sg75
(lp2481
g68
(g89
g70
NtRp2482
(dp2483
g73
(dp2484
g93
g94
ssg82
g2478
sg75
(lp2485
S'url'
p2486
asbag68
(g89
g70
NtRp2487
(dp2488
g73
(dp2489
g100
g101
ssg82
g2478
sg75
(lp2490
S':'
asbag68
(g89
g70
NtRp2491
(dp2492
g73
(dp2493
sg82
g2478
sg75
(lp2494
g68
(g69
g70
NtRp2495
(dp2496
g73
(dp2497
g81
I5
ssg82
g2491
sg75
(lp2498
S'/grades/default/create_grade/1'
p2499
asbasbasbag68
(g84
g70
NtRp2500
(dp2501
g73
(dp2502
sg82
g78
sg75
(lp2503
g68
(g89
g70
NtRp2504
(dp2505
g73
(dp2506
g93
g94
ssg82
g2500
sg75
(lp2507
S'utcnow'
p2508
asbag68
(g89
g70
NtRp2509
(dp2510
g73
(dp2511
g100
g101
ssg82
g2500
sg75
(lp2512
S':'
asbag68
(g89
g70
NtRp2513
(dp2514
g73
(dp2515
sg82
g2500
sg75
(lp2516
g68
(g69
g70
NtRp2517
(dp2518
g73
(dp2519
g81
I5
ssg82
g2513
sg75
(lp2520
S'datetime.datetime(2011, 11, 9, 16, 23, 43, 490006)'
p2521
asbasbasbag68
(g84
g70
NtRp2522
(dp2523
g73
(dp2524
sg82
g78
sg75
(lp2525
g68
(g89
g70
NtRp2526
(dp2527
g73
(dp2528
g93
g94
ssg82
g2522
sg75
(lp2529
S'uuid'
p2530
asbag68
(g89
g70
NtRp2531
(dp2532
g73
(dp2533
g100
g101
ssg82
g2522
sg75
(lp2534
S':'
asbag68
(g89
g70
NtRp2535
(dp2536
g73
(dp2537
sg82
g2522
sg75
(lp2538
g68
(g69
g70
NtRp2539
(dp2540
g73
(dp2541
g81
I5
ssg82
g2535
sg75
(lp2542
S'grades/127.0.0.1.2011-11-09.11-23-43.80273cb0-3d1f-4340-9fa6-0f64cb5cfd46'
p2543
asbasbasbag68
(g84
g70
NtRp2544
(dp2545
g73
(dp2546
sg82
g78
sg75
(lp2547
g68
(g89
g70
NtRp2548
(dp2549
g73
(dp2550
g93
g94
ssg82
g2544
sg75
(lp2551
S'vars'
p2552
asbag68
(g89
g70
NtRp2553
(dp2554
g73
(dp2555
g100
g101
ssg82
g2544
sg75
(lp2556
S':'
asbag68
(g89
g70
NtRp2557
(dp2558
g73
(dp2559
sg82
g2544
sg75
(lp2560
g68
(g69
g70
NtRp2561
(dp2562
g73
(dp2563
g81
I5
ssg82
g2557
sg75
(lp2564
g68
(g77
g70
NtRp2565
(dp2566
g73
(dp2567
g81
I4
ssg82
Nsg75
(lp2568
sbasbasbasbag68
(g84
g70
NtRp2569
(dp2570
g73
(dp2571
sg82
g78
sg75
(lp2572
g68
(g89
g70
NtRp2573
(dp2574
g73
(dp2575
g93
g94
ssg82
g2569
sg75
(lp2576
S'wsgi'
p2577
asbag68
(g89
g70
NtRp2578
(dp2579
g73
(dp2580
g100
g101
ssg82
g2569
sg75
(lp2581
S':'
asbag68
(g89
g70
NtRp2582
(dp2583
g73
(dp2584
sg82
g2569
sg75
(lp2585
g68
(g69
g70
NtRp2586
(dp2587
g73
(dp2588
g81
I5
ssg82
g2582
sg75
(lp2589
g68
(g77
g70
NtRp2590
(dp2591
g73
(dp2592
g81
I4
ssg82
Nsg75
(lp2593
g68
(g84
g70
NtRp2594
(dp2595
g73
(dp2596
sg82
g2590
sg75
(lp2597
g68
(g89
g70
NtRp2598
(dp2599
g73
(dp2600
g93
g94
ssg82
g2594
sg75
(lp2601
S'environ'
p2602
asbag68
(g89
g70
NtRp2603
(dp2604
g73
(dp2605
g100
g101
ssg82
g2594
sg75
(lp2606
S':'
asbag68
(g89
g70
NtRp2607
(dp2608
g73
(dp2609
sg82
g2594
sg75
(lp2610
g68
(g69
g70
NtRp2611
(dp2612
g73
(dp2613
g81
I4
ssg82
g2607
sg75
(lp2614
g68
(g77
g70
NtRp2615
(dp2616
g73
(dp2617
g81
I3
ssg82
Nsg75
(lp2618
g68
(g84
g70
NtRp2619
(dp2620
g73
(dp2621
sg82
g2615
sg75
(lp2622
g68
(g89
g70
NtRp2623
(dp2624
g73
(dp2625
g93
g94
ssg82
g2619
sg75
(lp2626
S'HTTP_ACCEPT'
p2627
asbag68
(g89
g70
NtRp2628
(dp2629
g73
(dp2630
g100
g101
ssg82
g2619
sg75
(lp2631
S':'
asbag68
(g89
g70
NtRp2632
(dp2633
g73
(dp2634
sg82
g2619
sg75
(lp2635
g68
(g69
g70
NtRp2636
(dp2637
g73
(dp2638
g81
I3
ssg82
g2632
sg75
(lp2639
g1211
asbasbasbag68
(g84
g70
NtRp2640
(dp2641
g73
(dp2642
sg82
g2615
sg75
(lp2643
g68
(g89
g70
NtRp2644
(dp2645
g73
(dp2646
g93
g94
ssg82
g2640
sg75
(lp2647
S'HTTP_ACCEPT_ENCODING'
p2648
asbag68
(g89
g70
NtRp2649
(dp2650
g73
(dp2651
g100
g101
ssg82
g2640
sg75
(lp2652
S':'
asbag68
(g89
g70
NtRp2653
(dp2654
g73
(dp2655
sg82
g2640
sg75
(lp2656
g68
(g69
g70
NtRp2657
(dp2658
g73
(dp2659
g81
I3
ssg82
g2653
sg75
(lp2660
g1233
asbasbasbag68
(g84
g70
NtRp2661
(dp2662
g73
(dp2663
sg82
g2615
sg75
(lp2664
g68
(g89
g70
NtRp2665
(dp2666
g73
(dp2667
g93
g94
ssg82
g2661
sg75
(lp2668
S'HTTP_ACCEPT_LANGUAGE'
p2669
asbag68
(g89
g70
NtRp2670
(dp2671
g73
(dp2672
g100
g101
ssg82
g2661
sg75
(lp2673
S':'
asbag68
(g89
g70
NtRp2674
(dp2675
g73
(dp2676
sg82
g2661
sg75
(lp2677
g68
(g69
g70
NtRp2678
(dp2679
g73
(dp2680
g81
I3
ssg82
g2674
sg75
(lp2681
g1255
asbasbasbag68
(g84
g70
NtRp2682
(dp2683
g73
(dp2684
sg82
g2615
sg75
(lp2685
g68
(g89
g70
NtRp2686
(dp2687
g73
(dp2688
g93
g94
ssg82
g2682
sg75
(lp2689
S'HTTP_CACHE_CONTROL'
p2690
asbag68
(g89
g70
NtRp2691
(dp2692
g73
(dp2693
g100
g101
ssg82
g2682
sg75
(lp2694
S':'
asbag68
(g89
g70
NtRp2695
(dp2696
g73
(dp2697
sg82
g2682
sg75
(lp2698
g68
(g69
g70
NtRp2699
(dp2700
g73
(dp2701
g81
I3
ssg82
g2695
sg75
(lp2702
g1277
asbasbasbag68
(g84
g70
NtRp2703
(dp2704
g73
(dp2705
sg82
g2615
sg75
(lp2706
g68
(g89
g70
NtRp2707
(dp2708
g73
(dp2709
g93
g94
ssg82
g2703
sg75
(lp2710
S'HTTP_CONNECTION'
p2711
asbag68
(g89
g70
NtRp2712
(dp2713
g73
(dp2714
g100
g101
ssg82
g2703
sg75
(lp2715
S':'
asbag68
(g89
g70
NtRp2716
(dp2717
g73
(dp2718
sg82
g2703
sg75
(lp2719
g68
(g69
g70
NtRp2720
(dp2721
g73
(dp2722
g81
I3
ssg82
g2716
sg75
(lp2723
g1299
asbasbasbag68
(g84
g70
NtRp2724
(dp2725
g73
(dp2726
sg82
g2615
sg75
(lp2727
g68
(g89
g70
NtRp2728
(dp2729
g73
(dp2730
g93
g94
ssg82
g2724
sg75
(lp2731
S'HTTP_COOKIE'
p2732
asbag68
(g89
g70
NtRp2733
(dp2734
g73
(dp2735
g100
g101
ssg82
g2724
sg75
(lp2736
S':'
asbag68
(g89
g70
NtRp2737
(dp2738
g73
(dp2739
sg82
g2724
sg75
(lp2740
g68
(g69
g70
NtRp2741
(dp2742
g73
(dp2743
g81
I3
ssg82
g2737
sg75
(lp2744
g1321
asbasbasbag68
(g84
g70
NtRp2745
(dp2746
g73
(dp2747
sg82
g2615
sg75
(lp2748
g68
(g89
g70
NtRp2749
(dp2750
g73
(dp2751
g93
g94
ssg82
g2745
sg75
(lp2752
S'HTTP_HOST'
p2753
asbag68
(g89
g70
NtRp2754
(dp2755
g73
(dp2756
g100
g101
ssg82
g2745
sg75
(lp2757
S':'
asbag68
(g89
g70
NtRp2758
(dp2759
g73
(dp2760
sg82
g2745
sg75
(lp2761
g68
(g69
g70
NtRp2762
(dp2763
g73
(dp2764
g81
I3
ssg82
g2758
sg75
(lp2765
g1343
asbasbasbag68
(g84
g70
NtRp2766
(dp2767
g73
(dp2768
sg82
g2615
sg75
(lp2769
g68
(g89
g70
NtRp2770
(dp2771
g73
(dp2772
g93
g94
ssg82
g2766
sg75
(lp2773
S'HTTP_REFERER'
p2774
asbag68
(g89
g70
NtRp2775
(dp2776
g73
(dp2777
g100
g101
ssg82
g2766
sg75
(lp2778
S':'
asbag68
(g89
g70
NtRp2779
(dp2780
g73
(dp2781
sg82
g2766
sg75
(lp2782
g68
(g69
g70
NtRp2783
(dp2784
g73
(dp2785
g81
I3
ssg82
g2779
sg75
(lp2786
g1365
asbasbasbag68
(g84
g70
NtRp2787
(dp2788
g73
(dp2789
sg82
g2615
sg75
(lp2790
g68
(g89
g70
NtRp2791
(dp2792
g73
(dp2793
g93
g94
ssg82
g2787
sg75
(lp2794
S'HTTP_USER_AGENT'
p2795
asbag68
(g89
g70
NtRp2796
(dp2797
g73
(dp2798
g100
g101
ssg82
g2787
sg75
(lp2799
S':'
asbag68
(g89
g70
NtRp2800
(dp2801
g73
(dp2802
sg82
g2787
sg75
(lp2803
g68
(g69
g70
NtRp2804
(dp2805
g73
(dp2806
g81
I3
ssg82
g2800
sg75
(lp2807
g1387
asbasbasbag68
(g84
g70
NtRp2808
(dp2809
g73
(dp2810
sg82
g2615
sg75
(lp2811
g68
(g89
g70
NtRp2812
(dp2813
g73
(dp2814
g93
g94
ssg82
g2808
sg75
(lp2815
S'PATH_INFO'
p2816
asbag68
(g89
g70
NtRp2817
(dp2818
g73
(dp2819
g100
g101
ssg82
g2808
sg75
(lp2820
S':'
asbag68
(g89
g70
NtRp2821
(dp2822
g73
(dp2823
sg82
g2808
sg75
(lp2824
g68
(g69
g70
NtRp2825
(dp2826
g73
(dp2827
g81
I3
ssg82
g2821
sg75
(lp2828
g1430
asbasbasbag68
(g84
g70
NtRp2829
(dp2830
g73
(dp2831
sg82
g2615
sg75
(lp2832
g68
(g89
g70
NtRp2833
(dp2834
g73
(dp2835
g93
g94
ssg82
g2829
sg75
(lp2836
S'QUERY_STRING'
p2837
asbag68
(g89
g70
NtRp2838
(dp2839
g73
(dp2840
g100
g101
ssg82
g2829
sg75
(lp2841
S':'
asbag68
(g89
g70
NtRp2842
(dp2843
g73
(dp2844
sg82
g2829
sg75
(lp2845
g68
(g69
g70
NtRp2846
(dp2847
g73
(dp2848
g81
I3
ssg82
g2842
sg75
(lp2849
S''
asbasbasbag68
(g84
g70
NtRp2850
(dp2851
g73
(dp2852
sg82
g2615
sg75
(lp2853
g68
(g89
g70
NtRp2854
(dp2855
g73
(dp2856
g93
g94
ssg82
g2850
sg75
(lp2857
S'REMOTE_ADDR'
p2858
asbag68
(g89
g70
NtRp2859
(dp2860
g73
(dp2861
g100
g101
ssg82
g2850
sg75
(lp2862
S':'
asbag68
(g89
g70
NtRp2863
(dp2864
g73
(dp2865
sg82
g2850
sg75
(lp2866
g68
(g69
g70
NtRp2867
(dp2868
g73
(dp2869
g81
I3
ssg82
g2863
sg75
(lp2870
g213
asbasbasbag68
(g84
g70
NtRp2871
(dp2872
g73
(dp2873
sg82
g2615
sg75
(lp2874
g68
(g89
g70
NtRp2875
(dp2876
g73
(dp2877
g93
g94
ssg82
g2871
sg75
(lp2878
S'REMOTE_PORT'
p2879
asbag68
(g89
g70
NtRp2880
(dp2881
g73
(dp2882
g100
g101
ssg82
g2871
sg75
(lp2883
S':'
asbag68
(g89
g70
NtRp2884
(dp2885
g73
(dp2886
sg82
g2871
sg75
(lp2887
g68
(g69
g70
NtRp2888
(dp2889
g73
(dp2890
g81
I3
ssg82
g2884
sg75
(lp2891
g1494
asbasbasbag68
(g84
g70
NtRp2892
(dp2893
g73
(dp2894
sg82
g2615
sg75
(lp2895
g68
(g89
g70
NtRp2896
(dp2897
g73
(dp2898
g93
g94
ssg82
g2892
sg75
(lp2899
S'REQUEST_METHOD'
p2900
asbag68
(g89
g70
NtRp2901
(dp2902
g73
(dp2903
g100
g101
ssg82
g2892
sg75
(lp2904
S':'
asbag68
(g89
g70
NtRp2905
(dp2906
g73
(dp2907
sg82
g2892
sg75
(lp2908
g68
(g69
g70
NtRp2909
(dp2910
g73
(dp2911
g81
I3
ssg82
g2905
sg75
(lp2912
g1516
asbasbasbag68
(g84
g70
NtRp2913
(dp2914
g73
(dp2915
sg82
g2615
sg75
(lp2916
g68
(g89
g70
NtRp2917
(dp2918
g73
(dp2919
g93
g94
ssg82
g2913
sg75
(lp2920
S'SCRIPT_NAME'
p2921
asbag68
(g89
g70
NtRp2922
(dp2923
g73
(dp2924
g100
g101
ssg82
g2913
sg75
(lp2925
S':'
asbag68
(g89
g70
NtRp2926
(dp2927
g73
(dp2928
sg82
g2913
sg75
(lp2929
g68
(g69
g70
NtRp2930
(dp2931
g73
(dp2932
g81
I3
ssg82
g2926
sg75
(lp2933
S''
asbasbasbag68
(g84
g70
NtRp2934
(dp2935
g73
(dp2936
sg82
g2615
sg75
(lp2937
g68
(g89
g70
NtRp2938
(dp2939
g73
(dp2940
g93
g94
ssg82
g2934
sg75
(lp2941
S'SERVER_NAME'
p2942
asbag68
(g89
g70
NtRp2943
(dp2944
g73
(dp2945
g100
g101
ssg82
g2934
sg75
(lp2946
S':'
asbag68
(g89
g70
NtRp2947
(dp2948
g73
(dp2949
sg82
g2934
sg75
(lp2950
g68
(g69
g70
NtRp2951
(dp2952
g73
(dp2953
g81
I3
ssg82
g2947
sg75
(lp2954
g1559
asbasbasbag68
(g84
g70
NtRp2955
(dp2956
g73
(dp2957
sg82
g2615
sg75
(lp2958
g68
(g89
g70
NtRp2959
(dp2960
g73
(dp2961
g93
g94
ssg82
g2955
sg75
(lp2962
S'SERVER_PORT'
p2963
asbag68
(g89
g70
NtRp2964
(dp2965
g73
(dp2966
g100
g101
ssg82
g2955
sg75
(lp2967
S':'
asbag68
(g89
g70
NtRp2968
(dp2969
g73
(dp2970
sg82
g2955
sg75
(lp2971
g68
(g69
g70
NtRp2972
(dp2973
g73
(dp2974
g81
I3
ssg82
g2968
sg75
(lp2975
g1581
asbasbasbag68
(g84
g70
NtRp2976
(dp2977
g73
(dp2978
sg82
g2615
sg75
(lp2979
g68
(g89
g70
NtRp2980
(dp2981
g73
(dp2982
g93
g94
ssg82
g2976
sg75
(lp2983
S'SERVER_PROTOCOL'
p2984
asbag68
(g89
g70
NtRp2985
(dp2986
g73
(dp2987
g100
g101
ssg82
g2976
sg75
(lp2988
S':'
asbag68
(g89
g70
NtRp2989
(dp2990
g73
(dp2991
sg82
g2976
sg75
(lp2992
g68
(g69
g70
NtRp2993
(dp2994
g73
(dp2995
g81
I3
ssg82
g2989
sg75
(lp2996
g1603
asbasbasbag68
(g84
g70
NtRp2997
(dp2998
g73
(dp2999
sg82
g2615
sg75
(lp3000
g68
(g89
g70
NtRp3001
(dp3002
g73
(dp3003
g93
g94
ssg82
g2997
sg75
(lp3004
S'SERVER_SOFTWARE'
p3005
asbag68
(g89
g70
NtRp3006
(dp3007
g73
(dp3008
g100
g101
ssg82
g2997
sg75
(lp3009
S':'
asbag68
(g89
g70
NtRp3010
(dp3011
g73
(dp3012
sg82
g2997
sg75
(lp3013
g68
(g69
g70
NtRp3014
(dp3015
g73
(dp3016
g81
I3
ssg82
g3010
sg75
(lp3017
g1625
asbasbasbag68
(g84
g70
NtRp3018
(dp3019
g73
(dp3020
sg82
g2615
sg75
(lp3021
g68
(g89
g70
NtRp3022
(dp3023
g73
(dp3024
g93
g94
ssg82
g3018
sg75
(lp3025
S'wsgi.errors'
p3026
asbag68
(g89
g70
NtRp3027
(dp3028
g73
(dp3029
g100
g101
ssg82
g3018
sg75
(lp3030
S':'
asbag68
(g89
g70
NtRp3031
(dp3032
g73
(dp3033
sg82
g3018
sg75
(lp3034
g68
(g69
g70
NtRp3035
(dp3036
g73
(dp3037
g81
I3
ssg82
g3031
sg75
(lp3038
S"<open file '<stderr>', mode 'w' at 0x7f9678b3d270>"
p3039
asbasbasbag68
(g84
g70
NtRp3040
(dp3041
g73
(dp3042
sg82
g2615
sg75
(lp3043
g68
(g89
g70
NtRp3044
(dp3045
g73
(dp3046
g93
g94
ssg82
g3040
sg75
(lp3047
S'wsgi.file_wrapper'
p3048
asbag68
(g89
g70
NtRp3049
(dp3050
g73
(dp3051
g100
g101
ssg82
g3040
sg75
(lp3052
S':'
asbag68
(g89
g70
NtRp3053
(dp3054
g73
(dp3055
sg82
g3040
sg75
(lp3056
g68
(g69
g70
NtRp3057
(dp3058
g73
(dp3059
g81
I3
ssg82
g3053
sg75
(lp3060
S'<class wsgiref.util.FileWrapper at 0x1ec9870>'
p3061
asbasbasbag68
(g84
g70
NtRp3062
(dp3063
g73
(dp3064
sg82
g2615
sg75
(lp3065
g68
(g89
g70
NtRp3066
(dp3067
g73
(dp3068
g93
g94
ssg82
g3062
sg75
(lp3069
S'wsgi.input'
p3070
asbag68
(g89
g70
NtRp3071
(dp3072
g73
(dp3073
g100
g101
ssg82
g3062
sg75
(lp3074
S':'
asbag68
(g89
g70
NtRp3075
(dp3076
g73
(dp3077
sg82
g3062
sg75
(lp3078
g68
(g69
g70
NtRp3079
(dp3080
g73
(dp3081
g81
I3
ssg82
g3075
sg75
(lp3082
S'<cStringIO.StringO object at 0x34071f0>'
p3083
asbasbasbag68
(g84
g70
NtRp3084
(dp3085
g73
(dp3086
sg82
g2615
sg75
(lp3087
g68
(g89
g70
NtRp3088
(dp3089
g73
(dp3090
g93
g94
ssg82
g3084
sg75
(lp3091
S'wsgi.multiprocess'
p3092
asbag68
(g89
g70
NtRp3093
(dp3094
g73
(dp3095
g100
g101
ssg82
g3084
sg75
(lp3096
S':'
asbag68
(g89
g70
NtRp3097
(dp3098
g73
(dp3099
sg82
g3084
sg75
(lp3100
g68
(g69
g70
NtRp3101
(dp3102
g73
(dp3103
g81
I3
ssg82
g3097
sg75
(lp3104
g111
asbasbasbag68
(g84
g70
NtRp3105
(dp3106
g73
(dp3107
sg82
g2615
sg75
(lp3108
g68
(g89
g70
NtRp3109
(dp3110
g73
(dp3111
g93
g94
ssg82
g3105
sg75
(lp3112
S'wsgi.multithread'
p3113
asbag68
(g89
g70
NtRp3114
(dp3115
g73
(dp3116
g100
g101
ssg82
g3105
sg75
(lp3117
S':'
asbag68
(g89
g70
NtRp3118
(dp3119
g73
(dp3120
sg82
g3105
sg75
(lp3121
g68
(g69
g70
NtRp3122
(dp3123
g73
(dp3124
g81
I3
ssg82
g3118
sg75
(lp3125
g1865
asbasbasbag68
(g84
g70
NtRp3126
(dp3127
g73
(dp3128
sg82
g2615
sg75
(lp3129
g68
(g89
g70
NtRp3130
(dp3131
g73
(dp3132
g93
g94
ssg82
g3126
sg75
(lp3133
S'wsgi.run_once'
p3134
asbag68
(g89
g70
NtRp3135
(dp3136
g73
(dp3137
g100
g101
ssg82
g3126
sg75
(lp3138
S':'
asbag68
(g89
g70
NtRp3139
(dp3140
g73
(dp3141
sg82
g3126
sg75
(lp3142
g68
(g69
g70
NtRp3143
(dp3144
g73
(dp3145
g81
I3
ssg82
g3139
sg75
(lp3146
g111
asbasbasbag68
(g84
g70
NtRp3147
(dp3148
g73
(dp3149
sg82
g2615
sg75
(lp3150
g68
(g89
g70
NtRp3151
(dp3152
g73
(dp3153
g93
g94
ssg82
g3147
sg75
(lp3154
S'wsgi.url_scheme'
p3155
asbag68
(g89
g70
NtRp3156
(dp3157
g73
(dp3158
g100
g101
ssg82
g3147
sg75
(lp3159
S':'
asbag68
(g89
g70
NtRp3160
(dp3161
g73
(dp3162
sg82
g3147
sg75
(lp3163
g68
(g69
g70
NtRp3164
(dp3165
g73
(dp3166
g81
I3
ssg82
g3160
sg75
(lp3167
g1908
asbasbasbag68
(g84
g70
NtRp3168
(dp3169
g73
(dp3170
sg82
g2615
sg75
(lp3171
g68
(g89
g70
NtRp3172
(dp3173
g73
(dp3174
g93
g94
ssg82
g3168
sg75
(lp3175
S'wsgi.version'
p3176
asbag68
(g89
g70
NtRp3177
(dp3178
g73
(dp3179
g100
g101
ssg82
g3168
sg75
(lp3180
S':'
asbag68
(g89
g70
NtRp3181
(dp3182
g73
(dp3183
sg82
g3168
sg75
(lp3184
g68
(g69
g70
NtRp3185
(dp3186
g73
(dp3187
g81
I3
ssg82
g3181
sg75
(lp3188
S'1'
asbasbasbasbasbasbasbasbasbasbasbasbasbsS'frames'
p3189
(lp3190
(dp3191
S'file'
p3192
S'/home/ian/web2py/gluon/restricted.py'
p3193
sS'dump'
p3194
(dp3195
S'environment'
p3196
S"{'A': <class 'gluon.html.A'>, 'Auth': <class 'gluon.tools.Auth'>, 'B': <class 'gluon.html.B'>, 'BEAUTIFY': <class 'gluon.html.BEAUTIFY'>, 'BODY': <class 'gluon.html.BODY'>, 'BR': <class 'gluon.html.BR'>, 'BUTTON': <class 'gluon.html.BUTTON'>, 'CAT': <class 'gluon.html.CAT'>, 'CENTER': <class 'gluon.html.CENTER'>, 'CLEANUP': <class 'gluon.validators.CLEANUP'>, ...}"
p3197
sS'ccode'
p3198
S'<code object <module> at 0x319ebb0, file "/home/...lications/grades/controllers/default.py", line 1>'
p3199
ssS'lnum'
p3200
I194
sS'lines'
p3201
(dp3202
I192
S'        else:'
p3203
sI193
S'            ccode = compile2(code,layer)'
p3204
sI194
S'        exec ccode in environment'
p3205
sI195
S'    except HTTP:'
p3206
sI196
S'        raise'
p3207
sI197
S'    except Exception, error:'
p3208
sI198
S'        # XXX Show exception in Wing IDE if running in debugger'
p3209
sI189
S'    try:'
p3210
sI190
S'        if type(code) == types.CodeType:'
p3211
sI191
S'            ccode = code'
p3212
ssS'call'
p3213
S"(code='# -*- coding: utf-8 -*-\\nif 0:\\n    from gluon imp...  \\nresponse._vars=response._caller(create_grade)\\n', environment={'A': <class 'gluon.html.A'>, 'Auth': <class 'gluon.tools.Auth'>, 'B': <class 'gluon.html.B'>, 'BEAUTIFY': <class 'gluon.html.BEAUTIFY'>, 'BODY': <class 'gluon.html.BODY'>, 'BR': <class 'gluon.html.BR'>, 'BUTTON': <class 'gluon.html.BUTTON'>, 'CAT': <class 'gluon.html.CAT'>, 'CENTER': <class 'gluon.html.CENTER'>, 'CLEANUP': <class 'gluon.validators.CLEANUP'>, ...}, layer='/home/ian/web2py/applications/grades/controllers/default.py')"
p3214
sS'func'
p3215
S'restricted'
p3216
sa(dp3217
g3192
S'/home/ian/web2py/applications/grades/controllers/default.py'
p3218
sg3194
(dp3219
sg3200
I78
sg3201
(dp3220
I68
S'            dates = g[the_course]'
p3221
sI69
S'            if the_date in dates:'
p3222
sI70
S'                dates[the_date].append(r.grade)'
p3223
sI71
S'            else:'
p3224
sI72
S'                dates[the_date] = [r.grade]'
p3225
sI73
S'        else:'
p3226
sI74
S'            l = [r.grade]'
p3227
sI75
S'            the_date = r.class_date'
p3228
sI76
S'            g[r.course] = dict(the_date = l)'
p3229
sI77
S'    return dict(grades = g, students = students, student = student)'
p3230
ssg3213
S'()'
p3231
sg3215
S'<module>'
p3232
sa(dp3233
g3192
S'/home/ian/web2py/gluon/globals.py'
p3234
sg3194
(dp3235
S'self'
p3236
S'undefined'
p3237
sS'f'
S'<function create_grade>'
p3238
ssg3200
I149
sg3201
(dp3239
I144
S'        self.meta = Storage()      # used by web2py_ajax.html'
p3240
sI145
S'        self.menu = []             # used by the default view layout'
p3241
sI146
S'        self.files = []            # used by web2py_ajax.html'
p3242
sI147
S'        self.generic_patterns = [] # patterns to allow generic views'
p3243
sI148
S'        self._vars = None'
p3244
sI149
S'        self._caller = lambda f: f()'
p3245
sI150
S'        self._view_environment = None'
p3246
sI151
S'        self._custom_commit = None'
p3247
sI152
S'        self._custom_rollback = None'
p3248
sI153
S''
ssg3213
S'(f=<function create_grade>)'
p3249
sg3215
S'<lambda>'
p3250
sa(dp3251
g3192
S'/home/ian/web2py/gluon/tools.py'
p3252
sg3194
(dp3253
S'action'
p3254
S'<function create_grade>'
p3255
sS'a'
S'()'
p3256
sS'b'
g20
ssg3200
I2456
sg3201
(dp3257
I2451
S"                            '?_next='+urllib.quote(next))"
p3258
sI2452
S'                if not condition:'
p3259
sI2453
S'                    current.session.flash = self.messages.access_denied'
p3260
sI2454
S'                    return call_or_redirect('
p3261
sI2455
S'                        self.settings.on_failed_authorization)'
p3262
sI2456
S'                return action(*a, **b)'
p3263
sI2457
S'            f.__doc__ = action.__doc__'
p3264
sI2458
S'            f.__name__ = action.__name__'
p3265
sI2459
S'            f.__dict__.update(action.__dict__)'
p3266
sI2460
S'            return f'
p3267
ssg3213
S'(*a=(), **b={})'
p3268
sg3215
S'f'
sa(dp3269
g3192
S'/home/ian/web2py/applications/grades/controllers/default.py'
p3270
sg3194
(dp3271
S'auth.user.id'
p3272
S'11'
p3273
sS'auth.user'
p3274
S"<Storage {'reset_password_key': '', 'first_name'...': '', 'email': 'scottianw@gmail.com', 'id': 11}>"
p3275
sS'the_user'
p3276
g3237
sS'global auth'
p3277
S'<gluon.tools.Auth object>'
p3278
sS').select'
p3279
g3237
sS'global db'
p3280
S"<DAL {'auth_event': <Table {'origin': <gluon.dal..., 'id': <gluon.dal.Field object at 0x30f56d0>}>}>"
p3281
sS'auth.user_id'
p3282
S'11'
p3283
ssg3200
I43
sg3201
(dp3284
I38
S'@auth.requires_login()'
p3285
sI39
S'def create_grade():'
p3286
sI40
S"    form = SQLFORM(db.grades, separator='', fields=['name', 'course', 'grade', 'class_date'], labels={'name':'Student receiving grade'})"
p3287
sI41
S'    if form.process().accepted:'
p3288
sI42
S"        response.flash = 'Thanks! The grade was recorded.'"
p3289
sI43
S'    the_user = db(auth.user.id == auth.user_id).select()'
p3290
sI44
S'    fn = the_user.first_name'
p3291
sI45
S"    cancel_button = A('cancel', _href=URL('index'), _class='cancel')"
p3292
sI46
S'    return dict(form = form, cancel_button = cancel_button, fn = fn)'
p3293
sI47
S''
ssg3213
S'()'
p3294
sg3215
S'create_grade'
p3295
sa(dp3296
g3192
S'/home/ian/web2py/gluon/dal.py'
p3297
sg3194
(dp3298
S'self.query'
p3299
g1865
sS'fields'
p3300
S'()'
p3301
sS'self'
p3302
S'<gluon.dal.Set object>'
p3303
sS'self.db._adapter.select'
p3304
S'<bound method SQLiteAdapter.select of <gluon.dal.SQLiteAdapter object>>'
p3305
sS'self.db._adapter'
p3306
S'<gluon.dal.SQLiteAdapter object>'
p3307
sS'attributes'
p3308
g20
sS'self.db'
p3309
S"<DAL {'auth_event': <Table {'origin': <gluon.dal..., 'id': <gluon.dal.Field object at 0x30f56d0>}>}>"
p3310
ssg3200
I5697
sg3201
(dp3311
I5696
S'    def select(self, *fields, **attributes):'
p3312
sI5697
S'        return self.db._adapter.select(self.query,fields,attributes)'
p3313
sI5698
S''
sI5699
S'    def delete(self):'
p3314
sI5700
S'        tablename=self.db._adapter.get_table(self.query)'
p3315
sI5701
S'        self.delete_uploaded_files()'
p3316
sI5692
S''
sI5693
S'    def count(self,distinct=None):'
p3317
sI5694
S'        return self.db._adapter.count(self.query,distinct)'
p3318
sI5695
S''
ssg3213
S'(self=<gluon.dal.Set object>, *fields=(), **attributes={})'
p3319
sg3215
S'select'
p3320
sa(dp3321
g3192
S'/home/ian/web2py/gluon/dal.py'
p3322
sg3194
(dp3323
S'self._select'
p3324
S'<bound method SQLiteAdapter._select of <gluon.dal.SQLiteAdapter object>>'
p3325
sS'fields'
p3326
S'()'
p3327
sS'self'
p3328
S'<gluon.dal.SQLiteAdapter object>'
p3329
sS'sql'
p3330
g3237
sS'query'
p3331
g1865
sS'attributes'
p3332
g20
ssg3200
I1225
sg3201
(dp3333
I1220
S'        Always returns a Rows object, even if it may be empty'
p3334
sI1221
S'        """'
p3335
sI1222
S'        def response(sql):'
p3336
sI1223
S'            self.execute(sql)'
p3337
sI1224
S'            return self.cursor.fetchall()'
p3338
sI1225
S'        sql = self._select(query,fields,attributes)'
p3339
sI1226
S"        if attributes.get('cache', None):"
p3340
sI1227
S"            (cache_model, time_expire) = attributes['cache']"
p3341
sI1228
S"            del attributes['cache']"
p3342
sI1229
S"            key = self.uri + '/' + sql"
p3343
ssg3213
S'(self=<gluon.dal.SQLiteAdapter object>, query=True, fields=(), attributes={})'
p3344
sg3215
g3320
sa(dp3345
g3192
S'/home/ian/web2py/gluon/dal.py'
p3346
sg3194
(dp3347
S'builtinSyntaxError'
p3348
S"<type 'exceptions.SyntaxError'>"
p3349
ssg3200
I1128
sg3201
(dp3350
I1123
S'                    field = self.db[tn][fn]'
p3351
sI1124
S'                for tablename in self.tables(field):'
p3352
sI1125
S'                    if not tablename in tablenames:'
p3353
sI1126
S'                        tablenames.append(tablename)'
p3354
sI1127
S'        if len(tablenames) < 1:'
p3355
sI1128
S"            raise SyntaxError, 'Set: no tables selected'"
p3356
sI1129
S"        sql_f = ', '.join(map(self.expand,fields))"
p3357
sI1130
S"        self._colnames = [c.strip() for c in sql_f.split(', ')]"
p3358
sI1131
S'        if query:'
p3359
sI1132
S"            sql_w = ' WHERE ' + self.expand(query)"
p3360
ssg3213
S'(self=<gluon.dal.SQLiteAdapter object>, query=True, fields=[], attributes={})'
p3361
sg3215
S'_select'
p3362
sasS'pyver'
p3363
S'Python 2.7.2+: /usr/bin/python2.7'
p3364
sS'session'
p3365
g68
(g69
g70
NtRp3366
(dp3367
g73
(dp3368
sg75
(lp3369
g68
(g77
g70
NtRp3370
(dp3371
g73
(dp3372
g81
I5
ssg82
Nsg75
(lp3373
g68
(g84
g70
NtRp3374
(dp3375
g73
(dp3376
sg82
g3370
sg75
(lp3377
g68
(g89
g70
NtRp3378
(dp3379
g73
(dp3380
g93
g94
ssg82
g3374
sg75
(lp3381
S'auth'
p3382
asbag68
(g89
g70
NtRp3383
(dp3384
g73
(dp3385
g100
g101
ssg82
g3374
sg75
(lp3386
S':'
asbag68
(g89
g70
NtRp3387
(dp3388
g73
(dp3389
sg82
g3374
sg75
(lp3390
g68
(g69
g70
NtRp3391
(dp3392
g73
(dp3393
g81
I5
ssg82
g3387
sg75
(lp3394
g68
(g77
g70
NtRp3395
(dp3396
g73
(dp3397
g81
I4
ssg82
Nsg75
(lp3398
g68
(g84
g70
NtRp3399
(dp3400
g73
(dp3401
sg82
g3395
sg75
(lp3402
g68
(g89
g70
NtRp3403
(dp3404
g73
(dp3405
g93
g94
ssg82
g3399
sg75
(lp3406
S'expiration'
p3407
asbag68
(g89
g70
NtRp3408
(dp3409
g73
(dp3410
g100
g101
ssg82
g3399
sg75
(lp3411
S':'
asbag68
(g89
g70
NtRp3412
(dp3413
g73
(dp3414
sg82
g3399
sg75
(lp3415
g68
(g69
g70
NtRp3416
(dp3417
g73
(dp3418
g81
I4
ssg82
g3412
sg75
(lp3419
S'2592000'
p3420
asbasbasbag68
(g84
g70
NtRp3421
(dp3422
g73
(dp3423
sg82
g3395
sg75
(lp3424
g68
(g89
g70
NtRp3425
(dp3426
g73
(dp3427
g93
g94
ssg82
g3421
sg75
(lp3428
S'hmac_key'
p3429
asbag68
(g89
g70
NtRp3430
(dp3431
g73
(dp3432
g100
g101
ssg82
g3421
sg75
(lp3433
S':'
asbag68
(g89
g70
NtRp3434
(dp3435
g73
(dp3436
sg82
g3421
sg75
(lp3437
g68
(g69
g70
NtRp3438
(dp3439
g73
(dp3440
g81
I4
ssg82
g3434
sg75
(lp3441
S'9b7ebcac-3930-4d2e-b821-147c95f7c4c2'
p3442
asbasbasbag68
(g84
g70
NtRp3443
(dp3444
g73
(dp3445
sg82
g3395
sg75
(lp3446
g68
(g89
g70
NtRp3447
(dp3448
g73
(dp3449
g93
g94
ssg82
g3443
sg75
(lp3450
S'last_visit'
p3451
asbag68
(g89
g70
NtRp3452
(dp3453
g73
(dp3454
g100
g101
ssg82
g3443
sg75
(lp3455
S':'
asbag68
(g89
g70
NtRp3456
(dp3457
g73
(dp3458
sg82
g3443
sg75
(lp3459
g68
(g69
g70
NtRp3460
(dp3461
g73
(dp3462
g81
I4
ssg82
g3456
sg75
(lp3463
S'datetime.datetime(2011, 11, 6, 15, 31, 56, 972407)'
p3464
asbasbasbag68
(g84
g70
NtRp3465
(dp3466
g73
(dp3467
sg82
g3395
sg75
(lp3468
g68
(g89
g70
NtRp3469
(dp3470
g73
(dp3471
g93
g94
ssg82
g3465
sg75
(lp3472
S'remember'
p3473
asbag68
(g89
g70
NtRp3474
(dp3475
g73
(dp3476
g100
g101
ssg82
g3465
sg75
(lp3477
S':'
asbag68
(g89
g70
NtRp3478
(dp3479
g73
(dp3480
sg82
g3465
sg75
(lp3481
g68
(g69
g70
NtRp3482
(dp3483
g73
(dp3484
g81
I4
ssg82
g3478
sg75
(lp3485
g111
asbasbasbag68
(g84
g70
NtRp3486
(dp3487
g73
(dp3488
sg82
g3395
sg75
(lp3489
g68
(g89
g70
NtRp3490
(dp3491
g73
(dp3492
g93
g94
ssg82
g3486
sg75
(lp3493
S'user'
p3494
asbag68
(g89
g70
NtRp3495
(dp3496
g73
(dp3497
g100
g101
ssg82
g3486
sg75
(lp3498
S':'
asbag68
(g89
g70
NtRp3499
(dp3500
g73
(dp3501
sg82
g3486
sg75
(lp3502
g68
(g69
g70
NtRp3503
(dp3504
g73
(dp3505
g81
I4
ssg82
g3499
sg75
(lp3506
g68
(g77
g70
NtRp3507
(dp3508
g73
(dp3509
g81
I3
ssg82
Nsg75
(lp3510
g68
(g84
g70
NtRp3511
(dp3512
g73
(dp3513
sg82
g3507
sg75
(lp3514
g68
(g89
g70
NtRp3515
(dp3516
g73
(dp3517
g93
g94
ssg82
g3511
sg75
(lp3518
S'email'
p3519
asbag68
(g89
g70
NtRp3520
(dp3521
g73
(dp3522
g100
g101
ssg82
g3511
sg75
(lp3523
S':'
asbag68
(g89
g70
NtRp3524
(dp3525
g73
(dp3526
sg82
g3511
sg75
(lp3527
g68
(g69
g70
NtRp3528
(dp3529
g73
(dp3530
g81
I3
ssg82
g3524
sg75
(lp3531
S'scottianw@gmail.com'
p3532
asbasbasbag68
(g84
g70
NtRp3533
(dp3534
g73
(dp3535
sg82
g3507
sg75
(lp3536
g68
(g89
g70
NtRp3537
(dp3538
g73
(dp3539
g93
g94
ssg82
g3533
sg75
(lp3540
S'first_name'
p3541
asbag68
(g89
g70
NtRp3542
(dp3543
g73
(dp3544
g100
g101
ssg82
g3533
sg75
(lp3545
S':'
asbag68
(g89
g70
NtRp3546
(dp3547
g73
(dp3548
sg82
g3533
sg75
(lp3549
g68
(g69
g70
NtRp3550
(dp3551
g73
(dp3552
g81
I3
ssg82
g3546
sg75
(lp3553
S'Ian'
p3554
asbasbasbag68
(g84
g70
NtRp3555
(dp3556
g73
(dp3557
sg82
g3507
sg75
(lp3558
g68
(g89
g70
NtRp3559
(dp3560
g73
(dp3561
g93
g94
ssg82
g3555
sg75
(lp3562
S'id'
p3563
asbag68
(g89
g70
NtRp3564
(dp3565
g73
(dp3566
g100
g101
ssg82
g3555
sg75
(lp3567
S':'
asbag68
(g89
g70
NtRp3568
(dp3569
g73
(dp3570
sg82
g3555
sg75
(lp3571
g68
(g69
g70
NtRp3572
(dp3573
g73
(dp3574
g81
I3
ssg82
g3568
sg75
(lp3575
S'11'
p3576
asbasbasbag68
(g84
g70
NtRp3577
(dp3578
g73
(dp3579
sg82
g3507
sg75
(lp3580
g68
(g89
g70
NtRp3581
(dp3582
g73
(dp3583
g93
g94
ssg82
g3577
sg75
(lp3584
S'last_name'
p3585
asbag68
(g89
g70
NtRp3586
(dp3587
g73
(dp3588
g100
g101
ssg82
g3577
sg75
(lp3589
S':'
asbag68
(g89
g70
NtRp3590
(dp3591
g73
(dp3592
sg82
g3577
sg75
(lp3593
g68
(g69
g70
NtRp3594
(dp3595
g73
(dp3596
g81
I3
ssg82
g3590
sg75
(lp3597
S'Scott'
p3598
asbasbasbag68
(g84
g70
NtRp3599
(dp3600
g73
(dp3601
sg82
g3507
sg75
(lp3602
g68
(g89
g70
NtRp3603
(dp3604
g73
(dp3605
g93
g94
ssg82
g3599
sg75
(lp3606
S'password'
p3607
asbag68
(g89
g70
NtRp3608
(dp3609
g73
(dp3610
g100
g101
ssg82
g3599
sg75
(lp3611
S':'
asbag68
(g89
g70
NtRp3612
(dp3613
g73
(dp3614
sg82
g3599
sg75
(lp3615
g68
(g69
g70
NtRp3616
(dp3617
g73
(dp3618
g81
I3
ssg82
g3612
sg75
(lp3619
S'351bc855a8ae4839e89ee60d2f279ed9'
p3620
asbasbasbag68
(g84
g70
NtRp3621
(dp3622
g73
(dp3623
sg82
g3507
sg75
(lp3624
g68
(g89
g70
NtRp3625
(dp3626
g73
(dp3627
g93
g94
ssg82
g3621
sg75
(lp3628
S'registration_key'
p3629
asbag68
(g89
g70
NtRp3630
(dp3631
g73
(dp3632
g100
g101
ssg82
g3621
sg75
(lp3633
S':'
asbag68
(g89
g70
NtRp3634
(dp3635
g73
(dp3636
sg82
g3621
sg75
(lp3637
g68
(g69
g70
NtRp3638
(dp3639
g73
(dp3640
g81
I3
ssg82
g3634
sg75
(lp3641
S''
asbasbasbag68
(g84
g70
NtRp3642
(dp3643
g73
(dp3644
sg82
g3507
sg75
(lp3645
g68
(g89
g70
NtRp3646
(dp3647
g73
(dp3648
g93
g94
ssg82
g3642
sg75
(lp3649
S'reset_password_key'
p3650
asbag68
(g89
g70
NtRp3651
(dp3652
g73
(dp3653
g100
g101
ssg82
g3642
sg75
(lp3654
S':'
asbag68
(g89
g70
NtRp3655
(dp3656
g73
(dp3657
sg82
g3642
sg75
(lp3658
g68
(g69
g70
NtRp3659
(dp3660
g73
(dp3661
g81
I3
ssg82
g3655
sg75
(lp3662
S''
asbasbasbasbasbasbasbasbasbasbasbasbasbsS'etype'
p3663
S"<type 'exceptions.SyntaxError'>"
p3664
sS'date'
p3665
S'Wed Nov  9 11:23:43 2011'
p3666
sS'response'
p3667
g68
(g69
g70
NtRp3668
(dp3669
g73
(dp3670
sg75
(lp3671
g68
(g77
g70
NtRp3672
(dp3673
g73
(dp3674
g81
I5
ssg82
Nsg75
(lp3675
g68
(g84
g70
NtRp3676
(dp3677
g73
(dp3678
sg82
g3672
sg75
(lp3679
g68
(g89
g70
NtRp3680
(dp3681
g73
(dp3682
g93
g94
ssg82
g3676
sg75
(lp3683
g178
asbag68
(g89
g70
NtRp3684
(dp3685
g73
(dp3686
g100
g101
ssg82
g3676
sg75
(lp3687
S':'
asbag68
(g89
g70
NtRp3688
(dp3689
g73
(dp3690
sg82
g3676
sg75
(lp3691
g68
(g69
g70
NtRp3692
(dp3693
g73
(dp3694
g81
I5
ssg82
g3688
sg75
(lp3695
S'<cStringIO.StringO object at 0x262e490>'
p3696
asbasbasbag68
(g84
g70
NtRp3697
(dp3698
g73
(dp3699
sg82
g3672
sg75
(lp3700
g68
(g89
g70
NtRp3701
(dp3702
g73
(dp3703
g93
g94
ssg82
g3697
sg75
(lp3704
g244
asbag68
(g89
g70
NtRp3705
(dp3706
g73
(dp3707
g100
g101
ssg82
g3697
sg75
(lp3708
S':'
asbag68
(g89
g70
NtRp3709
(dp3710
g73
(dp3711
sg82
g3697
sg75
(lp3712
g68
(g69
g70
NtRp3713
(dp3714
g73
(dp3715
g81
I5
ssg82
g3709
sg75
(lp3716
g68
(g77
g70
NtRp3717
(dp3718
g73
(dp3719
g81
I4
ssg82
Nsg75
(lp3720
g68
(g84
g70
NtRp3721
(dp3722
g73
(dp3723
sg82
g3717
sg75
(lp3724
g68
(g89
g70
NtRp3725
(dp3726
g73
(dp3727
g93
g94
ssg82
g3721
sg75
(lp3728
S'session_id_grades'
p3729
asbag68
(g89
g70
NtRp3730
(dp3731
g73
(dp3732
g100
g101
ssg82
g3721
sg75
(lp3733
S':'
asbag68
(g89
g70
NtRp3734
(dp3735
g73
(dp3736
sg82
g3721
sg75
(lp3737
g68
(g69
g70
NtRp3738
(dp3739
g73
(dp3740
g81
I4
ssg82
g3734
sg75
(lp3741
g68
(g77
g70
NtRp3742
(dp3743
g73
(dp3744
g81
I3
ssg82
Nsg75
(lp3745
g68
(g84
g70
NtRp3746
(dp3747
g73
(dp3748
sg82
g3742
sg75
(lp3749
g68
(g89
g70
NtRp3750
(dp3751
g73
(dp3752
g93
g94
ssg82
g3746
sg75
(lp3753
g294
asbag68
(g89
g70
NtRp3754
(dp3755
g73
(dp3756
g100
g101
ssg82
g3746
sg75
(lp3757
S':'
asbag68
(g89
g70
NtRp3758
(dp3759
g73
(dp3760
sg82
g3746
sg75
(lp3761
g68
(g69
g70
NtRp3762
(dp3763
g73
(dp3764
g81
I3
ssg82
g3758
sg75
(lp3765
S''
asbasbasbag68
(g84
g70
NtRp3766
(dp3767
g73
(dp3768
sg82
g3742
sg75
(lp3769
g68
(g89
g70
NtRp3770
(dp3771
g73
(dp3772
g93
g94
ssg82
g3766
sg75
(lp3773
g315
asbag68
(g89
g70
NtRp3774
(dp3775
g73
(dp3776
g100
g101
ssg82
g3766
sg75
(lp3777
S':'
asbag68
(g89
g70
NtRp3778
(dp3779
g73
(dp3780
sg82
g3766
sg75
(lp3781
g68
(g69
g70
NtRp3782
(dp3783
g73
(dp3784
g81
I3
ssg82
g3778
sg75
(lp3785
S''
asbasbasbag68
(g84
g70
NtRp3786
(dp3787
g73
(dp3788
sg82
g3742
sg75
(lp3789
g68
(g89
g70
NtRp3790
(dp3791
g73
(dp3792
g93
g94
ssg82
g3786
sg75
(lp3793
g336
asbag68
(g89
g70
NtRp3794
(dp3795
g73
(dp3796
g100
g101
ssg82
g3786
sg75
(lp3797
S':'
asbag68
(g89
g70
NtRp3798
(dp3799
g73
(dp3800
sg82
g3786
sg75
(lp3801
g68
(g69
g70
NtRp3802
(dp3803
g73
(dp3804
g81
I3
ssg82
g3798
sg75
(lp3805
S''
asbasbasbag68
(g84
g70
NtRp3806
(dp3807
g73
(dp3808
sg82
g3742
sg75
(lp3809
g68
(g89
g70
NtRp3810
(dp3811
g73
(dp3812
g93
g94
ssg82
g3806
sg75
(lp3813
g357
asbag68
(g89
g70
NtRp3814
(dp3815
g73
(dp3816
g100
g101
ssg82
g3806
sg75
(lp3817
S':'
asbag68
(g89
g70
NtRp3818
(dp3819
g73
(dp3820
sg82
g3806
sg75
(lp3821
g68
(g69
g70
NtRp3822
(dp3823
g73
(dp3824
g81
I3
ssg82
g3818
sg75
(lp3825
S''
asbasbasbag68
(g84
g70
NtRp3826
(dp3827
g73
(dp3828
sg82
g3742
sg75
(lp3829
g68
(g89
g70
NtRp3830
(dp3831
g73
(dp3832
g93
g94
ssg82
g3826
sg75
(lp3833
g378
asbag68
(g89
g70
NtRp3834
(dp3835
g73
(dp3836
g100
g101
ssg82
g3826
sg75
(lp3837
S':'
asbag68
(g89
g70
NtRp3838
(dp3839
g73
(dp3840
sg82
g3826
sg75
(lp3841
g68
(g69
g70
NtRp3842
(dp3843
g73
(dp3844
g81
I3
ssg82
g3838
sg75
(lp3845
S''
asbasbasbag68
(g84
g70
NtRp3846
(dp3847
g73
(dp3848
sg82
g3742
sg75
(lp3849
g68
(g89
g70
NtRp3850
(dp3851
g73
(dp3852
g93
g94
ssg82
g3846
sg75
(lp3853
g399
asbag68
(g89
g70
NtRp3854
(dp3855
g73
(dp3856
g100
g101
ssg82
g3846
sg75
(lp3857
S':'
asbag68
(g89
g70
NtRp3858
(dp3859
g73
(dp3860
sg82
g3846
sg75
(lp3861
g68
(g69
g70
NtRp3862
(dp3863
g73
(dp3864
g81
I3
ssg82
g3858
sg75
(lp3865
S'/'
asbasbasbag68
(g84
g70
NtRp3866
(dp3867
g73
(dp3868
sg82
g3742
sg75
(lp3869
g68
(g89
g70
NtRp3870
(dp3871
g73
(dp3872
g93
g94
ssg82
g3866
sg75
(lp3873
g420
asbag68
(g89
g70
NtRp3874
(dp3875
g73
(dp3876
g100
g101
ssg82
g3866
sg75
(lp3877
S':'
asbag68
(g89
g70
NtRp3878
(dp3879
g73
(dp3880
sg82
g3866
sg75
(lp3881
g68
(g69
g70
NtRp3882
(dp3883
g73
(dp3884
g81
I3
ssg82
g3878
sg75
(lp3885
S''
asbasbasbag68
(g84
g70
NtRp3886
(dp3887
g73
(dp3888
sg82
g3742
sg75
(lp3889
g68
(g89
g70
NtRp3890
(dp3891
g73
(dp3892
g93
g94
ssg82
g3886
sg75
(lp3893
g441
asbag68
(g89
g70
NtRp3894
(dp3895
g73
(dp3896
g100
g101
ssg82
g3886
sg75
(lp3897
S':'
asbag68
(g89
g70
NtRp3898
(dp3899
g73
(dp3900
sg82
g3886
sg75
(lp3901
g68
(g69
g70
NtRp3902
(dp3903
g73
(dp3904
g81
I3
ssg82
g3898
sg75
(lp3905
S''
asbasbasbasbasbasbasbasbasbasbasbag68
(g84
g70
NtRp3906
(dp3907
g73
(dp3908
sg82
g3672
sg75
(lp3909
g68
(g89
g70
NtRp3910
(dp3911
g73
(dp3912
g93
g94
ssg82
g3906
sg75
(lp3913
S'files'
p3914
asbag68
(g89
g70
NtRp3915
(dp3916
g73
(dp3917
g100
g101
ssg82
g3906
sg75
(lp3918
S':'
asbag68
(g89
g70
NtRp3919
(dp3920
g73
(dp3921
sg82
g3906
sg75
(lp3922
g68
(g69
g70
NtRp3923
(dp3924
g73
(dp3925
g81
I5
ssg82
g3919
sg75
(lp3926
g68
(g77
g70
NtRp3927
(dp3928
g73
(dp3929
g81
I4
ssg82
Nsg75
(lp3930
sbasbasbasbag68
(g84
g70
NtRp3931
(dp3932
g73
(dp3933
sg82
g3672
sg75
(lp3934
g68
(g89
g70
NtRp3935
(dp3936
g73
(dp3937
g93
g94
ssg82
g3931
sg75
(lp3938
S'flash'
p3939
asbag68
(g89
g70
NtRp3940
(dp3941
g73
(dp3942
g100
g101
ssg82
g3931
sg75
(lp3943
S':'
asbag68
(g89
g70
NtRp3944
(dp3945
g73
(dp3946
sg82
g3931
sg75
(lp3947
g68
(g69
g70
NtRp3948
(dp3949
g73
(dp3950
g81
I5
ssg82
g3944
sg75
(lp3951
S''
asbasbasbag68
(g84
g70
NtRp3952
(dp3953
g73
(dp3954
sg82
g3672
sg75
(lp3955
g68
(g89
g70
NtRp3956
(dp3957
g73
(dp3958
g93
g94
ssg82
g3952
sg75
(lp3959
S'generic_patterns'
p3960
asbag68
(g89
g70
NtRp3961
(dp3962
g73
(dp3963
g100
g101
ssg82
g3952
sg75
(lp3964
S':'
asbag68
(g89
g70
NtRp3965
(dp3966
g73
(dp3967
sg82
g3952
sg75
(lp3968
g68
(g69
g70
NtRp3969
(dp3970
g73
(dp3971
g81
I5
ssg82
g3965
sg75
(lp3972
g68
(g77
g70
NtRp3973
(dp3974
g73
(dp3975
g81
I4
ssg82
Nsg75
(lp3976
g68
(g84
g70
NtRp3977
(dp3978
g73
(dp3979
sg82
g3973
sg75
(lp3980
g68
(g89
g70
NtRp3981
(dp3982
g73
(dp3983
sg82
g3977
sg75
(lp3984
g68
(g69
g70
NtRp3985
(dp3986
g73
(dp3987
g81
I4
ssg82
g3981
sg75
(lp3988
S'*'
asbasbasbasbasbasbasbag68
(g84
g70
NtRp3989
(dp3990
g73
(dp3991
sg82
g3672
sg75
(lp3992
g68
(g89
g70
NtRp3993
(dp3994
g73
(dp3995
g93
g94
ssg82
g3989
sg75
(lp3996
S'headers'
p3997
asbag68
(g89
g70
NtRp3998
(dp3999
g73
(dp4000
g100
g101
ssg82
g3989
sg75
(lp4001
S':'
asbag68
(g89
g70
NtRp4002
(dp4003
g73
(dp4004
sg82
g3989
sg75
(lp4005
g68
(g69
g70
NtRp4006
(dp4007
g73
(dp4008
g81
I5
ssg82
g4002
sg75
(lp4009
g68
(g77
g70
NtRp4010
(dp4011
g73
(dp4012
g81
I4
ssg82
Nsg75
(lp4013
g68
(g84
g70
NtRp4014
(dp4015
g73
(dp4016
sg82
g4010
sg75
(lp4017
g68
(g89
g70
NtRp4018
(dp4019
g73
(dp4020
g93
g94
ssg82
g4014
sg75
(lp4021
S'Cache-Control'
p4022
asbag68
(g89
g70
NtRp4023
(dp4024
g73
(dp4025
g100
g101
ssg82
g4014
sg75
(lp4026
S':'
asbag68
(g89
g70
NtRp4027
(dp4028
g73
(dp4029
sg82
g4014
sg75
(lp4030
g68
(g69
g70
NtRp4031
(dp4032
g73
(dp4033
g81
I4
ssg82
g4027
sg75
(lp4034
S'no-store, no-cache, must-revalidate, post-check=0, pre-check=0'
p4035
asbasbasbag68
(g84
g70
NtRp4036
(dp4037
g73
(dp4038
sg82
g4010
sg75
(lp4039
g68
(g89
g70
NtRp4040
(dp4041
g73
(dp4042
g93
g94
ssg82
g4036
sg75
(lp4043
S'Content-Type'
p4044
asbag68
(g89
g70
NtRp4045
(dp4046
g73
(dp4047
g100
g101
ssg82
g4036
sg75
(lp4048
S':'
asbag68
(g89
g70
NtRp4049
(dp4050
g73
(dp4051
sg82
g4036
sg75
(lp4052
g68
(g69
g70
NtRp4053
(dp4054
g73
(dp4055
g81
I4
ssg82
g4049
sg75
(lp4056
S'text/html; charset=utf-8'
p4057
asbasbasbag68
(g84
g70
NtRp4058
(dp4059
g73
(dp4060
sg82
g4010
sg75
(lp4061
g68
(g89
g70
NtRp4062
(dp4063
g73
(dp4064
g93
g94
ssg82
g4058
sg75
(lp4065
S'Expires'
p4066
asbag68
(g89
g70
NtRp4067
(dp4068
g73
(dp4069
g100
g101
ssg82
g4058
sg75
(lp4070
S':'
asbag68
(g89
g70
NtRp4071
(dp4072
g73
(dp4073
sg82
g4058
sg75
(lp4074
g68
(g69
g70
NtRp4075
(dp4076
g73
(dp4077
g81
I4
ssg82
g4071
sg75
(lp4078
S'Wed, 09 Nov 2011 16:23:43 GMT'
p4079
asbasbasbag68
(g84
g70
NtRp4080
(dp4081
g73
(dp4082
sg82
g4010
sg75
(lp4083
g68
(g89
g70
NtRp4084
(dp4085
g73
(dp4086
g93
g94
ssg82
g4080
sg75
(lp4087
S'Pragma'
p4088
asbag68
(g89
g70
NtRp4089
(dp4090
g73
(dp4091
g100
g101
ssg82
g4080
sg75
(lp4092
S':'
asbag68
(g89
g70
NtRp4093
(dp4094
g73
(dp4095
sg82
g4080
sg75
(lp4096
g68
(g69
g70
NtRp4097
(dp4098
g73
(dp4099
g81
I4
ssg82
g4093
sg75
(lp4100
S'no-cache'
p4101
asbasbasbag68
(g84
g70
NtRp4102
(dp4103
g73
(dp4104
sg82
g4010
sg75
(lp4105
g68
(g89
g70
NtRp4106
(dp4107
g73
(dp4108
g93
g94
ssg82
g4102
sg75
(lp4109
S'X-Powered-By'
p4110
asbag68
(g89
g70
NtRp4111
(dp4112
g73
(dp4113
g100
g101
ssg82
g4102
sg75
(lp4114
S':'
asbag68
(g89
g70
NtRp4115
(dp4116
g73
(dp4117
sg82
g4102
sg75
(lp4118
g68
(g69
g70
NtRp4119
(dp4120
g73
(dp4121
g81
I4
ssg82
g4115
sg75
(lp4122
S'web2py'
p4123
asbasbasbasbasbasbasbag68
(g84
g70
NtRp4124
(dp4125
g73
(dp4126
sg82
g3672
sg75
(lp4127
g68
(g89
g70
NtRp4128
(dp4129
g73
(dp4130
g93
g94
ssg82
g4124
sg75
(lp4131
S'menu'
p4132
asbag68
(g89
g70
NtRp4133
(dp4134
g73
(dp4135
g100
g101
ssg82
g4124
sg75
(lp4136
S':'
asbag68
(g89
g70
NtRp4137
(dp4138
g73
(dp4139
sg82
g4124
sg75
(lp4140
g68
(g69
g70
NtRp4141
(dp4142
g73
(dp4143
g81
I5
ssg82
g4137
sg75
(lp4144
g68
(g77
g70
NtRp4145
(dp4146
g73
(dp4147
g81
I4
ssg82
Nsg75
(lp4148
g68
(g84
g70
NtRp4149
(dp4150
g73
(dp4151
sg82
g4145
sg75
(lp4152
g68
(g89
g70
NtRp4153
(dp4154
g73
(dp4155
sg82
g4149
sg75
(lp4156
g68
(g69
g70
NtRp4157
(dp4158
g73
(dp4159
g81
I4
ssg82
g4153
sg75
(lp4160
g68
(g77
g70
NtRp4161
(dp4162
g73
(dp4163
g81
I3
ssg82
Nsg75
(lp4164
g68
(g84
g70
NtRp4165
(dp4166
g73
(dp4167
sg82
g4161
sg75
(lp4168
g68
(g89
g70
NtRp4169
(dp4170
g73
(dp4171
sg82
g4165
sg75
(lp4172
g68
(g69
g70
NtRp4173
(dp4174
g73
(dp4175
g81
I3
ssg82
g4169
sg75
(lp4176
cgluon.languages
lazyT_unpickle
p4177
(S't\x05\x00\x00\x00Index'
tRp4178
asbasbasbag68
(g84
g70
NtRp4179
(dp4180
g73
(dp4181
sg82
g4161
sg75
(lp4182
g68
(g89
g70
NtRp4183
(dp4184
g73
(dp4185
sg82
g4179
sg75
(lp4186
g68
(g69
g70
NtRp4187
(dp4188
g73
(dp4189
g81
I3
ssg82
g4183
sg75
(lp4190
g111
asbasbasbag68
(g84
g70
NtRp4191
(dp4192
g73
(dp4193
sg82
g4161
sg75
(lp4194
g68
(g89
g70
NtRp4195
(dp4196
g73
(dp4197
sg82
g4191
sg75
(lp4198
g68
(g69
g70
NtRp4199
(dp4200
g73
(dp4201
g81
I3
ssg82
g4195
sg75
(lp4202
S'/grades/default/index'
p4203
asbasbasbag68
(g84
g70
NtRp4204
(dp4205
g73
(dp4206
sg82
g4161
sg75
(lp4207
g68
(g89
g70
NtRp4208
(dp4209
g73
(dp4210
sg82
g4204
sg75
(lp4211
g68
(g69
g70
NtRp4212
(dp4213
g73
(dp4214
g81
I3
ssg82
g4208
sg75
(lp4215
g68
(g77
g70
NtRp4216
(dp4217
g73
(dp4218
g81
I2
ssg82
Nsg75
(lp4219
sbasbasbasbasbasbasbasbag68
(g84
g70
NtRp4220
(dp4221
g73
(dp4222
sg82
g4145
sg75
(lp4223
g68
(g89
g70
NtRp4224
(dp4225
g73
(dp4226
sg82
g4220
sg75
(lp4227
g68
(g69
g70
NtRp4228
(dp4229
g73
(dp4230
g81
I4
ssg82
g4224
sg75
(lp4231
g68
(g77
g70
NtRp4232
(dp4233
g73
(dp4234
g81
I3
ssg82
Nsg75
(lp4235
g68
(g84
g70
NtRp4236
(dp4237
g73
(dp4238
sg82
g4232
sg75
(lp4239
g68
(g89
g70
NtRp4240
(dp4241
g73
(dp4242
sg82
g4236
sg75
(lp4243
g68
(g69
g70
NtRp4244
(dp4245
g73
(dp4246
g81
I3
ssg82
g4240
sg75
(lp4247
g4177
(S't\x06\x00\x00\x00Grades'
tRp4248
asbasbasbag68
(g84
g70
NtRp4249
(dp4250
g73
(dp4251
sg82
g4232
sg75
(lp4252
g68
(g89
g70
NtRp4253
(dp4254
g73
(dp4255
sg82
g4249
sg75
(lp4256
g68
(g69
g70
NtRp4257
(dp4258
g73
(dp4259
g81
I3
ssg82
g4253
sg75
(lp4260
g111
asbasbasbag68
(g84
g70
NtRp4261
(dp4262
g73
(dp4263
sg82
g4232
sg75
(lp4264
g68
(g89
g70
NtRp4265
(dp4266
g73
(dp4267
sg82
g4261
sg75
(lp4268
g68
(g69
g70
NtRp4269
(dp4270
g73
(dp4271
g81
I3
ssg82
g4265
sg75
(lp4272
S'/grades/default/grades_manage'
p4273
asbasbasbag68
(g84
g70
NtRp4274
(dp4275
g73
(dp4276
sg82
g4232
sg75
(lp4277
g68
(g89
g70
NtRp4278
(dp4279
g73
(dp4280
sg82
g4274
sg75
(lp4281
g68
(g69
g70
NtRp4282
(dp4283
g73
(dp4284
g81
I3
ssg82
g4278
sg75
(lp4285
g68
(g77
g70
NtRp4286
(dp4287
g73
(dp4288
g81
I2
ssg82
Nsg75
(lp4289
sbasbasbasbasbasbasbasbag68
(g84
g70
NtRp4290
(dp4291
g73
(dp4292
sg82
g4145
sg75
(lp4293
g68
(g89
g70
NtRp4294
(dp4295
g73
(dp4296
sg82
g4290
sg75
(lp4297
g68
(g69
g70
NtRp4298
(dp4299
g73
(dp4300
g81
I4
ssg82
g4294
sg75
(lp4301
g68
(g77
g70
NtRp4302
(dp4303
g73
(dp4304
g81
I3
ssg82
Nsg75
(lp4305
g68
(g84
g70
NtRp4306
(dp4307
g73
(dp4308
sg82
g4302
sg75
(lp4309
g68
(g89
g70
NtRp4310
(dp4311
g73
(dp4312
sg82
g4306
sg75
(lp4313
g68
(g69
g70
NtRp4314
(dp4315
g73
(dp4316
g81
I3
ssg82
g4310
sg75
(lp4317
g4177
(S't\x07\x00\x00\x00Classes'
tRp4318
asbasbasbag68
(g84
g70
NtRp4319
(dp4320
g73
(dp4321
sg82
g4302
sg75
(lp4322
g68
(g89
g70
NtRp4323
(dp4324
g73
(dp4325
sg82
g4319
sg75
(lp4326
g68
(g69
g70
NtRp4327
(dp4328
g73
(dp4329
g81
I3
ssg82
g4323
sg75
(lp4330
g111
asbasbasbag68
(g84
g70
NtRp4331
(dp4332
g73
(dp4333
sg82
g4302
sg75
(lp4334
g68
(g89
g70
NtRp4335
(dp4336
g73
(dp4337
sg82
g4331
sg75
(lp4338
g68
(g69
g70
NtRp4339
(dp4340
g73
(dp4341
g81
I3
ssg82
g4335
sg75
(lp4342
S'/grades/default/classes_manage'
p4343
asbasbasbag68
(g84
g70
NtRp4344
(dp4345
g73
(dp4346
sg82
g4302
sg75
(lp4347
g68
(g89
g70
NtRp4348
(dp4349
g73
(dp4350
sg82
g4344
sg75
(lp4351
g68
(g69
g70
NtRp4352
(dp4353
g73
(dp4354
g81
I3
ssg82
g4348
sg75
(lp4355
g68
(g77
g70
NtRp4356
(dp4357
g73
(dp4358
g81
I2
ssg82
Nsg75
(lp4359
sbasbasbasbasbasbasbasbasbasbasbasbag68
(g84
g70
NtRp4360
(dp4361
g73
(dp4362
sg82
g3672
sg75
(lp4363
g68
(g89
g70
NtRp4364
(dp4365
g73
(dp4366
g93
g94
ssg82
g4360
sg75
(lp4367
S'meta'
p4368
asbag68
(g89
g70
NtRp4369
(dp4370
g73
(dp4371
g100
g101
ssg82
g4360
sg75
(lp4372
S':'
asbag68
(g89
g70
NtRp4373
(dp4374
g73
(dp4375
sg82
g4360
sg75
(lp4376
g68
(g69
g70
NtRp4377
(dp4378
g73
(dp4379
g81
I5
ssg82
g4373
sg75
(lp4380
g68
(g77
g70
NtRp4381
(dp4382
g73
(dp4383
g81
I4
ssg82
Nsg75
(lp4384
g68
(g84
g70
NtRp4385
(dp4386
g73
(dp4387
sg82
g4381
sg75
(lp4388
g68
(g89
g70
NtRp4389
(dp4390
g73
(dp4391
g93
g94
ssg82
g4385
sg75
(lp4392
S'author'
p4393
asbag68
(g89
g70
NtRp4394
(dp4395
g73
(dp4396
g100
g101
ssg82
g4385
sg75
(lp4397
S':'
asbag68
(g89
g70
NtRp4398
(dp4399
g73
(dp4400
sg82
g4385
sg75
(lp4401
g68
(g69
g70
NtRp4402
(dp4403
g73
(dp4404
g81
I4
ssg82
g4398
sg75
(lp4405
S'Ian W. Scott <scottianw@gmail.com>'
p4406
asbasbasbag68
(g84
g70
NtRp4407
(dp4408
g73
(dp4409
sg82
g4381
sg75
(lp4410
g68
(g89
g70
NtRp4411
(dp4412
g73
(dp4413
g93
g94
ssg82
g4407
sg75
(lp4414
S'description'
p4415
asbag68
(g89
g70
NtRp4416
(dp4417
g73
(dp4418
g100
g101
ssg82
g4407
sg75
(lp4419
S':'
asbag68
(g89
g70
NtRp4420
(dp4421
g73
(dp4422
sg82
g4407
sg75
(lp4423
g68
(g69
g70
NtRp4424
(dp4425
g73
(dp4426
g81
I4
ssg82
g4420
sg75
(lp4427
S''
asbasbasbag68
(g84
g70
NtRp4428
(dp4429
g73
(dp4430
sg82
g4381
sg75
(lp4431
g68
(g89
g70
NtRp4432
(dp4433
g73
(dp4434
g93
g94
ssg82
g4428
sg75
(lp4435
S'keywords'
p4436
asbag68
(g89
g70
NtRp4437
(dp4438
g73
(dp4439
g100
g101
ssg82
g4428
sg75
(lp4440
S':'
asbag68
(g89
g70
NtRp4441
(dp4442
g73
(dp4443
sg82
g4428
sg75
(lp4444
g68
(g69
g70
NtRp4445
(dp4446
g73
(dp4447
g81
I4
ssg82
g4441
sg75
(lp4448
S''
asbasbasbasbasbasbasbag68
(g84
g70
NtRp4449
(dp4450
g73
(dp4451
sg82
g3672
sg75
(lp4452
g68
(g89
g70
NtRp4453
(dp4454
g73
(dp4455
g93
g94
ssg82
g4449
sg75
(lp4456
S'postprocessing'
p4457
asbag68
(g89
g70
NtRp4458
(dp4459
g73
(dp4460
g100
g101
ssg82
g4449
sg75
(lp4461
S':'
asbag68
(g89
g70
NtRp4462
(dp4463
g73
(dp4464
sg82
g4449
sg75
(lp4465
g68
(g69
g70
NtRp4466
(dp4467
g73
(dp4468
g81
I5
ssg82
g4462
sg75
(lp4469
g68
(g77
g70
NtRp4470
(dp4471
g73
(dp4472
g81
I4
ssg82
Nsg75
(lp4473
sbasbasbasbag68
(g84
g70
NtRp4474
(dp4475
g73
(dp4476
sg82
g3672
sg75
(lp4477
g68
(g89
g70
NtRp4478
(dp4479
g73
(dp4480
g93
g94
ssg82
g4474
sg75
(lp4481
S'session_file'
p4482
asbag68
(g89
g70
NtRp4483
(dp4484
g73
(dp4485
g100
g101
ssg82
g4474
sg75
(lp4486
S':'
asbag68
(g89
g70
NtRp4487
(dp4488
g73
(dp4489
sg82
g4474
sg75
(lp4490
g68
(g69
g70
NtRp4491
(dp4492
g73
(dp4493
g81
I5
ssg82
g4487
sg75
(lp4494
S"<open file '/home/ian/web2py/applications/grades/sessions/127.0.0.1-7e779f51-d72f-4159-aa81-826b4f2d26c1', mode 'rb+' at 0x24f7ed0>"
p4495
asbasbasbag68
(g84
g70
NtRp4496
(dp4497
g73
(dp4498
sg82
g3672
sg75
(lp4499
g68
(g89
g70
NtRp4500
(dp4501
g73
(dp4502
g93
g94
ssg82
g4496
sg75
(lp4503
S'session_filename'
p4504
asbag68
(g89
g70
NtRp4505
(dp4506
g73
(dp4507
g100
g101
ssg82
g4496
sg75
(lp4508
S':'
asbag68
(g89
g70
NtRp4509
(dp4510
g73
(dp4511
sg82
g4496
sg75
(lp4512
g68
(g69
g70
NtRp4513
(dp4514
g73
(dp4515
g81
I5
ssg82
g4509
sg75
(lp4516
S'/home/ian/web2py/applications/grades/sessions/127.0.0.1-7e779f51-d72f-4159-aa81-826b4f2d26c1'
p4517
asbasbasbag68
(g84
g70
NtRp4518
(dp4519
g73
(dp4520
sg82
g3672
sg75
(lp4521
g68
(g89
g70
NtRp4522
(dp4523
g73
(dp4524
g93
g94
ssg82
g4518
sg75
(lp4525
S'session_id'
p4526
asbag68
(g89
g70
NtRp4527
(dp4528
g73
(dp4529
g100
g101
ssg82
g4518
sg75
(lp4530
S':'
asbag68
(g89
g70
NtRp4531
(dp4532
g73
(dp4533
sg82
g4518
sg75
(lp4534
g68
(g69
g70
NtRp4535
(dp4536
g73
(dp4537
g81
I5
ssg82
g4531
sg75
(lp4538
S'127.0.0.1-7e779f51-d72f-4159-aa81-826b4f2d26c1'
p4539
asbasbasbag68
(g84
g70
NtRp4540
(dp4541
g73
(dp4542
sg82
g3672
sg75
(lp4543
g68
(g89
g70
NtRp4544
(dp4545
g73
(dp4546
g93
g94
ssg82
g4540
sg75
(lp4547
S'session_id_name'
p4548
asbag68
(g89
g70
NtRp4549
(dp4550
g73
(dp4551
g100
g101
ssg82
g4540
sg75
(lp4552
S':'
asbag68
(g89
g70
NtRp4553
(dp4554
g73
(dp4555
sg82
g4540
sg75
(lp4556
g68
(g69
g70
NtRp4557
(dp4558
g73
(dp4559
g81
I5
ssg82
g4553
sg75
(lp4560
g3729
asbasbasbag68
(g84
g70
NtRp4561
(dp4562
g73
(dp4563
sg82
g3672
sg75
(lp4564
g68
(g89
g70
NtRp4565
(dp4566
g73
(dp4567
g93
g94
ssg82
g4561
sg75
(lp4568
S'session_locked'
p4569
asbag68
(g89
g70
NtRp4570
(dp4571
g73
(dp4572
g100
g101
ssg82
g4561
sg75
(lp4573
S':'
asbag68
(g89
g70
NtRp4574
(dp4575
g73
(dp4576
sg82
g4561
sg75
(lp4577
g68
(g69
g70
NtRp4578
(dp4579
g73
(dp4580
g81
I5
ssg82
g4574
sg75
(lp4581
g1865
asbasbasbag68
(g84
g70
NtRp4582
(dp4583
g73
(dp4584
sg82
g3672
sg75
(lp4585
g68
(g89
g70
NtRp4586
(dp4587
g73
(dp4588
g93
g94
ssg82
g4582
sg75
(lp4589
S'session_new'
p4590
asbag68
(g89
g70
NtRp4591
(dp4592
g73
(dp4593
g100
g101
ssg82
g4582
sg75
(lp4594
S':'
asbag68
(g89
g70
NtRp4595
(dp4596
g73
(dp4597
sg82
g4582
sg75
(lp4598
g68
(g69
g70
NtRp4599
(dp4600
g73
(dp4601
g81
I5
ssg82
g4595
sg75
(lp4602
g111
asbasbasbag68
(g84
g70
NtRp4603
(dp4604
g73
(dp4605
sg82
g3672
sg75
(lp4606
g68
(g89
g70
NtRp4607
(dp4608
g73
(dp4609
g93
g94
ssg82
g4603
sg75
(lp4610
S'status'
p4611
asbag68
(g89
g70
NtRp4612
(dp4613
g73
(dp4614
g100
g101
ssg82
g4603
sg75
(lp4615
S':'
asbag68
(g89
g70
NtRp4616
(dp4617
g73
(dp4618
sg82
g4603
sg75
(lp4619
g68
(g69
g70
NtRp4620
(dp4621
g73
(dp4622
g81
I5
ssg82
g4616
sg75
(lp4623
S'200'
p4624
asbasbasbag68
(g84
g70
NtRp4625
(dp4626
g73
(dp4627
sg82
g3672
sg75
(lp4628
g68
(g89
g70
NtRp4629
(dp4630
g73
(dp4631
g93
g94
ssg82
g4625
sg75
(lp4632
S'subtitle'
p4633
asbag68
(g89
g70
NtRp4634
(dp4635
g73
(dp4636
g100
g101
ssg82
g4625
sg75
(lp4637
S':'
asbag68
(g89
g70
NtRp4638
(dp4639
g73
(dp4640
sg82
g4625
sg75
(lp4641
g68
(g69
g70
NtRp4642
(dp4643
g73
(dp4644
g81
I5
ssg82
g4638
sg75
(lp4645
S'a platform for easy submission of peer grades'
p4646
asbasbasbag68
(g84
g70
NtRp4647
(dp4648
g73
(dp4649
sg82
g3672
sg75
(lp4650
g68
(g89
g70
NtRp4651
(dp4652
g73
(dp4653
g93
g94
ssg82
g4647
sg75
(lp4654
S'title'
p4655
asbag68
(g89
g70
NtRp4656
(dp4657
g73
(dp4658
g100
g101
ssg82
g4647
sg75
(lp4659
S':'
asbag68
(g89
g70
NtRp4660
(dp4661
g73
(dp4662
sg82
g4647
sg75
(lp4663
g68
(g69
g70
NtRp4664
(dp4665
g73
(dp4666
g81
I5
ssg82
g4660
sg75
(lp4667
S'Grades'
p4668
asbasbasbag68
(g84
g70
NtRp4669
(dp4670
g73
(dp4671
sg82
g3672
sg75
(lp4672
g68
(g89
g70
NtRp4673
(dp4674
g73
(dp4675
g93
g94
ssg82
g4669
sg75
(lp4676
g2530
asbag68
(g89
g70
NtRp4677
(dp4678
g73
(dp4679
g100
g101
ssg82
g4669
sg75
(lp4680
S':'
asbag68
(g89
g70
NtRp4681
(dp4682
g73
(dp4683
sg82
g4669
sg75
(lp4684
g68
(g69
g70
NtRp4685
(dp4686
g73
(dp4687
g81
I5
ssg82
g4681
sg75
(lp4688
g2543
asbasbasbag68
(g84
g70
NtRp4689
(dp4690
g73
(dp4691
sg82
g3672
sg75
(lp4692
g68
(g89
g70
NtRp4693
(dp4694
g73
(dp4695
g93
g94
ssg82
g4689
sg75
(lp4696
S'view'
p4697
asbag68
(g89
g70
NtRp4698
(dp4699
g73
(dp4700
g100
g101
ssg82
g4689
sg75
(lp4701
S':'
asbag68
(g89
g70
NtRp4702
(dp4703
g73
(dp4704
sg82
g4689
sg75
(lp4705
g68
(g69
g70
NtRp4706
(dp4707
g73
(dp4708
g81
I5
ssg82
g4702
sg75
(lp4709
S'default/create_grade.html'
p4710
asbasbasbasbasbsS'locals'
p4711
(dp4712
S'fields'
p4713
S'[]'
p4714
sS'self'
p4715
S'<gluon.dal.SQLiteAdapter object>'
p4716
sS'new_fields'
p4717
S'[]'
p4718
sS'tablenames'
p4719
S'[]'
p4720
sS'query'
p4721
g1865
sg73
g20
sssS'traceback'
p4722
S'Traceback (most recent call last):\n  File "/home/ian/web2py/gluon/restricted.py", line 194, in restricted\n    exec ccode in environment\n  File "/home/ian/web2py/applications/grades/controllers/default.py", line 78, in <module>\n  File "/home/ian/web2py/gluon/globals.py", line 149, in <lambda>\n    self._caller = lambda f: f()\n  File "/home/ian/web2py/gluon/tools.py", line 2456, in f\n    return action(*a, **b)\n  File "/home/ian/web2py/applications/grades/controllers/default.py", line 43, in create_grade\n    the_user = db(auth.user.id == auth.user_id).select()\n  File "/home/ian/web2py/gluon/dal.py", line 5697, in select\n    return self.db._adapter.select(self.query,fields,attributes)\n  File "/home/ian/web2py/gluon/dal.py", line 1225, in select\n    sql = self._select(query,fields,attributes)\n  File "/home/ian/web2py/gluon/dal.py", line 1128, in _select\n    raise SyntaxError, \'Set: no tables selected\'\nSyntaxError: Set: no tables selected\n'
p4723
s.