(dp1
S'output'
p2
S''
sS'layer'
p3
S'/home/ian/web2py/applications/grades/controllers/default.py'
p4
sS'code'
p5
S"# -*- coding: utf-8 -*-\n\nimport datetime\n### required - do no delete\ndef user(): return dict(form=auth())\ndef download(): return response.download(request,db)\ndef call(): return service()\n### end requires\ndef index():\n    courses = db(db.courses.id > 0).select()\n    return dict(courses = courses)\n\ndef error():\n    return dict()\n\n@auth.requires_membership(role='administrators')\ndef grades_manage():\n    form = SQLFORM.smartgrid(db.grades,onupdate=auth.archive)\n    return locals()\n\n@auth.requires_membership(role='administrators')\ndef classes_manage():\n    form = SQLFORM.smartgrid(db.courses,onupdate=auth.archive)\n    return locals()\n\n@auth.requires_login()\ndef create_grade():\n    form = crud.create(db.grades)\n    return dict(form = form)\n\n@auth.requires_membership(role='administrators')\ndef grades_report():\n    u = request.args[0]\n    n = db(db.auth_user.id == u).select(db.auth_user.last_name, db.auth_user.first_name)\n    student = n.last_name , ', ' , n.first_name\n    gradelist = db(db.grades.name == u).select()\n    session.debug = request.args[0]\n    g = {}\n    for r in gradelist:\n        the_date = r.class_date\n        the_course = r.course\n        if the_course in g:\n            dates = g[the_course]\n            if the_date in dates:\n                dates[the_date].append(r.grade)\n            else:\n                dates[the_date] = [r.grade]                \n        else:\n            l = [r.grade]\n            g[r.course] = dict(the_date = l)\n    return dict(grades = g, student = student)                \nresponse._vars=response._caller(grades_report)\n"
p6
sS'snapshot'
p7
(dp8
S'exception'
p9
(dp10
S'__hash__'
p11
S"<method-wrapper '__hash__' of exceptions.AttributeError object>"
p12
sS'__setattr__'
p13
S"<method-wrapper '__setattr__' of exceptions.AttributeError object>"
p14
sS'__reduce_ex__'
p15
S'<built-in method __reduce_ex__ of exceptions.AttributeError object>'
p16
sS'__getslice__'
p17
S"<method-wrapper '__getslice__' of exceptions.AttributeError object>"
p18
sS'__getitem__'
p19
S"<method-wrapper '__getitem__' of exceptions.AttributeError object>"
p20
sS'__setstate__'
p21
S'<built-in method __setstate__ of exceptions.AttributeError object>'
p22
sS'args'
p23
S'("\'Rows\' object has no attribute \'last_name\'",)'
p24
sS'__reduce__'
p25
S'<built-in method __reduce__ of exceptions.AttributeError object>'
p26
sS'__str__'
p27
S"<method-wrapper '__str__' of exceptions.AttributeError object>"
p28
sS'__format__'
p29
S'<built-in method __format__ of exceptions.AttributeError object>'
p30
sS'__getattribute__'
p31
S"<method-wrapper '__getattribute__' of exceptions.AttributeError object>"
p32
sS'__class__'
p33
S"<type 'exceptions.AttributeError'>"
p34
sS'__unicode__'
p35
S'<built-in method __unicode__ of exceptions.AttributeError object>'
p36
sS'__delattr__'
p37
S"<method-wrapper '__delattr__' of exceptions.AttributeError object>"
p38
sS'__subclasshook__'
p39
S'<built-in method __subclasshook__ of type object>'
p40
sS'__repr__'
p41
S"<method-wrapper '__repr__' of exceptions.AttributeError object>"
p42
sS'__dict__'
p43
S'{}'
p44
sS'__sizeof__'
p45
S'<built-in method __sizeof__ of exceptions.AttributeError object>'
p46
sS'__doc__'
p47
S"'Attribute not found.'"
p48
sS'__init__'
p49
S"<method-wrapper '__init__' of exceptions.AttributeError object>"
p50
sS'__new__'
p51
S'<built-in method __new__ of type object>'
p52
ssS'evalue'
p53
S"'Rows' object has no attribute 'last_name'"
p54
sS'request'
p55
ccopy_reg
_reconstructor
p56
(cgluon.html
BEAUTIFY
p57
c__builtin__
object
p58
NtRp59
(dp60
S'attributes'
p61
(dp62
sS'components'
p63
(lp64
g56
(cgluon.html
TABLE
p65
g58
NtRp66
(dp67
g61
(dp68
S'level'
p69
I5
ssS'parent'
p70
Nsg63
(lp71
g56
(cgluon.html
TR
p72
g58
NtRp73
(dp74
g61
(dp75
sg70
g66
sg63
(lp76
g56
(cgluon.html
TD
p77
g58
NtRp78
(dp79
g61
(dp80
S'_style'
p81
S'font-weight:bold;'
p82
ssg70
g73
sg63
(lp83
S'ajax'
p84
asbag56
(g77
g58
NtRp85
(dp86
g61
(dp87
S'_valign'
p88
S'top'
p89
ssg70
g73
sg63
(lp90
S':'
asbag56
(g77
g58
NtRp91
(dp92
g61
(dp93
sg70
g73
sg63
(lp94
g56
(g57
g58
NtRp95
(dp96
g61
(dp97
g69
I5
ssg70
g91
sg63
(lp98
S'False'
p99
asbasbasbag56
(g72
g58
NtRp100
(dp101
g61
(dp102
sg70
g66
sg63
(lp103
g56
(g77
g58
NtRp104
(dp105
g61
(dp106
g81
g82
ssg70
g100
sg63
(lp107
S'application'
p108
asbag56
(g77
g58
NtRp109
(dp110
g61
(dp111
g88
g89
ssg70
g100
sg63
(lp112
S':'
asbag56
(g77
g58
NtRp113
(dp114
g61
(dp115
sg70
g100
sg63
(lp116
g56
(g57
g58
NtRp117
(dp118
g61
(dp119
g69
I5
ssg70
g113
sg63
(lp120
S'grades'
p121
asbasbasbag56
(g72
g58
NtRp122
(dp123
g61
(dp124
sg70
g66
sg63
(lp125
g56
(g77
g58
NtRp126
(dp127
g61
(dp128
g81
g82
ssg70
g122
sg63
(lp129
g23
asbag56
(g77
g58
NtRp130
(dp131
g61
(dp132
g88
g89
ssg70
g122
sg63
(lp133
S':'
asbag56
(g77
g58
NtRp134
(dp135
g61
(dp136
sg70
g122
sg63
(lp137
g56
(g57
g58
NtRp138
(dp139
g61
(dp140
g69
I5
ssg70
g134
sg63
(lp141
g56
(g65
g58
NtRp142
(dp143
g61
(dp144
g69
I4
ssg70
Nsg63
(lp145
g56
(g72
g58
NtRp146
(dp147
g61
(dp148
sg70
g142
sg63
(lp149
g56
(g77
g58
NtRp150
(dp151
g61
(dp152
sg70
g146
sg63
(lp153
g56
(g57
g58
NtRp154
(dp155
g61
(dp156
g69
I4
ssg70
g150
sg63
(lp157
S'16'
p158
asbasbasbasbasbasbasbag56
(g72
g58
NtRp159
(dp160
g61
(dp161
sg70
g66
sg63
(lp162
g56
(g77
g58
NtRp163
(dp164
g61
(dp165
g81
g82
ssg70
g159
sg63
(lp166
S'body'
p167
asbag56
(g77
g58
NtRp168
(dp169
g61
(dp170
g88
g89
ssg70
g159
sg63
(lp171
S':'
asbag56
(g77
g58
NtRp172
(dp173
g61
(dp174
sg70
g159
sg63
(lp175
g56
(g57
g58
NtRp176
(dp177
g61
(dp178
g69
I5
ssg70
g172
sg63
(lp179
S'<cStringIO.StringO object at 0x6919d88>'
p180
asbasbasbag56
(g72
g58
NtRp181
(dp182
g61
(dp183
sg70
g66
sg63
(lp184
g56
(g77
g58
NtRp185
(dp186
g61
(dp187
g81
g82
ssg70
g181
sg63
(lp188
S'client'
p189
asbag56
(g77
g58
NtRp190
(dp191
g61
(dp192
g88
g89
ssg70
g181
sg63
(lp193
S':'
asbag56
(g77
g58
NtRp194
(dp195
g61
(dp196
sg70
g181
sg63
(lp197
g56
(g57
g58
NtRp198
(dp199
g61
(dp200
g69
I5
ssg70
g194
sg63
(lp201
S'127.0.0.1'
p202
asbasbasbag56
(g72
g58
NtRp203
(dp204
g61
(dp205
sg70
g66
sg63
(lp206
g56
(g77
g58
NtRp207
(dp208
g61
(dp209
g81
g82
ssg70
g203
sg63
(lp210
S'controller'
p211
asbag56
(g77
g58
NtRp212
(dp213
g61
(dp214
g88
g89
ssg70
g203
sg63
(lp215
S':'
asbag56
(g77
g58
NtRp216
(dp217
g61
(dp218
sg70
g203
sg63
(lp219
g56
(g57
g58
NtRp220
(dp221
g61
(dp222
g69
I5
ssg70
g216
sg63
(lp223
S'default'
p224
asbasbasbag56
(g72
g58
NtRp225
(dp226
g61
(dp227
sg70
g66
sg63
(lp228
g56
(g77
g58
NtRp229
(dp230
g61
(dp231
g81
g82
ssg70
g225
sg63
(lp232
S'cookies'
p233
asbag56
(g77
g58
NtRp234
(dp235
g61
(dp236
g88
g89
ssg70
g225
sg63
(lp237
S':'
asbag56
(g77
g58
NtRp238
(dp239
g61
(dp240
sg70
g225
sg63
(lp241
g56
(g57
g58
NtRp242
(dp243
g61
(dp244
g69
I5
ssg70
g238
sg63
(lp245
g56
(g65
g58
NtRp246
(dp247
g61
(dp248
g69
I4
ssg70
Nsg63
(lp249
g56
(g72
g58
NtRp250
(dp251
g61
(dp252
sg70
g246
sg63
(lp253
g56
(g77
g58
NtRp254
(dp255
g61
(dp256
g81
g82
ssg70
g250
sg63
(lp257
S'session_id_admin'
p258
asbag56
(g77
g58
NtRp259
(dp260
g61
(dp261
g88
g89
ssg70
g250
sg63
(lp262
S':'
asbag56
(g77
g58
NtRp263
(dp264
g61
(dp265
sg70
g250
sg63
(lp266
g56
(g57
g58
NtRp267
(dp268
g61
(dp269
g69
I4
ssg70
g263
sg63
(lp270
g56
(g65
g58
NtRp271
(dp272
g61
(dp273
g69
I3
ssg70
Nsg63
(lp274
g56
(g72
g58
NtRp275
(dp276
g61
(dp277
sg70
g271
sg63
(lp278
g56
(g77
g58
NtRp279
(dp280
g61
(dp281
g81
g82
ssg70
g275
sg63
(lp282
S'comment'
p283
asbag56
(g77
g58
NtRp284
(dp285
g61
(dp286
g88
g89
ssg70
g275
sg63
(lp287
S':'
asbag56
(g77
g58
NtRp288
(dp289
g61
(dp290
sg70
g275
sg63
(lp291
g56
(g57
g58
NtRp292
(dp293
g61
(dp294
g69
I3
ssg70
g288
sg63
(lp295
S''
asbasbasbag56
(g72
g58
NtRp296
(dp297
g61
(dp298
sg70
g271
sg63
(lp299
g56
(g77
g58
NtRp300
(dp301
g61
(dp302
g81
g82
ssg70
g296
sg63
(lp303
S'domain'
p304
asbag56
(g77
g58
NtRp305
(dp306
g61
(dp307
g88
g89
ssg70
g296
sg63
(lp308
S':'
asbag56
(g77
g58
NtRp309
(dp310
g61
(dp311
sg70
g296
sg63
(lp312
g56
(g57
g58
NtRp313
(dp314
g61
(dp315
g69
I3
ssg70
g309
sg63
(lp316
S''
asbasbasbag56
(g72
g58
NtRp317
(dp318
g61
(dp319
sg70
g271
sg63
(lp320
g56
(g77
g58
NtRp321
(dp322
g61
(dp323
g81
g82
ssg70
g317
sg63
(lp324
S'expires'
p325
asbag56
(g77
g58
NtRp326
(dp327
g61
(dp328
g88
g89
ssg70
g317
sg63
(lp329
S':'
asbag56
(g77
g58
NtRp330
(dp331
g61
(dp332
sg70
g317
sg63
(lp333
g56
(g57
g58
NtRp334
(dp335
g61
(dp336
g69
I3
ssg70
g330
sg63
(lp337
S''
asbasbasbag56
(g72
g58
NtRp338
(dp339
g61
(dp340
sg70
g271
sg63
(lp341
g56
(g77
g58
NtRp342
(dp343
g61
(dp344
g81
g82
ssg70
g338
sg63
(lp345
S'httponly'
p346
asbag56
(g77
g58
NtRp347
(dp348
g61
(dp349
g88
g89
ssg70
g338
sg63
(lp350
S':'
asbag56
(g77
g58
NtRp351
(dp352
g61
(dp353
sg70
g338
sg63
(lp354
g56
(g57
g58
NtRp355
(dp356
g61
(dp357
g69
I3
ssg70
g351
sg63
(lp358
S''
asbasbasbag56
(g72
g58
NtRp359
(dp360
g61
(dp361
sg70
g271
sg63
(lp362
g56
(g77
g58
NtRp363
(dp364
g61
(dp365
g81
g82
ssg70
g359
sg63
(lp366
S'max-age'
p367
asbag56
(g77
g58
NtRp368
(dp369
g61
(dp370
g88
g89
ssg70
g359
sg63
(lp371
S':'
asbag56
(g77
g58
NtRp372
(dp373
g61
(dp374
sg70
g359
sg63
(lp375
g56
(g57
g58
NtRp376
(dp377
g61
(dp378
g69
I3
ssg70
g372
sg63
(lp379
S''
asbasbasbag56
(g72
g58
NtRp380
(dp381
g61
(dp382
sg70
g271
sg63
(lp383
g56
(g77
g58
NtRp384
(dp385
g61
(dp386
g81
g82
ssg70
g380
sg63
(lp387
S'path'
p388
asbag56
(g77
g58
NtRp389
(dp390
g61
(dp391
g88
g89
ssg70
g380
sg63
(lp392
S':'
asbag56
(g77
g58
NtRp393
(dp394
g61
(dp395
sg70
g380
sg63
(lp396
g56
(g57
g58
NtRp397
(dp398
g61
(dp399
g69
I3
ssg70
g393
sg63
(lp400
S''
asbasbasbag56
(g72
g58
NtRp401
(dp402
g61
(dp403
sg70
g271
sg63
(lp404
g56
(g77
g58
NtRp405
(dp406
g61
(dp407
g81
g82
ssg70
g401
sg63
(lp408
S'secure'
p409
asbag56
(g77
g58
NtRp410
(dp411
g61
(dp412
g88
g89
ssg70
g401
sg63
(lp413
S':'
asbag56
(g77
g58
NtRp414
(dp415
g61
(dp416
sg70
g401
sg63
(lp417
g56
(g57
g58
NtRp418
(dp419
g61
(dp420
g69
I3
ssg70
g414
sg63
(lp421
S''
asbasbasbag56
(g72
g58
NtRp422
(dp423
g61
(dp424
sg70
g271
sg63
(lp425
g56
(g77
g58
NtRp426
(dp427
g61
(dp428
g81
g82
ssg70
g422
sg63
(lp429
S'version'
p430
asbag56
(g77
g58
NtRp431
(dp432
g61
(dp433
g88
g89
ssg70
g422
sg63
(lp434
S':'
asbag56
(g77
g58
NtRp435
(dp436
g61
(dp437
sg70
g422
sg63
(lp438
g56
(g57
g58
NtRp439
(dp440
g61
(dp441
g69
I3
ssg70
g435
sg63
(lp442
S''
asbasbasbasbasbasbasbag56
(g72
g58
NtRp443
(dp444
g61
(dp445
sg70
g246
sg63
(lp446
g56
(g77
g58
NtRp447
(dp448
g61
(dp449
g81
g82
ssg70
g443
sg63
(lp450
S'session_id_grades'
p451
asbag56
(g77
g58
NtRp452
(dp453
g61
(dp454
g88
g89
ssg70
g443
sg63
(lp455
S':'
asbag56
(g77
g58
NtRp456
(dp457
g61
(dp458
sg70
g443
sg63
(lp459
g56
(g57
g58
NtRp460
(dp461
g61
(dp462
g69
I4
ssg70
g456
sg63
(lp463
g56
(g65
g58
NtRp464
(dp465
g61
(dp466
g69
I3
ssg70
Nsg63
(lp467
g56
(g72
g58
NtRp468
(dp469
g61
(dp470
sg70
g464
sg63
(lp471
g56
(g77
g58
NtRp472
(dp473
g61
(dp474
g81
g82
ssg70
g468
sg63
(lp475
g283
asbag56
(g77
g58
NtRp476
(dp477
g61
(dp478
g88
g89
ssg70
g468
sg63
(lp479
S':'
asbag56
(g77
g58
NtRp480
(dp481
g61
(dp482
sg70
g468
sg63
(lp483
g56
(g57
g58
NtRp484
(dp485
g61
(dp486
g69
I3
ssg70
g480
sg63
(lp487
S''
asbasbasbag56
(g72
g58
NtRp488
(dp489
g61
(dp490
sg70
g464
sg63
(lp491
g56
(g77
g58
NtRp492
(dp493
g61
(dp494
g81
g82
ssg70
g488
sg63
(lp495
g304
asbag56
(g77
g58
NtRp496
(dp497
g61
(dp498
g88
g89
ssg70
g488
sg63
(lp499
S':'
asbag56
(g77
g58
NtRp500
(dp501
g61
(dp502
sg70
g488
sg63
(lp503
g56
(g57
g58
NtRp504
(dp505
g61
(dp506
g69
I3
ssg70
g500
sg63
(lp507
S''
asbasbasbag56
(g72
g58
NtRp508
(dp509
g61
(dp510
sg70
g464
sg63
(lp511
g56
(g77
g58
NtRp512
(dp513
g61
(dp514
g81
g82
ssg70
g508
sg63
(lp515
g325
asbag56
(g77
g58
NtRp516
(dp517
g61
(dp518
g88
g89
ssg70
g508
sg63
(lp519
S':'
asbag56
(g77
g58
NtRp520
(dp521
g61
(dp522
sg70
g508
sg63
(lp523
g56
(g57
g58
NtRp524
(dp525
g61
(dp526
g69
I3
ssg70
g520
sg63
(lp527
S''
asbasbasbag56
(g72
g58
NtRp528
(dp529
g61
(dp530
sg70
g464
sg63
(lp531
g56
(g77
g58
NtRp532
(dp533
g61
(dp534
g81
g82
ssg70
g528
sg63
(lp535
g346
asbag56
(g77
g58
NtRp536
(dp537
g61
(dp538
g88
g89
ssg70
g528
sg63
(lp539
S':'
asbag56
(g77
g58
NtRp540
(dp541
g61
(dp542
sg70
g528
sg63
(lp543
g56
(g57
g58
NtRp544
(dp545
g61
(dp546
g69
I3
ssg70
g540
sg63
(lp547
S''
asbasbasbag56
(g72
g58
NtRp548
(dp549
g61
(dp550
sg70
g464
sg63
(lp551
g56
(g77
g58
NtRp552
(dp553
g61
(dp554
g81
g82
ssg70
g548
sg63
(lp555
g367
asbag56
(g77
g58
NtRp556
(dp557
g61
(dp558
g88
g89
ssg70
g548
sg63
(lp559
S':'
asbag56
(g77
g58
NtRp560
(dp561
g61
(dp562
sg70
g548
sg63
(lp563
g56
(g57
g58
NtRp564
(dp565
g61
(dp566
g69
I3
ssg70
g560
sg63
(lp567
S''
asbasbasbag56
(g72
g58
NtRp568
(dp569
g61
(dp570
sg70
g464
sg63
(lp571
g56
(g77
g58
NtRp572
(dp573
g61
(dp574
g81
g82
ssg70
g568
sg63
(lp575
g388
asbag56
(g77
g58
NtRp576
(dp577
g61
(dp578
g88
g89
ssg70
g568
sg63
(lp579
S':'
asbag56
(g77
g58
NtRp580
(dp581
g61
(dp582
sg70
g568
sg63
(lp583
g56
(g57
g58
NtRp584
(dp585
g61
(dp586
g69
I3
ssg70
g580
sg63
(lp587
S''
asbasbasbag56
(g72
g58
NtRp588
(dp589
g61
(dp590
sg70
g464
sg63
(lp591
g56
(g77
g58
NtRp592
(dp593
g61
(dp594
g81
g82
ssg70
g588
sg63
(lp595
g409
asbag56
(g77
g58
NtRp596
(dp597
g61
(dp598
g88
g89
ssg70
g588
sg63
(lp599
S':'
asbag56
(g77
g58
NtRp600
(dp601
g61
(dp602
sg70
g588
sg63
(lp603
g56
(g57
g58
NtRp604
(dp605
g61
(dp606
g69
I3
ssg70
g600
sg63
(lp607
S''
asbasbasbag56
(g72
g58
NtRp608
(dp609
g61
(dp610
sg70
g464
sg63
(lp611
g56
(g77
g58
NtRp612
(dp613
g61
(dp614
g81
g82
ssg70
g608
sg63
(lp615
g430
asbag56
(g77
g58
NtRp616
(dp617
g61
(dp618
g88
g89
ssg70
g608
sg63
(lp619
S':'
asbag56
(g77
g58
NtRp620
(dp621
g61
(dp622
sg70
g608
sg63
(lp623
g56
(g57
g58
NtRp624
(dp625
g61
(dp626
g69
I3
ssg70
g620
sg63
(lp627
S''
asbasbasbasbasbasbasbag56
(g72
g58
NtRp628
(dp629
g61
(dp630
sg70
g246
sg63
(lp631
g56
(g77
g58
NtRp632
(dp633
g61
(dp634
g81
g82
ssg70
g628
sg63
(lp635
S'session_id_welcome'
p636
asbag56
(g77
g58
NtRp637
(dp638
g61
(dp639
g88
g89
ssg70
g628
sg63
(lp640
S':'
asbag56
(g77
g58
NtRp641
(dp642
g61
(dp643
sg70
g628
sg63
(lp644
g56
(g57
g58
NtRp645
(dp646
g61
(dp647
g69
I4
ssg70
g641
sg63
(lp648
g56
(g65
g58
NtRp649
(dp650
g61
(dp651
g69
I3
ssg70
Nsg63
(lp652
g56
(g72
g58
NtRp653
(dp654
g61
(dp655
sg70
g649
sg63
(lp656
g56
(g77
g58
NtRp657
(dp658
g61
(dp659
g81
g82
ssg70
g653
sg63
(lp660
g283
asbag56
(g77
g58
NtRp661
(dp662
g61
(dp663
g88
g89
ssg70
g653
sg63
(lp664
S':'
asbag56
(g77
g58
NtRp665
(dp666
g61
(dp667
sg70
g653
sg63
(lp668
g56
(g57
g58
NtRp669
(dp670
g61
(dp671
g69
I3
ssg70
g665
sg63
(lp672
S''
asbasbasbag56
(g72
g58
NtRp673
(dp674
g61
(dp675
sg70
g649
sg63
(lp676
g56
(g77
g58
NtRp677
(dp678
g61
(dp679
g81
g82
ssg70
g673
sg63
(lp680
g304
asbag56
(g77
g58
NtRp681
(dp682
g61
(dp683
g88
g89
ssg70
g673
sg63
(lp684
S':'
asbag56
(g77
g58
NtRp685
(dp686
g61
(dp687
sg70
g673
sg63
(lp688
g56
(g57
g58
NtRp689
(dp690
g61
(dp691
g69
I3
ssg70
g685
sg63
(lp692
S''
asbasbasbag56
(g72
g58
NtRp693
(dp694
g61
(dp695
sg70
g649
sg63
(lp696
g56
(g77
g58
NtRp697
(dp698
g61
(dp699
g81
g82
ssg70
g693
sg63
(lp700
g325
asbag56
(g77
g58
NtRp701
(dp702
g61
(dp703
g88
g89
ssg70
g693
sg63
(lp704
S':'
asbag56
(g77
g58
NtRp705
(dp706
g61
(dp707
sg70
g693
sg63
(lp708
g56
(g57
g58
NtRp709
(dp710
g61
(dp711
g69
I3
ssg70
g705
sg63
(lp712
S''
asbasbasbag56
(g72
g58
NtRp713
(dp714
g61
(dp715
sg70
g649
sg63
(lp716
g56
(g77
g58
NtRp717
(dp718
g61
(dp719
g81
g82
ssg70
g713
sg63
(lp720
g346
asbag56
(g77
g58
NtRp721
(dp722
g61
(dp723
g88
g89
ssg70
g713
sg63
(lp724
S':'
asbag56
(g77
g58
NtRp725
(dp726
g61
(dp727
sg70
g713
sg63
(lp728
g56
(g57
g58
NtRp729
(dp730
g61
(dp731
g69
I3
ssg70
g725
sg63
(lp732
S''
asbasbasbag56
(g72
g58
NtRp733
(dp734
g61
(dp735
sg70
g649
sg63
(lp736
g56
(g77
g58
NtRp737
(dp738
g61
(dp739
g81
g82
ssg70
g733
sg63
(lp740
g367
asbag56
(g77
g58
NtRp741
(dp742
g61
(dp743
g88
g89
ssg70
g733
sg63
(lp744
S':'
asbag56
(g77
g58
NtRp745
(dp746
g61
(dp747
sg70
g733
sg63
(lp748
g56
(g57
g58
NtRp749
(dp750
g61
(dp751
g69
I3
ssg70
g745
sg63
(lp752
S''
asbasbasbag56
(g72
g58
NtRp753
(dp754
g61
(dp755
sg70
g649
sg63
(lp756
g56
(g77
g58
NtRp757
(dp758
g61
(dp759
g81
g82
ssg70
g753
sg63
(lp760
g388
asbag56
(g77
g58
NtRp761
(dp762
g61
(dp763
g88
g89
ssg70
g753
sg63
(lp764
S':'
asbag56
(g77
g58
NtRp765
(dp766
g61
(dp767
sg70
g753
sg63
(lp768
g56
(g57
g58
NtRp769
(dp770
g61
(dp771
g69
I3
ssg70
g765
sg63
(lp772
S''
asbasbasbag56
(g72
g58
NtRp773
(dp774
g61
(dp775
sg70
g649
sg63
(lp776
g56
(g77
g58
NtRp777
(dp778
g61
(dp779
g81
g82
ssg70
g773
sg63
(lp780
g409
asbag56
(g77
g58
NtRp781
(dp782
g61
(dp783
g88
g89
ssg70
g773
sg63
(lp784
S':'
asbag56
(g77
g58
NtRp785
(dp786
g61
(dp787
sg70
g773
sg63
(lp788
g56
(g57
g58
NtRp789
(dp790
g61
(dp791
g69
I3
ssg70
g785
sg63
(lp792
S''
asbasbasbag56
(g72
g58
NtRp793
(dp794
g61
(dp795
sg70
g649
sg63
(lp796
g56
(g77
g58
NtRp797
(dp798
g61
(dp799
g81
g82
ssg70
g793
sg63
(lp800
g430
asbag56
(g77
g58
NtRp801
(dp802
g61
(dp803
g88
g89
ssg70
g793
sg63
(lp804
S':'
asbag56
(g77
g58
NtRp805
(dp806
g61
(dp807
sg70
g793
sg63
(lp808
g56
(g57
g58
NtRp809
(dp810
g61
(dp811
g69
I3
ssg70
g805
sg63
(lp812
S''
asbasbasbasbasbasbasbasbasbasbasbag56
(g72
g58
NtRp813
(dp814
g61
(dp815
sg70
g66
sg63
(lp816
g56
(g77
g58
NtRp817
(dp818
g61
(dp819
g81
g82
ssg70
g813
sg63
(lp820
S'env'
p821
asbag56
(g77
g58
NtRp822
(dp823
g61
(dp824
g88
g89
ssg70
g813
sg63
(lp825
S':'
asbag56
(g77
g58
NtRp826
(dp827
g61
(dp828
sg70
g813
sg63
(lp829
g56
(g57
g58
NtRp830
(dp831
g61
(dp832
g69
I5
ssg70
g826
sg63
(lp833
g56
(g65
g58
NtRp834
(dp835
g61
(dp836
g69
I4
ssg70
Nsg63
(lp837
g56
(g72
g58
NtRp838
(dp839
g61
(dp840
sg70
g834
sg63
(lp841
g56
(g77
g58
NtRp842
(dp843
g61
(dp844
g81
g82
ssg70
g838
sg63
(lp845
S'app_folders'
p846
asbag56
(g77
g58
NtRp847
(dp848
g61
(dp849
g88
g89
ssg70
g838
sg63
(lp850
S':'
asbag56
(g77
g58
NtRp851
(dp852
g61
(dp853
sg70
g838
sg63
(lp854
g56
(g57
g58
NtRp855
(dp856
g61
(dp857
g69
I4
ssg70
g851
sg63
(lp858
S"set(['/home/ian/web2py/applications/welcome/', '/home/ian/web2py/applications/grades/', '/home/ian/web2py/applications/admin/'])"
p859
asbasbasbag56
(g72
g58
NtRp860
(dp861
g61
(dp862
sg70
g834
sg63
(lp863
g56
(g77
g58
NtRp864
(dp865
g61
(dp866
g81
g82
ssg70
g860
sg63
(lp867
S'applications_parent'
p868
asbag56
(g77
g58
NtRp869
(dp870
g61
(dp871
g88
g89
ssg70
g860
sg63
(lp872
S':'
asbag56
(g77
g58
NtRp873
(dp874
g61
(dp875
sg70
g860
sg63
(lp876
g56
(g57
g58
NtRp877
(dp878
g61
(dp879
g69
I4
ssg70
g873
sg63
(lp880
S'/home/ian/web2py'
p881
asbasbasbag56
(g72
g58
NtRp882
(dp883
g61
(dp884
sg70
g834
sg63
(lp885
g56
(g77
g58
NtRp886
(dp887
g61
(dp888
g81
g82
ssg70
g882
sg63
(lp889
S'cmd_args'
p890
asbag56
(g77
g58
NtRp891
(dp892
g61
(dp893
g88
g89
ssg70
g882
sg63
(lp894
S':'
asbag56
(g77
g58
NtRp895
(dp896
g61
(dp897
sg70
g882
sg63
(lp898
g56
(g57
g58
NtRp899
(dp900
g61
(dp901
g69
I4
ssg70
g895
sg63
(lp902
g56
(g65
g58
NtRp903
(dp904
g61
(dp905
g69
I3
ssg70
Nsg63
(lp906
sbasbasbasbag56
(g72
g58
NtRp907
(dp908
g61
(dp909
sg70
g834
sg63
(lp910
g56
(g77
g58
NtRp911
(dp912
g61
(dp913
g81
g82
ssg70
g907
sg63
(lp914
S'cmd_options'
p915
asbag56
(g77
g58
NtRp916
(dp917
g61
(dp918
g88
g89
ssg70
g907
sg63
(lp919
S':'
asbag56
(g77
g58
NtRp920
(dp921
g61
(dp922
sg70
g907
sg63
(lp923
g56
(g57
g58
NtRp924
(dp925
g61
(dp926
g69
I4
ssg70
g920
sg63
(lp927
S"<Values at 0x1b247e8: {'verbose': False, 'ip': '127.0.0.1', 'shutdown_timeout': 5, 'taskbar': False, 'nocron': False, 'pid_filename': 'httpserver.pid', 'maxthreads': None, 'softcron': False, 'server_name': 'Ariel-ubuntu', 'bpython': False, 'nogui': False, 'port': 8000, 'extcron': False, 'debuglevel': 30, 'test': None, 'folder': '/home/ian/web2py', 'config': '', 'import_models': False, 'winservice': '', 'shell': None, 'run': '', 'log_filename': 'httpserver.log', 'args': [''], 'ssl_ca_certificate': None, 'scheduler': None, 'profiler_filename': None, 'ssl_private_key': '', 'password': '<ask>', 'request_queue_size': 5, 'ssl_certificate': '', 'cronjob': False, 'plain': False, 'quiet': False, 'interfaces': None, 'minthreads': None, 'timeout': 10, 'numthreads': None, 'nobanner': False}>"
p928
asbasbasbag56
(g72
g58
NtRp929
(dp930
g61
(dp931
sg70
g834
sg63
(lp932
g56
(g77
g58
NtRp933
(dp934
g61
(dp935
g81
g82
ssg70
g929
sg63
(lp936
S'db_sessions'
p937
asbag56
(g77
g58
NtRp938
(dp939
g61
(dp940
g88
g89
ssg70
g929
sg63
(lp941
S':'
asbag56
(g77
g58
NtRp942
(dp943
g61
(dp944
sg70
g929
sg63
(lp945
g56
(g57
g58
NtRp946
(dp947
g61
(dp948
g69
I4
ssg70
g942
sg63
(lp949
S'set([])'
p950
asbasbasbag56
(g72
g58
NtRp951
(dp952
g61
(dp953
sg70
g834
sg63
(lp954
g56
(g77
g58
NtRp955
(dp956
g61
(dp957
g81
g82
ssg70
g951
sg63
(lp958
S'debugging'
p959
asbag56
(g77
g58
NtRp960
(dp961
g61
(dp962
g88
g89
ssg70
g951
sg63
(lp963
S':'
asbag56
(g77
g58
NtRp964
(dp965
g61
(dp966
sg70
g951
sg63
(lp967
g56
(g57
g58
NtRp968
(dp969
g61
(dp970
g69
I4
ssg70
g964
sg63
(lp971
g99
asbasbasbag56
(g72
g58
NtRp972
(dp973
g61
(dp974
sg70
g834
sg63
(lp975
g56
(g77
g58
NtRp976
(dp977
g61
(dp978
g81
g82
ssg70
g972
sg63
(lp979
S'gluon_parent'
p980
asbag56
(g77
g58
NtRp981
(dp982
g61
(dp983
g88
g89
ssg70
g972
sg63
(lp984
S':'
asbag56
(g77
g58
NtRp985
(dp986
g61
(dp987
sg70
g972
sg63
(lp988
g56
(g57
g58
NtRp989
(dp990
g61
(dp991
g69
I4
ssg70
g985
sg63
(lp992
S'/home/ian/web2py'
p993
asbasbasbag56
(g72
g58
NtRp994
(dp995
g61
(dp996
sg70
g834
sg63
(lp997
g56
(g77
g58
NtRp998
(dp999
g61
(dp1000
g81
g82
ssg70
g994
sg63
(lp1001
S'http_accept'
p1002
asbag56
(g77
g58
NtRp1003
(dp1004
g61
(dp1005
g88
g89
ssg70
g994
sg63
(lp1006
S':'
asbag56
(g77
g58
NtRp1007
(dp1008
g61
(dp1009
sg70
g994
sg63
(lp1010
g56
(g57
g58
NtRp1011
(dp1012
g61
(dp1013
g69
I4
ssg70
g1007
sg63
(lp1014
S'text/html,application/xhtml+xml,application/xml;q=0.9,*/*;q=0.8'
p1015
asbasbasbag56
(g72
g58
NtRp1016
(dp1017
g61
(dp1018
sg70
g834
sg63
(lp1019
g56
(g77
g58
NtRp1020
(dp1021
g61
(dp1022
g81
g82
ssg70
g1016
sg63
(lp1023
S'http_accept_charset'
p1024
asbag56
(g77
g58
NtRp1025
(dp1026
g61
(dp1027
g88
g89
ssg70
g1016
sg63
(lp1028
S':'
asbag56
(g77
g58
NtRp1029
(dp1030
g61
(dp1031
sg70
g1016
sg63
(lp1032
g56
(g57
g58
NtRp1033
(dp1034
g61
(dp1035
g69
I4
ssg70
g1029
sg63
(lp1036
S'ISO-8859-1,utf-8;q=0.7,*;q=0.7'
p1037
asbasbasbag56
(g72
g58
NtRp1038
(dp1039
g61
(dp1040
sg70
g834
sg63
(lp1041
g56
(g77
g58
NtRp1042
(dp1043
g61
(dp1044
g81
g82
ssg70
g1038
sg63
(lp1045
S'http_accept_encoding'
p1046
asbag56
(g77
g58
NtRp1047
(dp1048
g61
(dp1049
g88
g89
ssg70
g1038
sg63
(lp1050
S':'
asbag56
(g77
g58
NtRp1051
(dp1052
g61
(dp1053
sg70
g1038
sg63
(lp1054
g56
(g57
g58
NtRp1055
(dp1056
g61
(dp1057
g69
I4
ssg70
g1051
sg63
(lp1058
S'gzip, deflate'
p1059
asbasbasbag56
(g72
g58
NtRp1060
(dp1061
g61
(dp1062
sg70
g834
sg63
(lp1063
g56
(g77
g58
NtRp1064
(dp1065
g61
(dp1066
g81
g82
ssg70
g1060
sg63
(lp1067
S'http_accept_language'
p1068
asbag56
(g77
g58
NtRp1069
(dp1070
g61
(dp1071
g88
g89
ssg70
g1060
sg63
(lp1072
S':'
asbag56
(g77
g58
NtRp1073
(dp1074
g61
(dp1075
sg70
g1060
sg63
(lp1076
g56
(g57
g58
NtRp1077
(dp1078
g61
(dp1079
g69
I4
ssg70
g1073
sg63
(lp1080
S'en-us,en;q=0.5'
p1081
asbasbasbag56
(g72
g58
NtRp1082
(dp1083
g61
(dp1084
sg70
g834
sg63
(lp1085
g56
(g77
g58
NtRp1086
(dp1087
g61
(dp1088
g81
g82
ssg70
g1082
sg63
(lp1089
S'http_connection'
p1090
asbag56
(g77
g58
NtRp1091
(dp1092
g61
(dp1093
g88
g89
ssg70
g1082
sg63
(lp1094
S':'
asbag56
(g77
g58
NtRp1095
(dp1096
g61
(dp1097
sg70
g1082
sg63
(lp1098
g56
(g57
g58
NtRp1099
(dp1100
g61
(dp1101
g69
I4
ssg70
g1095
sg63
(lp1102
S'keep-alive'
p1103
asbasbasbag56
(g72
g58
NtRp1104
(dp1105
g61
(dp1106
sg70
g834
sg63
(lp1107
g56
(g77
g58
NtRp1108
(dp1109
g61
(dp1110
g81
g82
ssg70
g1104
sg63
(lp1111
S'http_cookie'
p1112
asbag56
(g77
g58
NtRp1113
(dp1114
g61
(dp1115
g88
g89
ssg70
g1104
sg63
(lp1116
S':'
asbag56
(g77
g58
NtRp1117
(dp1118
g61
(dp1119
sg70
g1104
sg63
(lp1120
g56
(g57
g58
NtRp1121
(dp1122
g61
(dp1123
g69
I4
ssg70
g1117
sg63
(lp1124
S'__utma_a2a=9789918665.1351576430.1320019504.1320019504.1320019504.1; session_id_welcome=127.0.0.1-3ab8d7d7-13cf-4607-be24-e2fabfac3080; session_id_grades=127.0.0.1-c574ca17-f89b-43b2-a33b-5430c26e6a60; session_id_admin=127.0.0.1-e60c3a2d-b3bd-476b-86cd-b7f3ce8126e7'
p1125
asbasbasbag56
(g72
g58
NtRp1126
(dp1127
g61
(dp1128
sg70
g834
sg63
(lp1129
g56
(g77
g58
NtRp1130
(dp1131
g61
(dp1132
g81
g82
ssg70
g1126
sg63
(lp1133
S'http_host'
p1134
asbag56
(g77
g58
NtRp1135
(dp1136
g61
(dp1137
g88
g89
ssg70
g1126
sg63
(lp1138
S':'
asbag56
(g77
g58
NtRp1139
(dp1140
g61
(dp1141
sg70
g1126
sg63
(lp1142
g56
(g57
g58
NtRp1143
(dp1144
g61
(dp1145
g69
I4
ssg70
g1139
sg63
(lp1146
S'127.0.0.1:8000'
p1147
asbasbasbag56
(g72
g58
NtRp1148
(dp1149
g61
(dp1150
sg70
g834
sg63
(lp1151
g56
(g77
g58
NtRp1152
(dp1153
g61
(dp1154
g81
g82
ssg70
g1148
sg63
(lp1155
S'http_user_agent'
p1156
asbag56
(g77
g58
NtRp1157
(dp1158
g61
(dp1159
g88
g89
ssg70
g1148
sg63
(lp1160
S':'
asbag56
(g77
g58
NtRp1161
(dp1162
g61
(dp1163
sg70
g1148
sg63
(lp1164
g56
(g57
g58
NtRp1165
(dp1166
g61
(dp1167
g69
I4
ssg70
g1161
sg63
(lp1168
S'Mozilla/5.0 (X11; Linux x86_64; rv:7.0.1) Gecko/20100101 Firefox/7.0.1'
p1169
asbasbasbag56
(g72
g58
NtRp1170
(dp1171
g61
(dp1172
sg70
g834
sg63
(lp1173
g56
(g77
g58
NtRp1174
(dp1175
g61
(dp1176
g81
g82
ssg70
g1170
sg63
(lp1177
S'is_jython'
p1178
asbag56
(g77
g58
NtRp1179
(dp1180
g61
(dp1181
g88
g89
ssg70
g1170
sg63
(lp1182
S':'
asbag56
(g77
g58
NtRp1183
(dp1184
g61
(dp1185
sg70
g1170
sg63
(lp1186
g56
(g57
g58
NtRp1187
(dp1188
g61
(dp1189
g69
I4
ssg70
g1183
sg63
(lp1190
g99
asbasbasbag56
(g72
g58
NtRp1191
(dp1192
g61
(dp1193
sg70
g834
sg63
(lp1194
g56
(g77
g58
NtRp1195
(dp1196
g61
(dp1197
g81
g82
ssg70
g1191
sg63
(lp1198
S'path_info'
p1199
asbag56
(g77
g58
NtRp1200
(dp1201
g61
(dp1202
g88
g89
ssg70
g1191
sg63
(lp1203
S':'
asbag56
(g77
g58
NtRp1204
(dp1205
g61
(dp1206
sg70
g1191
sg63
(lp1207
g56
(g57
g58
NtRp1208
(dp1209
g61
(dp1210
g69
I4
ssg70
g1204
sg63
(lp1211
S'/grades/default/grades_report/16'
p1212
asbasbasbag56
(g72
g58
NtRp1213
(dp1214
g61
(dp1215
sg70
g834
sg63
(lp1216
g56
(g77
g58
NtRp1217
(dp1218
g61
(dp1219
g81
g82
ssg70
g1213
sg63
(lp1220
S'query_string'
p1221
asbag56
(g77
g58
NtRp1222
(dp1223
g61
(dp1224
g88
g89
ssg70
g1213
sg63
(lp1225
S':'
asbag56
(g77
g58
NtRp1226
(dp1227
g61
(dp1228
sg70
g1213
sg63
(lp1229
g56
(g57
g58
NtRp1230
(dp1231
g61
(dp1232
g69
I4
ssg70
g1226
sg63
(lp1233
S''
asbasbasbag56
(g72
g58
NtRp1234
(dp1235
g61
(dp1236
sg70
g834
sg63
(lp1237
g56
(g77
g58
NtRp1238
(dp1239
g61
(dp1240
g81
g82
ssg70
g1234
sg63
(lp1241
S'remote_addr'
p1242
asbag56
(g77
g58
NtRp1243
(dp1244
g61
(dp1245
g88
g89
ssg70
g1234
sg63
(lp1246
S':'
asbag56
(g77
g58
NtRp1247
(dp1248
g61
(dp1249
sg70
g1234
sg63
(lp1250
g56
(g57
g58
NtRp1251
(dp1252
g61
(dp1253
g69
I4
ssg70
g1247
sg63
(lp1254
g202
asbasbasbag56
(g72
g58
NtRp1255
(dp1256
g61
(dp1257
sg70
g834
sg63
(lp1258
g56
(g77
g58
NtRp1259
(dp1260
g61
(dp1261
g81
g82
ssg70
g1255
sg63
(lp1262
S'remote_port'
p1263
asbag56
(g77
g58
NtRp1264
(dp1265
g61
(dp1266
g88
g89
ssg70
g1255
sg63
(lp1267
S':'
asbag56
(g77
g58
NtRp1268
(dp1269
g61
(dp1270
sg70
g1255
sg63
(lp1271
g56
(g57
g58
NtRp1272
(dp1273
g61
(dp1274
g69
I4
ssg70
g1268
sg63
(lp1275
S'37260'
p1276
asbasbasbag56
(g72
g58
NtRp1277
(dp1278
g61
(dp1279
sg70
g834
sg63
(lp1280
g56
(g77
g58
NtRp1281
(dp1282
g61
(dp1283
g81
g82
ssg70
g1277
sg63
(lp1284
S'request_method'
p1285
asbag56
(g77
g58
NtRp1286
(dp1287
g61
(dp1288
g88
g89
ssg70
g1277
sg63
(lp1289
S':'
asbag56
(g77
g58
NtRp1290
(dp1291
g61
(dp1292
sg70
g1277
sg63
(lp1293
g56
(g57
g58
NtRp1294
(dp1295
g61
(dp1296
g69
I4
ssg70
g1290
sg63
(lp1297
S'GET'
p1298
asbasbasbag56
(g72
g58
NtRp1299
(dp1300
g61
(dp1301
sg70
g834
sg63
(lp1302
g56
(g77
g58
NtRp1303
(dp1304
g61
(dp1305
g81
g82
ssg70
g1299
sg63
(lp1306
S'script_name'
p1307
asbag56
(g77
g58
NtRp1308
(dp1309
g61
(dp1310
g88
g89
ssg70
g1299
sg63
(lp1311
S':'
asbag56
(g77
g58
NtRp1312
(dp1313
g61
(dp1314
sg70
g1299
sg63
(lp1315
g56
(g57
g58
NtRp1316
(dp1317
g61
(dp1318
g69
I4
ssg70
g1312
sg63
(lp1319
S''
asbasbasbag56
(g72
g58
NtRp1320
(dp1321
g61
(dp1322
sg70
g834
sg63
(lp1323
g56
(g77
g58
NtRp1324
(dp1325
g61
(dp1326
g81
g82
ssg70
g1320
sg63
(lp1327
S'server_name'
p1328
asbag56
(g77
g58
NtRp1329
(dp1330
g61
(dp1331
g88
g89
ssg70
g1320
sg63
(lp1332
S':'
asbag56
(g77
g58
NtRp1333
(dp1334
g61
(dp1335
sg70
g1320
sg63
(lp1336
g56
(g57
g58
NtRp1337
(dp1338
g61
(dp1339
g69
I4
ssg70
g1333
sg63
(lp1340
S'Ariel-ubuntu'
p1341
asbasbasbag56
(g72
g58
NtRp1342
(dp1343
g61
(dp1344
sg70
g834
sg63
(lp1345
g56
(g77
g58
NtRp1346
(dp1347
g61
(dp1348
g81
g82
ssg70
g1342
sg63
(lp1349
S'server_port'
p1350
asbag56
(g77
g58
NtRp1351
(dp1352
g61
(dp1353
g88
g89
ssg70
g1342
sg63
(lp1354
S':'
asbag56
(g77
g58
NtRp1355
(dp1356
g61
(dp1357
sg70
g1342
sg63
(lp1358
g56
(g57
g58
NtRp1359
(dp1360
g61
(dp1361
g69
I4
ssg70
g1355
sg63
(lp1362
S'8000'
p1363
asbasbasbag56
(g72
g58
NtRp1364
(dp1365
g61
(dp1366
sg70
g834
sg63
(lp1367
g56
(g77
g58
NtRp1368
(dp1369
g61
(dp1370
g81
g82
ssg70
g1364
sg63
(lp1371
S'server_protocol'
p1372
asbag56
(g77
g58
NtRp1373
(dp1374
g61
(dp1375
g88
g89
ssg70
g1364
sg63
(lp1376
S':'
asbag56
(g77
g58
NtRp1377
(dp1378
g61
(dp1379
sg70
g1364
sg63
(lp1380
g56
(g57
g58
NtRp1381
(dp1382
g61
(dp1383
g69
I4
ssg70
g1377
sg63
(lp1384
S'HTTP/1.1'
p1385
asbasbasbag56
(g72
g58
NtRp1386
(dp1387
g61
(dp1388
sg70
g834
sg63
(lp1389
g56
(g77
g58
NtRp1390
(dp1391
g61
(dp1392
g81
g82
ssg70
g1386
sg63
(lp1393
S'server_software'
p1394
asbag56
(g77
g58
NtRp1395
(dp1396
g61
(dp1397
g88
g89
ssg70
g1386
sg63
(lp1398
S':'
asbag56
(g77
g58
NtRp1399
(dp1400
g61
(dp1401
sg70
g1386
sg63
(lp1402
g56
(g57
g58
NtRp1403
(dp1404
g61
(dp1405
g69
I4
ssg70
g1399
sg63
(lp1406
S'Rocket 1.2.4'
p1407
asbasbasbag56
(g72
g58
NtRp1408
(dp1409
g61
(dp1410
sg70
g834
sg63
(lp1411
g56
(g77
g58
NtRp1412
(dp1413
g61
(dp1414
g81
g82
ssg70
g1408
sg63
(lp1415
S'web2py_crontype'
p1416
asbag56
(g77
g58
NtRp1417
(dp1418
g61
(dp1419
g88
g89
ssg70
g1408
sg63
(lp1420
S':'
asbag56
(g77
g58
NtRp1421
(dp1422
g61
(dp1423
sg70
g1408
sg63
(lp1424
g56
(g57
g58
NtRp1425
(dp1426
g61
(dp1427
g69
I4
ssg70
g1421
sg63
(lp1428
S'hard'
p1429
asbasbasbag56
(g72
g58
NtRp1430
(dp1431
g61
(dp1432
sg70
g834
sg63
(lp1433
g56
(g77
g58
NtRp1434
(dp1435
g61
(dp1436
g81
g82
ssg70
g1430
sg63
(lp1437
S'web2py_path'
p1438
asbag56
(g77
g58
NtRp1439
(dp1440
g61
(dp1441
g88
g89
ssg70
g1430
sg63
(lp1442
S':'
asbag56
(g77
g58
NtRp1443
(dp1444
g61
(dp1445
sg70
g1430
sg63
(lp1446
g56
(g57
g58
NtRp1447
(dp1448
g61
(dp1449
g69
I4
ssg70
g1443
sg63
(lp1450
g881
asbasbasbag56
(g72
g58
NtRp1451
(dp1452
g61
(dp1453
sg70
g834
sg63
(lp1454
g56
(g77
g58
NtRp1455
(dp1456
g61
(dp1457
g81
g82
ssg70
g1451
sg63
(lp1458
S'web2py_version'
p1459
asbag56
(g77
g58
NtRp1460
(dp1461
g61
(dp1462
g88
g89
ssg70
g1451
sg63
(lp1463
S':'
asbag56
(g77
g58
NtRp1464
(dp1465
g61
(dp1466
sg70
g1451
sg63
(lp1467
g56
(g57
g58
NtRp1468
(dp1469
g61
(dp1470
g69
I4
ssg70
g1464
sg63
(lp1471
g56
(g65
g58
NtRp1472
(dp1473
g61
(dp1474
g69
I3
ssg70
Nsg63
(lp1475
g56
(g72
g58
NtRp1476
(dp1477
g61
(dp1478
sg70
g1472
sg63
(lp1479
g56
(g77
g58
NtRp1480
(dp1481
g61
(dp1482
sg70
g1476
sg63
(lp1483
g56
(g57
g58
NtRp1484
(dp1485
g61
(dp1486
g69
I3
ssg70
g1480
sg63
(lp1487
S'1'
asbasbasbag56
(g72
g58
NtRp1488
(dp1489
g61
(dp1490
sg70
g1472
sg63
(lp1491
g56
(g77
g58
NtRp1492
(dp1493
g61
(dp1494
sg70
g1488
sg63
(lp1495
g56
(g57
g58
NtRp1496
(dp1497
g61
(dp1498
g69
I3
ssg70
g1492
sg63
(lp1499
S'99'
p1500
asbasbasbag56
(g72
g58
NtRp1501
(dp1502
g61
(dp1503
sg70
g1472
sg63
(lp1504
g56
(g77
g58
NtRp1505
(dp1506
g61
(dp1507
sg70
g1501
sg63
(lp1508
g56
(g57
g58
NtRp1509
(dp1510
g61
(dp1511
g69
I3
ssg70
g1505
sg63
(lp1512
S'2'
asbasbasbag56
(g72
g58
NtRp1513
(dp1514
g61
(dp1515
sg70
g1472
sg63
(lp1516
g56
(g77
g58
NtRp1517
(dp1518
g61
(dp1519
sg70
g1513
sg63
(lp1520
g56
(g57
g58
NtRp1521
(dp1522
g61
(dp1523
g69
I3
ssg70
g1517
sg63
(lp1524
S'datetime.datetime(2011, 9, 26, 6, 55, 33)'
p1525
asbasbasbag56
(g72
g58
NtRp1526
(dp1527
g61
(dp1528
sg70
g1472
sg63
(lp1529
g56
(g77
g58
NtRp1530
(dp1531
g61
(dp1532
sg70
g1526
sg63
(lp1533
g56
(g57
g58
NtRp1534
(dp1535
g61
(dp1536
g69
I3
ssg70
g1530
sg63
(lp1537
S'stable'
p1538
asbasbasbasbasbasbasbag56
(g72
g58
NtRp1539
(dp1540
g61
(dp1541
sg70
g834
sg63
(lp1542
g56
(g77
g58
NtRp1543
(dp1544
g61
(dp1545
g81
g82
ssg70
g1539
sg63
(lp1546
S'wsgi_errors'
p1547
asbag56
(g77
g58
NtRp1548
(dp1549
g61
(dp1550
g88
g89
ssg70
g1539
sg63
(lp1551
S':'
asbag56
(g77
g58
NtRp1552
(dp1553
g61
(dp1554
sg70
g1539
sg63
(lp1555
g56
(g57
g58
NtRp1556
(dp1557
g61
(dp1558
g69
I4
ssg70
g1552
sg63
(lp1559
S"<open file '<stderr>', mode 'w' at 0x7fcb798d7270>"
p1560
asbasbasbag56
(g72
g58
NtRp1561
(dp1562
g61
(dp1563
sg70
g834
sg63
(lp1564
g56
(g77
g58
NtRp1565
(dp1566
g61
(dp1567
g81
g82
ssg70
g1561
sg63
(lp1568
S'wsgi_file_wrapper'
p1569
asbag56
(g77
g58
NtRp1570
(dp1571
g61
(dp1572
g88
g89
ssg70
g1561
sg63
(lp1573
S':'
asbag56
(g77
g58
NtRp1574
(dp1575
g61
(dp1576
sg70
g1561
sg63
(lp1577
g56
(g57
g58
NtRp1578
(dp1579
g61
(dp1580
g69
I4
ssg70
g1574
sg63
(lp1581
S'<class wsgiref.util.FileWrapper at 0x19ec808>'
p1582
asbasbasbag56
(g72
g58
NtRp1583
(dp1584
g61
(dp1585
sg70
g834
sg63
(lp1586
g56
(g77
g58
NtRp1587
(dp1588
g61
(dp1589
g81
g82
ssg70
g1583
sg63
(lp1590
S'wsgi_input'
p1591
asbag56
(g77
g58
NtRp1592
(dp1593
g61
(dp1594
g88
g89
ssg70
g1583
sg63
(lp1595
S':'
asbag56
(g77
g58
NtRp1596
(dp1597
g61
(dp1598
sg70
g1583
sg63
(lp1599
g56
(g57
g58
NtRp1600
(dp1601
g61
(dp1602
g69
I4
ssg70
g1596
sg63
(lp1603
S'<socket._fileobject object at 0x69af650>'
p1604
asbasbasbag56
(g72
g58
NtRp1605
(dp1606
g61
(dp1607
sg70
g834
sg63
(lp1608
g56
(g77
g58
NtRp1609
(dp1610
g61
(dp1611
g81
g82
ssg70
g1605
sg63
(lp1612
S'wsgi_multiprocess'
p1613
asbag56
(g77
g58
NtRp1614
(dp1615
g61
(dp1616
g88
g89
ssg70
g1605
sg63
(lp1617
S':'
asbag56
(g77
g58
NtRp1618
(dp1619
g61
(dp1620
sg70
g1605
sg63
(lp1621
g56
(g57
g58
NtRp1622
(dp1623
g61
(dp1624
g69
I4
ssg70
g1618
sg63
(lp1625
g99
asbasbasbag56
(g72
g58
NtRp1626
(dp1627
g61
(dp1628
sg70
g834
sg63
(lp1629
g56
(g77
g58
NtRp1630
(dp1631
g61
(dp1632
g81
g82
ssg70
g1626
sg63
(lp1633
S'wsgi_multithread'
p1634
asbag56
(g77
g58
NtRp1635
(dp1636
g61
(dp1637
g88
g89
ssg70
g1626
sg63
(lp1638
S':'
asbag56
(g77
g58
NtRp1639
(dp1640
g61
(dp1641
sg70
g1626
sg63
(lp1642
g56
(g57
g58
NtRp1643
(dp1644
g61
(dp1645
g69
I4
ssg70
g1639
sg63
(lp1646
S'True'
p1647
asbasbasbag56
(g72
g58
NtRp1648
(dp1649
g61
(dp1650
sg70
g834
sg63
(lp1651
g56
(g77
g58
NtRp1652
(dp1653
g61
(dp1654
g81
g82
ssg70
g1648
sg63
(lp1655
S'wsgi_run_once'
p1656
asbag56
(g77
g58
NtRp1657
(dp1658
g61
(dp1659
g88
g89
ssg70
g1648
sg63
(lp1660
S':'
asbag56
(g77
g58
NtRp1661
(dp1662
g61
(dp1663
sg70
g1648
sg63
(lp1664
g56
(g57
g58
NtRp1665
(dp1666
g61
(dp1667
g69
I4
ssg70
g1661
sg63
(lp1668
g99
asbasbasbag56
(g72
g58
NtRp1669
(dp1670
g61
(dp1671
sg70
g834
sg63
(lp1672
g56
(g77
g58
NtRp1673
(dp1674
g61
(dp1675
g81
g82
ssg70
g1669
sg63
(lp1676
S'wsgi_url_scheme'
p1677
asbag56
(g77
g58
NtRp1678
(dp1679
g61
(dp1680
g88
g89
ssg70
g1669
sg63
(lp1681
S':'
asbag56
(g77
g58
NtRp1682
(dp1683
g61
(dp1684
sg70
g1669
sg63
(lp1685
g56
(g57
g58
NtRp1686
(dp1687
g61
(dp1688
g69
I4
ssg70
g1682
sg63
(lp1689
S'http'
p1690
asbasbasbag56
(g72
g58
NtRp1691
(dp1692
g61
(dp1693
sg70
g834
sg63
(lp1694
g56
(g77
g58
NtRp1695
(dp1696
g61
(dp1697
g81
g82
ssg70
g1691
sg63
(lp1698
S'wsgi_version'
p1699
asbag56
(g77
g58
NtRp1700
(dp1701
g61
(dp1702
g88
g89
ssg70
g1691
sg63
(lp1703
S':'
asbag56
(g77
g58
NtRp1704
(dp1705
g61
(dp1706
sg70
g1691
sg63
(lp1707
g56
(g57
g58
NtRp1708
(dp1709
g61
(dp1710
g69
I4
ssg70
g1704
sg63
(lp1711
g56
(g65
g58
NtRp1712
(dp1713
g61
(dp1714
g69
I3
ssg70
Nsg63
(lp1715
g56
(g72
g58
NtRp1716
(dp1717
g61
(dp1718
sg70
g1712
sg63
(lp1719
g56
(g77
g58
NtRp1720
(dp1721
g61
(dp1722
sg70
g1716
sg63
(lp1723
g56
(g57
g58
NtRp1724
(dp1725
g61
(dp1726
g69
I3
ssg70
g1720
sg63
(lp1727
S'1'
asbasbasbag56
(g72
g58
NtRp1728
(dp1729
g61
(dp1730
sg70
g1712
sg63
(lp1731
g56
(g77
g58
NtRp1732
(dp1733
g61
(dp1734
sg70
g1728
sg63
(lp1735
g56
(g57
g58
NtRp1736
(dp1737
g61
(dp1738
g69
I3
ssg70
g1732
sg63
(lp1739
S'0'
asbasbasbasbasbasbasbasbasbasbasbag56
(g72
g58
NtRp1740
(dp1741
g61
(dp1742
sg70
g66
sg63
(lp1743
g56
(g77
g58
NtRp1744
(dp1745
g61
(dp1746
g81
g82
ssg70
g1740
sg63
(lp1747
S'extension'
p1748
asbag56
(g77
g58
NtRp1749
(dp1750
g61
(dp1751
g88
g89
ssg70
g1740
sg63
(lp1752
S':'
asbag56
(g77
g58
NtRp1753
(dp1754
g61
(dp1755
sg70
g1740
sg63
(lp1756
g56
(g57
g58
NtRp1757
(dp1758
g61
(dp1759
g69
I5
ssg70
g1753
sg63
(lp1760
S'html'
p1761
asbasbasbag56
(g72
g58
NtRp1762
(dp1763
g61
(dp1764
sg70
g66
sg63
(lp1765
g56
(g77
g58
NtRp1766
(dp1767
g61
(dp1768
g81
g82
ssg70
g1762
sg63
(lp1769
S'folder'
p1770
asbag56
(g77
g58
NtRp1771
(dp1772
g61
(dp1773
g88
g89
ssg70
g1762
sg63
(lp1774
S':'
asbag56
(g77
g58
NtRp1775
(dp1776
g61
(dp1777
sg70
g1762
sg63
(lp1778
g56
(g57
g58
NtRp1779
(dp1780
g61
(dp1781
g69
I5
ssg70
g1775
sg63
(lp1782
S'/home/ian/web2py/applications/grades/'
p1783
asbasbasbag56
(g72
g58
NtRp1784
(dp1785
g61
(dp1786
sg70
g66
sg63
(lp1787
g56
(g77
g58
NtRp1788
(dp1789
g61
(dp1790
g81
g82
ssg70
g1784
sg63
(lp1791
S'function'
p1792
asbag56
(g77
g58
NtRp1793
(dp1794
g61
(dp1795
g88
g89
ssg70
g1784
sg63
(lp1796
S':'
asbag56
(g77
g58
NtRp1797
(dp1798
g61
(dp1799
sg70
g1784
sg63
(lp1800
g56
(g57
g58
NtRp1801
(dp1802
g61
(dp1803
g69
I5
ssg70
g1797
sg63
(lp1804
S'grades_report'
p1805
asbasbasbag56
(g72
g58
NtRp1806
(dp1807
g61
(dp1808
sg70
g66
sg63
(lp1809
g56
(g77
g58
NtRp1810
(dp1811
g61
(dp1812
g81
g82
ssg70
g1806
sg63
(lp1813
S'get_vars'
p1814
asbag56
(g77
g58
NtRp1815
(dp1816
g61
(dp1817
g88
g89
ssg70
g1806
sg63
(lp1818
S':'
asbag56
(g77
g58
NtRp1819
(dp1820
g61
(dp1821
sg70
g1806
sg63
(lp1822
g56
(g57
g58
NtRp1823
(dp1824
g61
(dp1825
g69
I5
ssg70
g1819
sg63
(lp1826
g56
(g65
g58
NtRp1827
(dp1828
g61
(dp1829
g69
I4
ssg70
Nsg63
(lp1830
sbasbasbasbag56
(g72
g58
NtRp1831
(dp1832
g61
(dp1833
sg70
g66
sg63
(lp1834
g56
(g77
g58
NtRp1835
(dp1836
g61
(dp1837
g81
g82
ssg70
g1831
sg63
(lp1838
S'global_settings'
p1839
asbag56
(g77
g58
NtRp1840
(dp1841
g61
(dp1842
g88
g89
ssg70
g1831
sg63
(lp1843
S':'
asbag56
(g77
g58
NtRp1844
(dp1845
g61
(dp1846
sg70
g1831
sg63
(lp1847
g56
(g57
g58
NtRp1848
(dp1849
g61
(dp1850
g69
I5
ssg70
g1844
sg63
(lp1851
g56
(g65
g58
NtRp1852
(dp1853
g61
(dp1854
g69
I4
ssg70
Nsg63
(lp1855
g56
(g72
g58
NtRp1856
(dp1857
g61
(dp1858
sg70
g1852
sg63
(lp1859
g56
(g77
g58
NtRp1860
(dp1861
g61
(dp1862
g81
g82
ssg70
g1856
sg63
(lp1863
g846
asbag56
(g77
g58
NtRp1864
(dp1865
g61
(dp1866
g88
g89
ssg70
g1856
sg63
(lp1867
S':'
asbag56
(g77
g58
NtRp1868
(dp1869
g61
(dp1870
sg70
g1856
sg63
(lp1871
g56
(g57
g58
NtRp1872
(dp1873
g61
(dp1874
g69
I4
ssg70
g1868
sg63
(lp1875
S"set(['/home/ian/web2py/applications/welcome/', '/home/ian/web2py/applications/grades/', '/home/ian/web2py/applications/admin/'])"
p1876
asbasbasbag56
(g72
g58
NtRp1877
(dp1878
g61
(dp1879
sg70
g1852
sg63
(lp1880
g56
(g77
g58
NtRp1881
(dp1882
g61
(dp1883
g81
g82
ssg70
g1877
sg63
(lp1884
g868
asbag56
(g77
g58
NtRp1885
(dp1886
g61
(dp1887
g88
g89
ssg70
g1877
sg63
(lp1888
S':'
asbag56
(g77
g58
NtRp1889
(dp1890
g61
(dp1891
sg70
g1877
sg63
(lp1892
g56
(g57
g58
NtRp1893
(dp1894
g61
(dp1895
g69
I4
ssg70
g1889
sg63
(lp1896
g881
asbasbasbag56
(g72
g58
NtRp1897
(dp1898
g61
(dp1899
sg70
g1852
sg63
(lp1900
g56
(g77
g58
NtRp1901
(dp1902
g61
(dp1903
g81
g82
ssg70
g1897
sg63
(lp1904
g890
asbag56
(g77
g58
NtRp1905
(dp1906
g61
(dp1907
g88
g89
ssg70
g1897
sg63
(lp1908
S':'
asbag56
(g77
g58
NtRp1909
(dp1910
g61
(dp1911
sg70
g1897
sg63
(lp1912
g56
(g57
g58
NtRp1913
(dp1914
g61
(dp1915
g69
I4
ssg70
g1909
sg63
(lp1916
g56
(g65
g58
NtRp1917
(dp1918
g61
(dp1919
g69
I3
ssg70
Nsg63
(lp1920
sbasbasbasbag56
(g72
g58
NtRp1921
(dp1922
g61
(dp1923
sg70
g1852
sg63
(lp1924
g56
(g77
g58
NtRp1925
(dp1926
g61
(dp1927
g81
g82
ssg70
g1921
sg63
(lp1928
g915
asbag56
(g77
g58
NtRp1929
(dp1930
g61
(dp1931
g88
g89
ssg70
g1921
sg63
(lp1932
S':'
asbag56
(g77
g58
NtRp1933
(dp1934
g61
(dp1935
sg70
g1921
sg63
(lp1936
g56
(g57
g58
NtRp1937
(dp1938
g61
(dp1939
g69
I4
ssg70
g1933
sg63
(lp1940
S"<Values at 0x1b247e8: {'verbose': False, 'ip': '127.0.0.1', 'shutdown_timeout': 5, 'taskbar': False, 'nocron': False, 'pid_filename': 'httpserver.pid', 'maxthreads': None, 'softcron': False, 'server_name': 'Ariel-ubuntu', 'bpython': False, 'nogui': False, 'port': 8000, 'extcron': False, 'debuglevel': 30, 'test': None, 'folder': '/home/ian/web2py', 'config': '', 'import_models': False, 'winservice': '', 'shell': None, 'run': '', 'log_filename': 'httpserver.log', 'args': [''], 'ssl_ca_certificate': None, 'scheduler': None, 'profiler_filename': None, 'ssl_private_key': '', 'password': '<ask>', 'request_queue_size': 5, 'ssl_certificate': '', 'cronjob': False, 'plain': False, 'quiet': False, 'interfaces': None, 'minthreads': None, 'timeout': 10, 'numthreads': None, 'nobanner': False}>"
p1941
asbasbasbag56
(g72
g58
NtRp1942
(dp1943
g61
(dp1944
sg70
g1852
sg63
(lp1945
g56
(g77
g58
NtRp1946
(dp1947
g61
(dp1948
g81
g82
ssg70
g1942
sg63
(lp1949
g937
asbag56
(g77
g58
NtRp1950
(dp1951
g61
(dp1952
g88
g89
ssg70
g1942
sg63
(lp1953
S':'
asbag56
(g77
g58
NtRp1954
(dp1955
g61
(dp1956
sg70
g1942
sg63
(lp1957
g56
(g57
g58
NtRp1958
(dp1959
g61
(dp1960
g69
I4
ssg70
g1954
sg63
(lp1961
S'set([])'
p1962
asbasbasbag56
(g72
g58
NtRp1963
(dp1964
g61
(dp1965
sg70
g1852
sg63
(lp1966
g56
(g77
g58
NtRp1967
(dp1968
g61
(dp1969
g81
g82
ssg70
g1963
sg63
(lp1970
g959
asbag56
(g77
g58
NtRp1971
(dp1972
g61
(dp1973
g88
g89
ssg70
g1963
sg63
(lp1974
S':'
asbag56
(g77
g58
NtRp1975
(dp1976
g61
(dp1977
sg70
g1963
sg63
(lp1978
g56
(g57
g58
NtRp1979
(dp1980
g61
(dp1981
g69
I4
ssg70
g1975
sg63
(lp1982
g99
asbasbasbag56
(g72
g58
NtRp1983
(dp1984
g61
(dp1985
sg70
g1852
sg63
(lp1986
g56
(g77
g58
NtRp1987
(dp1988
g61
(dp1989
g81
g82
ssg70
g1983
sg63
(lp1990
g980
asbag56
(g77
g58
NtRp1991
(dp1992
g61
(dp1993
g88
g89
ssg70
g1983
sg63
(lp1994
S':'
asbag56
(g77
g58
NtRp1995
(dp1996
g61
(dp1997
sg70
g1983
sg63
(lp1998
g56
(g57
g58
NtRp1999
(dp2000
g61
(dp2001
g69
I4
ssg70
g1995
sg63
(lp2002
g993
asbasbasbag56
(g72
g58
NtRp2003
(dp2004
g61
(dp2005
sg70
g1852
sg63
(lp2006
g56
(g77
g58
NtRp2007
(dp2008
g61
(dp2009
g81
g82
ssg70
g2003
sg63
(lp2010
g1178
asbag56
(g77
g58
NtRp2011
(dp2012
g61
(dp2013
g88
g89
ssg70
g2003
sg63
(lp2014
S':'
asbag56
(g77
g58
NtRp2015
(dp2016
g61
(dp2017
sg70
g2003
sg63
(lp2018
g56
(g57
g58
NtRp2019
(dp2020
g61
(dp2021
g69
I4
ssg70
g2015
sg63
(lp2022
g99
asbasbasbag56
(g72
g58
NtRp2023
(dp2024
g61
(dp2025
sg70
g1852
sg63
(lp2026
g56
(g77
g58
NtRp2027
(dp2028
g61
(dp2029
g81
g82
ssg70
g2023
sg63
(lp2030
g1416
asbag56
(g77
g58
NtRp2031
(dp2032
g61
(dp2033
g88
g89
ssg70
g2023
sg63
(lp2034
S':'
asbag56
(g77
g58
NtRp2035
(dp2036
g61
(dp2037
sg70
g2023
sg63
(lp2038
g56
(g57
g58
NtRp2039
(dp2040
g61
(dp2041
g69
I4
ssg70
g2035
sg63
(lp2042
g1429
asbasbasbag56
(g72
g58
NtRp2043
(dp2044
g61
(dp2045
sg70
g1852
sg63
(lp2046
g56
(g77
g58
NtRp2047
(dp2048
g61
(dp2049
g81
g82
ssg70
g2043
sg63
(lp2050
g1459
asbag56
(g77
g58
NtRp2051
(dp2052
g61
(dp2053
g88
g89
ssg70
g2043
sg63
(lp2054
S':'
asbag56
(g77
g58
NtRp2055
(dp2056
g61
(dp2057
sg70
g2043
sg63
(lp2058
g56
(g57
g58
NtRp2059
(dp2060
g61
(dp2061
g69
I4
ssg70
g2055
sg63
(lp2062
g56
(g65
g58
NtRp2063
(dp2064
g61
(dp2065
g69
I3
ssg70
Nsg63
(lp2066
g56
(g72
g58
NtRp2067
(dp2068
g61
(dp2069
sg70
g2063
sg63
(lp2070
g56
(g77
g58
NtRp2071
(dp2072
g61
(dp2073
sg70
g2067
sg63
(lp2074
g56
(g57
g58
NtRp2075
(dp2076
g61
(dp2077
g69
I3
ssg70
g2071
sg63
(lp2078
S'1'
asbasbasbag56
(g72
g58
NtRp2079
(dp2080
g61
(dp2081
sg70
g2063
sg63
(lp2082
g56
(g77
g58
NtRp2083
(dp2084
g61
(dp2085
sg70
g2079
sg63
(lp2086
g56
(g57
g58
NtRp2087
(dp2088
g61
(dp2089
g69
I3
ssg70
g2083
sg63
(lp2090
S'99'
p2091
asbasbasbag56
(g72
g58
NtRp2092
(dp2093
g61
(dp2094
sg70
g2063
sg63
(lp2095
g56
(g77
g58
NtRp2096
(dp2097
g61
(dp2098
sg70
g2092
sg63
(lp2099
g56
(g57
g58
NtRp2100
(dp2101
g61
(dp2102
g69
I3
ssg70
g2096
sg63
(lp2103
S'2'
asbasbasbag56
(g72
g58
NtRp2104
(dp2105
g61
(dp2106
sg70
g2063
sg63
(lp2107
g56
(g77
g58
NtRp2108
(dp2109
g61
(dp2110
sg70
g2104
sg63
(lp2111
g56
(g57
g58
NtRp2112
(dp2113
g61
(dp2114
g69
I3
ssg70
g2108
sg63
(lp2115
S'datetime.datetime(2011, 9, 26, 6, 55, 33)'
p2116
asbasbasbag56
(g72
g58
NtRp2117
(dp2118
g61
(dp2119
sg70
g2063
sg63
(lp2120
g56
(g77
g58
NtRp2121
(dp2122
g61
(dp2123
sg70
g2117
sg63
(lp2124
g56
(g57
g58
NtRp2125
(dp2126
g61
(dp2127
g69
I3
ssg70
g2121
sg63
(lp2128
g1538
asbasbasbasbasbasbasbasbasbasbasbag56
(g72
g58
NtRp2129
(dp2130
g61
(dp2131
sg70
g66
sg63
(lp2132
g56
(g77
g58
NtRp2133
(dp2134
g61
(dp2135
g81
g82
ssg70
g2129
sg63
(lp2136
S'is_https'
p2137
asbag56
(g77
g58
NtRp2138
(dp2139
g61
(dp2140
g88
g89
ssg70
g2129
sg63
(lp2141
S':'
asbag56
(g77
g58
NtRp2142
(dp2143
g61
(dp2144
sg70
g2129
sg63
(lp2145
g56
(g57
g58
NtRp2146
(dp2147
g61
(dp2148
g69
I5
ssg70
g2142
sg63
(lp2149
g99
asbasbasbag56
(g72
g58
NtRp2150
(dp2151
g61
(dp2152
sg70
g66
sg63
(lp2153
g56
(g77
g58
NtRp2154
(dp2155
g61
(dp2156
g81
g82
ssg70
g2150
sg63
(lp2157
S'is_local'
p2158
asbag56
(g77
g58
NtRp2159
(dp2160
g61
(dp2161
g88
g89
ssg70
g2150
sg63
(lp2162
S':'
asbag56
(g77
g58
NtRp2163
(dp2164
g61
(dp2165
sg70
g2150
sg63
(lp2166
g56
(g57
g58
NtRp2167
(dp2168
g61
(dp2169
g69
I5
ssg70
g2163
sg63
(lp2170
g1647
asbasbasbag56
(g72
g58
NtRp2171
(dp2172
g61
(dp2173
sg70
g66
sg63
(lp2174
g56
(g77
g58
NtRp2175
(dp2176
g61
(dp2177
g81
g82
ssg70
g2171
sg63
(lp2178
S'is_restful'
p2179
asbag56
(g77
g58
NtRp2180
(dp2181
g61
(dp2182
g88
g89
ssg70
g2171
sg63
(lp2183
S':'
asbag56
(g77
g58
NtRp2184
(dp2185
g61
(dp2186
sg70
g2171
sg63
(lp2187
g56
(g57
g58
NtRp2188
(dp2189
g61
(dp2190
g69
I5
ssg70
g2184
sg63
(lp2191
g99
asbasbasbag56
(g72
g58
NtRp2192
(dp2193
g61
(dp2194
sg70
g66
sg63
(lp2195
g56
(g77
g58
NtRp2196
(dp2197
g61
(dp2198
g81
g82
ssg70
g2192
sg63
(lp2199
S'now'
p2200
asbag56
(g77
g58
NtRp2201
(dp2202
g61
(dp2203
g88
g89
ssg70
g2192
sg63
(lp2204
S':'
asbag56
(g77
g58
NtRp2205
(dp2206
g61
(dp2207
sg70
g2192
sg63
(lp2208
g56
(g57
g58
NtRp2209
(dp2210
g61
(dp2211
g69
I5
ssg70
g2205
sg63
(lp2212
S'datetime.datetime(2011, 11, 3, 9, 49, 56, 944041)'
p2213
asbasbasbag56
(g72
g58
NtRp2214
(dp2215
g61
(dp2216
sg70
g66
sg63
(lp2217
g56
(g77
g58
NtRp2218
(dp2219
g61
(dp2220
g81
g82
ssg70
g2214
sg63
(lp2221
S'post_vars'
p2222
asbag56
(g77
g58
NtRp2223
(dp2224
g61
(dp2225
g88
g89
ssg70
g2214
sg63
(lp2226
S':'
asbag56
(g77
g58
NtRp2227
(dp2228
g61
(dp2229
sg70
g2214
sg63
(lp2230
g56
(g57
g58
NtRp2231
(dp2232
g61
(dp2233
g69
I5
ssg70
g2227
sg63
(lp2234
g56
(g65
g58
NtRp2235
(dp2236
g61
(dp2237
g69
I4
ssg70
Nsg63
(lp2238
sbasbasbasbag56
(g72
g58
NtRp2239
(dp2240
g61
(dp2241
sg70
g66
sg63
(lp2242
g56
(g77
g58
NtRp2243
(dp2244
g61
(dp2245
g81
g82
ssg70
g2239
sg63
(lp2246
S'raw_args'
p2247
asbag56
(g77
g58
NtRp2248
(dp2249
g61
(dp2250
g88
g89
ssg70
g2239
sg63
(lp2251
S':'
asbag56
(g77
g58
NtRp2252
(dp2253
g61
(dp2254
sg70
g2239
sg63
(lp2255
g56
(g57
g58
NtRp2256
(dp2257
g61
(dp2258
g69
I5
ssg70
g2252
sg63
(lp2259
g158
asbasbasbag56
(g72
g58
NtRp2260
(dp2261
g61
(dp2262
sg70
g66
sg63
(lp2263
g56
(g77
g58
NtRp2264
(dp2265
g61
(dp2266
g81
g82
ssg70
g2260
sg63
(lp2267
S'url'
p2268
asbag56
(g77
g58
NtRp2269
(dp2270
g61
(dp2271
g88
g89
ssg70
g2260
sg63
(lp2272
S':'
asbag56
(g77
g58
NtRp2273
(dp2274
g61
(dp2275
sg70
g2260
sg63
(lp2276
g56
(g57
g58
NtRp2277
(dp2278
g61
(dp2279
g69
I5
ssg70
g2273
sg63
(lp2280
S'/grades/default/grades_report/16'
p2281
asbasbasbag56
(g72
g58
NtRp2282
(dp2283
g61
(dp2284
sg70
g66
sg63
(lp2285
g56
(g77
g58
NtRp2286
(dp2287
g61
(dp2288
g81
g82
ssg70
g2282
sg63
(lp2289
S'utcnow'
p2290
asbag56
(g77
g58
NtRp2291
(dp2292
g61
(dp2293
g88
g89
ssg70
g2282
sg63
(lp2294
S':'
asbag56
(g77
g58
NtRp2295
(dp2296
g61
(dp2297
sg70
g2282
sg63
(lp2298
g56
(g57
g58
NtRp2299
(dp2300
g61
(dp2301
g69
I5
ssg70
g2295
sg63
(lp2302
S'datetime.datetime(2011, 11, 3, 13, 49, 56, 944102)'
p2303
asbasbasbag56
(g72
g58
NtRp2304
(dp2305
g61
(dp2306
sg70
g66
sg63
(lp2307
g56
(g77
g58
NtRp2308
(dp2309
g61
(dp2310
g81
g82
ssg70
g2304
sg63
(lp2311
S'uuid'
p2312
asbag56
(g77
g58
NtRp2313
(dp2314
g61
(dp2315
g88
g89
ssg70
g2304
sg63
(lp2316
S':'
asbag56
(g77
g58
NtRp2317
(dp2318
g61
(dp2319
sg70
g2304
sg63
(lp2320
g56
(g57
g58
NtRp2321
(dp2322
g61
(dp2323
g69
I5
ssg70
g2317
sg63
(lp2324
S'grades/127.0.0.1.2011-11-03.09-49-56.0dce6db4-eeb6-4402-8d83-bda8367e1c9f'
p2325
asbasbasbag56
(g72
g58
NtRp2326
(dp2327
g61
(dp2328
sg70
g66
sg63
(lp2329
g56
(g77
g58
NtRp2330
(dp2331
g61
(dp2332
g81
g82
ssg70
g2326
sg63
(lp2333
S'vars'
p2334
asbag56
(g77
g58
NtRp2335
(dp2336
g61
(dp2337
g88
g89
ssg70
g2326
sg63
(lp2338
S':'
asbag56
(g77
g58
NtRp2339
(dp2340
g61
(dp2341
sg70
g2326
sg63
(lp2342
g56
(g57
g58
NtRp2343
(dp2344
g61
(dp2345
g69
I5
ssg70
g2339
sg63
(lp2346
g56
(g65
g58
NtRp2347
(dp2348
g61
(dp2349
g69
I4
ssg70
Nsg63
(lp2350
sbasbasbasbag56
(g72
g58
NtRp2351
(dp2352
g61
(dp2353
sg70
g66
sg63
(lp2354
g56
(g77
g58
NtRp2355
(dp2356
g61
(dp2357
g81
g82
ssg70
g2351
sg63
(lp2358
S'wsgi'
p2359
asbag56
(g77
g58
NtRp2360
(dp2361
g61
(dp2362
g88
g89
ssg70
g2351
sg63
(lp2363
S':'
asbag56
(g77
g58
NtRp2364
(dp2365
g61
(dp2366
sg70
g2351
sg63
(lp2367
g56
(g57
g58
NtRp2368
(dp2369
g61
(dp2370
g69
I5
ssg70
g2364
sg63
(lp2371
g56
(g65
g58
NtRp2372
(dp2373
g61
(dp2374
g69
I4
ssg70
Nsg63
(lp2375
g56
(g72
g58
NtRp2376
(dp2377
g61
(dp2378
sg70
g2372
sg63
(lp2379
g56
(g77
g58
NtRp2380
(dp2381
g61
(dp2382
g81
g82
ssg70
g2376
sg63
(lp2383
S'environ'
p2384
asbag56
(g77
g58
NtRp2385
(dp2386
g61
(dp2387
g88
g89
ssg70
g2376
sg63
(lp2388
S':'
asbag56
(g77
g58
NtRp2389
(dp2390
g61
(dp2391
sg70
g2376
sg63
(lp2392
g56
(g57
g58
NtRp2393
(dp2394
g61
(dp2395
g69
I4
ssg70
g2389
sg63
(lp2396
g56
(g65
g58
NtRp2397
(dp2398
g61
(dp2399
g69
I3
ssg70
Nsg63
(lp2400
g56
(g72
g58
NtRp2401
(dp2402
g61
(dp2403
sg70
g2397
sg63
(lp2404
g56
(g77
g58
NtRp2405
(dp2406
g61
(dp2407
g81
g82
ssg70
g2401
sg63
(lp2408
S'HTTP_ACCEPT'
p2409
asbag56
(g77
g58
NtRp2410
(dp2411
g61
(dp2412
g88
g89
ssg70
g2401
sg63
(lp2413
S':'
asbag56
(g77
g58
NtRp2414
(dp2415
g61
(dp2416
sg70
g2401
sg63
(lp2417
g56
(g57
g58
NtRp2418
(dp2419
g61
(dp2420
g69
I3
ssg70
g2414
sg63
(lp2421
g1015
asbasbasbag56
(g72
g58
NtRp2422
(dp2423
g61
(dp2424
sg70
g2397
sg63
(lp2425
g56
(g77
g58
NtRp2426
(dp2427
g61
(dp2428
g81
g82
ssg70
g2422
sg63
(lp2429
S'HTTP_ACCEPT_CHARSET'
p2430
asbag56
(g77
g58
NtRp2431
(dp2432
g61
(dp2433
g88
g89
ssg70
g2422
sg63
(lp2434
S':'
asbag56
(g77
g58
NtRp2435
(dp2436
g61
(dp2437
sg70
g2422
sg63
(lp2438
g56
(g57
g58
NtRp2439
(dp2440
g61
(dp2441
g69
I3
ssg70
g2435
sg63
(lp2442
g1037
asbasbasbag56
(g72
g58
NtRp2443
(dp2444
g61
(dp2445
sg70
g2397
sg63
(lp2446
g56
(g77
g58
NtRp2447
(dp2448
g61
(dp2449
g81
g82
ssg70
g2443
sg63
(lp2450
S'HTTP_ACCEPT_ENCODING'
p2451
asbag56
(g77
g58
NtRp2452
(dp2453
g61
(dp2454
g88
g89
ssg70
g2443
sg63
(lp2455
S':'
asbag56
(g77
g58
NtRp2456
(dp2457
g61
(dp2458
sg70
g2443
sg63
(lp2459
g56
(g57
g58
NtRp2460
(dp2461
g61
(dp2462
g69
I3
ssg70
g2456
sg63
(lp2463
g1059
asbasbasbag56
(g72
g58
NtRp2464
(dp2465
g61
(dp2466
sg70
g2397
sg63
(lp2467
g56
(g77
g58
NtRp2468
(dp2469
g61
(dp2470
g81
g82
ssg70
g2464
sg63
(lp2471
S'HTTP_ACCEPT_LANGUAGE'
p2472
asbag56
(g77
g58
NtRp2473
(dp2474
g61
(dp2475
g88
g89
ssg70
g2464
sg63
(lp2476
S':'
asbag56
(g77
g58
NtRp2477
(dp2478
g61
(dp2479
sg70
g2464
sg63
(lp2480
g56
(g57
g58
NtRp2481
(dp2482
g61
(dp2483
g69
I3
ssg70
g2477
sg63
(lp2484
g1081
asbasbasbag56
(g72
g58
NtRp2485
(dp2486
g61
(dp2487
sg70
g2397
sg63
(lp2488
g56
(g77
g58
NtRp2489
(dp2490
g61
(dp2491
g81
g82
ssg70
g2485
sg63
(lp2492
S'HTTP_CONNECTION'
p2493
asbag56
(g77
g58
NtRp2494
(dp2495
g61
(dp2496
g88
g89
ssg70
g2485
sg63
(lp2497
S':'
asbag56
(g77
g58
NtRp2498
(dp2499
g61
(dp2500
sg70
g2485
sg63
(lp2501
g56
(g57
g58
NtRp2502
(dp2503
g61
(dp2504
g69
I3
ssg70
g2498
sg63
(lp2505
g1103
asbasbasbag56
(g72
g58
NtRp2506
(dp2507
g61
(dp2508
sg70
g2397
sg63
(lp2509
g56
(g77
g58
NtRp2510
(dp2511
g61
(dp2512
g81
g82
ssg70
g2506
sg63
(lp2513
S'HTTP_COOKIE'
p2514
asbag56
(g77
g58
NtRp2515
(dp2516
g61
(dp2517
g88
g89
ssg70
g2506
sg63
(lp2518
S':'
asbag56
(g77
g58
NtRp2519
(dp2520
g61
(dp2521
sg70
g2506
sg63
(lp2522
g56
(g57
g58
NtRp2523
(dp2524
g61
(dp2525
g69
I3
ssg70
g2519
sg63
(lp2526
g1125
asbasbasbag56
(g72
g58
NtRp2527
(dp2528
g61
(dp2529
sg70
g2397
sg63
(lp2530
g56
(g77
g58
NtRp2531
(dp2532
g61
(dp2533
g81
g82
ssg70
g2527
sg63
(lp2534
S'HTTP_HOST'
p2535
asbag56
(g77
g58
NtRp2536
(dp2537
g61
(dp2538
g88
g89
ssg70
g2527
sg63
(lp2539
S':'
asbag56
(g77
g58
NtRp2540
(dp2541
g61
(dp2542
sg70
g2527
sg63
(lp2543
g56
(g57
g58
NtRp2544
(dp2545
g61
(dp2546
g69
I3
ssg70
g2540
sg63
(lp2547
g1147
asbasbasbag56
(g72
g58
NtRp2548
(dp2549
g61
(dp2550
sg70
g2397
sg63
(lp2551
g56
(g77
g58
NtRp2552
(dp2553
g61
(dp2554
g81
g82
ssg70
g2548
sg63
(lp2555
S'HTTP_USER_AGENT'
p2556
asbag56
(g77
g58
NtRp2557
(dp2558
g61
(dp2559
g88
g89
ssg70
g2548
sg63
(lp2560
S':'
asbag56
(g77
g58
NtRp2561
(dp2562
g61
(dp2563
sg70
g2548
sg63
(lp2564
g56
(g57
g58
NtRp2565
(dp2566
g61
(dp2567
g69
I3
ssg70
g2561
sg63
(lp2568
g1169
asbasbasbag56
(g72
g58
NtRp2569
(dp2570
g61
(dp2571
sg70
g2397
sg63
(lp2572
g56
(g77
g58
NtRp2573
(dp2574
g61
(dp2575
g81
g82
ssg70
g2569
sg63
(lp2576
S'PATH_INFO'
p2577
asbag56
(g77
g58
NtRp2578
(dp2579
g61
(dp2580
g88
g89
ssg70
g2569
sg63
(lp2581
S':'
asbag56
(g77
g58
NtRp2582
(dp2583
g61
(dp2584
sg70
g2569
sg63
(lp2585
g56
(g57
g58
NtRp2586
(dp2587
g61
(dp2588
g69
I3
ssg70
g2582
sg63
(lp2589
g1212
asbasbasbag56
(g72
g58
NtRp2590
(dp2591
g61
(dp2592
sg70
g2397
sg63
(lp2593
g56
(g77
g58
NtRp2594
(dp2595
g61
(dp2596
g81
g82
ssg70
g2590
sg63
(lp2597
S'QUERY_STRING'
p2598
asbag56
(g77
g58
NtRp2599
(dp2600
g61
(dp2601
g88
g89
ssg70
g2590
sg63
(lp2602
S':'
asbag56
(g77
g58
NtRp2603
(dp2604
g61
(dp2605
sg70
g2590
sg63
(lp2606
g56
(g57
g58
NtRp2607
(dp2608
g61
(dp2609
g69
I3
ssg70
g2603
sg63
(lp2610
S''
asbasbasbag56
(g72
g58
NtRp2611
(dp2612
g61
(dp2613
sg70
g2397
sg63
(lp2614
g56
(g77
g58
NtRp2615
(dp2616
g61
(dp2617
g81
g82
ssg70
g2611
sg63
(lp2618
S'REMOTE_ADDR'
p2619
asbag56
(g77
g58
NtRp2620
(dp2621
g61
(dp2622
g88
g89
ssg70
g2611
sg63
(lp2623
S':'
asbag56
(g77
g58
NtRp2624
(dp2625
g61
(dp2626
sg70
g2611
sg63
(lp2627
g56
(g57
g58
NtRp2628
(dp2629
g61
(dp2630
g69
I3
ssg70
g2624
sg63
(lp2631
g202
asbasbasbag56
(g72
g58
NtRp2632
(dp2633
g61
(dp2634
sg70
g2397
sg63
(lp2635
g56
(g77
g58
NtRp2636
(dp2637
g61
(dp2638
g81
g82
ssg70
g2632
sg63
(lp2639
S'REMOTE_PORT'
p2640
asbag56
(g77
g58
NtRp2641
(dp2642
g61
(dp2643
g88
g89
ssg70
g2632
sg63
(lp2644
S':'
asbag56
(g77
g58
NtRp2645
(dp2646
g61
(dp2647
sg70
g2632
sg63
(lp2648
g56
(g57
g58
NtRp2649
(dp2650
g61
(dp2651
g69
I3
ssg70
g2645
sg63
(lp2652
g1276
asbasbasbag56
(g72
g58
NtRp2653
(dp2654
g61
(dp2655
sg70
g2397
sg63
(lp2656
g56
(g77
g58
NtRp2657
(dp2658
g61
(dp2659
g81
g82
ssg70
g2653
sg63
(lp2660
S'REQUEST_METHOD'
p2661
asbag56
(g77
g58
NtRp2662
(dp2663
g61
(dp2664
g88
g89
ssg70
g2653
sg63
(lp2665
S':'
asbag56
(g77
g58
NtRp2666
(dp2667
g61
(dp2668
sg70
g2653
sg63
(lp2669
g56
(g57
g58
NtRp2670
(dp2671
g61
(dp2672
g69
I3
ssg70
g2666
sg63
(lp2673
g1298
asbasbasbag56
(g72
g58
NtRp2674
(dp2675
g61
(dp2676
sg70
g2397
sg63
(lp2677
g56
(g77
g58
NtRp2678
(dp2679
g61
(dp2680
g81
g82
ssg70
g2674
sg63
(lp2681
S'SCRIPT_NAME'
p2682
asbag56
(g77
g58
NtRp2683
(dp2684
g61
(dp2685
g88
g89
ssg70
g2674
sg63
(lp2686
S':'
asbag56
(g77
g58
NtRp2687
(dp2688
g61
(dp2689
sg70
g2674
sg63
(lp2690
g56
(g57
g58
NtRp2691
(dp2692
g61
(dp2693
g69
I3
ssg70
g2687
sg63
(lp2694
S''
asbasbasbag56
(g72
g58
NtRp2695
(dp2696
g61
(dp2697
sg70
g2397
sg63
(lp2698
g56
(g77
g58
NtRp2699
(dp2700
g61
(dp2701
g81
g82
ssg70
g2695
sg63
(lp2702
S'SERVER_NAME'
p2703
asbag56
(g77
g58
NtRp2704
(dp2705
g61
(dp2706
g88
g89
ssg70
g2695
sg63
(lp2707
S':'
asbag56
(g77
g58
NtRp2708
(dp2709
g61
(dp2710
sg70
g2695
sg63
(lp2711
g56
(g57
g58
NtRp2712
(dp2713
g61
(dp2714
g69
I3
ssg70
g2708
sg63
(lp2715
g1341
asbasbasbag56
(g72
g58
NtRp2716
(dp2717
g61
(dp2718
sg70
g2397
sg63
(lp2719
g56
(g77
g58
NtRp2720
(dp2721
g61
(dp2722
g81
g82
ssg70
g2716
sg63
(lp2723
S'SERVER_PORT'
p2724
asbag56
(g77
g58
NtRp2725
(dp2726
g61
(dp2727
g88
g89
ssg70
g2716
sg63
(lp2728
S':'
asbag56
(g77
g58
NtRp2729
(dp2730
g61
(dp2731
sg70
g2716
sg63
(lp2732
g56
(g57
g58
NtRp2733
(dp2734
g61
(dp2735
g69
I3
ssg70
g2729
sg63
(lp2736
g1363
asbasbasbag56
(g72
g58
NtRp2737
(dp2738
g61
(dp2739
sg70
g2397
sg63
(lp2740
g56
(g77
g58
NtRp2741
(dp2742
g61
(dp2743
g81
g82
ssg70
g2737
sg63
(lp2744
S'SERVER_PROTOCOL'
p2745
asbag56
(g77
g58
NtRp2746
(dp2747
g61
(dp2748
g88
g89
ssg70
g2737
sg63
(lp2749
S':'
asbag56
(g77
g58
NtRp2750
(dp2751
g61
(dp2752
sg70
g2737
sg63
(lp2753
g56
(g57
g58
NtRp2754
(dp2755
g61
(dp2756
g69
I3
ssg70
g2750
sg63
(lp2757
g1385
asbasbasbag56
(g72
g58
NtRp2758
(dp2759
g61
(dp2760
sg70
g2397
sg63
(lp2761
g56
(g77
g58
NtRp2762
(dp2763
g61
(dp2764
g81
g82
ssg70
g2758
sg63
(lp2765
S'SERVER_SOFTWARE'
p2766
asbag56
(g77
g58
NtRp2767
(dp2768
g61
(dp2769
g88
g89
ssg70
g2758
sg63
(lp2770
S':'
asbag56
(g77
g58
NtRp2771
(dp2772
g61
(dp2773
sg70
g2758
sg63
(lp2774
g56
(g57
g58
NtRp2775
(dp2776
g61
(dp2777
g69
I3
ssg70
g2771
sg63
(lp2778
g1407
asbasbasbag56
(g72
g58
NtRp2779
(dp2780
g61
(dp2781
sg70
g2397
sg63
(lp2782
g56
(g77
g58
NtRp2783
(dp2784
g61
(dp2785
g81
g82
ssg70
g2779
sg63
(lp2786
S'wsgi.errors'
p2787
asbag56
(g77
g58
NtRp2788
(dp2789
g61
(dp2790
g88
g89
ssg70
g2779
sg63
(lp2791
S':'
asbag56
(g77
g58
NtRp2792
(dp2793
g61
(dp2794
sg70
g2779
sg63
(lp2795
g56
(g57
g58
NtRp2796
(dp2797
g61
(dp2798
g69
I3
ssg70
g2792
sg63
(lp2799
S"<open file '<stderr>', mode 'w' at 0x7fcb798d7270>"
p2800
asbasbasbag56
(g72
g58
NtRp2801
(dp2802
g61
(dp2803
sg70
g2397
sg63
(lp2804
g56
(g77
g58
NtRp2805
(dp2806
g61
(dp2807
g81
g82
ssg70
g2801
sg63
(lp2808
S'wsgi.file_wrapper'
p2809
asbag56
(g77
g58
NtRp2810
(dp2811
g61
(dp2812
g88
g89
ssg70
g2801
sg63
(lp2813
S':'
asbag56
(g77
g58
NtRp2814
(dp2815
g61
(dp2816
sg70
g2801
sg63
(lp2817
g56
(g57
g58
NtRp2818
(dp2819
g61
(dp2820
g69
I3
ssg70
g2814
sg63
(lp2821
S'<class wsgiref.util.FileWrapper at 0x19ec808>'
p2822
asbasbasbag56
(g72
g58
NtRp2823
(dp2824
g61
(dp2825
sg70
g2397
sg63
(lp2826
g56
(g77
g58
NtRp2827
(dp2828
g61
(dp2829
g81
g82
ssg70
g2823
sg63
(lp2830
S'wsgi.input'
p2831
asbag56
(g77
g58
NtRp2832
(dp2833
g61
(dp2834
g88
g89
ssg70
g2823
sg63
(lp2835
S':'
asbag56
(g77
g58
NtRp2836
(dp2837
g61
(dp2838
sg70
g2823
sg63
(lp2839
g56
(g57
g58
NtRp2840
(dp2841
g61
(dp2842
g69
I3
ssg70
g2836
sg63
(lp2843
S'<cStringIO.StringO object at 0x6919d88>'
p2844
asbasbasbag56
(g72
g58
NtRp2845
(dp2846
g61
(dp2847
sg70
g2397
sg63
(lp2848
g56
(g77
g58
NtRp2849
(dp2850
g61
(dp2851
g81
g82
ssg70
g2845
sg63
(lp2852
S'wsgi.multiprocess'
p2853
asbag56
(g77
g58
NtRp2854
(dp2855
g61
(dp2856
g88
g89
ssg70
g2845
sg63
(lp2857
S':'
asbag56
(g77
g58
NtRp2858
(dp2859
g61
(dp2860
sg70
g2845
sg63
(lp2861
g56
(g57
g58
NtRp2862
(dp2863
g61
(dp2864
g69
I3
ssg70
g2858
sg63
(lp2865
g99
asbasbasbag56
(g72
g58
NtRp2866
(dp2867
g61
(dp2868
sg70
g2397
sg63
(lp2869
g56
(g77
g58
NtRp2870
(dp2871
g61
(dp2872
g81
g82
ssg70
g2866
sg63
(lp2873
S'wsgi.multithread'
p2874
asbag56
(g77
g58
NtRp2875
(dp2876
g61
(dp2877
g88
g89
ssg70
g2866
sg63
(lp2878
S':'
asbag56
(g77
g58
NtRp2879
(dp2880
g61
(dp2881
sg70
g2866
sg63
(lp2882
g56
(g57
g58
NtRp2883
(dp2884
g61
(dp2885
g69
I3
ssg70
g2879
sg63
(lp2886
g1647
asbasbasbag56
(g72
g58
NtRp2887
(dp2888
g61
(dp2889
sg70
g2397
sg63
(lp2890
g56
(g77
g58
NtRp2891
(dp2892
g61
(dp2893
g81
g82
ssg70
g2887
sg63
(lp2894
S'wsgi.run_once'
p2895
asbag56
(g77
g58
NtRp2896
(dp2897
g61
(dp2898
g88
g89
ssg70
g2887
sg63
(lp2899
S':'
asbag56
(g77
g58
NtRp2900
(dp2901
g61
(dp2902
sg70
g2887
sg63
(lp2903
g56
(g57
g58
NtRp2904
(dp2905
g61
(dp2906
g69
I3
ssg70
g2900
sg63
(lp2907
g99
asbasbasbag56
(g72
g58
NtRp2908
(dp2909
g61
(dp2910
sg70
g2397
sg63
(lp2911
g56
(g77
g58
NtRp2912
(dp2913
g61
(dp2914
g81
g82
ssg70
g2908
sg63
(lp2915
S'wsgi.url_scheme'
p2916
asbag56
(g77
g58
NtRp2917
(dp2918
g61
(dp2919
g88
g89
ssg70
g2908
sg63
(lp2920
S':'
asbag56
(g77
g58
NtRp2921
(dp2922
g61
(dp2923
sg70
g2908
sg63
(lp2924
g56
(g57
g58
NtRp2925
(dp2926
g61
(dp2927
g69
I3
ssg70
g2921
sg63
(lp2928
g1690
asbasbasbag56
(g72
g58
NtRp2929
(dp2930
g61
(dp2931
sg70
g2397
sg63
(lp2932
g56
(g77
g58
NtRp2933
(dp2934
g61
(dp2935
g81
g82
ssg70
g2929
sg63
(lp2936
S'wsgi.version'
p2937
asbag56
(g77
g58
NtRp2938
(dp2939
g61
(dp2940
g88
g89
ssg70
g2929
sg63
(lp2941
S':'
asbag56
(g77
g58
NtRp2942
(dp2943
g61
(dp2944
sg70
g2929
sg63
(lp2945
g56
(g57
g58
NtRp2946
(dp2947
g61
(dp2948
g69
I3
ssg70
g2942
sg63
(lp2949
S'1'
asbasbasbasbasbasbasbasbasbasbasbasbasbsS'frames'
p2950
(lp2951
(dp2952
S'file'
p2953
S'/home/ian/web2py/gluon/restricted.py'
p2954
sS'dump'
p2955
(dp2956
S'environment'
p2957
S"{'A': <class 'gluon.html.A'>, 'Auth': <class 'gluon.tools.Auth'>, 'B': <class 'gluon.html.B'>, 'BEAUTIFY': <class 'gluon.html.BEAUTIFY'>, 'BODY': <class 'gluon.html.BODY'>, 'BR': <class 'gluon.html.BR'>, 'BUTTON': <class 'gluon.html.BUTTON'>, 'CAT': <class 'gluon.html.CAT'>, 'CENTER': <class 'gluon.html.CENTER'>, 'CLEANUP': <class 'gluon.validators.CLEANUP'>, ...}"
p2958
sS'ccode'
p2959
S'<code object <module> at 0x72e00b0, file "/home/...lications/grades/controllers/default.py", line 3>'
p2960
ssS'lnum'
p2961
I194
sS'lines'
p2962
(dp2963
I192
S'        else:'
p2964
sI193
S'            ccode = compile2(code,layer)'
p2965
sI194
S'        exec ccode in environment'
p2966
sI195
S'    except HTTP:'
p2967
sI196
S'        raise'
p2968
sI197
S'    except Exception, error:'
p2969
sI198
S'        # XXX Show exception in Wing IDE if running in debugger'
p2970
sI189
S'    try:'
p2971
sI190
S'        if type(code) == types.CodeType:'
p2972
sI191
S'            ccode = code'
p2973
ssS'call'
p2974
S"(code='# -*- coding: utf-8 -*-\\n\\nimport datetime\\n### req... \\nresponse._vars=response._caller(grades_report)\\n', environment={'A': <class 'gluon.html.A'>, 'Auth': <class 'gluon.tools.Auth'>, 'B': <class 'gluon.html.B'>, 'BEAUTIFY': <class 'gluon.html.BEAUTIFY'>, 'BODY': <class 'gluon.html.BODY'>, 'BR': <class 'gluon.html.BR'>, 'BUTTON': <class 'gluon.html.BUTTON'>, 'CAT': <class 'gluon.html.CAT'>, 'CENTER': <class 'gluon.html.CENTER'>, 'CLEANUP': <class 'gluon.validators.CLEANUP'>, ...}, layer='/home/ian/web2py/applications/grades/controllers/default.py')"
p2975
sS'func'
p2976
S'restricted'
p2977
sa(dp2978
g2953
S'/home/ian/web2py/applications/grades/controllers/default.py'
p2979
sg2955
(dp2980
sg2961
I52
sg2962
(dp2981
I42
S'        if the_course in g:'
p2982
sI43
S'            dates = g[the_course]'
p2983
sI44
S'            if the_date in dates:'
p2984
sI45
S'                dates[the_date].append(r.grade)'
p2985
sI46
S'            else:'
p2986
sI47
S'                dates[the_date] = [r.grade]'
p2987
sI48
S'        else:'
p2988
sI49
S'            l = [r.grade]'
p2989
sI50
S'            g[r.course] = dict(the_date = l)'
p2990
sI51
S'    return dict(grades = g, student = student)'
p2991
ssg2974
S'()'
p2992
sg2976
S'<module>'
p2993
sa(dp2994
g2953
S'/home/ian/web2py/gluon/globals.py'
p2995
sg2955
(dp2996
S'self'
p2997
S'undefined'
p2998
sS'f'
S'<function grades_report>'
p2999
ssg2961
I149
sg2962
(dp3000
I144
S'        self.meta = Storage()      # used by web2py_ajax.html'
p3001
sI145
S'        self.menu = []             # used by the default view layout'
p3002
sI146
S'        self.files = []            # used by web2py_ajax.html'
p3003
sI147
S'        self.generic_patterns = [] # patterns to allow generic views'
p3004
sI148
S'        self._vars = None'
p3005
sI149
S'        self._caller = lambda f: f()'
p3006
sI150
S'        self._view_environment = None'
p3007
sI151
S'        self._custom_commit = None'
p3008
sI152
S'        self._custom_rollback = None'
p3009
sI153
S''
ssg2974
S'(f=<function grades_report>)'
p3010
sg2976
S'<lambda>'
p3011
sa(dp3012
g2953
S'/home/ian/web2py/gluon/tools.py'
p3013
sg2955
(dp3014
S'action'
p3015
S'<function grades_report>'
p3016
sS'a'
S'()'
p3017
sS'b'
g44
ssg2961
I2456
sg2962
(dp3018
I2451
S"                            '?_next='+urllib.quote(next))"
p3019
sI2452
S'                if not condition:'
p3020
sI2453
S'                    current.session.flash = self.messages.access_denied'
p3021
sI2454
S'                    return call_or_redirect('
p3022
sI2455
S'                        self.settings.on_failed_authorization)'
p3023
sI2456
S'                return action(*a, **b)'
p3024
sI2457
S'            f.__doc__ = action.__doc__'
p3025
sI2458
S'            f.__name__ = action.__name__'
p3026
sI2459
S'            f.__dict__.update(action.__dict__)'
p3027
sI2460
S'            return f'
p3028
ssg2974
S'(*a=(), **b={})'
p3029
sg2976
S'f'
sa(dp3030
g2953
S'/home/ian/web2py/applications/grades/controllers/default.py'
p3031
sg2955
(dp3032
S'n.first_name'
p3033
g2998
sS'n.last_name'
p3034
g2998
sS'student'
p3035
g2998
sS'n'
S'<gluon.dal.Rows object>'
p3036
ssg2961
I35
sg2962
(dp3037
I32
S'def grades_report():'
p3038
sI33
S'    u = request.args[0]'
p3039
sI34
S'    n = db(db.auth_user.id == u).select(db.auth_user.last_name, db.auth_user.first_name)'
p3040
sI35
S"    student = n.last_name , ', ' , n.first_name"
p3041
sI36
S'    gradelist = db(db.grades.name == u).select()'
p3042
sI37
S'    session.debug = request.args[0]'
p3043
sI38
S'    g = {}'
p3044
sI39
S'    for r in gradelist:'
p3045
sI30
S''
sI31
S"@auth.requires_membership(role='administrators')"
p3046
ssg2974
S'()'
p3047
sg2976
S'grades_report'
p3048
sasS'pyver'
p3049
S'Python 2.7.2+: /usr/bin/python2.7'
p3050
sS'session'
p3051
g56
(g57
g58
NtRp3052
(dp3053
g61
(dp3054
sg63
(lp3055
g56
(g65
g58
NtRp3056
(dp3057
g61
(dp3058
g69
I5
ssg70
Nsg63
(lp3059
g56
(g72
g58
NtRp3060
(dp3061
g61
(dp3062
sg70
g3056
sg63
(lp3063
g56
(g77
g58
NtRp3064
(dp3065
g61
(dp3066
g81
g82
ssg70
g3060
sg63
(lp3067
S'auth'
p3068
asbag56
(g77
g58
NtRp3069
(dp3070
g61
(dp3071
g88
g89
ssg70
g3060
sg63
(lp3072
S':'
asbag56
(g77
g58
NtRp3073
(dp3074
g61
(dp3075
sg70
g3060
sg63
(lp3076
g56
(g57
g58
NtRp3077
(dp3078
g61
(dp3079
g69
I5
ssg70
g3073
sg63
(lp3080
g56
(g65
g58
NtRp3081
(dp3082
g61
(dp3083
g69
I4
ssg70
Nsg63
(lp3084
g56
(g72
g58
NtRp3085
(dp3086
g61
(dp3087
sg70
g3081
sg63
(lp3088
g56
(g77
g58
NtRp3089
(dp3090
g61
(dp3091
g81
g82
ssg70
g3085
sg63
(lp3092
S'expiration'
p3093
asbag56
(g77
g58
NtRp3094
(dp3095
g61
(dp3096
g88
g89
ssg70
g3085
sg63
(lp3097
S':'
asbag56
(g77
g58
NtRp3098
(dp3099
g61
(dp3100
sg70
g3085
sg63
(lp3101
g56
(g57
g58
NtRp3102
(dp3103
g61
(dp3104
g69
I4
ssg70
g3098
sg63
(lp3105
S'2592000'
p3106
asbasbasbag56
(g72
g58
NtRp3107
(dp3108
g61
(dp3109
sg70
g3081
sg63
(lp3110
g56
(g77
g58
NtRp3111
(dp3112
g61
(dp3113
g81
g82
ssg70
g3107
sg63
(lp3114
S'hmac_key'
p3115
asbag56
(g77
g58
NtRp3116
(dp3117
g61
(dp3118
g88
g89
ssg70
g3107
sg63
(lp3119
S':'
asbag56
(g77
g58
NtRp3120
(dp3121
g61
(dp3122
sg70
g3107
sg63
(lp3123
g56
(g57
g58
NtRp3124
(dp3125
g61
(dp3126
g69
I4
ssg70
g3120
sg63
(lp3127
S'5ead79e1-3449-4733-9cfa-56c1a46440a2'
p3128
asbasbasbag56
(g72
g58
NtRp3129
(dp3130
g61
(dp3131
sg70
g3081
sg63
(lp3132
g56
(g77
g58
NtRp3133
(dp3134
g61
(dp3135
g81
g82
ssg70
g3129
sg63
(lp3136
S'last_visit'
p3137
asbag56
(g77
g58
NtRp3138
(dp3139
g61
(dp3140
g88
g89
ssg70
g3129
sg63
(lp3141
S':'
asbag56
(g77
g58
NtRp3142
(dp3143
g61
(dp3144
sg70
g3129
sg63
(lp3145
g56
(g57
g58
NtRp3146
(dp3147
g61
(dp3148
g69
I4
ssg70
g3142
sg63
(lp3149
S'datetime.datetime(2011, 11, 3, 8, 1, 20, 311289)'
p3150
asbasbasbag56
(g72
g58
NtRp3151
(dp3152
g61
(dp3153
sg70
g3081
sg63
(lp3154
g56
(g77
g58
NtRp3155
(dp3156
g61
(dp3157
g81
g82
ssg70
g3151
sg63
(lp3158
S'remember'
p3159
asbag56
(g77
g58
NtRp3160
(dp3161
g61
(dp3162
g88
g89
ssg70
g3151
sg63
(lp3163
S':'
asbag56
(g77
g58
NtRp3164
(dp3165
g61
(dp3166
sg70
g3151
sg63
(lp3167
g56
(g57
g58
NtRp3168
(dp3169
g61
(dp3170
g69
I4
ssg70
g3164
sg63
(lp3171
g99
asbasbasbag56
(g72
g58
NtRp3172
(dp3173
g61
(dp3174
sg70
g3081
sg63
(lp3175
g56
(g77
g58
NtRp3176
(dp3177
g61
(dp3178
g81
g82
ssg70
g3172
sg63
(lp3179
S'user'
p3180
asbag56
(g77
g58
NtRp3181
(dp3182
g61
(dp3183
g88
g89
ssg70
g3172
sg63
(lp3184
S':'
asbag56
(g77
g58
NtRp3185
(dp3186
g61
(dp3187
sg70
g3172
sg63
(lp3188
g56
(g57
g58
NtRp3189
(dp3190
g61
(dp3191
g69
I4
ssg70
g3185
sg63
(lp3192
g56
(g65
g58
NtRp3193
(dp3194
g61
(dp3195
g69
I3
ssg70
Nsg63
(lp3196
g56
(g72
g58
NtRp3197
(dp3198
g61
(dp3199
sg70
g3193
sg63
(lp3200
g56
(g77
g58
NtRp3201
(dp3202
g61
(dp3203
g81
g82
ssg70
g3197
sg63
(lp3204
S'email'
p3205
asbag56
(g77
g58
NtRp3206
(dp3207
g61
(dp3208
g88
g89
ssg70
g3197
sg63
(lp3209
S':'
asbag56
(g77
g58
NtRp3210
(dp3211
g61
(dp3212
sg70
g3197
sg63
(lp3213
g56
(g57
g58
NtRp3214
(dp3215
g61
(dp3216
g69
I3
ssg70
g3210
sg63
(lp3217
S'scottianw@gmail.com'
p3218
asbasbasbag56
(g72
g58
NtRp3219
(dp3220
g61
(dp3221
sg70
g3193
sg63
(lp3222
g56
(g77
g58
NtRp3223
(dp3224
g61
(dp3225
g81
g82
ssg70
g3219
sg63
(lp3226
S'first_name'
p3227
asbag56
(g77
g58
NtRp3228
(dp3229
g61
(dp3230
g88
g89
ssg70
g3219
sg63
(lp3231
S':'
asbag56
(g77
g58
NtRp3232
(dp3233
g61
(dp3234
sg70
g3219
sg63
(lp3235
g56
(g57
g58
NtRp3236
(dp3237
g61
(dp3238
g69
I3
ssg70
g3232
sg63
(lp3239
S'Ian'
p3240
asbasbasbag56
(g72
g58
NtRp3241
(dp3242
g61
(dp3243
sg70
g3193
sg63
(lp3244
g56
(g77
g58
NtRp3245
(dp3246
g61
(dp3247
g81
g82
ssg70
g3241
sg63
(lp3248
S'id'
p3249
asbag56
(g77
g58
NtRp3250
(dp3251
g61
(dp3252
g88
g89
ssg70
g3241
sg63
(lp3253
S':'
asbag56
(g77
g58
NtRp3254
(dp3255
g61
(dp3256
sg70
g3241
sg63
(lp3257
g56
(g57
g58
NtRp3258
(dp3259
g61
(dp3260
g69
I3
ssg70
g3254
sg63
(lp3261
S'11'
p3262
asbasbasbag56
(g72
g58
NtRp3263
(dp3264
g61
(dp3265
sg70
g3193
sg63
(lp3266
g56
(g77
g58
NtRp3267
(dp3268
g61
(dp3269
g81
g82
ssg70
g3263
sg63
(lp3270
S'last_name'
p3271
asbag56
(g77
g58
NtRp3272
(dp3273
g61
(dp3274
g88
g89
ssg70
g3263
sg63
(lp3275
S':'
asbag56
(g77
g58
NtRp3276
(dp3277
g61
(dp3278
sg70
g3263
sg63
(lp3279
g56
(g57
g58
NtRp3280
(dp3281
g61
(dp3282
g69
I3
ssg70
g3276
sg63
(lp3283
S'Scott'
p3284
asbasbasbag56
(g72
g58
NtRp3285
(dp3286
g61
(dp3287
sg70
g3193
sg63
(lp3288
g56
(g77
g58
NtRp3289
(dp3290
g61
(dp3291
g81
g82
ssg70
g3285
sg63
(lp3292
S'password'
p3293
asbag56
(g77
g58
NtRp3294
(dp3295
g61
(dp3296
g88
g89
ssg70
g3285
sg63
(lp3297
S':'
asbag56
(g77
g58
NtRp3298
(dp3299
g61
(dp3300
sg70
g3285
sg63
(lp3301
g56
(g57
g58
NtRp3302
(dp3303
g61
(dp3304
g69
I3
ssg70
g3298
sg63
(lp3305
S'351bc855a8ae4839e89ee60d2f279ed9'
p3306
asbasbasbag56
(g72
g58
NtRp3307
(dp3308
g61
(dp3309
sg70
g3193
sg63
(lp3310
g56
(g77
g58
NtRp3311
(dp3312
g61
(dp3313
g81
g82
ssg70
g3307
sg63
(lp3314
S'registration_key'
p3315
asbag56
(g77
g58
NtRp3316
(dp3317
g61
(dp3318
g88
g89
ssg70
g3307
sg63
(lp3319
S':'
asbag56
(g77
g58
NtRp3320
(dp3321
g61
(dp3322
sg70
g3307
sg63
(lp3323
g56
(g57
g58
NtRp3324
(dp3325
g61
(dp3326
g69
I3
ssg70
g3320
sg63
(lp3327
S''
asbasbasbag56
(g72
g58
NtRp3328
(dp3329
g61
(dp3330
sg70
g3193
sg63
(lp3331
g56
(g77
g58
NtRp3332
(dp3333
g61
(dp3334
g81
g82
ssg70
g3328
sg63
(lp3335
S'reset_password_key'
p3336
asbag56
(g77
g58
NtRp3337
(dp3338
g61
(dp3339
g88
g89
ssg70
g3328
sg63
(lp3340
S':'
asbag56
(g77
g58
NtRp3341
(dp3342
g61
(dp3343
sg70
g3328
sg63
(lp3344
g56
(g57
g58
NtRp3345
(dp3346
g61
(dp3347
g69
I3
ssg70
g3341
sg63
(lp3348
S''
asbasbasbasbasbasbasbasbasbasbasbag56
(g72
g58
NtRp3349
(dp3350
g61
(dp3351
sg70
g3056
sg63
(lp3352
g56
(g77
g58
NtRp3353
(dp3354
g61
(dp3355
g81
g82
ssg70
g3349
sg63
(lp3356
S'debug'
p3357
asbag56
(g77
g58
NtRp3358
(dp3359
g61
(dp3360
g88
g89
ssg70
g3349
sg63
(lp3361
S':'
asbag56
(g77
g58
NtRp3362
(dp3363
g61
(dp3364
sg70
g3349
sg63
(lp3365
g56
(g57
g58
NtRp3366
(dp3367
g61
(dp3368
g69
I5
ssg70
g3362
sg63
(lp3369
S'15'
p3370
asbasbasbag56
(g72
g58
NtRp3371
(dp3372
g61
(dp3373
sg70
g3056
sg63
(lp3374
g56
(g77
g58
NtRp3375
(dp3376
g61
(dp3377
g81
g82
ssg70
g3371
sg63
(lp3378
S'last_query'
p3379
asbag56
(g77
g58
NtRp3380
(dp3381
g61
(dp3382
g88
g89
ssg70
g3371
sg63
(lp3383
S':'
asbag56
(g77
g58
NtRp3384
(dp3385
g61
(dp3386
sg70
g3371
sg63
(lp3387
g56
(g57
g58
NtRp3388
(dp3389
g61
(dp3390
g69
I5
ssg70
g3384
sg63
(lp3391
S'db.grades.name == 15'
p3392
asbasbasbasbasbsS'etype'
p3393
S"<type 'exceptions.AttributeError'>"
p3394
sS'date'
p3395
S'Thu Nov  3 09:49:57 2011'
p3396
sS'response'
p3397
g56
(g57
g58
NtRp3398
(dp3399
g61
(dp3400
sg63
(lp3401
g56
(g65
g58
NtRp3402
(dp3403
g61
(dp3404
g69
I5
ssg70
Nsg63
(lp3405
g56
(g72
g58
NtRp3406
(dp3407
g61
(dp3408
sg70
g3402
sg63
(lp3409
g56
(g77
g58
NtRp3410
(dp3411
g61
(dp3412
g81
g82
ssg70
g3406
sg63
(lp3413
g167
asbag56
(g77
g58
NtRp3414
(dp3415
g61
(dp3416
g88
g89
ssg70
g3406
sg63
(lp3417
S':'
asbag56
(g77
g58
NtRp3418
(dp3419
g61
(dp3420
sg70
g3406
sg63
(lp3421
g56
(g57
g58
NtRp3422
(dp3423
g61
(dp3424
g69
I5
ssg70
g3418
sg63
(lp3425
S'<cStringIO.StringO object at 0x6912c00>'
p3426
asbasbasbag56
(g72
g58
NtRp3427
(dp3428
g61
(dp3429
sg70
g3402
sg63
(lp3430
g56
(g77
g58
NtRp3431
(dp3432
g61
(dp3433
g81
g82
ssg70
g3427
sg63
(lp3434
g233
asbag56
(g77
g58
NtRp3435
(dp3436
g61
(dp3437
g88
g89
ssg70
g3427
sg63
(lp3438
S':'
asbag56
(g77
g58
NtRp3439
(dp3440
g61
(dp3441
sg70
g3427
sg63
(lp3442
g56
(g57
g58
NtRp3443
(dp3444
g61
(dp3445
g69
I5
ssg70
g3439
sg63
(lp3446
g56
(g65
g58
NtRp3447
(dp3448
g61
(dp3449
g69
I4
ssg70
Nsg63
(lp3450
g56
(g72
g58
NtRp3451
(dp3452
g61
(dp3453
sg70
g3447
sg63
(lp3454
g56
(g77
g58
NtRp3455
(dp3456
g61
(dp3457
g81
g82
ssg70
g3451
sg63
(lp3458
S'session_id_grades'
p3459
asbag56
(g77
g58
NtRp3460
(dp3461
g61
(dp3462
g88
g89
ssg70
g3451
sg63
(lp3463
S':'
asbag56
(g77
g58
NtRp3464
(dp3465
g61
(dp3466
sg70
g3451
sg63
(lp3467
g56
(g57
g58
NtRp3468
(dp3469
g61
(dp3470
g69
I4
ssg70
g3464
sg63
(lp3471
g56
(g65
g58
NtRp3472
(dp3473
g61
(dp3474
g69
I3
ssg70
Nsg63
(lp3475
g56
(g72
g58
NtRp3476
(dp3477
g61
(dp3478
sg70
g3472
sg63
(lp3479
g56
(g77
g58
NtRp3480
(dp3481
g61
(dp3482
g81
g82
ssg70
g3476
sg63
(lp3483
g283
asbag56
(g77
g58
NtRp3484
(dp3485
g61
(dp3486
g88
g89
ssg70
g3476
sg63
(lp3487
S':'
asbag56
(g77
g58
NtRp3488
(dp3489
g61
(dp3490
sg70
g3476
sg63
(lp3491
g56
(g57
g58
NtRp3492
(dp3493
g61
(dp3494
g69
I3
ssg70
g3488
sg63
(lp3495
S''
asbasbasbag56
(g72
g58
NtRp3496
(dp3497
g61
(dp3498
sg70
g3472
sg63
(lp3499
g56
(g77
g58
NtRp3500
(dp3501
g61
(dp3502
g81
g82
ssg70
g3496
sg63
(lp3503
g304
asbag56
(g77
g58
NtRp3504
(dp3505
g61
(dp3506
g88
g89
ssg70
g3496
sg63
(lp3507
S':'
asbag56
(g77
g58
NtRp3508
(dp3509
g61
(dp3510
sg70
g3496
sg63
(lp3511
g56
(g57
g58
NtRp3512
(dp3513
g61
(dp3514
g69
I3
ssg70
g3508
sg63
(lp3515
S''
asbasbasbag56
(g72
g58
NtRp3516
(dp3517
g61
(dp3518
sg70
g3472
sg63
(lp3519
g56
(g77
g58
NtRp3520
(dp3521
g61
(dp3522
g81
g82
ssg70
g3516
sg63
(lp3523
g325
asbag56
(g77
g58
NtRp3524
(dp3525
g61
(dp3526
g88
g89
ssg70
g3516
sg63
(lp3527
S':'
asbag56
(g77
g58
NtRp3528
(dp3529
g61
(dp3530
sg70
g3516
sg63
(lp3531
g56
(g57
g58
NtRp3532
(dp3533
g61
(dp3534
g69
I3
ssg70
g3528
sg63
(lp3535
S''
asbasbasbag56
(g72
g58
NtRp3536
(dp3537
g61
(dp3538
sg70
g3472
sg63
(lp3539
g56
(g77
g58
NtRp3540
(dp3541
g61
(dp3542
g81
g82
ssg70
g3536
sg63
(lp3543
g346
asbag56
(g77
g58
NtRp3544
(dp3545
g61
(dp3546
g88
g89
ssg70
g3536
sg63
(lp3547
S':'
asbag56
(g77
g58
NtRp3548
(dp3549
g61
(dp3550
sg70
g3536
sg63
(lp3551
g56
(g57
g58
NtRp3552
(dp3553
g61
(dp3554
g69
I3
ssg70
g3548
sg63
(lp3555
S''
asbasbasbag56
(g72
g58
NtRp3556
(dp3557
g61
(dp3558
sg70
g3472
sg63
(lp3559
g56
(g77
g58
NtRp3560
(dp3561
g61
(dp3562
g81
g82
ssg70
g3556
sg63
(lp3563
g367
asbag56
(g77
g58
NtRp3564
(dp3565
g61
(dp3566
g88
g89
ssg70
g3556
sg63
(lp3567
S':'
asbag56
(g77
g58
NtRp3568
(dp3569
g61
(dp3570
sg70
g3556
sg63
(lp3571
g56
(g57
g58
NtRp3572
(dp3573
g61
(dp3574
g69
I3
ssg70
g3568
sg63
(lp3575
S''
asbasbasbag56
(g72
g58
NtRp3576
(dp3577
g61
(dp3578
sg70
g3472
sg63
(lp3579
g56
(g77
g58
NtRp3580
(dp3581
g61
(dp3582
g81
g82
ssg70
g3576
sg63
(lp3583
g388
asbag56
(g77
g58
NtRp3584
(dp3585
g61
(dp3586
g88
g89
ssg70
g3576
sg63
(lp3587
S':'
asbag56
(g77
g58
NtRp3588
(dp3589
g61
(dp3590
sg70
g3576
sg63
(lp3591
g56
(g57
g58
NtRp3592
(dp3593
g61
(dp3594
g69
I3
ssg70
g3588
sg63
(lp3595
S'/'
asbasbasbag56
(g72
g58
NtRp3596
(dp3597
g61
(dp3598
sg70
g3472
sg63
(lp3599
g56
(g77
g58
NtRp3600
(dp3601
g61
(dp3602
g81
g82
ssg70
g3596
sg63
(lp3603
g409
asbag56
(g77
g58
NtRp3604
(dp3605
g61
(dp3606
g88
g89
ssg70
g3596
sg63
(lp3607
S':'
asbag56
(g77
g58
NtRp3608
(dp3609
g61
(dp3610
sg70
g3596
sg63
(lp3611
g56
(g57
g58
NtRp3612
(dp3613
g61
(dp3614
g69
I3
ssg70
g3608
sg63
(lp3615
S''
asbasbasbag56
(g72
g58
NtRp3616
(dp3617
g61
(dp3618
sg70
g3472
sg63
(lp3619
g56
(g77
g58
NtRp3620
(dp3621
g61
(dp3622
g81
g82
ssg70
g3616
sg63
(lp3623
g430
asbag56
(g77
g58
NtRp3624
(dp3625
g61
(dp3626
g88
g89
ssg70
g3616
sg63
(lp3627
S':'
asbag56
(g77
g58
NtRp3628
(dp3629
g61
(dp3630
sg70
g3616
sg63
(lp3631
g56
(g57
g58
NtRp3632
(dp3633
g61
(dp3634
g69
I3
ssg70
g3628
sg63
(lp3635
S''
asbasbasbasbasbasbasbasbasbasbasbag56
(g72
g58
NtRp3636
(dp3637
g61
(dp3638
sg70
g3402
sg63
(lp3639
g56
(g77
g58
NtRp3640
(dp3641
g61
(dp3642
g81
g82
ssg70
g3636
sg63
(lp3643
S'files'
p3644
asbag56
(g77
g58
NtRp3645
(dp3646
g61
(dp3647
g88
g89
ssg70
g3636
sg63
(lp3648
S':'
asbag56
(g77
g58
NtRp3649
(dp3650
g61
(dp3651
sg70
g3636
sg63
(lp3652
g56
(g57
g58
NtRp3653
(dp3654
g61
(dp3655
g69
I5
ssg70
g3649
sg63
(lp3656
g56
(g65
g58
NtRp3657
(dp3658
g61
(dp3659
g69
I4
ssg70
Nsg63
(lp3660
sbasbasbasbag56
(g72
g58
NtRp3661
(dp3662
g61
(dp3663
sg70
g3402
sg63
(lp3664
g56
(g77
g58
NtRp3665
(dp3666
g61
(dp3667
g81
g82
ssg70
g3661
sg63
(lp3668
S'flash'
p3669
asbag56
(g77
g58
NtRp3670
(dp3671
g61
(dp3672
g88
g89
ssg70
g3661
sg63
(lp3673
S':'
asbag56
(g77
g58
NtRp3674
(dp3675
g61
(dp3676
sg70
g3661
sg63
(lp3677
g56
(g57
g58
NtRp3678
(dp3679
g61
(dp3680
g69
I5
ssg70
g3674
sg63
(lp3681
S''
asbasbasbag56
(g72
g58
NtRp3682
(dp3683
g61
(dp3684
sg70
g3402
sg63
(lp3685
g56
(g77
g58
NtRp3686
(dp3687
g61
(dp3688
g81
g82
ssg70
g3682
sg63
(lp3689
S'generic_patterns'
p3690
asbag56
(g77
g58
NtRp3691
(dp3692
g61
(dp3693
g88
g89
ssg70
g3682
sg63
(lp3694
S':'
asbag56
(g77
g58
NtRp3695
(dp3696
g61
(dp3697
sg70
g3682
sg63
(lp3698
g56
(g57
g58
NtRp3699
(dp3700
g61
(dp3701
g69
I5
ssg70
g3695
sg63
(lp3702
g56
(g65
g58
NtRp3703
(dp3704
g61
(dp3705
g69
I4
ssg70
Nsg63
(lp3706
g56
(g72
g58
NtRp3707
(dp3708
g61
(dp3709
sg70
g3703
sg63
(lp3710
g56
(g77
g58
NtRp3711
(dp3712
g61
(dp3713
sg70
g3707
sg63
(lp3714
g56
(g57
g58
NtRp3715
(dp3716
g61
(dp3717
g69
I4
ssg70
g3711
sg63
(lp3718
S'*'
asbasbasbasbasbasbasbag56
(g72
g58
NtRp3719
(dp3720
g61
(dp3721
sg70
g3402
sg63
(lp3722
g56
(g77
g58
NtRp3723
(dp3724
g61
(dp3725
g81
g82
ssg70
g3719
sg63
(lp3726
S'headers'
p3727
asbag56
(g77
g58
NtRp3728
(dp3729
g61
(dp3730
g88
g89
ssg70
g3719
sg63
(lp3731
S':'
asbag56
(g77
g58
NtRp3732
(dp3733
g61
(dp3734
sg70
g3719
sg63
(lp3735
g56
(g57
g58
NtRp3736
(dp3737
g61
(dp3738
g69
I5
ssg70
g3732
sg63
(lp3739
g56
(g65
g58
NtRp3740
(dp3741
g61
(dp3742
g69
I4
ssg70
Nsg63
(lp3743
g56
(g72
g58
NtRp3744
(dp3745
g61
(dp3746
sg70
g3740
sg63
(lp3747
g56
(g77
g58
NtRp3748
(dp3749
g61
(dp3750
g81
g82
ssg70
g3744
sg63
(lp3751
S'Cache-Control'
p3752
asbag56
(g77
g58
NtRp3753
(dp3754
g61
(dp3755
g88
g89
ssg70
g3744
sg63
(lp3756
S':'
asbag56
(g77
g58
NtRp3757
(dp3758
g61
(dp3759
sg70
g3744
sg63
(lp3760
g56
(g57
g58
NtRp3761
(dp3762
g61
(dp3763
g69
I4
ssg70
g3757
sg63
(lp3764
S'no-store, no-cache, must-revalidate, post-check=0, pre-check=0'
p3765
asbasbasbag56
(g72
g58
NtRp3766
(dp3767
g61
(dp3768
sg70
g3740
sg63
(lp3769
g56
(g77
g58
NtRp3770
(dp3771
g61
(dp3772
g81
g82
ssg70
g3766
sg63
(lp3773
S'Content-Type'
p3774
asbag56
(g77
g58
NtRp3775
(dp3776
g61
(dp3777
g88
g89
ssg70
g3766
sg63
(lp3778
S':'
asbag56
(g77
g58
NtRp3779
(dp3780
g61
(dp3781
sg70
g3766
sg63
(lp3782
g56
(g57
g58
NtRp3783
(dp3784
g61
(dp3785
g69
I4
ssg70
g3779
sg63
(lp3786
S'text/html; charset=utf-8'
p3787
asbasbasbag56
(g72
g58
NtRp3788
(dp3789
g61
(dp3790
sg70
g3740
sg63
(lp3791
g56
(g77
g58
NtRp3792
(dp3793
g61
(dp3794
g81
g82
ssg70
g3788
sg63
(lp3795
S'Expires'
p3796
asbag56
(g77
g58
NtRp3797
(dp3798
g61
(dp3799
g88
g89
ssg70
g3788
sg63
(lp3800
S':'
asbag56
(g77
g58
NtRp3801
(dp3802
g61
(dp3803
sg70
g3788
sg63
(lp3804
g56
(g57
g58
NtRp3805
(dp3806
g61
(dp3807
g69
I4
ssg70
g3801
sg63
(lp3808
S'Thu, 03 Nov 2011 13:49:56 GMT'
p3809
asbasbasbag56
(g72
g58
NtRp3810
(dp3811
g61
(dp3812
sg70
g3740
sg63
(lp3813
g56
(g77
g58
NtRp3814
(dp3815
g61
(dp3816
g81
g82
ssg70
g3810
sg63
(lp3817
S'Pragma'
p3818
asbag56
(g77
g58
NtRp3819
(dp3820
g61
(dp3821
g88
g89
ssg70
g3810
sg63
(lp3822
S':'
asbag56
(g77
g58
NtRp3823
(dp3824
g61
(dp3825
sg70
g3810
sg63
(lp3826
g56
(g57
g58
NtRp3827
(dp3828
g61
(dp3829
g69
I4
ssg70
g3823
sg63
(lp3830
S'no-cache'
p3831
asbasbasbag56
(g72
g58
NtRp3832
(dp3833
g61
(dp3834
sg70
g3740
sg63
(lp3835
g56
(g77
g58
NtRp3836
(dp3837
g61
(dp3838
g81
g82
ssg70
g3832
sg63
(lp3839
S'X-Powered-By'
p3840
asbag56
(g77
g58
NtRp3841
(dp3842
g61
(dp3843
g88
g89
ssg70
g3832
sg63
(lp3844
S':'
asbag56
(g77
g58
NtRp3845
(dp3846
g61
(dp3847
sg70
g3832
sg63
(lp3848
g56
(g57
g58
NtRp3849
(dp3850
g61
(dp3851
g69
I4
ssg70
g3845
sg63
(lp3852
S'web2py'
p3853
asbasbasbasbasbasbasbag56
(g72
g58
NtRp3854
(dp3855
g61
(dp3856
sg70
g3402
sg63
(lp3857
g56
(g77
g58
NtRp3858
(dp3859
g61
(dp3860
g81
g82
ssg70
g3854
sg63
(lp3861
S'menu'
p3862
asbag56
(g77
g58
NtRp3863
(dp3864
g61
(dp3865
g88
g89
ssg70
g3854
sg63
(lp3866
S':'
asbag56
(g77
g58
NtRp3867
(dp3868
g61
(dp3869
sg70
g3854
sg63
(lp3870
g56
(g57
g58
NtRp3871
(dp3872
g61
(dp3873
g69
I5
ssg70
g3867
sg63
(lp3874
g56
(g65
g58
NtRp3875
(dp3876
g61
(dp3877
g69
I4
ssg70
Nsg63
(lp3878
g56
(g72
g58
NtRp3879
(dp3880
g61
(dp3881
sg70
g3875
sg63
(lp3882
g56
(g77
g58
NtRp3883
(dp3884
g61
(dp3885
sg70
g3879
sg63
(lp3886
g56
(g57
g58
NtRp3887
(dp3888
g61
(dp3889
g69
I4
ssg70
g3883
sg63
(lp3890
g56
(g65
g58
NtRp3891
(dp3892
g61
(dp3893
g69
I3
ssg70
Nsg63
(lp3894
g56
(g72
g58
NtRp3895
(dp3896
g61
(dp3897
sg70
g3891
sg63
(lp3898
g56
(g77
g58
NtRp3899
(dp3900
g61
(dp3901
sg70
g3895
sg63
(lp3902
g56
(g57
g58
NtRp3903
(dp3904
g61
(dp3905
g69
I3
ssg70
g3899
sg63
(lp3906
cgluon.languages
lazyT_unpickle
p3907
(S't\x05\x00\x00\x00Index'
tRp3908
asbasbasbag56
(g72
g58
NtRp3909
(dp3910
g61
(dp3911
sg70
g3891
sg63
(lp3912
g56
(g77
g58
NtRp3913
(dp3914
g61
(dp3915
sg70
g3909
sg63
(lp3916
g56
(g57
g58
NtRp3917
(dp3918
g61
(dp3919
g69
I3
ssg70
g3913
sg63
(lp3920
g99
asbasbasbag56
(g72
g58
NtRp3921
(dp3922
g61
(dp3923
sg70
g3891
sg63
(lp3924
g56
(g77
g58
NtRp3925
(dp3926
g61
(dp3927
sg70
g3921
sg63
(lp3928
g56
(g57
g58
NtRp3929
(dp3930
g61
(dp3931
g69
I3
ssg70
g3925
sg63
(lp3932
S'/grades/default/index'
p3933
asbasbasbag56
(g72
g58
NtRp3934
(dp3935
g61
(dp3936
sg70
g3891
sg63
(lp3937
g56
(g77
g58
NtRp3938
(dp3939
g61
(dp3940
sg70
g3934
sg63
(lp3941
g56
(g57
g58
NtRp3942
(dp3943
g61
(dp3944
g69
I3
ssg70
g3938
sg63
(lp3945
g56
(g65
g58
NtRp3946
(dp3947
g61
(dp3948
g69
I2
ssg70
Nsg63
(lp3949
sbasbasbasbasbasbasbasbag56
(g72
g58
NtRp3950
(dp3951
g61
(dp3952
sg70
g3875
sg63
(lp3953
g56
(g77
g58
NtRp3954
(dp3955
g61
(dp3956
sg70
g3950
sg63
(lp3957
g56
(g57
g58
NtRp3958
(dp3959
g61
(dp3960
g69
I4
ssg70
g3954
sg63
(lp3961
g56
(g65
g58
NtRp3962
(dp3963
g61
(dp3964
g69
I3
ssg70
Nsg63
(lp3965
g56
(g72
g58
NtRp3966
(dp3967
g61
(dp3968
sg70
g3962
sg63
(lp3969
g56
(g77
g58
NtRp3970
(dp3971
g61
(dp3972
sg70
g3966
sg63
(lp3973
g56
(g57
g58
NtRp3974
(dp3975
g61
(dp3976
g69
I3
ssg70
g3970
sg63
(lp3977
g3907
(S't\x06\x00\x00\x00Grades'
tRp3978
asbasbasbag56
(g72
g58
NtRp3979
(dp3980
g61
(dp3981
sg70
g3962
sg63
(lp3982
g56
(g77
g58
NtRp3983
(dp3984
g61
(dp3985
sg70
g3979
sg63
(lp3986
g56
(g57
g58
NtRp3987
(dp3988
g61
(dp3989
g69
I3
ssg70
g3983
sg63
(lp3990
g99
asbasbasbag56
(g72
g58
NtRp3991
(dp3992
g61
(dp3993
sg70
g3962
sg63
(lp3994
g56
(g77
g58
NtRp3995
(dp3996
g61
(dp3997
sg70
g3991
sg63
(lp3998
g56
(g57
g58
NtRp3999
(dp4000
g61
(dp4001
g69
I3
ssg70
g3995
sg63
(lp4002
S'/grades/default/grades_manage'
p4003
asbasbasbag56
(g72
g58
NtRp4004
(dp4005
g61
(dp4006
sg70
g3962
sg63
(lp4007
g56
(g77
g58
NtRp4008
(dp4009
g61
(dp4010
sg70
g4004
sg63
(lp4011
g56
(g57
g58
NtRp4012
(dp4013
g61
(dp4014
g69
I3
ssg70
g4008
sg63
(lp4015
g56
(g65
g58
NtRp4016
(dp4017
g61
(dp4018
g69
I2
ssg70
Nsg63
(lp4019
sbasbasbasbasbasbasbasbag56
(g72
g58
NtRp4020
(dp4021
g61
(dp4022
sg70
g3875
sg63
(lp4023
g56
(g77
g58
NtRp4024
(dp4025
g61
(dp4026
sg70
g4020
sg63
(lp4027
g56
(g57
g58
NtRp4028
(dp4029
g61
(dp4030
g69
I4
ssg70
g4024
sg63
(lp4031
g56
(g65
g58
NtRp4032
(dp4033
g61
(dp4034
g69
I3
ssg70
Nsg63
(lp4035
g56
(g72
g58
NtRp4036
(dp4037
g61
(dp4038
sg70
g4032
sg63
(lp4039
g56
(g77
g58
NtRp4040
(dp4041
g61
(dp4042
sg70
g4036
sg63
(lp4043
g56
(g57
g58
NtRp4044
(dp4045
g61
(dp4046
g69
I3
ssg70
g4040
sg63
(lp4047
g3907
(S't\x07\x00\x00\x00Classes'
tRp4048
asbasbasbag56
(g72
g58
NtRp4049
(dp4050
g61
(dp4051
sg70
g4032
sg63
(lp4052
g56
(g77
g58
NtRp4053
(dp4054
g61
(dp4055
sg70
g4049
sg63
(lp4056
g56
(g57
g58
NtRp4057
(dp4058
g61
(dp4059
g69
I3
ssg70
g4053
sg63
(lp4060
g99
asbasbasbag56
(g72
g58
NtRp4061
(dp4062
g61
(dp4063
sg70
g4032
sg63
(lp4064
g56
(g77
g58
NtRp4065
(dp4066
g61
(dp4067
sg70
g4061
sg63
(lp4068
g56
(g57
g58
NtRp4069
(dp4070
g61
(dp4071
g69
I3
ssg70
g4065
sg63
(lp4072
S'/grades/default/classes_manage'
p4073
asbasbasbag56
(g72
g58
NtRp4074
(dp4075
g61
(dp4076
sg70
g4032
sg63
(lp4077
g56
(g77
g58
NtRp4078
(dp4079
g61
(dp4080
sg70
g4074
sg63
(lp4081
g56
(g57
g58
NtRp4082
(dp4083
g61
(dp4084
g69
I3
ssg70
g4078
sg63
(lp4085
g56
(g65
g58
NtRp4086
(dp4087
g61
(dp4088
g69
I2
ssg70
Nsg63
(lp4089
sbasbasbasbasbasbasbasbasbasbasbasbag56
(g72
g58
NtRp4090
(dp4091
g61
(dp4092
sg70
g3402
sg63
(lp4093
g56
(g77
g58
NtRp4094
(dp4095
g61
(dp4096
g81
g82
ssg70
g4090
sg63
(lp4097
S'meta'
p4098
asbag56
(g77
g58
NtRp4099
(dp4100
g61
(dp4101
g88
g89
ssg70
g4090
sg63
(lp4102
S':'
asbag56
(g77
g58
NtRp4103
(dp4104
g61
(dp4105
sg70
g4090
sg63
(lp4106
g56
(g57
g58
NtRp4107
(dp4108
g61
(dp4109
g69
I5
ssg70
g4103
sg63
(lp4110
g56
(g65
g58
NtRp4111
(dp4112
g61
(dp4113
g69
I4
ssg70
Nsg63
(lp4114
g56
(g72
g58
NtRp4115
(dp4116
g61
(dp4117
sg70
g4111
sg63
(lp4118
g56
(g77
g58
NtRp4119
(dp4120
g61
(dp4121
g81
g82
ssg70
g4115
sg63
(lp4122
S'author'
p4123
asbag56
(g77
g58
NtRp4124
(dp4125
g61
(dp4126
g88
g89
ssg70
g4115
sg63
(lp4127
S':'
asbag56
(g77
g58
NtRp4128
(dp4129
g61
(dp4130
sg70
g4115
sg63
(lp4131
g56
(g57
g58
NtRp4132
(dp4133
g61
(dp4134
g69
I4
ssg70
g4128
sg63
(lp4135
S'Ian W. Scott <scottianw@gmail.com>'
p4136
asbasbasbag56
(g72
g58
NtRp4137
(dp4138
g61
(dp4139
sg70
g4111
sg63
(lp4140
g56
(g77
g58
NtRp4141
(dp4142
g61
(dp4143
g81
g82
ssg70
g4137
sg63
(lp4144
S'description'
p4145
asbag56
(g77
g58
NtRp4146
(dp4147
g61
(dp4148
g88
g89
ssg70
g4137
sg63
(lp4149
S':'
asbag56
(g77
g58
NtRp4150
(dp4151
g61
(dp4152
sg70
g4137
sg63
(lp4153
g56
(g57
g58
NtRp4154
(dp4155
g61
(dp4156
g69
I4
ssg70
g4150
sg63
(lp4157
S''
asbasbasbag56
(g72
g58
NtRp4158
(dp4159
g61
(dp4160
sg70
g4111
sg63
(lp4161
g56
(g77
g58
NtRp4162
(dp4163
g61
(dp4164
g81
g82
ssg70
g4158
sg63
(lp4165
S'keywords'
p4166
asbag56
(g77
g58
NtRp4167
(dp4168
g61
(dp4169
g88
g89
ssg70
g4158
sg63
(lp4170
S':'
asbag56
(g77
g58
NtRp4171
(dp4172
g61
(dp4173
sg70
g4158
sg63
(lp4174
g56
(g57
g58
NtRp4175
(dp4176
g61
(dp4177
g69
I4
ssg70
g4171
sg63
(lp4178
S''
asbasbasbasbasbasbasbag56
(g72
g58
NtRp4179
(dp4180
g61
(dp4181
sg70
g3402
sg63
(lp4182
g56
(g77
g58
NtRp4183
(dp4184
g61
(dp4185
g81
g82
ssg70
g4179
sg63
(lp4186
S'postprocessing'
p4187
asbag56
(g77
g58
NtRp4188
(dp4189
g61
(dp4190
g88
g89
ssg70
g4179
sg63
(lp4191
S':'
asbag56
(g77
g58
NtRp4192
(dp4193
g61
(dp4194
sg70
g4179
sg63
(lp4195
g56
(g57
g58
NtRp4196
(dp4197
g61
(dp4198
g69
I5
ssg70
g4192
sg63
(lp4199
g56
(g65
g58
NtRp4200
(dp4201
g61
(dp4202
g69
I4
ssg70
Nsg63
(lp4203
sbasbasbasbag56
(g72
g58
NtRp4204
(dp4205
g61
(dp4206
sg70
g3402
sg63
(lp4207
g56
(g77
g58
NtRp4208
(dp4209
g61
(dp4210
g81
g82
ssg70
g4204
sg63
(lp4211
S'session_file'
p4212
asbag56
(g77
g58
NtRp4213
(dp4214
g61
(dp4215
g88
g89
ssg70
g4204
sg63
(lp4216
S':'
asbag56
(g77
g58
NtRp4217
(dp4218
g61
(dp4219
sg70
g4204
sg63
(lp4220
g56
(g57
g58
NtRp4221
(dp4222
g61
(dp4223
g69
I5
ssg70
g4217
sg63
(lp4224
S"<open file '/home/ian/web2py/applications/grades/sessions/127.0.0.1-c574ca17-f89b-43b2-a33b-5430c26e6a60', mode 'rb+' at 0x85ca1e0>"
p4225
asbasbasbag56
(g72
g58
NtRp4226
(dp4227
g61
(dp4228
sg70
g3402
sg63
(lp4229
g56
(g77
g58
NtRp4230
(dp4231
g61
(dp4232
g81
g82
ssg70
g4226
sg63
(lp4233
S'session_filename'
p4234
asbag56
(g77
g58
NtRp4235
(dp4236
g61
(dp4237
g88
g89
ssg70
g4226
sg63
(lp4238
S':'
asbag56
(g77
g58
NtRp4239
(dp4240
g61
(dp4241
sg70
g4226
sg63
(lp4242
g56
(g57
g58
NtRp4243
(dp4244
g61
(dp4245
g69
I5
ssg70
g4239
sg63
(lp4246
S'/home/ian/web2py/applications/grades/sessions/127.0.0.1-c574ca17-f89b-43b2-a33b-5430c26e6a60'
p4247
asbasbasbag56
(g72
g58
NtRp4248
(dp4249
g61
(dp4250
sg70
g3402
sg63
(lp4251
g56
(g77
g58
NtRp4252
(dp4253
g61
(dp4254
g81
g82
ssg70
g4248
sg63
(lp4255
S'session_id'
p4256
asbag56
(g77
g58
NtRp4257
(dp4258
g61
(dp4259
g88
g89
ssg70
g4248
sg63
(lp4260
S':'
asbag56
(g77
g58
NtRp4261
(dp4262
g61
(dp4263
sg70
g4248
sg63
(lp4264
g56
(g57
g58
NtRp4265
(dp4266
g61
(dp4267
g69
I5
ssg70
g4261
sg63
(lp4268
S'127.0.0.1-c574ca17-f89b-43b2-a33b-5430c26e6a60'
p4269
asbasbasbag56
(g72
g58
NtRp4270
(dp4271
g61
(dp4272
sg70
g3402
sg63
(lp4273
g56
(g77
g58
NtRp4274
(dp4275
g61
(dp4276
g81
g82
ssg70
g4270
sg63
(lp4277
S'session_id_name'
p4278
asbag56
(g77
g58
NtRp4279
(dp4280
g61
(dp4281
g88
g89
ssg70
g4270
sg63
(lp4282
S':'
asbag56
(g77
g58
NtRp4283
(dp4284
g61
(dp4285
sg70
g4270
sg63
(lp4286
g56
(g57
g58
NtRp4287
(dp4288
g61
(dp4289
g69
I5
ssg70
g4283
sg63
(lp4290
g3459
asbasbasbag56
(g72
g58
NtRp4291
(dp4292
g61
(dp4293
sg70
g3402
sg63
(lp4294
g56
(g77
g58
NtRp4295
(dp4296
g61
(dp4297
g81
g82
ssg70
g4291
sg63
(lp4298
S'session_locked'
p4299
asbag56
(g77
g58
NtRp4300
(dp4301
g61
(dp4302
g88
g89
ssg70
g4291
sg63
(lp4303
S':'
asbag56
(g77
g58
NtRp4304
(dp4305
g61
(dp4306
sg70
g4291
sg63
(lp4307
g56
(g57
g58
NtRp4308
(dp4309
g61
(dp4310
g69
I5
ssg70
g4304
sg63
(lp4311
g1647
asbasbasbag56
(g72
g58
NtRp4312
(dp4313
g61
(dp4314
sg70
g3402
sg63
(lp4315
g56
(g77
g58
NtRp4316
(dp4317
g61
(dp4318
g81
g82
ssg70
g4312
sg63
(lp4319
S'session_new'
p4320
asbag56
(g77
g58
NtRp4321
(dp4322
g61
(dp4323
g88
g89
ssg70
g4312
sg63
(lp4324
S':'
asbag56
(g77
g58
NtRp4325
(dp4326
g61
(dp4327
sg70
g4312
sg63
(lp4328
g56
(g57
g58
NtRp4329
(dp4330
g61
(dp4331
g69
I5
ssg70
g4325
sg63
(lp4332
g99
asbasbasbag56
(g72
g58
NtRp4333
(dp4334
g61
(dp4335
sg70
g3402
sg63
(lp4336
g56
(g77
g58
NtRp4337
(dp4338
g61
(dp4339
g81
g82
ssg70
g4333
sg63
(lp4340
S'status'
p4341
asbag56
(g77
g58
NtRp4342
(dp4343
g61
(dp4344
g88
g89
ssg70
g4333
sg63
(lp4345
S':'
asbag56
(g77
g58
NtRp4346
(dp4347
g61
(dp4348
sg70
g4333
sg63
(lp4349
g56
(g57
g58
NtRp4350
(dp4351
g61
(dp4352
g69
I5
ssg70
g4346
sg63
(lp4353
S'200'
p4354
asbasbasbag56
(g72
g58
NtRp4355
(dp4356
g61
(dp4357
sg70
g3402
sg63
(lp4358
g56
(g77
g58
NtRp4359
(dp4360
g61
(dp4361
g81
g82
ssg70
g4355
sg63
(lp4362
S'subtitle'
p4363
asbag56
(g77
g58
NtRp4364
(dp4365
g61
(dp4366
g88
g89
ssg70
g4355
sg63
(lp4367
S':'
asbag56
(g77
g58
NtRp4368
(dp4369
g61
(dp4370
sg70
g4355
sg63
(lp4371
g56
(g57
g58
NtRp4372
(dp4373
g61
(dp4374
g69
I5
ssg70
g4368
sg63
(lp4375
S'a platform for easy submission of peer grades'
p4376
asbasbasbag56
(g72
g58
NtRp4377
(dp4378
g61
(dp4379
sg70
g3402
sg63
(lp4380
g56
(g77
g58
NtRp4381
(dp4382
g61
(dp4383
g81
g82
ssg70
g4377
sg63
(lp4384
S'title'
p4385
asbag56
(g77
g58
NtRp4386
(dp4387
g61
(dp4388
g88
g89
ssg70
g4377
sg63
(lp4389
S':'
asbag56
(g77
g58
NtRp4390
(dp4391
g61
(dp4392
sg70
g4377
sg63
(lp4393
g56
(g57
g58
NtRp4394
(dp4395
g61
(dp4396
g69
I5
ssg70
g4390
sg63
(lp4397
S'Grades'
p4398
asbasbasbag56
(g72
g58
NtRp4399
(dp4400
g61
(dp4401
sg70
g3402
sg63
(lp4402
g56
(g77
g58
NtRp4403
(dp4404
g61
(dp4405
g81
g82
ssg70
g4399
sg63
(lp4406
g2312
asbag56
(g77
g58
NtRp4407
(dp4408
g61
(dp4409
g88
g89
ssg70
g4399
sg63
(lp4410
S':'
asbag56
(g77
g58
NtRp4411
(dp4412
g61
(dp4413
sg70
g4399
sg63
(lp4414
g56
(g57
g58
NtRp4415
(dp4416
g61
(dp4417
g69
I5
ssg70
g4411
sg63
(lp4418
g2325
asbasbasbag56
(g72
g58
NtRp4419
(dp4420
g61
(dp4421
sg70
g3402
sg63
(lp4422
g56
(g77
g58
NtRp4423
(dp4424
g61
(dp4425
g81
g82
ssg70
g4419
sg63
(lp4426
S'view'
p4427
asbag56
(g77
g58
NtRp4428
(dp4429
g61
(dp4430
g88
g89
ssg70
g4419
sg63
(lp4431
S':'
asbag56
(g77
g58
NtRp4432
(dp4433
g61
(dp4434
sg70
g4419
sg63
(lp4435
g56
(g57
g58
NtRp4436
(dp4437
g61
(dp4438
g69
I5
ssg70
g4432
sg63
(lp4439
S'default/grades_report.html'
p4440
asbasbasbasbasbsS'locals'
p4441
(dp4442
S'u'
S"'16'"
p4443
sS'n'
S'<gluon.dal.Rows object>'
p4444
sssS'traceback'
p4445
S'Traceback (most recent call last):\n  File "/home/ian/web2py/gluon/restricted.py", line 194, in restricted\n    exec ccode in environment\n  File "/home/ian/web2py/applications/grades/controllers/default.py", line 52, in <module>\n  File "/home/ian/web2py/gluon/globals.py", line 149, in <lambda>\n    self._caller = lambda f: f()\n  File "/home/ian/web2py/gluon/tools.py", line 2456, in f\n    return action(*a, **b)\n  File "/home/ian/web2py/applications/grades/controllers/default.py", line 35, in grades_report\n    student = n.last_name , \', \' , n.first_name\nAttributeError: \'Rows\' object has no attribute \'last_name\'\n'
p4446
s.