(dp1
S'output'
p2
S''
sS'layer'
p3
S'/home/ian/web2py/applications/grades/views/default/grades_report.html'
p4
sS'code'
p5
S'response.write(\'<!DOCTYPE html>\\n<html lang="\', escape=False)\nresponse.write(T.accepted_language or \'en\')\nresponse.write(\'" class="no-js"><!-- no-js need it for modernzr -->\\n  <head>\\n    \\n    <meta charset="utf-8" />        \\n    <!-- www.phpied.com/conditional-comments-block-downloads/ -->\\n    <!--[if IE]><![endif]-->    \\n    <!-- Always force latest IE rendering engine \\n     (even in intranet) & Chrome Frame \\n     Remove this if you use the .htaccess -->\\n    <meta http-equiv="X-UA-Compatible" content="IE=edge,chrome=1">\\n    \\n    <title>\', escape=False)\nresponse.write(response.title or request.application)\nresponse.write(\'</title>\\n    \\n    <!-- http://dev.w3.org/html5/markup/meta.name.html -->\\n    <meta name="application-name" content="\', escape=False)\nresponse.write(request.application)\nresponse.write(\'" /> \\n    \\n    <!-- Speaking of Google, don\\\'t forget to set your site up: \\n     http://google.com/webmasters -->\\n    <meta name="google-site-verification" content="" />\\n    \\n    <!--  Mobile Viewport Fix\\n      j.mp/mobileviewport & davidbcalhoun.com/2010/viewport-metatag \\n      device-width: Occupy full width of the screen in its current orientation\\n      initial-scale = 1.0 retains dimensions instead of zooming out if page height > device height\\n      maximum-scale = 1.0 retains dimensions instead of zooming in if page width < device width\\n      -->\\n    <meta name="viewport" content="width=device-width, initial-scale=1.0, maximum-scale=1.0">\\n    \\n    <!-- Place favicon.ico and apple-touch-icon.png in the root of your domain and delete these references -->\\n    <link rel="shortcut icon" href="\', escape=False)\nresponse.write(URL(\'static\',\'favicon.ico\'))\nresponse.write(\'" type="image/x-icon">\\n    <link rel="apple-touch-icon" href="\', escape=False)\nresponse.write(URL(\'static\',\'favicon.png\'))\nresponse.write(\'">\\n\\n    <!-- For the less-enabled mobile browsers like Opera Mini -->\\n    <link rel="stylesheet" media="handheld" href="\', escape=False)\nresponse.write(URL(\'static\',\'css/handheld.css\'))\nresponse.write(\'">\\n    \\n    <!-- All JavaScript at the bottom, except for Modernizr which enables HTML5 elements & feature detects -->\\n    <script src="\', escape=False)\nresponse.write(URL(\'static\',\'js/modernizr-1.7.min.js\'))\nresponse.write(\'"></script>\\n    \\n    \', escape=False)\n#------  require CSS and JS files for this page (read info in base.css) ------\nresponse.write(\'\\n\\t\', escape=False)\nresponse.files.append(URL(\'static\',\'css/base.css\'))\nresponse.write(\'\\n\\t\', escape=False)\nresponse.files.append(URL(\'static\',\'css/grades_theme.css\'))\nresponse.write(\'\\n    \', escape=False)\nresponse.files.append(URL(\'static\',\'css/two_pane.css\'))\nresponse.write(\'\\n    \', escape=False)\nresponse.files.append(URL(\'static\',\'css/superfish.css\'))\nresponse.write(\'\\n    \', escape=False)\nresponse.files.append(URL(\'static\',\'js/superfish.js\'))\nresponse.write(\'\\n    \', escape=False)\n#------ include web2py specific js code (jquery, calendar, form stuff) ------\nresponse.write(\'\\n    \', escape=False)\nresponse.files.insert(0,URL(\'static\',\'js/jquery.js\'))\nresponse.files.insert(1,URL(\'static\',\'css/anytime.css\'))\nresponse.files.insert(2,URL(\'static\',\'js/anytime.js\'))\nresponse.include_meta()\nresponse.include_files()\nresponse.write(\'\\n<script type="text/javascript"><!--\\n    // These variables are used by the web2py_ajax_init function in web2py_ajax.js (which is loaded below).\\n    var w2p_ajax_confirm_message = "\', escape=False)\nresponse.write(T(\'Are you sure you want to delete this object?\'))\nresponse.write(\'";\\n    var w2p_ajax_date_format = "\', escape=False)\nresponse.write(T(\'%Y-%m-%d\'))\nresponse.write(\'";\\n    var w2p_ajax_datetime_format = "\', escape=False)\nresponse.write(T(\'%Y-%m-%d %H:%M:%S\'))\nresponse.write(\'";\\n    //--></script>\\n    <script src="\', escape=False)\nresponse.write(URL(\'static\',\'js/web2py_ajax.js\'))\nresponse.write(\'" type="text/javascript"></script>\\n\', escape=False)\nresponse.write(\'\\n\\n    \', escape=False)\n#using sidebars need to know what sidebar you want to use\n#prior of using it, because of static width size of content, you can use\n#left_sidebar, right_sidebar, both or none (False left and right)\nleft_sidebar_enabled = globals().get(\'left_sidebar_enabled\',False)\nright_sidebar_enabled = globals().get(\'right_sidebar_enabled\',False)\nif left_sidebar_enabled and right_sidebar_enabled: width_content=\'63%\'\nelif left_sidebar_enabled != right_sidebar_enabled: width_content=\'740px\'\nelse: width_content=\'100%\'\nif left_sidebar_enabled: left_sidebar_style = \'style="display: block;"\'\nelse: left_sidebar_style = \'style="display: none;"\'\nif right_sidebar_enabled: right_sidebar_style = \'style="display: block;"\'\nelse: right_sidebar_style = \'style="display: none;"\'\nstyle_content = \'style="width: %s"\' % width_content\nresponse.write(\'\\n    \\n    <!--use html5shiv to let IE see new html entities and give them block style so that they are treated properly--> \\n    <!--[if IE]>\\n        <script src="http://html5shiv.googlecode.com/svn/trunk/html5.js"></script>\\n    <![endif]-->\\n    <style>\\n      article, aside, details, figcaption, figure, footer, header,\\n      hgroup, menu, nav, section { display: block; }\\n    </style>\\n      \\n    \\n  </head>\\n  \\n  <!-- paulirish.com/2008/conditional-stylesheets-vs-css-hacks-answer-neither/ -->  \\n  <!--[if lt IE 7 ]> <body class="ie6"> <![endif]-->\\n  <!--[if IE 7 ]>    <body class="ie7"> <![endif]-->\\n  <!--[if IE 8 ]>    <body class="ie8"> <![endif]-->\\n  <!--[if IE 9 ]>    <body class="ie9"> <![endif]-->\\n  <!--[if (gt IE 9)|!(IE)]><!--> <body> <!--<![endif]-->\\n    \\n    <div class="flash">\', escape=False)\nresponse.write(response.flash or \'\')\nresponse.write("</div> <!-- notification div -->                           \\n\\n\\t<div id=\'modal_frame\'></div>\\n    \\n    <header>\\n        \\n      ", escape=False)\nresponse.write(\' <!-- this is default header -->\\n      \', escape=False)\ntry:\n    response.write(auth.navbar(action=URL(\'default\',\'user\')))\nexcept:pass\nresponse.write(\'               \\n      <h1 id="appname">\', escape=False)\nresponse.write(A(request.application.capitalize(), _href=URL(\'default\', \'index\')))\nresponse.write(\'</h1>\\n      <div style="clear: both;"></div><!-- Clear the divs -->\\n      \', escape=False)\nresponse.write(\'                \\n                             \\n    </header>\\n    \\n    <div id="page" class="\', escape=False)\nresponse.write(request.controller)\nresponse.write(\' \', escape=False)\nresponse.write(request.function)\nresponse.write(\'">    \\n\\n      \', escape=False)\nif left_sidebar_enabled:\n    response.write(\'\\n          <div id="left_sidebar" \', escape=False)\n    response.write(XML(left_sidebar_style))\n    response.write(\' >\\n            <div style="padding: 4px;">\\n          \', escape=False)\n    response.write(\'Content Left Sidebar\', escape=False)\n    response.write(\'       \\n            </div>\\n          </div><!-- left_sidebar -->\\n      \', escape=False)\n    pass\nresponse.write(\'\\n\\n      <!-- content of other views-->\\n      \', escape=False)\nresponse.write(\'\\n\\n<h2>Grade Reports</h2>\\n\\n<section id="viewpane">\\n\', escape=False)\nresponse.write(LOAD(\'default\', \'grades_report.load\', ajax=True))\nresponse.write(\'\\n\\n</section>\\n\\n<section id="listpane">\\n\', escape=False)\nresponse.write(A(\'next student\', _href=URL(\'grades_report.load\', args=(request.args[0]+1)), cid=\'viewpane\'))\nresponse.write(\'\\n    <ul>\\n    \', escape=False)\nfor num,name in students.items():\n    response.write(\'\\n        \', escape=False)\n    response.write(LI(A(name, _href=URL(\'grades_report.load\', args=num), cid="viewpane")))\n    response.write(\'\\n    \', escape=False)\n    pass\nresponse.write(\'\\n    </ul>\\n</section>\', escape=False)\nresponse.write(\' \\n      <!-- content -->\\n\\n      \', escape=False)\nif right_sidebar_enabled:\n    response.write(\'\\n          <div id="right_sidebar" \', escape=False)\n    response.write(XML(right_sidebar_style))\n    response.write(\' >\\n            <div style="padding: 4px;">\\n              \', escape=False)\n    response.write(\'Content Right Sidebar\', escape=False)\n    response.write(\'\\n            </div>\\n          </div><!-- right_sidebar -->\\n      \', escape=False)\n    pass\nresponse.write(\'\\n       \\n      <div style="clear: both;"></div><!-- Clear the divs -->                         \\n    \\n    </div><!--page-->\\n    \\n    <footer>\\n      \', escape=False)\nresponse.write(\' <!-- this is default footer -->\\n      <a href="http://www.web2py.com/" >\\n        <img src="\', escape=False)\nresponse.write(URL(\'static\',\'images/poweredby.png\'))\nresponse.write(\'"/>\\n      </a>\\n      \', escape=False)\nresponse.write(T(\'Copyright\'))\nresponse.write(\' &#169; Ian W. Scott 2011 (licensed under GPL 3.0)               \\n      <div style="clear: both;"></div><!-- Clear the divs -->\\n      \', escape=False)\nresponse.write(\'\\n    </footer>           \\n\\n\\t\', escape=False)\nif session.debug:\n    response.write(\'\\n\\t\\t\', escape=False)\n    response.write(DIV(session.debug, _class="debug"))\n    response.write(\'\\n\\t\', escape=False)\n    pass\nresponse.write(\'\\n\\n    <!--[if lt IE 7 ]>\\n    <script src="\', escape=False)\nresponse.write(URL(\'static\',\'js/dd_belatedpng.js\'))\nresponse.write(\'"></script>\\n    <script> DD_belatedPNG.fix(\\\'img, .png_bg\\\'); //fix any <img> or .png_bg background-images </script>\\n    <![endif]-->\\n    \\n    <!-- asynchronous google analytics: mathiasbynens.be/notes/async-analytics-snippet \\n     change the UA-XXXXX-X to be your site\\\'s ID -->\\n    <!--   \\n       <script>\\n         var _gaq = [[\\\'_setAccount\\\', \\\'UA-XXXXX-X\\\'], [\\\'_trackPageview\\\']];\\n         (function(d, t) {\\n         var g = d.createElement(t),\\n         s = d.getElementsByTagName(t)[0];\\n         g.async = true;\\n         g.src = \\\'//www.google-analytics.com/ga.js\\\';\\n         s.parentNode.insertBefore(g, s);\\n         })(document, \\\'script\\\');\\n       </script>\\n       -->    \\n  </body>\\n</html>\\n\', escape=False)'
p6
sS'snapshot'
p7
(dp8
S'exception'
p9
(dp10
S'__hash__'
p11
S"<method-wrapper '__hash__' of exceptions.TypeError object>"
p12
sS'__setattr__'
p13
S"<method-wrapper '__setattr__' of exceptions.TypeError object>"
p14
sS'__reduce_ex__'
p15
S'<built-in method __reduce_ex__ of exceptions.TypeError object>'
p16
sS'__getslice__'
p17
S"<method-wrapper '__getslice__' of exceptions.TypeError object>"
p18
sS'__getitem__'
p19
S"<method-wrapper '__getitem__' of exceptions.TypeError object>"
p20
sS'__setstate__'
p21
S'<built-in method __setstate__ of exceptions.TypeError object>'
p22
sS'args'
p23
S'("cannot concatenate \'str\' and \'int\' objects",)'
p24
sS'__reduce__'
p25
S'<built-in method __reduce__ of exceptions.TypeError object>'
p26
sS'__str__'
p27
S"<method-wrapper '__str__' of exceptions.TypeError object>"
p28
sS'__format__'
p29
S'<built-in method __format__ of exceptions.TypeError object>'
p30
sS'__getattribute__'
p31
S"<method-wrapper '__getattribute__' of exceptions.TypeError object>"
p32
sS'__class__'
p33
S"<type 'exceptions.TypeError'>"
p34
sS'__unicode__'
p35
S'<built-in method __unicode__ of exceptions.TypeError object>'
p36
sS'__delattr__'
p37
S"<method-wrapper '__delattr__' of exceptions.TypeError object>"
p38
sS'__subclasshook__'
p39
S'<built-in method __subclasshook__ of type object>'
p40
sS'__repr__'
p41
S"<method-wrapper '__repr__' of exceptions.TypeError object>"
p42
sS'__dict__'
p43
S'{}'
p44
sS'__sizeof__'
p45
S'<built-in method __sizeof__ of exceptions.TypeError object>'
p46
sS'__doc__'
p47
S"'Inappropriate argument type.'"
p48
sS'__init__'
p49
S"<method-wrapper '__init__' of exceptions.TypeError object>"
p50
sS'__new__'
p51
S'<built-in method __new__ of type object>'
p52
ssS'evalue'
p53
S"cannot concatenate 'str' and 'int' objects"
p54
sS'request'
p55
ccopy_reg
_reconstructor
p56
(cgluon.html
BEAUTIFY
p57
c__builtin__
object
p58
NtRp59
(dp60
S'attributes'
p61
(dp62
sS'components'
p63
(lp64
g56
(cgluon.html
TABLE
p65
g58
NtRp66
(dp67
g61
(dp68
S'level'
p69
I5
ssS'parent'
p70
Nsg63
(lp71
g56
(cgluon.html
TR
p72
g58
NtRp73
(dp74
g61
(dp75
sg70
g66
sg63
(lp76
g56
(cgluon.html
TD
p77
g58
NtRp78
(dp79
g61
(dp80
S'_style'
p81
S'font-weight:bold;'
p82
ssg70
g73
sg63
(lp83
S'ajax'
p84
asbag56
(g77
g58
NtRp85
(dp86
g61
(dp87
S'_valign'
p88
S'top'
p89
ssg70
g73
sg63
(lp90
S':'
asbag56
(g77
g58
NtRp91
(dp92
g61
(dp93
sg70
g73
sg63
(lp94
g56
(g57
g58
NtRp95
(dp96
g61
(dp97
g69
I5
ssg70
g91
sg63
(lp98
S'False'
p99
asbasbasbag56
(g72
g58
NtRp100
(dp101
g61
(dp102
sg70
g66
sg63
(lp103
g56
(g77
g58
NtRp104
(dp105
g61
(dp106
g81
g82
ssg70
g100
sg63
(lp107
S'application'
p108
asbag56
(g77
g58
NtRp109
(dp110
g61
(dp111
g88
g89
ssg70
g100
sg63
(lp112
S':'
asbag56
(g77
g58
NtRp113
(dp114
g61
(dp115
sg70
g100
sg63
(lp116
g56
(g57
g58
NtRp117
(dp118
g61
(dp119
g69
I5
ssg70
g113
sg63
(lp120
S'grades'
p121
asbasbasbag56
(g72
g58
NtRp122
(dp123
g61
(dp124
sg70
g66
sg63
(lp125
g56
(g77
g58
NtRp126
(dp127
g61
(dp128
g81
g82
ssg70
g122
sg63
(lp129
g23
asbag56
(g77
g58
NtRp130
(dp131
g61
(dp132
g88
g89
ssg70
g122
sg63
(lp133
S':'
asbag56
(g77
g58
NtRp134
(dp135
g61
(dp136
sg70
g122
sg63
(lp137
g56
(g57
g58
NtRp138
(dp139
g61
(dp140
g69
I5
ssg70
g134
sg63
(lp141
g56
(g65
g58
NtRp142
(dp143
g61
(dp144
g69
I4
ssg70
Nsg63
(lp145
g56
(g72
g58
NtRp146
(dp147
g61
(dp148
sg70
g142
sg63
(lp149
g56
(g77
g58
NtRp150
(dp151
g61
(dp152
sg70
g146
sg63
(lp153
g56
(g57
g58
NtRp154
(dp155
g61
(dp156
g69
I4
ssg70
g150
sg63
(lp157
S'15'
p158
asbasbasbasbasbasbasbag56
(g72
g58
NtRp159
(dp160
g61
(dp161
sg70
g66
sg63
(lp162
g56
(g77
g58
NtRp163
(dp164
g61
(dp165
g81
g82
ssg70
g159
sg63
(lp166
S'body'
p167
asbag56
(g77
g58
NtRp168
(dp169
g61
(dp170
g88
g89
ssg70
g159
sg63
(lp171
S':'
asbag56
(g77
g58
NtRp172
(dp173
g61
(dp174
sg70
g159
sg63
(lp175
g56
(g57
g58
NtRp176
(dp177
g61
(dp178
g69
I5
ssg70
g172
sg63
(lp179
S'<cStringIO.StringO object at 0x2864928>'
p180
asbasbasbag56
(g72
g58
NtRp181
(dp182
g61
(dp183
sg70
g66
sg63
(lp184
g56
(g77
g58
NtRp185
(dp186
g61
(dp187
g81
g82
ssg70
g181
sg63
(lp188
S'client'
p189
asbag56
(g77
g58
NtRp190
(dp191
g61
(dp192
g88
g89
ssg70
g181
sg63
(lp193
S':'
asbag56
(g77
g58
NtRp194
(dp195
g61
(dp196
sg70
g181
sg63
(lp197
g56
(g57
g58
NtRp198
(dp199
g61
(dp200
g69
I5
ssg70
g194
sg63
(lp201
S'127.0.0.1'
p202
asbasbasbag56
(g72
g58
NtRp203
(dp204
g61
(dp205
sg70
g66
sg63
(lp206
g56
(g77
g58
NtRp207
(dp208
g61
(dp209
g81
g82
ssg70
g203
sg63
(lp210
S'controller'
p211
asbag56
(g77
g58
NtRp212
(dp213
g61
(dp214
g88
g89
ssg70
g203
sg63
(lp215
S':'
asbag56
(g77
g58
NtRp216
(dp217
g61
(dp218
sg70
g203
sg63
(lp219
g56
(g57
g58
NtRp220
(dp221
g61
(dp222
g69
I5
ssg70
g216
sg63
(lp223
S'default'
p224
asbasbasbag56
(g72
g58
NtRp225
(dp226
g61
(dp227
sg70
g66
sg63
(lp228
g56
(g77
g58
NtRp229
(dp230
g61
(dp231
g81
g82
ssg70
g225
sg63
(lp232
S'cookies'
p233
asbag56
(g77
g58
NtRp234
(dp235
g61
(dp236
g88
g89
ssg70
g225
sg63
(lp237
S':'
asbag56
(g77
g58
NtRp238
(dp239
g61
(dp240
sg70
g225
sg63
(lp241
g56
(g57
g58
NtRp242
(dp243
g61
(dp244
g69
I5
ssg70
g238
sg63
(lp245
g56
(g65
g58
NtRp246
(dp247
g61
(dp248
g69
I4
ssg70
Nsg63
(lp249
g56
(g72
g58
NtRp250
(dp251
g61
(dp252
sg70
g246
sg63
(lp253
g56
(g77
g58
NtRp254
(dp255
g61
(dp256
g81
g82
ssg70
g250
sg63
(lp257
S'session_id_admin'
p258
asbag56
(g77
g58
NtRp259
(dp260
g61
(dp261
g88
g89
ssg70
g250
sg63
(lp262
S':'
asbag56
(g77
g58
NtRp263
(dp264
g61
(dp265
sg70
g250
sg63
(lp266
g56
(g57
g58
NtRp267
(dp268
g61
(dp269
g69
I4
ssg70
g263
sg63
(lp270
g56
(g65
g58
NtRp271
(dp272
g61
(dp273
g69
I3
ssg70
Nsg63
(lp274
g56
(g72
g58
NtRp275
(dp276
g61
(dp277
sg70
g271
sg63
(lp278
g56
(g77
g58
NtRp279
(dp280
g61
(dp281
g81
g82
ssg70
g275
sg63
(lp282
S'comment'
p283
asbag56
(g77
g58
NtRp284
(dp285
g61
(dp286
g88
g89
ssg70
g275
sg63
(lp287
S':'
asbag56
(g77
g58
NtRp288
(dp289
g61
(dp290
sg70
g275
sg63
(lp291
g56
(g57
g58
NtRp292
(dp293
g61
(dp294
g69
I3
ssg70
g288
sg63
(lp295
S''
asbasbasbag56
(g72
g58
NtRp296
(dp297
g61
(dp298
sg70
g271
sg63
(lp299
g56
(g77
g58
NtRp300
(dp301
g61
(dp302
g81
g82
ssg70
g296
sg63
(lp303
S'domain'
p304
asbag56
(g77
g58
NtRp305
(dp306
g61
(dp307
g88
g89
ssg70
g296
sg63
(lp308
S':'
asbag56
(g77
g58
NtRp309
(dp310
g61
(dp311
sg70
g296
sg63
(lp312
g56
(g57
g58
NtRp313
(dp314
g61
(dp315
g69
I3
ssg70
g309
sg63
(lp316
S''
asbasbasbag56
(g72
g58
NtRp317
(dp318
g61
(dp319
sg70
g271
sg63
(lp320
g56
(g77
g58
NtRp321
(dp322
g61
(dp323
g81
g82
ssg70
g317
sg63
(lp324
S'expires'
p325
asbag56
(g77
g58
NtRp326
(dp327
g61
(dp328
g88
g89
ssg70
g317
sg63
(lp329
S':'
asbag56
(g77
g58
NtRp330
(dp331
g61
(dp332
sg70
g317
sg63
(lp333
g56
(g57
g58
NtRp334
(dp335
g61
(dp336
g69
I3
ssg70
g330
sg63
(lp337
S''
asbasbasbag56
(g72
g58
NtRp338
(dp339
g61
(dp340
sg70
g271
sg63
(lp341
g56
(g77
g58
NtRp342
(dp343
g61
(dp344
g81
g82
ssg70
g338
sg63
(lp345
S'httponly'
p346
asbag56
(g77
g58
NtRp347
(dp348
g61
(dp349
g88
g89
ssg70
g338
sg63
(lp350
S':'
asbag56
(g77
g58
NtRp351
(dp352
g61
(dp353
sg70
g338
sg63
(lp354
g56
(g57
g58
NtRp355
(dp356
g61
(dp357
g69
I3
ssg70
g351
sg63
(lp358
S''
asbasbasbag56
(g72
g58
NtRp359
(dp360
g61
(dp361
sg70
g271
sg63
(lp362
g56
(g77
g58
NtRp363
(dp364
g61
(dp365
g81
g82
ssg70
g359
sg63
(lp366
S'max-age'
p367
asbag56
(g77
g58
NtRp368
(dp369
g61
(dp370
g88
g89
ssg70
g359
sg63
(lp371
S':'
asbag56
(g77
g58
NtRp372
(dp373
g61
(dp374
sg70
g359
sg63
(lp375
g56
(g57
g58
NtRp376
(dp377
g61
(dp378
g69
I3
ssg70
g372
sg63
(lp379
S''
asbasbasbag56
(g72
g58
NtRp380
(dp381
g61
(dp382
sg70
g271
sg63
(lp383
g56
(g77
g58
NtRp384
(dp385
g61
(dp386
g81
g82
ssg70
g380
sg63
(lp387
S'path'
p388
asbag56
(g77
g58
NtRp389
(dp390
g61
(dp391
g88
g89
ssg70
g380
sg63
(lp392
S':'
asbag56
(g77
g58
NtRp393
(dp394
g61
(dp395
sg70
g380
sg63
(lp396
g56
(g57
g58
NtRp397
(dp398
g61
(dp399
g69
I3
ssg70
g393
sg63
(lp400
S''
asbasbasbag56
(g72
g58
NtRp401
(dp402
g61
(dp403
sg70
g271
sg63
(lp404
g56
(g77
g58
NtRp405
(dp406
g61
(dp407
g81
g82
ssg70
g401
sg63
(lp408
S'secure'
p409
asbag56
(g77
g58
NtRp410
(dp411
g61
(dp412
g88
g89
ssg70
g401
sg63
(lp413
S':'
asbag56
(g77
g58
NtRp414
(dp415
g61
(dp416
sg70
g401
sg63
(lp417
g56
(g57
g58
NtRp418
(dp419
g61
(dp420
g69
I3
ssg70
g414
sg63
(lp421
S''
asbasbasbag56
(g72
g58
NtRp422
(dp423
g61
(dp424
sg70
g271
sg63
(lp425
g56
(g77
g58
NtRp426
(dp427
g61
(dp428
g81
g82
ssg70
g422
sg63
(lp429
S'version'
p430
asbag56
(g77
g58
NtRp431
(dp432
g61
(dp433
g88
g89
ssg70
g422
sg63
(lp434
S':'
asbag56
(g77
g58
NtRp435
(dp436
g61
(dp437
sg70
g422
sg63
(lp438
g56
(g57
g58
NtRp439
(dp440
g61
(dp441
g69
I3
ssg70
g435
sg63
(lp442
S''
asbasbasbasbasbasbasbag56
(g72
g58
NtRp443
(dp444
g61
(dp445
sg70
g246
sg63
(lp446
g56
(g77
g58
NtRp447
(dp448
g61
(dp449
g81
g82
ssg70
g443
sg63
(lp450
S'session_id_grades'
p451
asbag56
(g77
g58
NtRp452
(dp453
g61
(dp454
g88
g89
ssg70
g443
sg63
(lp455
S':'
asbag56
(g77
g58
NtRp456
(dp457
g61
(dp458
sg70
g443
sg63
(lp459
g56
(g57
g58
NtRp460
(dp461
g61
(dp462
g69
I4
ssg70
g456
sg63
(lp463
g56
(g65
g58
NtRp464
(dp465
g61
(dp466
g69
I3
ssg70
Nsg63
(lp467
g56
(g72
g58
NtRp468
(dp469
g61
(dp470
sg70
g464
sg63
(lp471
g56
(g77
g58
NtRp472
(dp473
g61
(dp474
g81
g82
ssg70
g468
sg63
(lp475
g283
asbag56
(g77
g58
NtRp476
(dp477
g61
(dp478
g88
g89
ssg70
g468
sg63
(lp479
S':'
asbag56
(g77
g58
NtRp480
(dp481
g61
(dp482
sg70
g468
sg63
(lp483
g56
(g57
g58
NtRp484
(dp485
g61
(dp486
g69
I3
ssg70
g480
sg63
(lp487
S''
asbasbasbag56
(g72
g58
NtRp488
(dp489
g61
(dp490
sg70
g464
sg63
(lp491
g56
(g77
g58
NtRp492
(dp493
g61
(dp494
g81
g82
ssg70
g488
sg63
(lp495
g304
asbag56
(g77
g58
NtRp496
(dp497
g61
(dp498
g88
g89
ssg70
g488
sg63
(lp499
S':'
asbag56
(g77
g58
NtRp500
(dp501
g61
(dp502
sg70
g488
sg63
(lp503
g56
(g57
g58
NtRp504
(dp505
g61
(dp506
g69
I3
ssg70
g500
sg63
(lp507
S''
asbasbasbag56
(g72
g58
NtRp508
(dp509
g61
(dp510
sg70
g464
sg63
(lp511
g56
(g77
g58
NtRp512
(dp513
g61
(dp514
g81
g82
ssg70
g508
sg63
(lp515
g325
asbag56
(g77
g58
NtRp516
(dp517
g61
(dp518
g88
g89
ssg70
g508
sg63
(lp519
S':'
asbag56
(g77
g58
NtRp520
(dp521
g61
(dp522
sg70
g508
sg63
(lp523
g56
(g57
g58
NtRp524
(dp525
g61
(dp526
g69
I3
ssg70
g520
sg63
(lp527
S''
asbasbasbag56
(g72
g58
NtRp528
(dp529
g61
(dp530
sg70
g464
sg63
(lp531
g56
(g77
g58
NtRp532
(dp533
g61
(dp534
g81
g82
ssg70
g528
sg63
(lp535
g346
asbag56
(g77
g58
NtRp536
(dp537
g61
(dp538
g88
g89
ssg70
g528
sg63
(lp539
S':'
asbag56
(g77
g58
NtRp540
(dp541
g61
(dp542
sg70
g528
sg63
(lp543
g56
(g57
g58
NtRp544
(dp545
g61
(dp546
g69
I3
ssg70
g540
sg63
(lp547
S''
asbasbasbag56
(g72
g58
NtRp548
(dp549
g61
(dp550
sg70
g464
sg63
(lp551
g56
(g77
g58
NtRp552
(dp553
g61
(dp554
g81
g82
ssg70
g548
sg63
(lp555
g367
asbag56
(g77
g58
NtRp556
(dp557
g61
(dp558
g88
g89
ssg70
g548
sg63
(lp559
S':'
asbag56
(g77
g58
NtRp560
(dp561
g61
(dp562
sg70
g548
sg63
(lp563
g56
(g57
g58
NtRp564
(dp565
g61
(dp566
g69
I3
ssg70
g560
sg63
(lp567
S''
asbasbasbag56
(g72
g58
NtRp568
(dp569
g61
(dp570
sg70
g464
sg63
(lp571
g56
(g77
g58
NtRp572
(dp573
g61
(dp574
g81
g82
ssg70
g568
sg63
(lp575
g388
asbag56
(g77
g58
NtRp576
(dp577
g61
(dp578
g88
g89
ssg70
g568
sg63
(lp579
S':'
asbag56
(g77
g58
NtRp580
(dp581
g61
(dp582
sg70
g568
sg63
(lp583
g56
(g57
g58
NtRp584
(dp585
g61
(dp586
g69
I3
ssg70
g580
sg63
(lp587
S''
asbasbasbag56
(g72
g58
NtRp588
(dp589
g61
(dp590
sg70
g464
sg63
(lp591
g56
(g77
g58
NtRp592
(dp593
g61
(dp594
g81
g82
ssg70
g588
sg63
(lp595
g409
asbag56
(g77
g58
NtRp596
(dp597
g61
(dp598
g88
g89
ssg70
g588
sg63
(lp599
S':'
asbag56
(g77
g58
NtRp600
(dp601
g61
(dp602
sg70
g588
sg63
(lp603
g56
(g57
g58
NtRp604
(dp605
g61
(dp606
g69
I3
ssg70
g600
sg63
(lp607
S''
asbasbasbag56
(g72
g58
NtRp608
(dp609
g61
(dp610
sg70
g464
sg63
(lp611
g56
(g77
g58
NtRp612
(dp613
g61
(dp614
g81
g82
ssg70
g608
sg63
(lp615
g430
asbag56
(g77
g58
NtRp616
(dp617
g61
(dp618
g88
g89
ssg70
g608
sg63
(lp619
S':'
asbag56
(g77
g58
NtRp620
(dp621
g61
(dp622
sg70
g608
sg63
(lp623
g56
(g57
g58
NtRp624
(dp625
g61
(dp626
g69
I3
ssg70
g620
sg63
(lp627
S''
asbasbasbasbasbasbasbag56
(g72
g58
NtRp628
(dp629
g61
(dp630
sg70
g246
sg63
(lp631
g56
(g77
g58
NtRp632
(dp633
g61
(dp634
g81
g82
ssg70
g628
sg63
(lp635
S'session_id_paideia'
p636
asbag56
(g77
g58
NtRp637
(dp638
g61
(dp639
g88
g89
ssg70
g628
sg63
(lp640
S':'
asbag56
(g77
g58
NtRp641
(dp642
g61
(dp643
sg70
g628
sg63
(lp644
g56
(g57
g58
NtRp645
(dp646
g61
(dp647
g69
I4
ssg70
g641
sg63
(lp648
g56
(g65
g58
NtRp649
(dp650
g61
(dp651
g69
I3
ssg70
Nsg63
(lp652
g56
(g72
g58
NtRp653
(dp654
g61
(dp655
sg70
g649
sg63
(lp656
g56
(g77
g58
NtRp657
(dp658
g61
(dp659
g81
g82
ssg70
g653
sg63
(lp660
g283
asbag56
(g77
g58
NtRp661
(dp662
g61
(dp663
g88
g89
ssg70
g653
sg63
(lp664
S':'
asbag56
(g77
g58
NtRp665
(dp666
g61
(dp667
sg70
g653
sg63
(lp668
g56
(g57
g58
NtRp669
(dp670
g61
(dp671
g69
I3
ssg70
g665
sg63
(lp672
S''
asbasbasbag56
(g72
g58
NtRp673
(dp674
g61
(dp675
sg70
g649
sg63
(lp676
g56
(g77
g58
NtRp677
(dp678
g61
(dp679
g81
g82
ssg70
g673
sg63
(lp680
g304
asbag56
(g77
g58
NtRp681
(dp682
g61
(dp683
g88
g89
ssg70
g673
sg63
(lp684
S':'
asbag56
(g77
g58
NtRp685
(dp686
g61
(dp687
sg70
g673
sg63
(lp688
g56
(g57
g58
NtRp689
(dp690
g61
(dp691
g69
I3
ssg70
g685
sg63
(lp692
S''
asbasbasbag56
(g72
g58
NtRp693
(dp694
g61
(dp695
sg70
g649
sg63
(lp696
g56
(g77
g58
NtRp697
(dp698
g61
(dp699
g81
g82
ssg70
g693
sg63
(lp700
g325
asbag56
(g77
g58
NtRp701
(dp702
g61
(dp703
g88
g89
ssg70
g693
sg63
(lp704
S':'
asbag56
(g77
g58
NtRp705
(dp706
g61
(dp707
sg70
g693
sg63
(lp708
g56
(g57
g58
NtRp709
(dp710
g61
(dp711
g69
I3
ssg70
g705
sg63
(lp712
S''
asbasbasbag56
(g72
g58
NtRp713
(dp714
g61
(dp715
sg70
g649
sg63
(lp716
g56
(g77
g58
NtRp717
(dp718
g61
(dp719
g81
g82
ssg70
g713
sg63
(lp720
g346
asbag56
(g77
g58
NtRp721
(dp722
g61
(dp723
g88
g89
ssg70
g713
sg63
(lp724
S':'
asbag56
(g77
g58
NtRp725
(dp726
g61
(dp727
sg70
g713
sg63
(lp728
g56
(g57
g58
NtRp729
(dp730
g61
(dp731
g69
I3
ssg70
g725
sg63
(lp732
S''
asbasbasbag56
(g72
g58
NtRp733
(dp734
g61
(dp735
sg70
g649
sg63
(lp736
g56
(g77
g58
NtRp737
(dp738
g61
(dp739
g81
g82
ssg70
g733
sg63
(lp740
g367
asbag56
(g77
g58
NtRp741
(dp742
g61
(dp743
g88
g89
ssg70
g733
sg63
(lp744
S':'
asbag56
(g77
g58
NtRp745
(dp746
g61
(dp747
sg70
g733
sg63
(lp748
g56
(g57
g58
NtRp749
(dp750
g61
(dp751
g69
I3
ssg70
g745
sg63
(lp752
S''
asbasbasbag56
(g72
g58
NtRp753
(dp754
g61
(dp755
sg70
g649
sg63
(lp756
g56
(g77
g58
NtRp757
(dp758
g61
(dp759
g81
g82
ssg70
g753
sg63
(lp760
g388
asbag56
(g77
g58
NtRp761
(dp762
g61
(dp763
g88
g89
ssg70
g753
sg63
(lp764
S':'
asbag56
(g77
g58
NtRp765
(dp766
g61
(dp767
sg70
g753
sg63
(lp768
g56
(g57
g58
NtRp769
(dp770
g61
(dp771
g69
I3
ssg70
g765
sg63
(lp772
S''
asbasbasbag56
(g72
g58
NtRp773
(dp774
g61
(dp775
sg70
g649
sg63
(lp776
g56
(g77
g58
NtRp777
(dp778
g61
(dp779
g81
g82
ssg70
g773
sg63
(lp780
g409
asbag56
(g77
g58
NtRp781
(dp782
g61
(dp783
g88
g89
ssg70
g773
sg63
(lp784
S':'
asbag56
(g77
g58
NtRp785
(dp786
g61
(dp787
sg70
g773
sg63
(lp788
g56
(g57
g58
NtRp789
(dp790
g61
(dp791
g69
I3
ssg70
g785
sg63
(lp792
S''
asbasbasbag56
(g72
g58
NtRp793
(dp794
g61
(dp795
sg70
g649
sg63
(lp796
g56
(g77
g58
NtRp797
(dp798
g61
(dp799
g81
g82
ssg70
g793
sg63
(lp800
g430
asbag56
(g77
g58
NtRp801
(dp802
g61
(dp803
g88
g89
ssg70
g793
sg63
(lp804
S':'
asbag56
(g77
g58
NtRp805
(dp806
g61
(dp807
sg70
g793
sg63
(lp808
g56
(g57
g58
NtRp809
(dp810
g61
(dp811
g69
I3
ssg70
g805
sg63
(lp812
S''
asbasbasbasbasbasbasbag56
(g72
g58
NtRp813
(dp814
g61
(dp815
sg70
g246
sg63
(lp816
g56
(g77
g58
NtRp817
(dp818
g61
(dp819
g81
g82
ssg70
g813
sg63
(lp820
S'session_id_welcome'
p821
asbag56
(g77
g58
NtRp822
(dp823
g61
(dp824
g88
g89
ssg70
g813
sg63
(lp825
S':'
asbag56
(g77
g58
NtRp826
(dp827
g61
(dp828
sg70
g813
sg63
(lp829
g56
(g57
g58
NtRp830
(dp831
g61
(dp832
g69
I4
ssg70
g826
sg63
(lp833
g56
(g65
g58
NtRp834
(dp835
g61
(dp836
g69
I3
ssg70
Nsg63
(lp837
g56
(g72
g58
NtRp838
(dp839
g61
(dp840
sg70
g834
sg63
(lp841
g56
(g77
g58
NtRp842
(dp843
g61
(dp844
g81
g82
ssg70
g838
sg63
(lp845
g283
asbag56
(g77
g58
NtRp846
(dp847
g61
(dp848
g88
g89
ssg70
g838
sg63
(lp849
S':'
asbag56
(g77
g58
NtRp850
(dp851
g61
(dp852
sg70
g838
sg63
(lp853
g56
(g57
g58
NtRp854
(dp855
g61
(dp856
g69
I3
ssg70
g850
sg63
(lp857
S''
asbasbasbag56
(g72
g58
NtRp858
(dp859
g61
(dp860
sg70
g834
sg63
(lp861
g56
(g77
g58
NtRp862
(dp863
g61
(dp864
g81
g82
ssg70
g858
sg63
(lp865
g304
asbag56
(g77
g58
NtRp866
(dp867
g61
(dp868
g88
g89
ssg70
g858
sg63
(lp869
S':'
asbag56
(g77
g58
NtRp870
(dp871
g61
(dp872
sg70
g858
sg63
(lp873
g56
(g57
g58
NtRp874
(dp875
g61
(dp876
g69
I3
ssg70
g870
sg63
(lp877
S''
asbasbasbag56
(g72
g58
NtRp878
(dp879
g61
(dp880
sg70
g834
sg63
(lp881
g56
(g77
g58
NtRp882
(dp883
g61
(dp884
g81
g82
ssg70
g878
sg63
(lp885
g325
asbag56
(g77
g58
NtRp886
(dp887
g61
(dp888
g88
g89
ssg70
g878
sg63
(lp889
S':'
asbag56
(g77
g58
NtRp890
(dp891
g61
(dp892
sg70
g878
sg63
(lp893
g56
(g57
g58
NtRp894
(dp895
g61
(dp896
g69
I3
ssg70
g890
sg63
(lp897
S''
asbasbasbag56
(g72
g58
NtRp898
(dp899
g61
(dp900
sg70
g834
sg63
(lp901
g56
(g77
g58
NtRp902
(dp903
g61
(dp904
g81
g82
ssg70
g898
sg63
(lp905
g346
asbag56
(g77
g58
NtRp906
(dp907
g61
(dp908
g88
g89
ssg70
g898
sg63
(lp909
S':'
asbag56
(g77
g58
NtRp910
(dp911
g61
(dp912
sg70
g898
sg63
(lp913
g56
(g57
g58
NtRp914
(dp915
g61
(dp916
g69
I3
ssg70
g910
sg63
(lp917
S''
asbasbasbag56
(g72
g58
NtRp918
(dp919
g61
(dp920
sg70
g834
sg63
(lp921
g56
(g77
g58
NtRp922
(dp923
g61
(dp924
g81
g82
ssg70
g918
sg63
(lp925
g367
asbag56
(g77
g58
NtRp926
(dp927
g61
(dp928
g88
g89
ssg70
g918
sg63
(lp929
S':'
asbag56
(g77
g58
NtRp930
(dp931
g61
(dp932
sg70
g918
sg63
(lp933
g56
(g57
g58
NtRp934
(dp935
g61
(dp936
g69
I3
ssg70
g930
sg63
(lp937
S''
asbasbasbag56
(g72
g58
NtRp938
(dp939
g61
(dp940
sg70
g834
sg63
(lp941
g56
(g77
g58
NtRp942
(dp943
g61
(dp944
g81
g82
ssg70
g938
sg63
(lp945
g388
asbag56
(g77
g58
NtRp946
(dp947
g61
(dp948
g88
g89
ssg70
g938
sg63
(lp949
S':'
asbag56
(g77
g58
NtRp950
(dp951
g61
(dp952
sg70
g938
sg63
(lp953
g56
(g57
g58
NtRp954
(dp955
g61
(dp956
g69
I3
ssg70
g950
sg63
(lp957
S''
asbasbasbag56
(g72
g58
NtRp958
(dp959
g61
(dp960
sg70
g834
sg63
(lp961
g56
(g77
g58
NtRp962
(dp963
g61
(dp964
g81
g82
ssg70
g958
sg63
(lp965
g409
asbag56
(g77
g58
NtRp966
(dp967
g61
(dp968
g88
g89
ssg70
g958
sg63
(lp969
S':'
asbag56
(g77
g58
NtRp970
(dp971
g61
(dp972
sg70
g958
sg63
(lp973
g56
(g57
g58
NtRp974
(dp975
g61
(dp976
g69
I3
ssg70
g970
sg63
(lp977
S''
asbasbasbag56
(g72
g58
NtRp978
(dp979
g61
(dp980
sg70
g834
sg63
(lp981
g56
(g77
g58
NtRp982
(dp983
g61
(dp984
g81
g82
ssg70
g978
sg63
(lp985
g430
asbag56
(g77
g58
NtRp986
(dp987
g61
(dp988
g88
g89
ssg70
g978
sg63
(lp989
S':'
asbag56
(g77
g58
NtRp990
(dp991
g61
(dp992
sg70
g978
sg63
(lp993
g56
(g57
g58
NtRp994
(dp995
g61
(dp996
g69
I3
ssg70
g990
sg63
(lp997
S''
asbasbasbasbasbasbasbasbasbasbasbag56
(g72
g58
NtRp998
(dp999
g61
(dp1000
sg70
g66
sg63
(lp1001
g56
(g77
g58
NtRp1002
(dp1003
g61
(dp1004
g81
g82
ssg70
g998
sg63
(lp1005
S'env'
p1006
asbag56
(g77
g58
NtRp1007
(dp1008
g61
(dp1009
g88
g89
ssg70
g998
sg63
(lp1010
S':'
asbag56
(g77
g58
NtRp1011
(dp1012
g61
(dp1013
sg70
g998
sg63
(lp1014
g56
(g57
g58
NtRp1015
(dp1016
g61
(dp1017
g69
I5
ssg70
g1011
sg63
(lp1018
g56
(g65
g58
NtRp1019
(dp1020
g61
(dp1021
g69
I4
ssg70
Nsg63
(lp1022
g56
(g72
g58
NtRp1023
(dp1024
g61
(dp1025
sg70
g1019
sg63
(lp1026
g56
(g77
g58
NtRp1027
(dp1028
g61
(dp1029
g81
g82
ssg70
g1023
sg63
(lp1030
S'app_folders'
p1031
asbag56
(g77
g58
NtRp1032
(dp1033
g61
(dp1034
g88
g89
ssg70
g1023
sg63
(lp1035
S':'
asbag56
(g77
g58
NtRp1036
(dp1037
g61
(dp1038
sg70
g1023
sg63
(lp1039
g56
(g57
g58
NtRp1040
(dp1041
g61
(dp1042
g69
I4
ssg70
g1036
sg63
(lp1043
S"set(['/home/ian/web2py/applications/welcome/', '/home/ian/web2py/applications/grades/', '/home/ian/web2py/applications/admin/'])"
p1044
asbasbasbag56
(g72
g58
NtRp1045
(dp1046
g61
(dp1047
sg70
g1019
sg63
(lp1048
g56
(g77
g58
NtRp1049
(dp1050
g61
(dp1051
g81
g82
ssg70
g1045
sg63
(lp1052
S'applications_parent'
p1053
asbag56
(g77
g58
NtRp1054
(dp1055
g61
(dp1056
g88
g89
ssg70
g1045
sg63
(lp1057
S':'
asbag56
(g77
g58
NtRp1058
(dp1059
g61
(dp1060
sg70
g1045
sg63
(lp1061
g56
(g57
g58
NtRp1062
(dp1063
g61
(dp1064
g69
I4
ssg70
g1058
sg63
(lp1065
S'/home/ian/web2py'
p1066
asbasbasbag56
(g72
g58
NtRp1067
(dp1068
g61
(dp1069
sg70
g1019
sg63
(lp1070
g56
(g77
g58
NtRp1071
(dp1072
g61
(dp1073
g81
g82
ssg70
g1067
sg63
(lp1074
S'cmd_args'
p1075
asbag56
(g77
g58
NtRp1076
(dp1077
g61
(dp1078
g88
g89
ssg70
g1067
sg63
(lp1079
S':'
asbag56
(g77
g58
NtRp1080
(dp1081
g61
(dp1082
sg70
g1067
sg63
(lp1083
g56
(g57
g58
NtRp1084
(dp1085
g61
(dp1086
g69
I4
ssg70
g1080
sg63
(lp1087
g56
(g65
g58
NtRp1088
(dp1089
g61
(dp1090
g69
I3
ssg70
Nsg63
(lp1091
sbasbasbasbag56
(g72
g58
NtRp1092
(dp1093
g61
(dp1094
sg70
g1019
sg63
(lp1095
g56
(g77
g58
NtRp1096
(dp1097
g61
(dp1098
g81
g82
ssg70
g1092
sg63
(lp1099
S'cmd_options'
p1100
asbag56
(g77
g58
NtRp1101
(dp1102
g61
(dp1103
g88
g89
ssg70
g1092
sg63
(lp1104
S':'
asbag56
(g77
g58
NtRp1105
(dp1106
g61
(dp1107
sg70
g1092
sg63
(lp1108
g56
(g57
g58
NtRp1109
(dp1110
g61
(dp1111
g69
I4
ssg70
g1105
sg63
(lp1112
S"<Values at 0x2331758: {'verbose': False, 'ip': '127.0.0.1', 'shutdown_timeout': 5, 'taskbar': False, 'nocron': False, 'pid_filename': 'httpserver.pid', 'maxthreads': None, 'softcron': False, 'server_name': 'uriel', 'bpython': False, 'nogui': False, 'port': 8000, 'extcron': False, 'debuglevel': 30, 'test': None, 'folder': '/home/ian/web2py', 'config': '', 'import_models': False, 'winservice': '', 'shell': None, 'run': '', 'log_filename': 'httpserver.log', 'args': [''], 'ssl_ca_certificate': None, 'scheduler': None, 'profiler_filename': None, 'ssl_private_key': '', 'password': '<ask>', 'request_queue_size': 5, 'ssl_certificate': '', 'cronjob': False, 'plain': False, 'quiet': False, 'interfaces': None, 'minthreads': None, 'timeout': 10, 'numthreads': None, 'nobanner': False}>"
p1113
asbasbasbag56
(g72
g58
NtRp1114
(dp1115
g61
(dp1116
sg70
g1019
sg63
(lp1117
g56
(g77
g58
NtRp1118
(dp1119
g61
(dp1120
g81
g82
ssg70
g1114
sg63
(lp1121
S'db_sessions'
p1122
asbag56
(g77
g58
NtRp1123
(dp1124
g61
(dp1125
g88
g89
ssg70
g1114
sg63
(lp1126
S':'
asbag56
(g77
g58
NtRp1127
(dp1128
g61
(dp1129
sg70
g1114
sg63
(lp1130
g56
(g57
g58
NtRp1131
(dp1132
g61
(dp1133
g69
I4
ssg70
g1127
sg63
(lp1134
S'set([])'
p1135
asbasbasbag56
(g72
g58
NtRp1136
(dp1137
g61
(dp1138
sg70
g1019
sg63
(lp1139
g56
(g77
g58
NtRp1140
(dp1141
g61
(dp1142
g81
g82
ssg70
g1136
sg63
(lp1143
S'debugging'
p1144
asbag56
(g77
g58
NtRp1145
(dp1146
g61
(dp1147
g88
g89
ssg70
g1136
sg63
(lp1148
S':'
asbag56
(g77
g58
NtRp1149
(dp1150
g61
(dp1151
sg70
g1136
sg63
(lp1152
g56
(g57
g58
NtRp1153
(dp1154
g61
(dp1155
g69
I4
ssg70
g1149
sg63
(lp1156
g99
asbasbasbag56
(g72
g58
NtRp1157
(dp1158
g61
(dp1159
sg70
g1019
sg63
(lp1160
g56
(g77
g58
NtRp1161
(dp1162
g61
(dp1163
g81
g82
ssg70
g1157
sg63
(lp1164
S'gluon_parent'
p1165
asbag56
(g77
g58
NtRp1166
(dp1167
g61
(dp1168
g88
g89
ssg70
g1157
sg63
(lp1169
S':'
asbag56
(g77
g58
NtRp1170
(dp1171
g61
(dp1172
sg70
g1157
sg63
(lp1173
g56
(g57
g58
NtRp1174
(dp1175
g61
(dp1176
g69
I4
ssg70
g1170
sg63
(lp1177
S'/home/ian/web2py'
p1178
asbasbasbag56
(g72
g58
NtRp1179
(dp1180
g61
(dp1181
sg70
g1019
sg63
(lp1182
g56
(g77
g58
NtRp1183
(dp1184
g61
(dp1185
g81
g82
ssg70
g1179
sg63
(lp1186
S'http_accept'
p1187
asbag56
(g77
g58
NtRp1188
(dp1189
g61
(dp1190
g88
g89
ssg70
g1179
sg63
(lp1191
S':'
asbag56
(g77
g58
NtRp1192
(dp1193
g61
(dp1194
sg70
g1179
sg63
(lp1195
g56
(g57
g58
NtRp1196
(dp1197
g61
(dp1198
g69
I4
ssg70
g1192
sg63
(lp1199
S'text/html,application/xhtml+xml,application/xml;q=0.9,*/*;q=0.8'
p1200
asbasbasbag56
(g72
g58
NtRp1201
(dp1202
g61
(dp1203
sg70
g1019
sg63
(lp1204
g56
(g77
g58
NtRp1205
(dp1206
g61
(dp1207
g81
g82
ssg70
g1201
sg63
(lp1208
S'http_accept_encoding'
p1209
asbag56
(g77
g58
NtRp1210
(dp1211
g61
(dp1212
g88
g89
ssg70
g1201
sg63
(lp1213
S':'
asbag56
(g77
g58
NtRp1214
(dp1215
g61
(dp1216
sg70
g1201
sg63
(lp1217
g56
(g57
g58
NtRp1218
(dp1219
g61
(dp1220
g69
I4
ssg70
g1214
sg63
(lp1221
S'gzip, deflate'
p1222
asbasbasbag56
(g72
g58
NtRp1223
(dp1224
g61
(dp1225
sg70
g1019
sg63
(lp1226
g56
(g77
g58
NtRp1227
(dp1228
g61
(dp1229
g81
g82
ssg70
g1223
sg63
(lp1230
S'http_accept_language'
p1231
asbag56
(g77
g58
NtRp1232
(dp1233
g61
(dp1234
g88
g89
ssg70
g1223
sg63
(lp1235
S':'
asbag56
(g77
g58
NtRp1236
(dp1237
g61
(dp1238
sg70
g1223
sg63
(lp1239
g56
(g57
g58
NtRp1240
(dp1241
g61
(dp1242
g69
I4
ssg70
g1236
sg63
(lp1243
S'en-us,en;q=0.5'
p1244
asbasbasbag56
(g72
g58
NtRp1245
(dp1246
g61
(dp1247
sg70
g1019
sg63
(lp1248
g56
(g77
g58
NtRp1249
(dp1250
g61
(dp1251
g81
g82
ssg70
g1245
sg63
(lp1252
S'http_cache_control'
p1253
asbag56
(g77
g58
NtRp1254
(dp1255
g61
(dp1256
g88
g89
ssg70
g1245
sg63
(lp1257
S':'
asbag56
(g77
g58
NtRp1258
(dp1259
g61
(dp1260
sg70
g1245
sg63
(lp1261
g56
(g57
g58
NtRp1262
(dp1263
g61
(dp1264
g69
I4
ssg70
g1258
sg63
(lp1265
S'max-age=0'
p1266
asbasbasbag56
(g72
g58
NtRp1267
(dp1268
g61
(dp1269
sg70
g1019
sg63
(lp1270
g56
(g77
g58
NtRp1271
(dp1272
g61
(dp1273
g81
g82
ssg70
g1267
sg63
(lp1274
S'http_connection'
p1275
asbag56
(g77
g58
NtRp1276
(dp1277
g61
(dp1278
g88
g89
ssg70
g1267
sg63
(lp1279
S':'
asbag56
(g77
g58
NtRp1280
(dp1281
g61
(dp1282
sg70
g1267
sg63
(lp1283
g56
(g57
g58
NtRp1284
(dp1285
g61
(dp1286
g69
I4
ssg70
g1280
sg63
(lp1287
S'keep-alive'
p1288
asbasbasbag56
(g72
g58
NtRp1289
(dp1290
g61
(dp1291
sg70
g1019
sg63
(lp1292
g56
(g77
g58
NtRp1293
(dp1294
g61
(dp1295
g81
g82
ssg70
g1289
sg63
(lp1296
S'http_cookie'
p1297
asbag56
(g77
g58
NtRp1298
(dp1299
g61
(dp1300
g88
g89
ssg70
g1289
sg63
(lp1301
S':'
asbag56
(g77
g58
NtRp1302
(dp1303
g61
(dp1304
sg70
g1289
sg63
(lp1305
g56
(g57
g58
NtRp1306
(dp1307
g61
(dp1308
g69
I4
ssg70
g1302
sg63
(lp1309
S'session_id_paideia=127.0.0.1-5296f1e9-849e-4717-b7d4-f5f298041148; session_id_welcome=127.0.0.1-0f1bf67d-abd7-4f3b-9dfa-61414dbdd968; session_id_grades=127.0.0.1-61c0ea3f-8797-4aff-bb5b-97a734e7ddbc; session_id_admin=127.0.0.1-415f1725-a8a3-4383-836a-a1b235a5d231'
p1310
asbasbasbag56
(g72
g58
NtRp1311
(dp1312
g61
(dp1313
sg70
g1019
sg63
(lp1314
g56
(g77
g58
NtRp1315
(dp1316
g61
(dp1317
g81
g82
ssg70
g1311
sg63
(lp1318
S'http_host'
p1319
asbag56
(g77
g58
NtRp1320
(dp1321
g61
(dp1322
g88
g89
ssg70
g1311
sg63
(lp1323
S':'
asbag56
(g77
g58
NtRp1324
(dp1325
g61
(dp1326
sg70
g1311
sg63
(lp1327
g56
(g57
g58
NtRp1328
(dp1329
g61
(dp1330
g69
I4
ssg70
g1324
sg63
(lp1331
S'127.0.0.1:8000'
p1332
asbasbasbag56
(g72
g58
NtRp1333
(dp1334
g61
(dp1335
sg70
g1019
sg63
(lp1336
g56
(g77
g58
NtRp1337
(dp1338
g61
(dp1339
g81
g82
ssg70
g1333
sg63
(lp1340
S'http_referer'
p1341
asbag56
(g77
g58
NtRp1342
(dp1343
g61
(dp1344
g88
g89
ssg70
g1333
sg63
(lp1345
S':'
asbag56
(g77
g58
NtRp1346
(dp1347
g61
(dp1348
sg70
g1333
sg63
(lp1349
g56
(g57
g58
NtRp1350
(dp1351
g61
(dp1352
g69
I4
ssg70
g1346
sg63
(lp1353
S'http://127.0.0.1:8000/grades/default/user/login?_next=/grades/default/grades_report/15'
p1354
asbasbasbag56
(g72
g58
NtRp1355
(dp1356
g61
(dp1357
sg70
g1019
sg63
(lp1358
g56
(g77
g58
NtRp1359
(dp1360
g61
(dp1361
g81
g82
ssg70
g1355
sg63
(lp1362
S'http_user_agent'
p1363
asbag56
(g77
g58
NtRp1364
(dp1365
g61
(dp1366
g88
g89
ssg70
g1355
sg63
(lp1367
S':'
asbag56
(g77
g58
NtRp1368
(dp1369
g61
(dp1370
sg70
g1355
sg63
(lp1371
g56
(g57
g58
NtRp1372
(dp1373
g61
(dp1374
g69
I4
ssg70
g1368
sg63
(lp1375
S'Mozilla/5.0 (X11; Linux x86_64; rv:8.0) Gecko/20100101 Firefox/8.0'
p1376
asbasbasbag56
(g72
g58
NtRp1377
(dp1378
g61
(dp1379
sg70
g1019
sg63
(lp1380
g56
(g77
g58
NtRp1381
(dp1382
g61
(dp1383
g81
g82
ssg70
g1377
sg63
(lp1384
S'is_jython'
p1385
asbag56
(g77
g58
NtRp1386
(dp1387
g61
(dp1388
g88
g89
ssg70
g1377
sg63
(lp1389
S':'
asbag56
(g77
g58
NtRp1390
(dp1391
g61
(dp1392
sg70
g1377
sg63
(lp1393
g56
(g57
g58
NtRp1394
(dp1395
g61
(dp1396
g69
I4
ssg70
g1390
sg63
(lp1397
g99
asbasbasbag56
(g72
g58
NtRp1398
(dp1399
g61
(dp1400
sg70
g1019
sg63
(lp1401
g56
(g77
g58
NtRp1402
(dp1403
g61
(dp1404
g81
g82
ssg70
g1398
sg63
(lp1405
S'path_info'
p1406
asbag56
(g77
g58
NtRp1407
(dp1408
g61
(dp1409
g88
g89
ssg70
g1398
sg63
(lp1410
S':'
asbag56
(g77
g58
NtRp1411
(dp1412
g61
(dp1413
sg70
g1398
sg63
(lp1414
g56
(g57
g58
NtRp1415
(dp1416
g61
(dp1417
g69
I4
ssg70
g1411
sg63
(lp1418
S'/grades/default/grades_report/15'
p1419
asbasbasbag56
(g72
g58
NtRp1420
(dp1421
g61
(dp1422
sg70
g1019
sg63
(lp1423
g56
(g77
g58
NtRp1424
(dp1425
g61
(dp1426
g81
g82
ssg70
g1420
sg63
(lp1427
S'query_string'
p1428
asbag56
(g77
g58
NtRp1429
(dp1430
g61
(dp1431
g88
g89
ssg70
g1420
sg63
(lp1432
S':'
asbag56
(g77
g58
NtRp1433
(dp1434
g61
(dp1435
sg70
g1420
sg63
(lp1436
g56
(g57
g58
NtRp1437
(dp1438
g61
(dp1439
g69
I4
ssg70
g1433
sg63
(lp1440
S''
asbasbasbag56
(g72
g58
NtRp1441
(dp1442
g61
(dp1443
sg70
g1019
sg63
(lp1444
g56
(g77
g58
NtRp1445
(dp1446
g61
(dp1447
g81
g82
ssg70
g1441
sg63
(lp1448
S'remote_addr'
p1449
asbag56
(g77
g58
NtRp1450
(dp1451
g61
(dp1452
g88
g89
ssg70
g1441
sg63
(lp1453
S':'
asbag56
(g77
g58
NtRp1454
(dp1455
g61
(dp1456
sg70
g1441
sg63
(lp1457
g56
(g57
g58
NtRp1458
(dp1459
g61
(dp1460
g69
I4
ssg70
g1454
sg63
(lp1461
g202
asbasbasbag56
(g72
g58
NtRp1462
(dp1463
g61
(dp1464
sg70
g1019
sg63
(lp1465
g56
(g77
g58
NtRp1466
(dp1467
g61
(dp1468
g81
g82
ssg70
g1462
sg63
(lp1469
S'remote_port'
p1470
asbag56
(g77
g58
NtRp1471
(dp1472
g61
(dp1473
g88
g89
ssg70
g1462
sg63
(lp1474
S':'
asbag56
(g77
g58
NtRp1475
(dp1476
g61
(dp1477
sg70
g1462
sg63
(lp1478
g56
(g57
g58
NtRp1479
(dp1480
g61
(dp1481
g69
I4
ssg70
g1475
sg63
(lp1482
S'33173'
p1483
asbasbasbag56
(g72
g58
NtRp1484
(dp1485
g61
(dp1486
sg70
g1019
sg63
(lp1487
g56
(g77
g58
NtRp1488
(dp1489
g61
(dp1490
g81
g82
ssg70
g1484
sg63
(lp1491
S'request_method'
p1492
asbag56
(g77
g58
NtRp1493
(dp1494
g61
(dp1495
g88
g89
ssg70
g1484
sg63
(lp1496
S':'
asbag56
(g77
g58
NtRp1497
(dp1498
g61
(dp1499
sg70
g1484
sg63
(lp1500
g56
(g57
g58
NtRp1501
(dp1502
g61
(dp1503
g69
I4
ssg70
g1497
sg63
(lp1504
S'GET'
p1505
asbasbasbag56
(g72
g58
NtRp1506
(dp1507
g61
(dp1508
sg70
g1019
sg63
(lp1509
g56
(g77
g58
NtRp1510
(dp1511
g61
(dp1512
g81
g82
ssg70
g1506
sg63
(lp1513
S'script_name'
p1514
asbag56
(g77
g58
NtRp1515
(dp1516
g61
(dp1517
g88
g89
ssg70
g1506
sg63
(lp1518
S':'
asbag56
(g77
g58
NtRp1519
(dp1520
g61
(dp1521
sg70
g1506
sg63
(lp1522
g56
(g57
g58
NtRp1523
(dp1524
g61
(dp1525
g69
I4
ssg70
g1519
sg63
(lp1526
S''
asbasbasbag56
(g72
g58
NtRp1527
(dp1528
g61
(dp1529
sg70
g1019
sg63
(lp1530
g56
(g77
g58
NtRp1531
(dp1532
g61
(dp1533
g81
g82
ssg70
g1527
sg63
(lp1534
S'server_name'
p1535
asbag56
(g77
g58
NtRp1536
(dp1537
g61
(dp1538
g88
g89
ssg70
g1527
sg63
(lp1539
S':'
asbag56
(g77
g58
NtRp1540
(dp1541
g61
(dp1542
sg70
g1527
sg63
(lp1543
g56
(g57
g58
NtRp1544
(dp1545
g61
(dp1546
g69
I4
ssg70
g1540
sg63
(lp1547
S'uriel'
p1548
asbasbasbag56
(g72
g58
NtRp1549
(dp1550
g61
(dp1551
sg70
g1019
sg63
(lp1552
g56
(g77
g58
NtRp1553
(dp1554
g61
(dp1555
g81
g82
ssg70
g1549
sg63
(lp1556
S'server_port'
p1557
asbag56
(g77
g58
NtRp1558
(dp1559
g61
(dp1560
g88
g89
ssg70
g1549
sg63
(lp1561
S':'
asbag56
(g77
g58
NtRp1562
(dp1563
g61
(dp1564
sg70
g1549
sg63
(lp1565
g56
(g57
g58
NtRp1566
(dp1567
g61
(dp1568
g69
I4
ssg70
g1562
sg63
(lp1569
S'8000'
p1570
asbasbasbag56
(g72
g58
NtRp1571
(dp1572
g61
(dp1573
sg70
g1019
sg63
(lp1574
g56
(g77
g58
NtRp1575
(dp1576
g61
(dp1577
g81
g82
ssg70
g1571
sg63
(lp1578
S'server_protocol'
p1579
asbag56
(g77
g58
NtRp1580
(dp1581
g61
(dp1582
g88
g89
ssg70
g1571
sg63
(lp1583
S':'
asbag56
(g77
g58
NtRp1584
(dp1585
g61
(dp1586
sg70
g1571
sg63
(lp1587
g56
(g57
g58
NtRp1588
(dp1589
g61
(dp1590
g69
I4
ssg70
g1584
sg63
(lp1591
S'HTTP/1.1'
p1592
asbasbasbag56
(g72
g58
NtRp1593
(dp1594
g61
(dp1595
sg70
g1019
sg63
(lp1596
g56
(g77
g58
NtRp1597
(dp1598
g61
(dp1599
g81
g82
ssg70
g1593
sg63
(lp1600
S'server_software'
p1601
asbag56
(g77
g58
NtRp1602
(dp1603
g61
(dp1604
g88
g89
ssg70
g1593
sg63
(lp1605
S':'
asbag56
(g77
g58
NtRp1606
(dp1607
g61
(dp1608
sg70
g1593
sg63
(lp1609
g56
(g57
g58
NtRp1610
(dp1611
g61
(dp1612
g69
I4
ssg70
g1606
sg63
(lp1613
S'Rocket 1.2.4'
p1614
asbasbasbag56
(g72
g58
NtRp1615
(dp1616
g61
(dp1617
sg70
g1019
sg63
(lp1618
g56
(g77
g58
NtRp1619
(dp1620
g61
(dp1621
g81
g82
ssg70
g1615
sg63
(lp1622
S'web2py_crontype'
p1623
asbag56
(g77
g58
NtRp1624
(dp1625
g61
(dp1626
g88
g89
ssg70
g1615
sg63
(lp1627
S':'
asbag56
(g77
g58
NtRp1628
(dp1629
g61
(dp1630
sg70
g1615
sg63
(lp1631
g56
(g57
g58
NtRp1632
(dp1633
g61
(dp1634
g69
I4
ssg70
g1628
sg63
(lp1635
S'hard'
p1636
asbasbasbag56
(g72
g58
NtRp1637
(dp1638
g61
(dp1639
sg70
g1019
sg63
(lp1640
g56
(g77
g58
NtRp1641
(dp1642
g61
(dp1643
g81
g82
ssg70
g1637
sg63
(lp1644
S'web2py_path'
p1645
asbag56
(g77
g58
NtRp1646
(dp1647
g61
(dp1648
g88
g89
ssg70
g1637
sg63
(lp1649
S':'
asbag56
(g77
g58
NtRp1650
(dp1651
g61
(dp1652
sg70
g1637
sg63
(lp1653
g56
(g57
g58
NtRp1654
(dp1655
g61
(dp1656
g69
I4
ssg70
g1650
sg63
(lp1657
g1066
asbasbasbag56
(g72
g58
NtRp1658
(dp1659
g61
(dp1660
sg70
g1019
sg63
(lp1661
g56
(g77
g58
NtRp1662
(dp1663
g61
(dp1664
g81
g82
ssg70
g1658
sg63
(lp1665
S'web2py_version'
p1666
asbag56
(g77
g58
NtRp1667
(dp1668
g61
(dp1669
g88
g89
ssg70
g1658
sg63
(lp1670
S':'
asbag56
(g77
g58
NtRp1671
(dp1672
g61
(dp1673
sg70
g1658
sg63
(lp1674
g56
(g57
g58
NtRp1675
(dp1676
g61
(dp1677
g69
I4
ssg70
g1671
sg63
(lp1678
g56
(g65
g58
NtRp1679
(dp1680
g61
(dp1681
g69
I3
ssg70
Nsg63
(lp1682
g56
(g72
g58
NtRp1683
(dp1684
g61
(dp1685
sg70
g1679
sg63
(lp1686
g56
(g77
g58
NtRp1687
(dp1688
g61
(dp1689
sg70
g1683
sg63
(lp1690
g56
(g57
g58
NtRp1691
(dp1692
g61
(dp1693
g69
I3
ssg70
g1687
sg63
(lp1694
S'1'
asbasbasbag56
(g72
g58
NtRp1695
(dp1696
g61
(dp1697
sg70
g1679
sg63
(lp1698
g56
(g77
g58
NtRp1699
(dp1700
g61
(dp1701
sg70
g1695
sg63
(lp1702
g56
(g57
g58
NtRp1703
(dp1704
g61
(dp1705
g69
I3
ssg70
g1699
sg63
(lp1706
S'99'
p1707
asbasbasbag56
(g72
g58
NtRp1708
(dp1709
g61
(dp1710
sg70
g1679
sg63
(lp1711
g56
(g77
g58
NtRp1712
(dp1713
g61
(dp1714
sg70
g1708
sg63
(lp1715
g56
(g57
g58
NtRp1716
(dp1717
g61
(dp1718
g69
I3
ssg70
g1712
sg63
(lp1719
S'2'
asbasbasbag56
(g72
g58
NtRp1720
(dp1721
g61
(dp1722
sg70
g1679
sg63
(lp1723
g56
(g77
g58
NtRp1724
(dp1725
g61
(dp1726
sg70
g1720
sg63
(lp1727
g56
(g57
g58
NtRp1728
(dp1729
g61
(dp1730
g69
I3
ssg70
g1724
sg63
(lp1731
S'datetime.datetime(2011, 9, 26, 6, 55, 33)'
p1732
asbasbasbag56
(g72
g58
NtRp1733
(dp1734
g61
(dp1735
sg70
g1679
sg63
(lp1736
g56
(g77
g58
NtRp1737
(dp1738
g61
(dp1739
sg70
g1733
sg63
(lp1740
g56
(g57
g58
NtRp1741
(dp1742
g61
(dp1743
g69
I3
ssg70
g1737
sg63
(lp1744
S'stable'
p1745
asbasbasbasbasbasbasbag56
(g72
g58
NtRp1746
(dp1747
g61
(dp1748
sg70
g1019
sg63
(lp1749
g56
(g77
g58
NtRp1750
(dp1751
g61
(dp1752
g81
g82
ssg70
g1746
sg63
(lp1753
S'wsgi_errors'
p1754
asbag56
(g77
g58
NtRp1755
(dp1756
g61
(dp1757
g88
g89
ssg70
g1746
sg63
(lp1758
S':'
asbag56
(g77
g58
NtRp1759
(dp1760
g61
(dp1761
sg70
g1746
sg63
(lp1762
g56
(g57
g58
NtRp1763
(dp1764
g61
(dp1765
g69
I4
ssg70
g1759
sg63
(lp1766
S"<open file '<stderr>', mode 'w' at 0x7f1a4db92270>"
p1767
asbasbasbag56
(g72
g58
NtRp1768
(dp1769
g61
(dp1770
sg70
g1019
sg63
(lp1771
g56
(g77
g58
NtRp1772
(dp1773
g61
(dp1774
g81
g82
ssg70
g1768
sg63
(lp1775
S'wsgi_file_wrapper'
p1776
asbag56
(g77
g58
NtRp1777
(dp1778
g61
(dp1779
g88
g89
ssg70
g1768
sg63
(lp1780
S':'
asbag56
(g77
g58
NtRp1781
(dp1782
g61
(dp1783
sg70
g1768
sg63
(lp1784
g56
(g57
g58
NtRp1785
(dp1786
g61
(dp1787
g69
I4
ssg70
g1781
sg63
(lp1788
S'<class wsgiref.util.FileWrapper at 0x21fc870>'
p1789
asbasbasbag56
(g72
g58
NtRp1790
(dp1791
g61
(dp1792
sg70
g1019
sg63
(lp1793
g56
(g77
g58
NtRp1794
(dp1795
g61
(dp1796
g81
g82
ssg70
g1790
sg63
(lp1797
S'wsgi_input'
p1798
asbag56
(g77
g58
NtRp1799
(dp1800
g61
(dp1801
g88
g89
ssg70
g1790
sg63
(lp1802
S':'
asbag56
(g77
g58
NtRp1803
(dp1804
g61
(dp1805
sg70
g1790
sg63
(lp1806
g56
(g57
g58
NtRp1807
(dp1808
g61
(dp1809
g69
I4
ssg70
g1803
sg63
(lp1810
S'<socket._fileobject object at 0x6dde8d0>'
p1811
asbasbasbag56
(g72
g58
NtRp1812
(dp1813
g61
(dp1814
sg70
g1019
sg63
(lp1815
g56
(g77
g58
NtRp1816
(dp1817
g61
(dp1818
g81
g82
ssg70
g1812
sg63
(lp1819
S'wsgi_multiprocess'
p1820
asbag56
(g77
g58
NtRp1821
(dp1822
g61
(dp1823
g88
g89
ssg70
g1812
sg63
(lp1824
S':'
asbag56
(g77
g58
NtRp1825
(dp1826
g61
(dp1827
sg70
g1812
sg63
(lp1828
g56
(g57
g58
NtRp1829
(dp1830
g61
(dp1831
g69
I4
ssg70
g1825
sg63
(lp1832
g99
asbasbasbag56
(g72
g58
NtRp1833
(dp1834
g61
(dp1835
sg70
g1019
sg63
(lp1836
g56
(g77
g58
NtRp1837
(dp1838
g61
(dp1839
g81
g82
ssg70
g1833
sg63
(lp1840
S'wsgi_multithread'
p1841
asbag56
(g77
g58
NtRp1842
(dp1843
g61
(dp1844
g88
g89
ssg70
g1833
sg63
(lp1845
S':'
asbag56
(g77
g58
NtRp1846
(dp1847
g61
(dp1848
sg70
g1833
sg63
(lp1849
g56
(g57
g58
NtRp1850
(dp1851
g61
(dp1852
g69
I4
ssg70
g1846
sg63
(lp1853
S'True'
p1854
asbasbasbag56
(g72
g58
NtRp1855
(dp1856
g61
(dp1857
sg70
g1019
sg63
(lp1858
g56
(g77
g58
NtRp1859
(dp1860
g61
(dp1861
g81
g82
ssg70
g1855
sg63
(lp1862
S'wsgi_run_once'
p1863
asbag56
(g77
g58
NtRp1864
(dp1865
g61
(dp1866
g88
g89
ssg70
g1855
sg63
(lp1867
S':'
asbag56
(g77
g58
NtRp1868
(dp1869
g61
(dp1870
sg70
g1855
sg63
(lp1871
g56
(g57
g58
NtRp1872
(dp1873
g61
(dp1874
g69
I4
ssg70
g1868
sg63
(lp1875
g99
asbasbasbag56
(g72
g58
NtRp1876
(dp1877
g61
(dp1878
sg70
g1019
sg63
(lp1879
g56
(g77
g58
NtRp1880
(dp1881
g61
(dp1882
g81
g82
ssg70
g1876
sg63
(lp1883
S'wsgi_url_scheme'
p1884
asbag56
(g77
g58
NtRp1885
(dp1886
g61
(dp1887
g88
g89
ssg70
g1876
sg63
(lp1888
S':'
asbag56
(g77
g58
NtRp1889
(dp1890
g61
(dp1891
sg70
g1876
sg63
(lp1892
g56
(g57
g58
NtRp1893
(dp1894
g61
(dp1895
g69
I4
ssg70
g1889
sg63
(lp1896
S'http'
p1897
asbasbasbag56
(g72
g58
NtRp1898
(dp1899
g61
(dp1900
sg70
g1019
sg63
(lp1901
g56
(g77
g58
NtRp1902
(dp1903
g61
(dp1904
g81
g82
ssg70
g1898
sg63
(lp1905
S'wsgi_version'
p1906
asbag56
(g77
g58
NtRp1907
(dp1908
g61
(dp1909
g88
g89
ssg70
g1898
sg63
(lp1910
S':'
asbag56
(g77
g58
NtRp1911
(dp1912
g61
(dp1913
sg70
g1898
sg63
(lp1914
g56
(g57
g58
NtRp1915
(dp1916
g61
(dp1917
g69
I4
ssg70
g1911
sg63
(lp1918
g56
(g65
g58
NtRp1919
(dp1920
g61
(dp1921
g69
I3
ssg70
Nsg63
(lp1922
g56
(g72
g58
NtRp1923
(dp1924
g61
(dp1925
sg70
g1919
sg63
(lp1926
g56
(g77
g58
NtRp1927
(dp1928
g61
(dp1929
sg70
g1923
sg63
(lp1930
g56
(g57
g58
NtRp1931
(dp1932
g61
(dp1933
g69
I3
ssg70
g1927
sg63
(lp1934
S'1'
asbasbasbag56
(g72
g58
NtRp1935
(dp1936
g61
(dp1937
sg70
g1919
sg63
(lp1938
g56
(g77
g58
NtRp1939
(dp1940
g61
(dp1941
sg70
g1935
sg63
(lp1942
g56
(g57
g58
NtRp1943
(dp1944
g61
(dp1945
g69
I3
ssg70
g1939
sg63
(lp1946
S'0'
asbasbasbasbasbasbasbasbasbasbasbag56
(g72
g58
NtRp1947
(dp1948
g61
(dp1949
sg70
g66
sg63
(lp1950
g56
(g77
g58
NtRp1951
(dp1952
g61
(dp1953
g81
g82
ssg70
g1947
sg63
(lp1954
S'extension'
p1955
asbag56
(g77
g58
NtRp1956
(dp1957
g61
(dp1958
g88
g89
ssg70
g1947
sg63
(lp1959
S':'
asbag56
(g77
g58
NtRp1960
(dp1961
g61
(dp1962
sg70
g1947
sg63
(lp1963
g56
(g57
g58
NtRp1964
(dp1965
g61
(dp1966
g69
I5
ssg70
g1960
sg63
(lp1967
S'html'
p1968
asbasbasbag56
(g72
g58
NtRp1969
(dp1970
g61
(dp1971
sg70
g66
sg63
(lp1972
g56
(g77
g58
NtRp1973
(dp1974
g61
(dp1975
g81
g82
ssg70
g1969
sg63
(lp1976
S'folder'
p1977
asbag56
(g77
g58
NtRp1978
(dp1979
g61
(dp1980
g88
g89
ssg70
g1969
sg63
(lp1981
S':'
asbag56
(g77
g58
NtRp1982
(dp1983
g61
(dp1984
sg70
g1969
sg63
(lp1985
g56
(g57
g58
NtRp1986
(dp1987
g61
(dp1988
g69
I5
ssg70
g1982
sg63
(lp1989
S'/home/ian/web2py/applications/grades/'
p1990
asbasbasbag56
(g72
g58
NtRp1991
(dp1992
g61
(dp1993
sg70
g66
sg63
(lp1994
g56
(g77
g58
NtRp1995
(dp1996
g61
(dp1997
g81
g82
ssg70
g1991
sg63
(lp1998
S'function'
p1999
asbag56
(g77
g58
NtRp2000
(dp2001
g61
(dp2002
g88
g89
ssg70
g1991
sg63
(lp2003
S':'
asbag56
(g77
g58
NtRp2004
(dp2005
g61
(dp2006
sg70
g1991
sg63
(lp2007
g56
(g57
g58
NtRp2008
(dp2009
g61
(dp2010
g69
I5
ssg70
g2004
sg63
(lp2011
S'grades_report'
p2012
asbasbasbag56
(g72
g58
NtRp2013
(dp2014
g61
(dp2015
sg70
g66
sg63
(lp2016
g56
(g77
g58
NtRp2017
(dp2018
g61
(dp2019
g81
g82
ssg70
g2013
sg63
(lp2020
S'get_vars'
p2021
asbag56
(g77
g58
NtRp2022
(dp2023
g61
(dp2024
g88
g89
ssg70
g2013
sg63
(lp2025
S':'
asbag56
(g77
g58
NtRp2026
(dp2027
g61
(dp2028
sg70
g2013
sg63
(lp2029
g56
(g57
g58
NtRp2030
(dp2031
g61
(dp2032
g69
I5
ssg70
g2026
sg63
(lp2033
g56
(g65
g58
NtRp2034
(dp2035
g61
(dp2036
g69
I4
ssg70
Nsg63
(lp2037
sbasbasbasbag56
(g72
g58
NtRp2038
(dp2039
g61
(dp2040
sg70
g66
sg63
(lp2041
g56
(g77
g58
NtRp2042
(dp2043
g61
(dp2044
g81
g82
ssg70
g2038
sg63
(lp2045
S'global_settings'
p2046
asbag56
(g77
g58
NtRp2047
(dp2048
g61
(dp2049
g88
g89
ssg70
g2038
sg63
(lp2050
S':'
asbag56
(g77
g58
NtRp2051
(dp2052
g61
(dp2053
sg70
g2038
sg63
(lp2054
g56
(g57
g58
NtRp2055
(dp2056
g61
(dp2057
g69
I5
ssg70
g2051
sg63
(lp2058
g56
(g65
g58
NtRp2059
(dp2060
g61
(dp2061
g69
I4
ssg70
Nsg63
(lp2062
g56
(g72
g58
NtRp2063
(dp2064
g61
(dp2065
sg70
g2059
sg63
(lp2066
g56
(g77
g58
NtRp2067
(dp2068
g61
(dp2069
g81
g82
ssg70
g2063
sg63
(lp2070
g1031
asbag56
(g77
g58
NtRp2071
(dp2072
g61
(dp2073
g88
g89
ssg70
g2063
sg63
(lp2074
S':'
asbag56
(g77
g58
NtRp2075
(dp2076
g61
(dp2077
sg70
g2063
sg63
(lp2078
g56
(g57
g58
NtRp2079
(dp2080
g61
(dp2081
g69
I4
ssg70
g2075
sg63
(lp2082
S"set(['/home/ian/web2py/applications/welcome/', '/home/ian/web2py/applications/grades/', '/home/ian/web2py/applications/admin/'])"
p2083
asbasbasbag56
(g72
g58
NtRp2084
(dp2085
g61
(dp2086
sg70
g2059
sg63
(lp2087
g56
(g77
g58
NtRp2088
(dp2089
g61
(dp2090
g81
g82
ssg70
g2084
sg63
(lp2091
g1053
asbag56
(g77
g58
NtRp2092
(dp2093
g61
(dp2094
g88
g89
ssg70
g2084
sg63
(lp2095
S':'
asbag56
(g77
g58
NtRp2096
(dp2097
g61
(dp2098
sg70
g2084
sg63
(lp2099
g56
(g57
g58
NtRp2100
(dp2101
g61
(dp2102
g69
I4
ssg70
g2096
sg63
(lp2103
g1066
asbasbasbag56
(g72
g58
NtRp2104
(dp2105
g61
(dp2106
sg70
g2059
sg63
(lp2107
g56
(g77
g58
NtRp2108
(dp2109
g61
(dp2110
g81
g82
ssg70
g2104
sg63
(lp2111
g1075
asbag56
(g77
g58
NtRp2112
(dp2113
g61
(dp2114
g88
g89
ssg70
g2104
sg63
(lp2115
S':'
asbag56
(g77
g58
NtRp2116
(dp2117
g61
(dp2118
sg70
g2104
sg63
(lp2119
g56
(g57
g58
NtRp2120
(dp2121
g61
(dp2122
g69
I4
ssg70
g2116
sg63
(lp2123
g56
(g65
g58
NtRp2124
(dp2125
g61
(dp2126
g69
I3
ssg70
Nsg63
(lp2127
sbasbasbasbag56
(g72
g58
NtRp2128
(dp2129
g61
(dp2130
sg70
g2059
sg63
(lp2131
g56
(g77
g58
NtRp2132
(dp2133
g61
(dp2134
g81
g82
ssg70
g2128
sg63
(lp2135
g1100
asbag56
(g77
g58
NtRp2136
(dp2137
g61
(dp2138
g88
g89
ssg70
g2128
sg63
(lp2139
S':'
asbag56
(g77
g58
NtRp2140
(dp2141
g61
(dp2142
sg70
g2128
sg63
(lp2143
g56
(g57
g58
NtRp2144
(dp2145
g61
(dp2146
g69
I4
ssg70
g2140
sg63
(lp2147
S"<Values at 0x2331758: {'verbose': False, 'ip': '127.0.0.1', 'shutdown_timeout': 5, 'taskbar': False, 'nocron': False, 'pid_filename': 'httpserver.pid', 'maxthreads': None, 'softcron': False, 'server_name': 'uriel', 'bpython': False, 'nogui': False, 'port': 8000, 'extcron': False, 'debuglevel': 30, 'test': None, 'folder': '/home/ian/web2py', 'config': '', 'import_models': False, 'winservice': '', 'shell': None, 'run': '', 'log_filename': 'httpserver.log', 'args': [''], 'ssl_ca_certificate': None, 'scheduler': None, 'profiler_filename': None, 'ssl_private_key': '', 'password': '<ask>', 'request_queue_size': 5, 'ssl_certificate': '', 'cronjob': False, 'plain': False, 'quiet': False, 'interfaces': None, 'minthreads': None, 'timeout': 10, 'numthreads': None, 'nobanner': False}>"
p2148
asbasbasbag56
(g72
g58
NtRp2149
(dp2150
g61
(dp2151
sg70
g2059
sg63
(lp2152
g56
(g77
g58
NtRp2153
(dp2154
g61
(dp2155
g81
g82
ssg70
g2149
sg63
(lp2156
g1122
asbag56
(g77
g58
NtRp2157
(dp2158
g61
(dp2159
g88
g89
ssg70
g2149
sg63
(lp2160
S':'
asbag56
(g77
g58
NtRp2161
(dp2162
g61
(dp2163
sg70
g2149
sg63
(lp2164
g56
(g57
g58
NtRp2165
(dp2166
g61
(dp2167
g69
I4
ssg70
g2161
sg63
(lp2168
S'set([])'
p2169
asbasbasbag56
(g72
g58
NtRp2170
(dp2171
g61
(dp2172
sg70
g2059
sg63
(lp2173
g56
(g77
g58
NtRp2174
(dp2175
g61
(dp2176
g81
g82
ssg70
g2170
sg63
(lp2177
g1144
asbag56
(g77
g58
NtRp2178
(dp2179
g61
(dp2180
g88
g89
ssg70
g2170
sg63
(lp2181
S':'
asbag56
(g77
g58
NtRp2182
(dp2183
g61
(dp2184
sg70
g2170
sg63
(lp2185
g56
(g57
g58
NtRp2186
(dp2187
g61
(dp2188
g69
I4
ssg70
g2182
sg63
(lp2189
g99
asbasbasbag56
(g72
g58
NtRp2190
(dp2191
g61
(dp2192
sg70
g2059
sg63
(lp2193
g56
(g77
g58
NtRp2194
(dp2195
g61
(dp2196
g81
g82
ssg70
g2190
sg63
(lp2197
g1165
asbag56
(g77
g58
NtRp2198
(dp2199
g61
(dp2200
g88
g89
ssg70
g2190
sg63
(lp2201
S':'
asbag56
(g77
g58
NtRp2202
(dp2203
g61
(dp2204
sg70
g2190
sg63
(lp2205
g56
(g57
g58
NtRp2206
(dp2207
g61
(dp2208
g69
I4
ssg70
g2202
sg63
(lp2209
g1178
asbasbasbag56
(g72
g58
NtRp2210
(dp2211
g61
(dp2212
sg70
g2059
sg63
(lp2213
g56
(g77
g58
NtRp2214
(dp2215
g61
(dp2216
g81
g82
ssg70
g2210
sg63
(lp2217
g1385
asbag56
(g77
g58
NtRp2218
(dp2219
g61
(dp2220
g88
g89
ssg70
g2210
sg63
(lp2221
S':'
asbag56
(g77
g58
NtRp2222
(dp2223
g61
(dp2224
sg70
g2210
sg63
(lp2225
g56
(g57
g58
NtRp2226
(dp2227
g61
(dp2228
g69
I4
ssg70
g2222
sg63
(lp2229
g99
asbasbasbag56
(g72
g58
NtRp2230
(dp2231
g61
(dp2232
sg70
g2059
sg63
(lp2233
g56
(g77
g58
NtRp2234
(dp2235
g61
(dp2236
g81
g82
ssg70
g2230
sg63
(lp2237
g1623
asbag56
(g77
g58
NtRp2238
(dp2239
g61
(dp2240
g88
g89
ssg70
g2230
sg63
(lp2241
S':'
asbag56
(g77
g58
NtRp2242
(dp2243
g61
(dp2244
sg70
g2230
sg63
(lp2245
g56
(g57
g58
NtRp2246
(dp2247
g61
(dp2248
g69
I4
ssg70
g2242
sg63
(lp2249
g1636
asbasbasbag56
(g72
g58
NtRp2250
(dp2251
g61
(dp2252
sg70
g2059
sg63
(lp2253
g56
(g77
g58
NtRp2254
(dp2255
g61
(dp2256
g81
g82
ssg70
g2250
sg63
(lp2257
g1666
asbag56
(g77
g58
NtRp2258
(dp2259
g61
(dp2260
g88
g89
ssg70
g2250
sg63
(lp2261
S':'
asbag56
(g77
g58
NtRp2262
(dp2263
g61
(dp2264
sg70
g2250
sg63
(lp2265
g56
(g57
g58
NtRp2266
(dp2267
g61
(dp2268
g69
I4
ssg70
g2262
sg63
(lp2269
g56
(g65
g58
NtRp2270
(dp2271
g61
(dp2272
g69
I3
ssg70
Nsg63
(lp2273
g56
(g72
g58
NtRp2274
(dp2275
g61
(dp2276
sg70
g2270
sg63
(lp2277
g56
(g77
g58
NtRp2278
(dp2279
g61
(dp2280
sg70
g2274
sg63
(lp2281
g56
(g57
g58
NtRp2282
(dp2283
g61
(dp2284
g69
I3
ssg70
g2278
sg63
(lp2285
S'1'
asbasbasbag56
(g72
g58
NtRp2286
(dp2287
g61
(dp2288
sg70
g2270
sg63
(lp2289
g56
(g77
g58
NtRp2290
(dp2291
g61
(dp2292
sg70
g2286
sg63
(lp2293
g56
(g57
g58
NtRp2294
(dp2295
g61
(dp2296
g69
I3
ssg70
g2290
sg63
(lp2297
S'99'
p2298
asbasbasbag56
(g72
g58
NtRp2299
(dp2300
g61
(dp2301
sg70
g2270
sg63
(lp2302
g56
(g77
g58
NtRp2303
(dp2304
g61
(dp2305
sg70
g2299
sg63
(lp2306
g56
(g57
g58
NtRp2307
(dp2308
g61
(dp2309
g69
I3
ssg70
g2303
sg63
(lp2310
S'2'
asbasbasbag56
(g72
g58
NtRp2311
(dp2312
g61
(dp2313
sg70
g2270
sg63
(lp2314
g56
(g77
g58
NtRp2315
(dp2316
g61
(dp2317
sg70
g2311
sg63
(lp2318
g56
(g57
g58
NtRp2319
(dp2320
g61
(dp2321
g69
I3
ssg70
g2315
sg63
(lp2322
S'datetime.datetime(2011, 9, 26, 6, 55, 33)'
p2323
asbasbasbag56
(g72
g58
NtRp2324
(dp2325
g61
(dp2326
sg70
g2270
sg63
(lp2327
g56
(g77
g58
NtRp2328
(dp2329
g61
(dp2330
sg70
g2324
sg63
(lp2331
g56
(g57
g58
NtRp2332
(dp2333
g61
(dp2334
g69
I3
ssg70
g2328
sg63
(lp2335
g1745
asbasbasbasbasbasbasbasbasbasbasbag56
(g72
g58
NtRp2336
(dp2337
g61
(dp2338
sg70
g66
sg63
(lp2339
g56
(g77
g58
NtRp2340
(dp2341
g61
(dp2342
g81
g82
ssg70
g2336
sg63
(lp2343
S'is_https'
p2344
asbag56
(g77
g58
NtRp2345
(dp2346
g61
(dp2347
g88
g89
ssg70
g2336
sg63
(lp2348
S':'
asbag56
(g77
g58
NtRp2349
(dp2350
g61
(dp2351
sg70
g2336
sg63
(lp2352
g56
(g57
g58
NtRp2353
(dp2354
g61
(dp2355
g69
I5
ssg70
g2349
sg63
(lp2356
g99
asbasbasbag56
(g72
g58
NtRp2357
(dp2358
g61
(dp2359
sg70
g66
sg63
(lp2360
g56
(g77
g58
NtRp2361
(dp2362
g61
(dp2363
g81
g82
ssg70
g2357
sg63
(lp2364
S'is_local'
p2365
asbag56
(g77
g58
NtRp2366
(dp2367
g61
(dp2368
g88
g89
ssg70
g2357
sg63
(lp2369
S':'
asbag56
(g77
g58
NtRp2370
(dp2371
g61
(dp2372
sg70
g2357
sg63
(lp2373
g56
(g57
g58
NtRp2374
(dp2375
g61
(dp2376
g69
I5
ssg70
g2370
sg63
(lp2377
g1854
asbasbasbag56
(g72
g58
NtRp2378
(dp2379
g61
(dp2380
sg70
g66
sg63
(lp2381
g56
(g77
g58
NtRp2382
(dp2383
g61
(dp2384
g81
g82
ssg70
g2378
sg63
(lp2385
S'is_restful'
p2386
asbag56
(g77
g58
NtRp2387
(dp2388
g61
(dp2389
g88
g89
ssg70
g2378
sg63
(lp2390
S':'
asbag56
(g77
g58
NtRp2391
(dp2392
g61
(dp2393
sg70
g2378
sg63
(lp2394
g56
(g57
g58
NtRp2395
(dp2396
g61
(dp2397
g69
I5
ssg70
g2391
sg63
(lp2398
g99
asbasbasbag56
(g72
g58
NtRp2399
(dp2400
g61
(dp2401
sg70
g66
sg63
(lp2402
g56
(g77
g58
NtRp2403
(dp2404
g61
(dp2405
g81
g82
ssg70
g2399
sg63
(lp2406
S'now'
p2407
asbag56
(g77
g58
NtRp2408
(dp2409
g61
(dp2410
g88
g89
ssg70
g2399
sg63
(lp2411
S':'
asbag56
(g77
g58
NtRp2412
(dp2413
g61
(dp2414
sg70
g2399
sg63
(lp2415
g56
(g57
g58
NtRp2416
(dp2417
g61
(dp2418
g69
I5
ssg70
g2412
sg63
(lp2419
S'datetime.datetime(2011, 11, 3, 17, 24, 39, 338426)'
p2420
asbasbasbag56
(g72
g58
NtRp2421
(dp2422
g61
(dp2423
sg70
g66
sg63
(lp2424
g56
(g77
g58
NtRp2425
(dp2426
g61
(dp2427
g81
g82
ssg70
g2421
sg63
(lp2428
S'post_vars'
p2429
asbag56
(g77
g58
NtRp2430
(dp2431
g61
(dp2432
g88
g89
ssg70
g2421
sg63
(lp2433
S':'
asbag56
(g77
g58
NtRp2434
(dp2435
g61
(dp2436
sg70
g2421
sg63
(lp2437
g56
(g57
g58
NtRp2438
(dp2439
g61
(dp2440
g69
I5
ssg70
g2434
sg63
(lp2441
g56
(g65
g58
NtRp2442
(dp2443
g61
(dp2444
g69
I4
ssg70
Nsg63
(lp2445
sbasbasbasbag56
(g72
g58
NtRp2446
(dp2447
g61
(dp2448
sg70
g66
sg63
(lp2449
g56
(g77
g58
NtRp2450
(dp2451
g61
(dp2452
g81
g82
ssg70
g2446
sg63
(lp2453
S'raw_args'
p2454
asbag56
(g77
g58
NtRp2455
(dp2456
g61
(dp2457
g88
g89
ssg70
g2446
sg63
(lp2458
S':'
asbag56
(g77
g58
NtRp2459
(dp2460
g61
(dp2461
sg70
g2446
sg63
(lp2462
g56
(g57
g58
NtRp2463
(dp2464
g61
(dp2465
g69
I5
ssg70
g2459
sg63
(lp2466
g158
asbasbasbag56
(g72
g58
NtRp2467
(dp2468
g61
(dp2469
sg70
g66
sg63
(lp2470
g56
(g77
g58
NtRp2471
(dp2472
g61
(dp2473
g81
g82
ssg70
g2467
sg63
(lp2474
S'url'
p2475
asbag56
(g77
g58
NtRp2476
(dp2477
g61
(dp2478
g88
g89
ssg70
g2467
sg63
(lp2479
S':'
asbag56
(g77
g58
NtRp2480
(dp2481
g61
(dp2482
sg70
g2467
sg63
(lp2483
g56
(g57
g58
NtRp2484
(dp2485
g61
(dp2486
g69
I5
ssg70
g2480
sg63
(lp2487
S'/grades/default/grades_report/15'
p2488
asbasbasbag56
(g72
g58
NtRp2489
(dp2490
g61
(dp2491
sg70
g66
sg63
(lp2492
g56
(g77
g58
NtRp2493
(dp2494
g61
(dp2495
g81
g82
ssg70
g2489
sg63
(lp2496
S'utcnow'
p2497
asbag56
(g77
g58
NtRp2498
(dp2499
g61
(dp2500
g88
g89
ssg70
g2489
sg63
(lp2501
S':'
asbag56
(g77
g58
NtRp2502
(dp2503
g61
(dp2504
sg70
g2489
sg63
(lp2505
g56
(g57
g58
NtRp2506
(dp2507
g61
(dp2508
g69
I5
ssg70
g2502
sg63
(lp2509
S'datetime.datetime(2011, 11, 3, 21, 24, 39, 338481)'
p2510
asbasbasbag56
(g72
g58
NtRp2511
(dp2512
g61
(dp2513
sg70
g66
sg63
(lp2514
g56
(g77
g58
NtRp2515
(dp2516
g61
(dp2517
g81
g82
ssg70
g2511
sg63
(lp2518
S'uuid'
p2519
asbag56
(g77
g58
NtRp2520
(dp2521
g61
(dp2522
g88
g89
ssg70
g2511
sg63
(lp2523
S':'
asbag56
(g77
g58
NtRp2524
(dp2525
g61
(dp2526
sg70
g2511
sg63
(lp2527
g56
(g57
g58
NtRp2528
(dp2529
g61
(dp2530
g69
I5
ssg70
g2524
sg63
(lp2531
S'grades/127.0.0.1.2011-11-03.17-24-39.0dbee0f9-7063-4a6f-be2c-7b425327af8c'
p2532
asbasbasbag56
(g72
g58
NtRp2533
(dp2534
g61
(dp2535
sg70
g66
sg63
(lp2536
g56
(g77
g58
NtRp2537
(dp2538
g61
(dp2539
g81
g82
ssg70
g2533
sg63
(lp2540
S'vars'
p2541
asbag56
(g77
g58
NtRp2542
(dp2543
g61
(dp2544
g88
g89
ssg70
g2533
sg63
(lp2545
S':'
asbag56
(g77
g58
NtRp2546
(dp2547
g61
(dp2548
sg70
g2533
sg63
(lp2549
g56
(g57
g58
NtRp2550
(dp2551
g61
(dp2552
g69
I5
ssg70
g2546
sg63
(lp2553
g56
(g65
g58
NtRp2554
(dp2555
g61
(dp2556
g69
I4
ssg70
Nsg63
(lp2557
sbasbasbasbag56
(g72
g58
NtRp2558
(dp2559
g61
(dp2560
sg70
g66
sg63
(lp2561
g56
(g77
g58
NtRp2562
(dp2563
g61
(dp2564
g81
g82
ssg70
g2558
sg63
(lp2565
S'wsgi'
p2566
asbag56
(g77
g58
NtRp2567
(dp2568
g61
(dp2569
g88
g89
ssg70
g2558
sg63
(lp2570
S':'
asbag56
(g77
g58
NtRp2571
(dp2572
g61
(dp2573
sg70
g2558
sg63
(lp2574
g56
(g57
g58
NtRp2575
(dp2576
g61
(dp2577
g69
I5
ssg70
g2571
sg63
(lp2578
g56
(g65
g58
NtRp2579
(dp2580
g61
(dp2581
g69
I4
ssg70
Nsg63
(lp2582
g56
(g72
g58
NtRp2583
(dp2584
g61
(dp2585
sg70
g2579
sg63
(lp2586
g56
(g77
g58
NtRp2587
(dp2588
g61
(dp2589
g81
g82
ssg70
g2583
sg63
(lp2590
S'environ'
p2591
asbag56
(g77
g58
NtRp2592
(dp2593
g61
(dp2594
g88
g89
ssg70
g2583
sg63
(lp2595
S':'
asbag56
(g77
g58
NtRp2596
(dp2597
g61
(dp2598
sg70
g2583
sg63
(lp2599
g56
(g57
g58
NtRp2600
(dp2601
g61
(dp2602
g69
I4
ssg70
g2596
sg63
(lp2603
g56
(g65
g58
NtRp2604
(dp2605
g61
(dp2606
g69
I3
ssg70
Nsg63
(lp2607
g56
(g72
g58
NtRp2608
(dp2609
g61
(dp2610
sg70
g2604
sg63
(lp2611
g56
(g77
g58
NtRp2612
(dp2613
g61
(dp2614
g81
g82
ssg70
g2608
sg63
(lp2615
S'HTTP_ACCEPT'
p2616
asbag56
(g77
g58
NtRp2617
(dp2618
g61
(dp2619
g88
g89
ssg70
g2608
sg63
(lp2620
S':'
asbag56
(g77
g58
NtRp2621
(dp2622
g61
(dp2623
sg70
g2608
sg63
(lp2624
g56
(g57
g58
NtRp2625
(dp2626
g61
(dp2627
g69
I3
ssg70
g2621
sg63
(lp2628
g1200
asbasbasbag56
(g72
g58
NtRp2629
(dp2630
g61
(dp2631
sg70
g2604
sg63
(lp2632
g56
(g77
g58
NtRp2633
(dp2634
g61
(dp2635
g81
g82
ssg70
g2629
sg63
(lp2636
S'HTTP_ACCEPT_ENCODING'
p2637
asbag56
(g77
g58
NtRp2638
(dp2639
g61
(dp2640
g88
g89
ssg70
g2629
sg63
(lp2641
S':'
asbag56
(g77
g58
NtRp2642
(dp2643
g61
(dp2644
sg70
g2629
sg63
(lp2645
g56
(g57
g58
NtRp2646
(dp2647
g61
(dp2648
g69
I3
ssg70
g2642
sg63
(lp2649
g1222
asbasbasbag56
(g72
g58
NtRp2650
(dp2651
g61
(dp2652
sg70
g2604
sg63
(lp2653
g56
(g77
g58
NtRp2654
(dp2655
g61
(dp2656
g81
g82
ssg70
g2650
sg63
(lp2657
S'HTTP_ACCEPT_LANGUAGE'
p2658
asbag56
(g77
g58
NtRp2659
(dp2660
g61
(dp2661
g88
g89
ssg70
g2650
sg63
(lp2662
S':'
asbag56
(g77
g58
NtRp2663
(dp2664
g61
(dp2665
sg70
g2650
sg63
(lp2666
g56
(g57
g58
NtRp2667
(dp2668
g61
(dp2669
g69
I3
ssg70
g2663
sg63
(lp2670
g1244
asbasbasbag56
(g72
g58
NtRp2671
(dp2672
g61
(dp2673
sg70
g2604
sg63
(lp2674
g56
(g77
g58
NtRp2675
(dp2676
g61
(dp2677
g81
g82
ssg70
g2671
sg63
(lp2678
S'HTTP_CACHE_CONTROL'
p2679
asbag56
(g77
g58
NtRp2680
(dp2681
g61
(dp2682
g88
g89
ssg70
g2671
sg63
(lp2683
S':'
asbag56
(g77
g58
NtRp2684
(dp2685
g61
(dp2686
sg70
g2671
sg63
(lp2687
g56
(g57
g58
NtRp2688
(dp2689
g61
(dp2690
g69
I3
ssg70
g2684
sg63
(lp2691
g1266
asbasbasbag56
(g72
g58
NtRp2692
(dp2693
g61
(dp2694
sg70
g2604
sg63
(lp2695
g56
(g77
g58
NtRp2696
(dp2697
g61
(dp2698
g81
g82
ssg70
g2692
sg63
(lp2699
S'HTTP_CONNECTION'
p2700
asbag56
(g77
g58
NtRp2701
(dp2702
g61
(dp2703
g88
g89
ssg70
g2692
sg63
(lp2704
S':'
asbag56
(g77
g58
NtRp2705
(dp2706
g61
(dp2707
sg70
g2692
sg63
(lp2708
g56
(g57
g58
NtRp2709
(dp2710
g61
(dp2711
g69
I3
ssg70
g2705
sg63
(lp2712
g1288
asbasbasbag56
(g72
g58
NtRp2713
(dp2714
g61
(dp2715
sg70
g2604
sg63
(lp2716
g56
(g77
g58
NtRp2717
(dp2718
g61
(dp2719
g81
g82
ssg70
g2713
sg63
(lp2720
S'HTTP_COOKIE'
p2721
asbag56
(g77
g58
NtRp2722
(dp2723
g61
(dp2724
g88
g89
ssg70
g2713
sg63
(lp2725
S':'
asbag56
(g77
g58
NtRp2726
(dp2727
g61
(dp2728
sg70
g2713
sg63
(lp2729
g56
(g57
g58
NtRp2730
(dp2731
g61
(dp2732
g69
I3
ssg70
g2726
sg63
(lp2733
g1310
asbasbasbag56
(g72
g58
NtRp2734
(dp2735
g61
(dp2736
sg70
g2604
sg63
(lp2737
g56
(g77
g58
NtRp2738
(dp2739
g61
(dp2740
g81
g82
ssg70
g2734
sg63
(lp2741
S'HTTP_HOST'
p2742
asbag56
(g77
g58
NtRp2743
(dp2744
g61
(dp2745
g88
g89
ssg70
g2734
sg63
(lp2746
S':'
asbag56
(g77
g58
NtRp2747
(dp2748
g61
(dp2749
sg70
g2734
sg63
(lp2750
g56
(g57
g58
NtRp2751
(dp2752
g61
(dp2753
g69
I3
ssg70
g2747
sg63
(lp2754
g1332
asbasbasbag56
(g72
g58
NtRp2755
(dp2756
g61
(dp2757
sg70
g2604
sg63
(lp2758
g56
(g77
g58
NtRp2759
(dp2760
g61
(dp2761
g81
g82
ssg70
g2755
sg63
(lp2762
S'HTTP_REFERER'
p2763
asbag56
(g77
g58
NtRp2764
(dp2765
g61
(dp2766
g88
g89
ssg70
g2755
sg63
(lp2767
S':'
asbag56
(g77
g58
NtRp2768
(dp2769
g61
(dp2770
sg70
g2755
sg63
(lp2771
g56
(g57
g58
NtRp2772
(dp2773
g61
(dp2774
g69
I3
ssg70
g2768
sg63
(lp2775
g1354
asbasbasbag56
(g72
g58
NtRp2776
(dp2777
g61
(dp2778
sg70
g2604
sg63
(lp2779
g56
(g77
g58
NtRp2780
(dp2781
g61
(dp2782
g81
g82
ssg70
g2776
sg63
(lp2783
S'HTTP_USER_AGENT'
p2784
asbag56
(g77
g58
NtRp2785
(dp2786
g61
(dp2787
g88
g89
ssg70
g2776
sg63
(lp2788
S':'
asbag56
(g77
g58
NtRp2789
(dp2790
g61
(dp2791
sg70
g2776
sg63
(lp2792
g56
(g57
g58
NtRp2793
(dp2794
g61
(dp2795
g69
I3
ssg70
g2789
sg63
(lp2796
g1376
asbasbasbag56
(g72
g58
NtRp2797
(dp2798
g61
(dp2799
sg70
g2604
sg63
(lp2800
g56
(g77
g58
NtRp2801
(dp2802
g61
(dp2803
g81
g82
ssg70
g2797
sg63
(lp2804
S'PATH_INFO'
p2805
asbag56
(g77
g58
NtRp2806
(dp2807
g61
(dp2808
g88
g89
ssg70
g2797
sg63
(lp2809
S':'
asbag56
(g77
g58
NtRp2810
(dp2811
g61
(dp2812
sg70
g2797
sg63
(lp2813
g56
(g57
g58
NtRp2814
(dp2815
g61
(dp2816
g69
I3
ssg70
g2810
sg63
(lp2817
g1419
asbasbasbag56
(g72
g58
NtRp2818
(dp2819
g61
(dp2820
sg70
g2604
sg63
(lp2821
g56
(g77
g58
NtRp2822
(dp2823
g61
(dp2824
g81
g82
ssg70
g2818
sg63
(lp2825
S'QUERY_STRING'
p2826
asbag56
(g77
g58
NtRp2827
(dp2828
g61
(dp2829
g88
g89
ssg70
g2818
sg63
(lp2830
S':'
asbag56
(g77
g58
NtRp2831
(dp2832
g61
(dp2833
sg70
g2818
sg63
(lp2834
g56
(g57
g58
NtRp2835
(dp2836
g61
(dp2837
g69
I3
ssg70
g2831
sg63
(lp2838
S''
asbasbasbag56
(g72
g58
NtRp2839
(dp2840
g61
(dp2841
sg70
g2604
sg63
(lp2842
g56
(g77
g58
NtRp2843
(dp2844
g61
(dp2845
g81
g82
ssg70
g2839
sg63
(lp2846
S'REMOTE_ADDR'
p2847
asbag56
(g77
g58
NtRp2848
(dp2849
g61
(dp2850
g88
g89
ssg70
g2839
sg63
(lp2851
S':'
asbag56
(g77
g58
NtRp2852
(dp2853
g61
(dp2854
sg70
g2839
sg63
(lp2855
g56
(g57
g58
NtRp2856
(dp2857
g61
(dp2858
g69
I3
ssg70
g2852
sg63
(lp2859
g202
asbasbasbag56
(g72
g58
NtRp2860
(dp2861
g61
(dp2862
sg70
g2604
sg63
(lp2863
g56
(g77
g58
NtRp2864
(dp2865
g61
(dp2866
g81
g82
ssg70
g2860
sg63
(lp2867
S'REMOTE_PORT'
p2868
asbag56
(g77
g58
NtRp2869
(dp2870
g61
(dp2871
g88
g89
ssg70
g2860
sg63
(lp2872
S':'
asbag56
(g77
g58
NtRp2873
(dp2874
g61
(dp2875
sg70
g2860
sg63
(lp2876
g56
(g57
g58
NtRp2877
(dp2878
g61
(dp2879
g69
I3
ssg70
g2873
sg63
(lp2880
g1483
asbasbasbag56
(g72
g58
NtRp2881
(dp2882
g61
(dp2883
sg70
g2604
sg63
(lp2884
g56
(g77
g58
NtRp2885
(dp2886
g61
(dp2887
g81
g82
ssg70
g2881
sg63
(lp2888
S'REQUEST_METHOD'
p2889
asbag56
(g77
g58
NtRp2890
(dp2891
g61
(dp2892
g88
g89
ssg70
g2881
sg63
(lp2893
S':'
asbag56
(g77
g58
NtRp2894
(dp2895
g61
(dp2896
sg70
g2881
sg63
(lp2897
g56
(g57
g58
NtRp2898
(dp2899
g61
(dp2900
g69
I3
ssg70
g2894
sg63
(lp2901
g1505
asbasbasbag56
(g72
g58
NtRp2902
(dp2903
g61
(dp2904
sg70
g2604
sg63
(lp2905
g56
(g77
g58
NtRp2906
(dp2907
g61
(dp2908
g81
g82
ssg70
g2902
sg63
(lp2909
S'SCRIPT_NAME'
p2910
asbag56
(g77
g58
NtRp2911
(dp2912
g61
(dp2913
g88
g89
ssg70
g2902
sg63
(lp2914
S':'
asbag56
(g77
g58
NtRp2915
(dp2916
g61
(dp2917
sg70
g2902
sg63
(lp2918
g56
(g57
g58
NtRp2919
(dp2920
g61
(dp2921
g69
I3
ssg70
g2915
sg63
(lp2922
S''
asbasbasbag56
(g72
g58
NtRp2923
(dp2924
g61
(dp2925
sg70
g2604
sg63
(lp2926
g56
(g77
g58
NtRp2927
(dp2928
g61
(dp2929
g81
g82
ssg70
g2923
sg63
(lp2930
S'SERVER_NAME'
p2931
asbag56
(g77
g58
NtRp2932
(dp2933
g61
(dp2934
g88
g89
ssg70
g2923
sg63
(lp2935
S':'
asbag56
(g77
g58
NtRp2936
(dp2937
g61
(dp2938
sg70
g2923
sg63
(lp2939
g56
(g57
g58
NtRp2940
(dp2941
g61
(dp2942
g69
I3
ssg70
g2936
sg63
(lp2943
g1548
asbasbasbag56
(g72
g58
NtRp2944
(dp2945
g61
(dp2946
sg70
g2604
sg63
(lp2947
g56
(g77
g58
NtRp2948
(dp2949
g61
(dp2950
g81
g82
ssg70
g2944
sg63
(lp2951
S'SERVER_PORT'
p2952
asbag56
(g77
g58
NtRp2953
(dp2954
g61
(dp2955
g88
g89
ssg70
g2944
sg63
(lp2956
S':'
asbag56
(g77
g58
NtRp2957
(dp2958
g61
(dp2959
sg70
g2944
sg63
(lp2960
g56
(g57
g58
NtRp2961
(dp2962
g61
(dp2963
g69
I3
ssg70
g2957
sg63
(lp2964
g1570
asbasbasbag56
(g72
g58
NtRp2965
(dp2966
g61
(dp2967
sg70
g2604
sg63
(lp2968
g56
(g77
g58
NtRp2969
(dp2970
g61
(dp2971
g81
g82
ssg70
g2965
sg63
(lp2972
S'SERVER_PROTOCOL'
p2973
asbag56
(g77
g58
NtRp2974
(dp2975
g61
(dp2976
g88
g89
ssg70
g2965
sg63
(lp2977
S':'
asbag56
(g77
g58
NtRp2978
(dp2979
g61
(dp2980
sg70
g2965
sg63
(lp2981
g56
(g57
g58
NtRp2982
(dp2983
g61
(dp2984
g69
I3
ssg70
g2978
sg63
(lp2985
g1592
asbasbasbag56
(g72
g58
NtRp2986
(dp2987
g61
(dp2988
sg70
g2604
sg63
(lp2989
g56
(g77
g58
NtRp2990
(dp2991
g61
(dp2992
g81
g82
ssg70
g2986
sg63
(lp2993
S'SERVER_SOFTWARE'
p2994
asbag56
(g77
g58
NtRp2995
(dp2996
g61
(dp2997
g88
g89
ssg70
g2986
sg63
(lp2998
S':'
asbag56
(g77
g58
NtRp2999
(dp3000
g61
(dp3001
sg70
g2986
sg63
(lp3002
g56
(g57
g58
NtRp3003
(dp3004
g61
(dp3005
g69
I3
ssg70
g2999
sg63
(lp3006
g1614
asbasbasbag56
(g72
g58
NtRp3007
(dp3008
g61
(dp3009
sg70
g2604
sg63
(lp3010
g56
(g77
g58
NtRp3011
(dp3012
g61
(dp3013
g81
g82
ssg70
g3007
sg63
(lp3014
S'wsgi.errors'
p3015
asbag56
(g77
g58
NtRp3016
(dp3017
g61
(dp3018
g88
g89
ssg70
g3007
sg63
(lp3019
S':'
asbag56
(g77
g58
NtRp3020
(dp3021
g61
(dp3022
sg70
g3007
sg63
(lp3023
g56
(g57
g58
NtRp3024
(dp3025
g61
(dp3026
g69
I3
ssg70
g3020
sg63
(lp3027
S"<open file '<stderr>', mode 'w' at 0x7f1a4db92270>"
p3028
asbasbasbag56
(g72
g58
NtRp3029
(dp3030
g61
(dp3031
sg70
g2604
sg63
(lp3032
g56
(g77
g58
NtRp3033
(dp3034
g61
(dp3035
g81
g82
ssg70
g3029
sg63
(lp3036
S'wsgi.file_wrapper'
p3037
asbag56
(g77
g58
NtRp3038
(dp3039
g61
(dp3040
g88
g89
ssg70
g3029
sg63
(lp3041
S':'
asbag56
(g77
g58
NtRp3042
(dp3043
g61
(dp3044
sg70
g3029
sg63
(lp3045
g56
(g57
g58
NtRp3046
(dp3047
g61
(dp3048
g69
I3
ssg70
g3042
sg63
(lp3049
S'<class wsgiref.util.FileWrapper at 0x21fc870>'
p3050
asbasbasbag56
(g72
g58
NtRp3051
(dp3052
g61
(dp3053
sg70
g2604
sg63
(lp3054
g56
(g77
g58
NtRp3055
(dp3056
g61
(dp3057
g81
g82
ssg70
g3051
sg63
(lp3058
S'wsgi.input'
p3059
asbag56
(g77
g58
NtRp3060
(dp3061
g61
(dp3062
g88
g89
ssg70
g3051
sg63
(lp3063
S':'
asbag56
(g77
g58
NtRp3064
(dp3065
g61
(dp3066
sg70
g3051
sg63
(lp3067
g56
(g57
g58
NtRp3068
(dp3069
g61
(dp3070
g69
I3
ssg70
g3064
sg63
(lp3071
S'<cStringIO.StringO object at 0x2864928>'
p3072
asbasbasbag56
(g72
g58
NtRp3073
(dp3074
g61
(dp3075
sg70
g2604
sg63
(lp3076
g56
(g77
g58
NtRp3077
(dp3078
g61
(dp3079
g81
g82
ssg70
g3073
sg63
(lp3080
S'wsgi.multiprocess'
p3081
asbag56
(g77
g58
NtRp3082
(dp3083
g61
(dp3084
g88
g89
ssg70
g3073
sg63
(lp3085
S':'
asbag56
(g77
g58
NtRp3086
(dp3087
g61
(dp3088
sg70
g3073
sg63
(lp3089
g56
(g57
g58
NtRp3090
(dp3091
g61
(dp3092
g69
I3
ssg70
g3086
sg63
(lp3093
g99
asbasbasbag56
(g72
g58
NtRp3094
(dp3095
g61
(dp3096
sg70
g2604
sg63
(lp3097
g56
(g77
g58
NtRp3098
(dp3099
g61
(dp3100
g81
g82
ssg70
g3094
sg63
(lp3101
S'wsgi.multithread'
p3102
asbag56
(g77
g58
NtRp3103
(dp3104
g61
(dp3105
g88
g89
ssg70
g3094
sg63
(lp3106
S':'
asbag56
(g77
g58
NtRp3107
(dp3108
g61
(dp3109
sg70
g3094
sg63
(lp3110
g56
(g57
g58
NtRp3111
(dp3112
g61
(dp3113
g69
I3
ssg70
g3107
sg63
(lp3114
g1854
asbasbasbag56
(g72
g58
NtRp3115
(dp3116
g61
(dp3117
sg70
g2604
sg63
(lp3118
g56
(g77
g58
NtRp3119
(dp3120
g61
(dp3121
g81
g82
ssg70
g3115
sg63
(lp3122
S'wsgi.run_once'
p3123
asbag56
(g77
g58
NtRp3124
(dp3125
g61
(dp3126
g88
g89
ssg70
g3115
sg63
(lp3127
S':'
asbag56
(g77
g58
NtRp3128
(dp3129
g61
(dp3130
sg70
g3115
sg63
(lp3131
g56
(g57
g58
NtRp3132
(dp3133
g61
(dp3134
g69
I3
ssg70
g3128
sg63
(lp3135
g99
asbasbasbag56
(g72
g58
NtRp3136
(dp3137
g61
(dp3138
sg70
g2604
sg63
(lp3139
g56
(g77
g58
NtRp3140
(dp3141
g61
(dp3142
g81
g82
ssg70
g3136
sg63
(lp3143
S'wsgi.url_scheme'
p3144
asbag56
(g77
g58
NtRp3145
(dp3146
g61
(dp3147
g88
g89
ssg70
g3136
sg63
(lp3148
S':'
asbag56
(g77
g58
NtRp3149
(dp3150
g61
(dp3151
sg70
g3136
sg63
(lp3152
g56
(g57
g58
NtRp3153
(dp3154
g61
(dp3155
g69
I3
ssg70
g3149
sg63
(lp3156
g1897
asbasbasbag56
(g72
g58
NtRp3157
(dp3158
g61
(dp3159
sg70
g2604
sg63
(lp3160
g56
(g77
g58
NtRp3161
(dp3162
g61
(dp3163
g81
g82
ssg70
g3157
sg63
(lp3164
S'wsgi.version'
p3165
asbag56
(g77
g58
NtRp3166
(dp3167
g61
(dp3168
g88
g89
ssg70
g3157
sg63
(lp3169
S':'
asbag56
(g77
g58
NtRp3170
(dp3171
g61
(dp3172
sg70
g3157
sg63
(lp3173
g56
(g57
g58
NtRp3174
(dp3175
g61
(dp3176
g69
I3
ssg70
g3170
sg63
(lp3177
S'1'
asbasbasbasbasbasbasbasbasbasbasbasbasbsS'frames'
p3178
(lp3179
(dp3180
S'file'
p3181
S'/home/ian/web2py/gluon/restricted.py'
p3182
sS'dump'
p3183
(dp3184
S'environment'
p3185
S"{'A': <class 'gluon.html.A'>, 'Auth': <class 'gluon.tools.Auth'>, 'B': <class 'gluon.html.B'>, 'BEAUTIFY': <class 'gluon.html.BEAUTIFY'>, 'BODY': <class 'gluon.html.BODY'>, 'BR': <class 'gluon.html.BR'>, 'BUTTON': <class 'gluon.html.BUTTON'>, 'CAT': <class 'gluon.html.CAT'>, 'CENTER': <class 'gluon.html.CENTER'>, 'CLEANUP': <class 'gluon.validators.CLEANUP'>, ...}"
p3186
sS'ccode'
p3187
S'<code object <module> at 0x6ddee30, file "/home/...grades/views/default/grades_report.html", line 1>'
p3188
ssS'lnum'
p3189
I194
sS'lines'
p3190
(dp3191
I192
S'        else:'
p3192
sI193
S'            ccode = compile2(code,layer)'
p3193
sI194
S'        exec ccode in environment'
p3194
sI195
S'    except HTTP:'
p3195
sI196
S'        raise'
p3196
sI197
S'    except Exception, error:'
p3197
sI198
S'        # XXX Show exception in Wing IDE if running in debugger'
p3198
sI189
S'    try:'
p3199
sI190
S'        if type(code) == types.CodeType:'
p3200
sI191
S'            ccode = code'
p3201
ssS'call'
p3202
S'(code=\'response.write(\\\'<!DOCTYPE html>\\\\n<html lang="\\\', ...    -->    \\\\n  </body>\\\\n</html>\\\\n\\\', escape=False)\', environment={\'A\': <class \'gluon.html.A\'>, \'Auth\': <class \'gluon.tools.Auth\'>, \'B\': <class \'gluon.html.B\'>, \'BEAUTIFY\': <class \'gluon.html.BEAUTIFY\'>, \'BODY\': <class \'gluon.html.BODY\'>, \'BR\': <class \'gluon.html.BR\'>, \'BUTTON\': <class \'gluon.html.BUTTON\'>, \'CAT\': <class \'gluon.html.CAT\'>, \'CENTER\': <class \'gluon.html.CENTER\'>, \'CLEANUP\': <class \'gluon.validators.CLEANUP\'>, ...}, layer=\'/home/ian/web2py/applications/grades/views/default/grades_report.html\')'
p3203
sS'func'
p3204
S'restricted'
p3205
sa(dp3206
g3181
S'/home/ian/web2py/applications/grades/views/default/grades_report.html'
p3207
sg3183
(dp3208
sg3189
I84
sg3190
(dp3209
I75
S'    response.write(XML(left_sidebar_style))'
p3210
sI76
S'    response.write(\' >\\n            <div style="padding: 4px;">\\n          \', escape=False)'
p3211
sI77
S"    response.write('Content Left Sidebar', escape=False)"
p3212
sI78
S"    response.write('       \\n            </div>\\n          </div><!-- left_sidebar -->\\n      ', escape=False)"
p3213
sI79
S'    pass'
p3214
sI80
S"response.write('\\n\\n      <!-- content of other views-->\\n      ', escape=False)"
p3215
sI81
S'response.write(\'\\n\\n<h2>Grade Reports</h2>\\n\\n<section id="viewpane">\\n\', escape=False)'
p3216
sI82
S"response.write(LOAD('default', 'grades_report.load', ajax=True))"
p3217
sI83
S'response.write(\'\\n\\n</section>\\n\\n<section id="listpane">\\n\', escape=False)'
p3218
sI84
S"response.write(A('next student', _href=URL('grades_report.load', args=(request.args[0]+1)), cid='viewpane'))"
p3219
sI85
S"response.write('\\n    <ul>\\n    ', escape=False)"
p3220
sI86
S'for num,name in students.items():'
p3221
sI87
S"    response.write('\\n        ', escape=False)"
p3222
sI88
S'    response.write(LI(A(name, _href=URL(\'grades_report.load\', args=num), cid="viewpane")))'
p3223
sI89
S"    response.write('\\n    ', escape=False)"
p3224
sI90
S'    pass'
p3225
sI91
S"response.write('\\n    </ul>\\n</section>', escape=False)"
p3226
sI92
S"response.write(' \\n      <!-- content -->\\n\\n      ', escape=False)"
p3227
sI93
S'if right_sidebar_enabled:'
p3228
sI94
S'    response.write(\'\\n          <div id="right_sidebar" \', escape=False)'
p3229
ssg3202
S'()'
p3230
sg3204
S'<module>'
p3231
sasS'pyver'
p3232
S'Python 2.7.2+: /usr/bin/python2.7'
p3233
sS'session'
p3234
g56
(g57
g58
NtRp3235
(dp3236
g61
(dp3237
sg63
(lp3238
g56
(g65
g58
NtRp3239
(dp3240
g61
(dp3241
g69
I5
ssg70
Nsg63
(lp3242
g56
(g72
g58
NtRp3243
(dp3244
g61
(dp3245
sg70
g3239
sg63
(lp3246
g56
(g77
g58
NtRp3247
(dp3248
g61
(dp3249
g81
g82
ssg70
g3243
sg63
(lp3250
S'auth'
p3251
asbag56
(g77
g58
NtRp3252
(dp3253
g61
(dp3254
g88
g89
ssg70
g3243
sg63
(lp3255
S':'
asbag56
(g77
g58
NtRp3256
(dp3257
g61
(dp3258
sg70
g3243
sg63
(lp3259
g56
(g57
g58
NtRp3260
(dp3261
g61
(dp3262
g69
I5
ssg70
g3256
sg63
(lp3263
g56
(g65
g58
NtRp3264
(dp3265
g61
(dp3266
g69
I4
ssg70
Nsg63
(lp3267
g56
(g72
g58
NtRp3268
(dp3269
g61
(dp3270
sg70
g3264
sg63
(lp3271
g56
(g77
g58
NtRp3272
(dp3273
g61
(dp3274
g81
g82
ssg70
g3268
sg63
(lp3275
S'expiration'
p3276
asbag56
(g77
g58
NtRp3277
(dp3278
g61
(dp3279
g88
g89
ssg70
g3268
sg63
(lp3280
S':'
asbag56
(g77
g58
NtRp3281
(dp3282
g61
(dp3283
sg70
g3268
sg63
(lp3284
g56
(g57
g58
NtRp3285
(dp3286
g61
(dp3287
g69
I4
ssg70
g3281
sg63
(lp3288
S'2592000'
p3289
asbasbasbag56
(g72
g58
NtRp3290
(dp3291
g61
(dp3292
sg70
g3264
sg63
(lp3293
g56
(g77
g58
NtRp3294
(dp3295
g61
(dp3296
g81
g82
ssg70
g3290
sg63
(lp3297
S'hmac_key'
p3298
asbag56
(g77
g58
NtRp3299
(dp3300
g61
(dp3301
g88
g89
ssg70
g3290
sg63
(lp3302
S':'
asbag56
(g77
g58
NtRp3303
(dp3304
g61
(dp3305
sg70
g3290
sg63
(lp3306
g56
(g57
g58
NtRp3307
(dp3308
g61
(dp3309
g69
I4
ssg70
g3303
sg63
(lp3310
S'7662103e-e580-4791-b95a-39c18813d8df'
p3311
asbasbasbag56
(g72
g58
NtRp3312
(dp3313
g61
(dp3314
sg70
g3264
sg63
(lp3315
g56
(g77
g58
NtRp3316
(dp3317
g61
(dp3318
g81
g82
ssg70
g3312
sg63
(lp3319
S'last_visit'
p3320
asbag56
(g77
g58
NtRp3321
(dp3322
g61
(dp3323
g88
g89
ssg70
g3312
sg63
(lp3324
S':'
asbag56
(g77
g58
NtRp3325
(dp3326
g61
(dp3327
sg70
g3312
sg63
(lp3328
g56
(g57
g58
NtRp3329
(dp3330
g61
(dp3331
g69
I4
ssg70
g3325
sg63
(lp3332
S'datetime.datetime(2011, 11, 3, 16, 16, 8, 558332)'
p3333
asbasbasbag56
(g72
g58
NtRp3334
(dp3335
g61
(dp3336
sg70
g3264
sg63
(lp3337
g56
(g77
g58
NtRp3338
(dp3339
g61
(dp3340
g81
g82
ssg70
g3334
sg63
(lp3341
S'remember'
p3342
asbag56
(g77
g58
NtRp3343
(dp3344
g61
(dp3345
g88
g89
ssg70
g3334
sg63
(lp3346
S':'
asbag56
(g77
g58
NtRp3347
(dp3348
g61
(dp3349
sg70
g3334
sg63
(lp3350
g56
(g57
g58
NtRp3351
(dp3352
g61
(dp3353
g69
I4
ssg70
g3347
sg63
(lp3354
g99
asbasbasbag56
(g72
g58
NtRp3355
(dp3356
g61
(dp3357
sg70
g3264
sg63
(lp3358
g56
(g77
g58
NtRp3359
(dp3360
g61
(dp3361
g81
g82
ssg70
g3355
sg63
(lp3362
S'user'
p3363
asbag56
(g77
g58
NtRp3364
(dp3365
g61
(dp3366
g88
g89
ssg70
g3355
sg63
(lp3367
S':'
asbag56
(g77
g58
NtRp3368
(dp3369
g61
(dp3370
sg70
g3355
sg63
(lp3371
g56
(g57
g58
NtRp3372
(dp3373
g61
(dp3374
g69
I4
ssg70
g3368
sg63
(lp3375
g56
(g65
g58
NtRp3376
(dp3377
g61
(dp3378
g69
I3
ssg70
Nsg63
(lp3379
g56
(g72
g58
NtRp3380
(dp3381
g61
(dp3382
sg70
g3376
sg63
(lp3383
g56
(g77
g58
NtRp3384
(dp3385
g61
(dp3386
g81
g82
ssg70
g3380
sg63
(lp3387
S'email'
p3388
asbag56
(g77
g58
NtRp3389
(dp3390
g61
(dp3391
g88
g89
ssg70
g3380
sg63
(lp3392
S':'
asbag56
(g77
g58
NtRp3393
(dp3394
g61
(dp3395
sg70
g3380
sg63
(lp3396
g56
(g57
g58
NtRp3397
(dp3398
g61
(dp3399
g69
I3
ssg70
g3393
sg63
(lp3400
S'scottianw@gmail.com'
p3401
asbasbasbag56
(g72
g58
NtRp3402
(dp3403
g61
(dp3404
sg70
g3376
sg63
(lp3405
g56
(g77
g58
NtRp3406
(dp3407
g61
(dp3408
g81
g82
ssg70
g3402
sg63
(lp3409
S'first_name'
p3410
asbag56
(g77
g58
NtRp3411
(dp3412
g61
(dp3413
g88
g89
ssg70
g3402
sg63
(lp3414
S':'
asbag56
(g77
g58
NtRp3415
(dp3416
g61
(dp3417
sg70
g3402
sg63
(lp3418
g56
(g57
g58
NtRp3419
(dp3420
g61
(dp3421
g69
I3
ssg70
g3415
sg63
(lp3422
S'Ian'
p3423
asbasbasbag56
(g72
g58
NtRp3424
(dp3425
g61
(dp3426
sg70
g3376
sg63
(lp3427
g56
(g77
g58
NtRp3428
(dp3429
g61
(dp3430
g81
g82
ssg70
g3424
sg63
(lp3431
S'id'
p3432
asbag56
(g77
g58
NtRp3433
(dp3434
g61
(dp3435
g88
g89
ssg70
g3424
sg63
(lp3436
S':'
asbag56
(g77
g58
NtRp3437
(dp3438
g61
(dp3439
sg70
g3424
sg63
(lp3440
g56
(g57
g58
NtRp3441
(dp3442
g61
(dp3443
g69
I3
ssg70
g3437
sg63
(lp3444
S'11'
p3445
asbasbasbag56
(g72
g58
NtRp3446
(dp3447
g61
(dp3448
sg70
g3376
sg63
(lp3449
g56
(g77
g58
NtRp3450
(dp3451
g61
(dp3452
g81
g82
ssg70
g3446
sg63
(lp3453
S'last_name'
p3454
asbag56
(g77
g58
NtRp3455
(dp3456
g61
(dp3457
g88
g89
ssg70
g3446
sg63
(lp3458
S':'
asbag56
(g77
g58
NtRp3459
(dp3460
g61
(dp3461
sg70
g3446
sg63
(lp3462
g56
(g57
g58
NtRp3463
(dp3464
g61
(dp3465
g69
I3
ssg70
g3459
sg63
(lp3466
S'Scott'
p3467
asbasbasbag56
(g72
g58
NtRp3468
(dp3469
g61
(dp3470
sg70
g3376
sg63
(lp3471
g56
(g77
g58
NtRp3472
(dp3473
g61
(dp3474
g81
g82
ssg70
g3468
sg63
(lp3475
S'password'
p3476
asbag56
(g77
g58
NtRp3477
(dp3478
g61
(dp3479
g88
g89
ssg70
g3468
sg63
(lp3480
S':'
asbag56
(g77
g58
NtRp3481
(dp3482
g61
(dp3483
sg70
g3468
sg63
(lp3484
g56
(g57
g58
NtRp3485
(dp3486
g61
(dp3487
g69
I3
ssg70
g3481
sg63
(lp3488
S'351bc855a8ae4839e89ee60d2f279ed9'
p3489
asbasbasbag56
(g72
g58
NtRp3490
(dp3491
g61
(dp3492
sg70
g3376
sg63
(lp3493
g56
(g77
g58
NtRp3494
(dp3495
g61
(dp3496
g81
g82
ssg70
g3490
sg63
(lp3497
S'registration_key'
p3498
asbag56
(g77
g58
NtRp3499
(dp3500
g61
(dp3501
g88
g89
ssg70
g3490
sg63
(lp3502
S':'
asbag56
(g77
g58
NtRp3503
(dp3504
g61
(dp3505
sg70
g3490
sg63
(lp3506
g56
(g57
g58
NtRp3507
(dp3508
g61
(dp3509
g69
I3
ssg70
g3503
sg63
(lp3510
S''
asbasbasbag56
(g72
g58
NtRp3511
(dp3512
g61
(dp3513
sg70
g3376
sg63
(lp3514
g56
(g77
g58
NtRp3515
(dp3516
g61
(dp3517
g81
g82
ssg70
g3511
sg63
(lp3518
S'reset_password_key'
p3519
asbag56
(g77
g58
NtRp3520
(dp3521
g61
(dp3522
g88
g89
ssg70
g3511
sg63
(lp3523
S':'
asbag56
(g77
g58
NtRp3524
(dp3525
g61
(dp3526
sg70
g3511
sg63
(lp3527
g56
(g57
g58
NtRp3528
(dp3529
g61
(dp3530
g69
I3
ssg70
g3524
sg63
(lp3531
S''
asbasbasbasbasbasbasbasbasbasbasbag56
(g72
g58
NtRp3532
(dp3533
g61
(dp3534
sg70
g3239
sg63
(lp3535
g56
(g77
g58
NtRp3536
(dp3537
g61
(dp3538
g81
g82
ssg70
g3532
sg63
(lp3539
S'debug'
p3540
asbag56
(g77
g58
NtRp3541
(dp3542
g61
(dp3543
g88
g89
ssg70
g3532
sg63
(lp3544
S':'
asbag56
(g77
g58
NtRp3545
(dp3546
g61
(dp3547
sg70
g3532
sg63
(lp3548
g56
(g57
g58
NtRp3549
(dp3550
g61
(dp3551
g69
I5
ssg70
g3545
sg63
(lp3552
g158
asbasbasbasbasbsS'etype'
p3553
S"<type 'exceptions.TypeError'>"
p3554
sS'date'
p3555
S'Thu Nov  3 17:24:39 2011'
p3556
sS'response'
p3557
g56
(g57
g58
NtRp3558
(dp3559
g61
(dp3560
sg63
(lp3561
g56
(g65
g58
NtRp3562
(dp3563
g61
(dp3564
g69
I5
ssg70
Nsg63
(lp3565
g56
(g72
g58
NtRp3566
(dp3567
g61
(dp3568
sg70
g3562
sg63
(lp3569
g56
(g77
g58
NtRp3570
(dp3571
g61
(dp3572
g81
g82
ssg70
g3566
sg63
(lp3573
g167
asbag56
(g77
g58
NtRp3574
(dp3575
g61
(dp3576
g88
g89
ssg70
g3566
sg63
(lp3577
S':'
asbag56
(g77
g58
NtRp3578
(dp3579
g61
(dp3580
sg70
g3566
sg63
(lp3581
g56
(g57
g58
NtRp3582
(dp3583
g61
(dp3584
g69
I5
ssg70
g3578
sg63
(lp3585
S'<cStringIO.StringO object at 0x8a6d880>'
p3586
asbasbasbag56
(g72
g58
NtRp3587
(dp3588
g61
(dp3589
sg70
g3562
sg63
(lp3590
g56
(g77
g58
NtRp3591
(dp3592
g61
(dp3593
g81
g82
ssg70
g3587
sg63
(lp3594
g233
asbag56
(g77
g58
NtRp3595
(dp3596
g61
(dp3597
g88
g89
ssg70
g3587
sg63
(lp3598
S':'
asbag56
(g77
g58
NtRp3599
(dp3600
g61
(dp3601
sg70
g3587
sg63
(lp3602
g56
(g57
g58
NtRp3603
(dp3604
g61
(dp3605
g69
I5
ssg70
g3599
sg63
(lp3606
g56
(g65
g58
NtRp3607
(dp3608
g61
(dp3609
g69
I4
ssg70
Nsg63
(lp3610
g56
(g72
g58
NtRp3611
(dp3612
g61
(dp3613
sg70
g3607
sg63
(lp3614
g56
(g77
g58
NtRp3615
(dp3616
g61
(dp3617
g81
g82
ssg70
g3611
sg63
(lp3618
S'session_id_grades'
p3619
asbag56
(g77
g58
NtRp3620
(dp3621
g61
(dp3622
g88
g89
ssg70
g3611
sg63
(lp3623
S':'
asbag56
(g77
g58
NtRp3624
(dp3625
g61
(dp3626
sg70
g3611
sg63
(lp3627
g56
(g57
g58
NtRp3628
(dp3629
g61
(dp3630
g69
I4
ssg70
g3624
sg63
(lp3631
g56
(g65
g58
NtRp3632
(dp3633
g61
(dp3634
g69
I3
ssg70
Nsg63
(lp3635
g56
(g72
g58
NtRp3636
(dp3637
g61
(dp3638
sg70
g3632
sg63
(lp3639
g56
(g77
g58
NtRp3640
(dp3641
g61
(dp3642
g81
g82
ssg70
g3636
sg63
(lp3643
g283
asbag56
(g77
g58
NtRp3644
(dp3645
g61
(dp3646
g88
g89
ssg70
g3636
sg63
(lp3647
S':'
asbag56
(g77
g58
NtRp3648
(dp3649
g61
(dp3650
sg70
g3636
sg63
(lp3651
g56
(g57
g58
NtRp3652
(dp3653
g61
(dp3654
g69
I3
ssg70
g3648
sg63
(lp3655
S''
asbasbasbag56
(g72
g58
NtRp3656
(dp3657
g61
(dp3658
sg70
g3632
sg63
(lp3659
g56
(g77
g58
NtRp3660
(dp3661
g61
(dp3662
g81
g82
ssg70
g3656
sg63
(lp3663
g304
asbag56
(g77
g58
NtRp3664
(dp3665
g61
(dp3666
g88
g89
ssg70
g3656
sg63
(lp3667
S':'
asbag56
(g77
g58
NtRp3668
(dp3669
g61
(dp3670
sg70
g3656
sg63
(lp3671
g56
(g57
g58
NtRp3672
(dp3673
g61
(dp3674
g69
I3
ssg70
g3668
sg63
(lp3675
S''
asbasbasbag56
(g72
g58
NtRp3676
(dp3677
g61
(dp3678
sg70
g3632
sg63
(lp3679
g56
(g77
g58
NtRp3680
(dp3681
g61
(dp3682
g81
g82
ssg70
g3676
sg63
(lp3683
g325
asbag56
(g77
g58
NtRp3684
(dp3685
g61
(dp3686
g88
g89
ssg70
g3676
sg63
(lp3687
S':'
asbag56
(g77
g58
NtRp3688
(dp3689
g61
(dp3690
sg70
g3676
sg63
(lp3691
g56
(g57
g58
NtRp3692
(dp3693
g61
(dp3694
g69
I3
ssg70
g3688
sg63
(lp3695
S''
asbasbasbag56
(g72
g58
NtRp3696
(dp3697
g61
(dp3698
sg70
g3632
sg63
(lp3699
g56
(g77
g58
NtRp3700
(dp3701
g61
(dp3702
g81
g82
ssg70
g3696
sg63
(lp3703
g346
asbag56
(g77
g58
NtRp3704
(dp3705
g61
(dp3706
g88
g89
ssg70
g3696
sg63
(lp3707
S':'
asbag56
(g77
g58
NtRp3708
(dp3709
g61
(dp3710
sg70
g3696
sg63
(lp3711
g56
(g57
g58
NtRp3712
(dp3713
g61
(dp3714
g69
I3
ssg70
g3708
sg63
(lp3715
S''
asbasbasbag56
(g72
g58
NtRp3716
(dp3717
g61
(dp3718
sg70
g3632
sg63
(lp3719
g56
(g77
g58
NtRp3720
(dp3721
g61
(dp3722
g81
g82
ssg70
g3716
sg63
(lp3723
g367
asbag56
(g77
g58
NtRp3724
(dp3725
g61
(dp3726
g88
g89
ssg70
g3716
sg63
(lp3727
S':'
asbag56
(g77
g58
NtRp3728
(dp3729
g61
(dp3730
sg70
g3716
sg63
(lp3731
g56
(g57
g58
NtRp3732
(dp3733
g61
(dp3734
g69
I3
ssg70
g3728
sg63
(lp3735
S''
asbasbasbag56
(g72
g58
NtRp3736
(dp3737
g61
(dp3738
sg70
g3632
sg63
(lp3739
g56
(g77
g58
NtRp3740
(dp3741
g61
(dp3742
g81
g82
ssg70
g3736
sg63
(lp3743
g388
asbag56
(g77
g58
NtRp3744
(dp3745
g61
(dp3746
g88
g89
ssg70
g3736
sg63
(lp3747
S':'
asbag56
(g77
g58
NtRp3748
(dp3749
g61
(dp3750
sg70
g3736
sg63
(lp3751
g56
(g57
g58
NtRp3752
(dp3753
g61
(dp3754
g69
I3
ssg70
g3748
sg63
(lp3755
S'/'
asbasbasbag56
(g72
g58
NtRp3756
(dp3757
g61
(dp3758
sg70
g3632
sg63
(lp3759
g56
(g77
g58
NtRp3760
(dp3761
g61
(dp3762
g81
g82
ssg70
g3756
sg63
(lp3763
g409
asbag56
(g77
g58
NtRp3764
(dp3765
g61
(dp3766
g88
g89
ssg70
g3756
sg63
(lp3767
S':'
asbag56
(g77
g58
NtRp3768
(dp3769
g61
(dp3770
sg70
g3756
sg63
(lp3771
g56
(g57
g58
NtRp3772
(dp3773
g61
(dp3774
g69
I3
ssg70
g3768
sg63
(lp3775
S''
asbasbasbag56
(g72
g58
NtRp3776
(dp3777
g61
(dp3778
sg70
g3632
sg63
(lp3779
g56
(g77
g58
NtRp3780
(dp3781
g61
(dp3782
g81
g82
ssg70
g3776
sg63
(lp3783
g430
asbag56
(g77
g58
NtRp3784
(dp3785
g61
(dp3786
g88
g89
ssg70
g3776
sg63
(lp3787
S':'
asbag56
(g77
g58
NtRp3788
(dp3789
g61
(dp3790
sg70
g3776
sg63
(lp3791
g56
(g57
g58
NtRp3792
(dp3793
g61
(dp3794
g69
I3
ssg70
g3788
sg63
(lp3795
S''
asbasbasbasbasbasbasbasbasbasbasbag56
(g72
g58
NtRp3796
(dp3797
g61
(dp3798
sg70
g3562
sg63
(lp3799
g56
(g77
g58
NtRp3800
(dp3801
g61
(dp3802
g81
g82
ssg70
g3796
sg63
(lp3803
S'files'
p3804
asbag56
(g77
g58
NtRp3805
(dp3806
g61
(dp3807
g88
g89
ssg70
g3796
sg63
(lp3808
S':'
asbag56
(g77
g58
NtRp3809
(dp3810
g61
(dp3811
sg70
g3796
sg63
(lp3812
g56
(g57
g58
NtRp3813
(dp3814
g61
(dp3815
g69
I5
ssg70
g3809
sg63
(lp3816
g56
(g65
g58
NtRp3817
(dp3818
g61
(dp3819
g69
I4
ssg70
Nsg63
(lp3820
g56
(g72
g58
NtRp3821
(dp3822
g61
(dp3823
sg70
g3817
sg63
(lp3824
g56
(g77
g58
NtRp3825
(dp3826
g61
(dp3827
sg70
g3821
sg63
(lp3828
g56
(g57
g58
NtRp3829
(dp3830
g61
(dp3831
g69
I4
ssg70
g3825
sg63
(lp3832
S'/grades/static/js/jquery.js'
p3833
asbasbasbag56
(g72
g58
NtRp3834
(dp3835
g61
(dp3836
sg70
g3817
sg63
(lp3837
g56
(g77
g58
NtRp3838
(dp3839
g61
(dp3840
sg70
g3834
sg63
(lp3841
g56
(g57
g58
NtRp3842
(dp3843
g61
(dp3844
g69
I4
ssg70
g3838
sg63
(lp3845
S'/grades/static/css/anytime.css'
p3846
asbasbasbag56
(g72
g58
NtRp3847
(dp3848
g61
(dp3849
sg70
g3817
sg63
(lp3850
g56
(g77
g58
NtRp3851
(dp3852
g61
(dp3853
sg70
g3847
sg63
(lp3854
g56
(g57
g58
NtRp3855
(dp3856
g61
(dp3857
g69
I4
ssg70
g3851
sg63
(lp3858
S'/grades/static/js/anytime.js'
p3859
asbasbasbag56
(g72
g58
NtRp3860
(dp3861
g61
(dp3862
sg70
g3817
sg63
(lp3863
g56
(g77
g58
NtRp3864
(dp3865
g61
(dp3866
sg70
g3860
sg63
(lp3867
g56
(g57
g58
NtRp3868
(dp3869
g61
(dp3870
g69
I4
ssg70
g3864
sg63
(lp3871
S'/grades/static/css/base.css'
p3872
asbasbasbag56
(g72
g58
NtRp3873
(dp3874
g61
(dp3875
sg70
g3817
sg63
(lp3876
g56
(g77
g58
NtRp3877
(dp3878
g61
(dp3879
sg70
g3873
sg63
(lp3880
g56
(g57
g58
NtRp3881
(dp3882
g61
(dp3883
g69
I4
ssg70
g3877
sg63
(lp3884
S'/grades/static/css/grades_theme.css'
p3885
asbasbasbag56
(g72
g58
NtRp3886
(dp3887
g61
(dp3888
sg70
g3817
sg63
(lp3889
g56
(g77
g58
NtRp3890
(dp3891
g61
(dp3892
sg70
g3886
sg63
(lp3893
g56
(g57
g58
NtRp3894
(dp3895
g61
(dp3896
g69
I4
ssg70
g3890
sg63
(lp3897
S'/grades/static/css/two_pane.css'
p3898
asbasbasbag56
(g72
g58
NtRp3899
(dp3900
g61
(dp3901
sg70
g3817
sg63
(lp3902
g56
(g77
g58
NtRp3903
(dp3904
g61
(dp3905
sg70
g3899
sg63
(lp3906
g56
(g57
g58
NtRp3907
(dp3908
g61
(dp3909
g69
I4
ssg70
g3903
sg63
(lp3910
S'/grades/static/css/superfish.css'
p3911
asbasbasbag56
(g72
g58
NtRp3912
(dp3913
g61
(dp3914
sg70
g3817
sg63
(lp3915
g56
(g77
g58
NtRp3916
(dp3917
g61
(dp3918
sg70
g3912
sg63
(lp3919
g56
(g57
g58
NtRp3920
(dp3921
g61
(dp3922
g69
I4
ssg70
g3916
sg63
(lp3923
S'/grades/static/js/superfish.js'
p3924
asbasbasbasbasbasbasbag56
(g72
g58
NtRp3925
(dp3926
g61
(dp3927
sg70
g3562
sg63
(lp3928
g56
(g77
g58
NtRp3929
(dp3930
g61
(dp3931
g81
g82
ssg70
g3925
sg63
(lp3932
S'flash'
p3933
asbag56
(g77
g58
NtRp3934
(dp3935
g61
(dp3936
g88
g89
ssg70
g3925
sg63
(lp3937
S':'
asbag56
(g77
g58
NtRp3938
(dp3939
g61
(dp3940
sg70
g3925
sg63
(lp3941
g56
(g57
g58
NtRp3942
(dp3943
g61
(dp3944
g69
I5
ssg70
g3938
sg63
(lp3945
S''
asbasbasbag56
(g72
g58
NtRp3946
(dp3947
g61
(dp3948
sg70
g3562
sg63
(lp3949
g56
(g77
g58
NtRp3950
(dp3951
g61
(dp3952
g81
g82
ssg70
g3946
sg63
(lp3953
S'generic_patterns'
p3954
asbag56
(g77
g58
NtRp3955
(dp3956
g61
(dp3957
g88
g89
ssg70
g3946
sg63
(lp3958
S':'
asbag56
(g77
g58
NtRp3959
(dp3960
g61
(dp3961
sg70
g3946
sg63
(lp3962
g56
(g57
g58
NtRp3963
(dp3964
g61
(dp3965
g69
I5
ssg70
g3959
sg63
(lp3966
g56
(g65
g58
NtRp3967
(dp3968
g61
(dp3969
g69
I4
ssg70
Nsg63
(lp3970
g56
(g72
g58
NtRp3971
(dp3972
g61
(dp3973
sg70
g3967
sg63
(lp3974
g56
(g77
g58
NtRp3975
(dp3976
g61
(dp3977
sg70
g3971
sg63
(lp3978
g56
(g57
g58
NtRp3979
(dp3980
g61
(dp3981
g69
I4
ssg70
g3975
sg63
(lp3982
S'*'
asbasbasbasbasbasbasbag56
(g72
g58
NtRp3983
(dp3984
g61
(dp3985
sg70
g3562
sg63
(lp3986
g56
(g77
g58
NtRp3987
(dp3988
g61
(dp3989
g81
g82
ssg70
g3983
sg63
(lp3990
S'headers'
p3991
asbag56
(g77
g58
NtRp3992
(dp3993
g61
(dp3994
g88
g89
ssg70
g3983
sg63
(lp3995
S':'
asbag56
(g77
g58
NtRp3996
(dp3997
g61
(dp3998
sg70
g3983
sg63
(lp3999
g56
(g57
g58
NtRp4000
(dp4001
g61
(dp4002
g69
I5
ssg70
g3996
sg63
(lp4003
g56
(g65
g58
NtRp4004
(dp4005
g61
(dp4006
g69
I4
ssg70
Nsg63
(lp4007
g56
(g72
g58
NtRp4008
(dp4009
g61
(dp4010
sg70
g4004
sg63
(lp4011
g56
(g77
g58
NtRp4012
(dp4013
g61
(dp4014
g81
g82
ssg70
g4008
sg63
(lp4015
S'Cache-Control'
p4016
asbag56
(g77
g58
NtRp4017
(dp4018
g61
(dp4019
g88
g89
ssg70
g4008
sg63
(lp4020
S':'
asbag56
(g77
g58
NtRp4021
(dp4022
g61
(dp4023
sg70
g4008
sg63
(lp4024
g56
(g57
g58
NtRp4025
(dp4026
g61
(dp4027
g69
I4
ssg70
g4021
sg63
(lp4028
S'no-store, no-cache, must-revalidate, post-check=0, pre-check=0'
p4029
asbasbasbag56
(g72
g58
NtRp4030
(dp4031
g61
(dp4032
sg70
g4004
sg63
(lp4033
g56
(g77
g58
NtRp4034
(dp4035
g61
(dp4036
g81
g82
ssg70
g4030
sg63
(lp4037
S'Content-Type'
p4038
asbag56
(g77
g58
NtRp4039
(dp4040
g61
(dp4041
g88
g89
ssg70
g4030
sg63
(lp4042
S':'
asbag56
(g77
g58
NtRp4043
(dp4044
g61
(dp4045
sg70
g4030
sg63
(lp4046
g56
(g57
g58
NtRp4047
(dp4048
g61
(dp4049
g69
I4
ssg70
g4043
sg63
(lp4050
S'text/html; charset=utf-8'
p4051
asbasbasbag56
(g72
g58
NtRp4052
(dp4053
g61
(dp4054
sg70
g4004
sg63
(lp4055
g56
(g77
g58
NtRp4056
(dp4057
g61
(dp4058
g81
g82
ssg70
g4052
sg63
(lp4059
S'Expires'
p4060
asbag56
(g77
g58
NtRp4061
(dp4062
g61
(dp4063
g88
g89
ssg70
g4052
sg63
(lp4064
S':'
asbag56
(g77
g58
NtRp4065
(dp4066
g61
(dp4067
sg70
g4052
sg63
(lp4068
g56
(g57
g58
NtRp4069
(dp4070
g61
(dp4071
g69
I4
ssg70
g4065
sg63
(lp4072
S'Thu, 03 Nov 2011 21:24:39 GMT'
p4073
asbasbasbag56
(g72
g58
NtRp4074
(dp4075
g61
(dp4076
sg70
g4004
sg63
(lp4077
g56
(g77
g58
NtRp4078
(dp4079
g61
(dp4080
g81
g82
ssg70
g4074
sg63
(lp4081
S'Pragma'
p4082
asbag56
(g77
g58
NtRp4083
(dp4084
g61
(dp4085
g88
g89
ssg70
g4074
sg63
(lp4086
S':'
asbag56
(g77
g58
NtRp4087
(dp4088
g61
(dp4089
sg70
g4074
sg63
(lp4090
g56
(g57
g58
NtRp4091
(dp4092
g61
(dp4093
g69
I4
ssg70
g4087
sg63
(lp4094
S'no-cache'
p4095
asbasbasbag56
(g72
g58
NtRp4096
(dp4097
g61
(dp4098
sg70
g4004
sg63
(lp4099
g56
(g77
g58
NtRp4100
(dp4101
g61
(dp4102
g81
g82
ssg70
g4096
sg63
(lp4103
S'X-Powered-By'
p4104
asbag56
(g77
g58
NtRp4105
(dp4106
g61
(dp4107
g88
g89
ssg70
g4096
sg63
(lp4108
S':'
asbag56
(g77
g58
NtRp4109
(dp4110
g61
(dp4111
sg70
g4096
sg63
(lp4112
g56
(g57
g58
NtRp4113
(dp4114
g61
(dp4115
g69
I4
ssg70
g4109
sg63
(lp4116
S'web2py'
p4117
asbasbasbasbasbasbasbag56
(g72
g58
NtRp4118
(dp4119
g61
(dp4120
sg70
g3562
sg63
(lp4121
g56
(g77
g58
NtRp4122
(dp4123
g61
(dp4124
g81
g82
ssg70
g4118
sg63
(lp4125
S'menu'
p4126
asbag56
(g77
g58
NtRp4127
(dp4128
g61
(dp4129
g88
g89
ssg70
g4118
sg63
(lp4130
S':'
asbag56
(g77
g58
NtRp4131
(dp4132
g61
(dp4133
sg70
g4118
sg63
(lp4134
g56
(g57
g58
NtRp4135
(dp4136
g61
(dp4137
g69
I5
ssg70
g4131
sg63
(lp4138
g56
(g65
g58
NtRp4139
(dp4140
g61
(dp4141
g69
I4
ssg70
Nsg63
(lp4142
g56
(g72
g58
NtRp4143
(dp4144
g61
(dp4145
sg70
g4139
sg63
(lp4146
g56
(g77
g58
NtRp4147
(dp4148
g61
(dp4149
sg70
g4143
sg63
(lp4150
g56
(g57
g58
NtRp4151
(dp4152
g61
(dp4153
g69
I4
ssg70
g4147
sg63
(lp4154
g56
(g65
g58
NtRp4155
(dp4156
g61
(dp4157
g69
I3
ssg70
Nsg63
(lp4158
g56
(g72
g58
NtRp4159
(dp4160
g61
(dp4161
sg70
g4155
sg63
(lp4162
g56
(g77
g58
NtRp4163
(dp4164
g61
(dp4165
sg70
g4159
sg63
(lp4166
g56
(g57
g58
NtRp4167
(dp4168
g61
(dp4169
g69
I3
ssg70
g4163
sg63
(lp4170
cgluon.languages
lazyT_unpickle
p4171
(S't\x05\x00\x00\x00Index'
tRp4172
asbasbasbag56
(g72
g58
NtRp4173
(dp4174
g61
(dp4175
sg70
g4155
sg63
(lp4176
g56
(g77
g58
NtRp4177
(dp4178
g61
(dp4179
sg70
g4173
sg63
(lp4180
g56
(g57
g58
NtRp4181
(dp4182
g61
(dp4183
g69
I3
ssg70
g4177
sg63
(lp4184
g99
asbasbasbag56
(g72
g58
NtRp4185
(dp4186
g61
(dp4187
sg70
g4155
sg63
(lp4188
g56
(g77
g58
NtRp4189
(dp4190
g61
(dp4191
sg70
g4185
sg63
(lp4192
g56
(g57
g58
NtRp4193
(dp4194
g61
(dp4195
g69
I3
ssg70
g4189
sg63
(lp4196
S'/grades/default/index'
p4197
asbasbasbag56
(g72
g58
NtRp4198
(dp4199
g61
(dp4200
sg70
g4155
sg63
(lp4201
g56
(g77
g58
NtRp4202
(dp4203
g61
(dp4204
sg70
g4198
sg63
(lp4205
g56
(g57
g58
NtRp4206
(dp4207
g61
(dp4208
g69
I3
ssg70
g4202
sg63
(lp4209
g56
(g65
g58
NtRp4210
(dp4211
g61
(dp4212
g69
I2
ssg70
Nsg63
(lp4213
sbasbasbasbasbasbasbasbag56
(g72
g58
NtRp4214
(dp4215
g61
(dp4216
sg70
g4139
sg63
(lp4217
g56
(g77
g58
NtRp4218
(dp4219
g61
(dp4220
sg70
g4214
sg63
(lp4221
g56
(g57
g58
NtRp4222
(dp4223
g61
(dp4224
g69
I4
ssg70
g4218
sg63
(lp4225
g56
(g65
g58
NtRp4226
(dp4227
g61
(dp4228
g69
I3
ssg70
Nsg63
(lp4229
g56
(g72
g58
NtRp4230
(dp4231
g61
(dp4232
sg70
g4226
sg63
(lp4233
g56
(g77
g58
NtRp4234
(dp4235
g61
(dp4236
sg70
g4230
sg63
(lp4237
g56
(g57
g58
NtRp4238
(dp4239
g61
(dp4240
g69
I3
ssg70
g4234
sg63
(lp4241
g4171
(S't\x06\x00\x00\x00Grades'
tRp4242
asbasbasbag56
(g72
g58
NtRp4243
(dp4244
g61
(dp4245
sg70
g4226
sg63
(lp4246
g56
(g77
g58
NtRp4247
(dp4248
g61
(dp4249
sg70
g4243
sg63
(lp4250
g56
(g57
g58
NtRp4251
(dp4252
g61
(dp4253
g69
I3
ssg70
g4247
sg63
(lp4254
g99
asbasbasbag56
(g72
g58
NtRp4255
(dp4256
g61
(dp4257
sg70
g4226
sg63
(lp4258
g56
(g77
g58
NtRp4259
(dp4260
g61
(dp4261
sg70
g4255
sg63
(lp4262
g56
(g57
g58
NtRp4263
(dp4264
g61
(dp4265
g69
I3
ssg70
g4259
sg63
(lp4266
S'/grades/default/grades_manage'
p4267
asbasbasbag56
(g72
g58
NtRp4268
(dp4269
g61
(dp4270
sg70
g4226
sg63
(lp4271
g56
(g77
g58
NtRp4272
(dp4273
g61
(dp4274
sg70
g4268
sg63
(lp4275
g56
(g57
g58
NtRp4276
(dp4277
g61
(dp4278
g69
I3
ssg70
g4272
sg63
(lp4279
g56
(g65
g58
NtRp4280
(dp4281
g61
(dp4282
g69
I2
ssg70
Nsg63
(lp4283
sbasbasbasbasbasbasbasbag56
(g72
g58
NtRp4284
(dp4285
g61
(dp4286
sg70
g4139
sg63
(lp4287
g56
(g77
g58
NtRp4288
(dp4289
g61
(dp4290
sg70
g4284
sg63
(lp4291
g56
(g57
g58
NtRp4292
(dp4293
g61
(dp4294
g69
I4
ssg70
g4288
sg63
(lp4295
g56
(g65
g58
NtRp4296
(dp4297
g61
(dp4298
g69
I3
ssg70
Nsg63
(lp4299
g56
(g72
g58
NtRp4300
(dp4301
g61
(dp4302
sg70
g4296
sg63
(lp4303
g56
(g77
g58
NtRp4304
(dp4305
g61
(dp4306
sg70
g4300
sg63
(lp4307
g56
(g57
g58
NtRp4308
(dp4309
g61
(dp4310
g69
I3
ssg70
g4304
sg63
(lp4311
g4171
(S't\x07\x00\x00\x00Classes'
tRp4312
asbasbasbag56
(g72
g58
NtRp4313
(dp4314
g61
(dp4315
sg70
g4296
sg63
(lp4316
g56
(g77
g58
NtRp4317
(dp4318
g61
(dp4319
sg70
g4313
sg63
(lp4320
g56
(g57
g58
NtRp4321
(dp4322
g61
(dp4323
g69
I3
ssg70
g4317
sg63
(lp4324
g99
asbasbasbag56
(g72
g58
NtRp4325
(dp4326
g61
(dp4327
sg70
g4296
sg63
(lp4328
g56
(g77
g58
NtRp4329
(dp4330
g61
(dp4331
sg70
g4325
sg63
(lp4332
g56
(g57
g58
NtRp4333
(dp4334
g61
(dp4335
g69
I3
ssg70
g4329
sg63
(lp4336
S'/grades/default/classes_manage'
p4337
asbasbasbag56
(g72
g58
NtRp4338
(dp4339
g61
(dp4340
sg70
g4296
sg63
(lp4341
g56
(g77
g58
NtRp4342
(dp4343
g61
(dp4344
sg70
g4338
sg63
(lp4345
g56
(g57
g58
NtRp4346
(dp4347
g61
(dp4348
g69
I3
ssg70
g4342
sg63
(lp4349
g56
(g65
g58
NtRp4350
(dp4351
g61
(dp4352
g69
I2
ssg70
Nsg63
(lp4353
sbasbasbasbasbasbasbasbasbasbasbasbag56
(g72
g58
NtRp4354
(dp4355
g61
(dp4356
sg70
g3562
sg63
(lp4357
g56
(g77
g58
NtRp4358
(dp4359
g61
(dp4360
g81
g82
ssg70
g4354
sg63
(lp4361
S'meta'
p4362
asbag56
(g77
g58
NtRp4363
(dp4364
g61
(dp4365
g88
g89
ssg70
g4354
sg63
(lp4366
S':'
asbag56
(g77
g58
NtRp4367
(dp4368
g61
(dp4369
sg70
g4354
sg63
(lp4370
g56
(g57
g58
NtRp4371
(dp4372
g61
(dp4373
g69
I5
ssg70
g4367
sg63
(lp4374
g56
(g65
g58
NtRp4375
(dp4376
g61
(dp4377
g69
I4
ssg70
Nsg63
(lp4378
g56
(g72
g58
NtRp4379
(dp4380
g61
(dp4381
sg70
g4375
sg63
(lp4382
g56
(g77
g58
NtRp4383
(dp4384
g61
(dp4385
g81
g82
ssg70
g4379
sg63
(lp4386
S'author'
p4387
asbag56
(g77
g58
NtRp4388
(dp4389
g61
(dp4390
g88
g89
ssg70
g4379
sg63
(lp4391
S':'
asbag56
(g77
g58
NtRp4392
(dp4393
g61
(dp4394
sg70
g4379
sg63
(lp4395
g56
(g57
g58
NtRp4396
(dp4397
g61
(dp4398
g69
I4
ssg70
g4392
sg63
(lp4399
S'Ian W. Scott <scottianw@gmail.com>'
p4400
asbasbasbag56
(g72
g58
NtRp4401
(dp4402
g61
(dp4403
sg70
g4375
sg63
(lp4404
g56
(g77
g58
NtRp4405
(dp4406
g61
(dp4407
g81
g82
ssg70
g4401
sg63
(lp4408
S'description'
p4409
asbag56
(g77
g58
NtRp4410
(dp4411
g61
(dp4412
g88
g89
ssg70
g4401
sg63
(lp4413
S':'
asbag56
(g77
g58
NtRp4414
(dp4415
g61
(dp4416
sg70
g4401
sg63
(lp4417
g56
(g57
g58
NtRp4418
(dp4419
g61
(dp4420
g69
I4
ssg70
g4414
sg63
(lp4421
S''
asbasbasbag56
(g72
g58
NtRp4422
(dp4423
g61
(dp4424
sg70
g4375
sg63
(lp4425
g56
(g77
g58
NtRp4426
(dp4427
g61
(dp4428
g81
g82
ssg70
g4422
sg63
(lp4429
S'keywords'
p4430
asbag56
(g77
g58
NtRp4431
(dp4432
g61
(dp4433
g88
g89
ssg70
g4422
sg63
(lp4434
S':'
asbag56
(g77
g58
NtRp4435
(dp4436
g61
(dp4437
sg70
g4422
sg63
(lp4438
g56
(g57
g58
NtRp4439
(dp4440
g61
(dp4441
g69
I4
ssg70
g4435
sg63
(lp4442
S''
asbasbasbasbasbasbasbag56
(g72
g58
NtRp4443
(dp4444
g61
(dp4445
sg70
g3562
sg63
(lp4446
g56
(g77
g58
NtRp4447
(dp4448
g61
(dp4449
g81
g82
ssg70
g4443
sg63
(lp4450
S'postprocessing'
p4451
asbag56
(g77
g58
NtRp4452
(dp4453
g61
(dp4454
g88
g89
ssg70
g4443
sg63
(lp4455
S':'
asbag56
(g77
g58
NtRp4456
(dp4457
g61
(dp4458
sg70
g4443
sg63
(lp4459
g56
(g57
g58
NtRp4460
(dp4461
g61
(dp4462
g69
I5
ssg70
g4456
sg63
(lp4463
g56
(g65
g58
NtRp4464
(dp4465
g61
(dp4466
g69
I4
ssg70
Nsg63
(lp4467
sbasbasbasbag56
(g72
g58
NtRp4468
(dp4469
g61
(dp4470
sg70
g3562
sg63
(lp4471
g56
(g77
g58
NtRp4472
(dp4473
g61
(dp4474
g81
g82
ssg70
g4468
sg63
(lp4475
S'session_file'
p4476
asbag56
(g77
g58
NtRp4477
(dp4478
g61
(dp4479
g88
g89
ssg70
g4468
sg63
(lp4480
S':'
asbag56
(g77
g58
NtRp4481
(dp4482
g61
(dp4483
sg70
g4468
sg63
(lp4484
g56
(g57
g58
NtRp4485
(dp4486
g61
(dp4487
g69
I5
ssg70
g4481
sg63
(lp4488
S"<open file '/home/ian/web2py/applications/grades/sessions/127.0.0.1-61c0ea3f-8797-4aff-bb5b-97a734e7ddbc', mode 'rb+' at 0x2892660>"
p4489
asbasbasbag56
(g72
g58
NtRp4490
(dp4491
g61
(dp4492
sg70
g3562
sg63
(lp4493
g56
(g77
g58
NtRp4494
(dp4495
g61
(dp4496
g81
g82
ssg70
g4490
sg63
(lp4497
S'session_filename'
p4498
asbag56
(g77
g58
NtRp4499
(dp4500
g61
(dp4501
g88
g89
ssg70
g4490
sg63
(lp4502
S':'
asbag56
(g77
g58
NtRp4503
(dp4504
g61
(dp4505
sg70
g4490
sg63
(lp4506
g56
(g57
g58
NtRp4507
(dp4508
g61
(dp4509
g69
I5
ssg70
g4503
sg63
(lp4510
S'/home/ian/web2py/applications/grades/sessions/127.0.0.1-61c0ea3f-8797-4aff-bb5b-97a734e7ddbc'
p4511
asbasbasbag56
(g72
g58
NtRp4512
(dp4513
g61
(dp4514
sg70
g3562
sg63
(lp4515
g56
(g77
g58
NtRp4516
(dp4517
g61
(dp4518
g81
g82
ssg70
g4512
sg63
(lp4519
S'session_id'
p4520
asbag56
(g77
g58
NtRp4521
(dp4522
g61
(dp4523
g88
g89
ssg70
g4512
sg63
(lp4524
S':'
asbag56
(g77
g58
NtRp4525
(dp4526
g61
(dp4527
sg70
g4512
sg63
(lp4528
g56
(g57
g58
NtRp4529
(dp4530
g61
(dp4531
g69
I5
ssg70
g4525
sg63
(lp4532
S'127.0.0.1-61c0ea3f-8797-4aff-bb5b-97a734e7ddbc'
p4533
asbasbasbag56
(g72
g58
NtRp4534
(dp4535
g61
(dp4536
sg70
g3562
sg63
(lp4537
g56
(g77
g58
NtRp4538
(dp4539
g61
(dp4540
g81
g82
ssg70
g4534
sg63
(lp4541
S'session_id_name'
p4542
asbag56
(g77
g58
NtRp4543
(dp4544
g61
(dp4545
g88
g89
ssg70
g4534
sg63
(lp4546
S':'
asbag56
(g77
g58
NtRp4547
(dp4548
g61
(dp4549
sg70
g4534
sg63
(lp4550
g56
(g57
g58
NtRp4551
(dp4552
g61
(dp4553
g69
I5
ssg70
g4547
sg63
(lp4554
g3619
asbasbasbag56
(g72
g58
NtRp4555
(dp4556
g61
(dp4557
sg70
g3562
sg63
(lp4558
g56
(g77
g58
NtRp4559
(dp4560
g61
(dp4561
g81
g82
ssg70
g4555
sg63
(lp4562
S'session_locked'
p4563
asbag56
(g77
g58
NtRp4564
(dp4565
g61
(dp4566
g88
g89
ssg70
g4555
sg63
(lp4567
S':'
asbag56
(g77
g58
NtRp4568
(dp4569
g61
(dp4570
sg70
g4555
sg63
(lp4571
g56
(g57
g58
NtRp4572
(dp4573
g61
(dp4574
g69
I5
ssg70
g4568
sg63
(lp4575
g1854
asbasbasbag56
(g72
g58
NtRp4576
(dp4577
g61
(dp4578
sg70
g3562
sg63
(lp4579
g56
(g77
g58
NtRp4580
(dp4581
g61
(dp4582
g81
g82
ssg70
g4576
sg63
(lp4583
S'session_new'
p4584
asbag56
(g77
g58
NtRp4585
(dp4586
g61
(dp4587
g88
g89
ssg70
g4576
sg63
(lp4588
S':'
asbag56
(g77
g58
NtRp4589
(dp4590
g61
(dp4591
sg70
g4576
sg63
(lp4592
g56
(g57
g58
NtRp4593
(dp4594
g61
(dp4595
g69
I5
ssg70
g4589
sg63
(lp4596
g99
asbasbasbag56
(g72
g58
NtRp4597
(dp4598
g61
(dp4599
sg70
g3562
sg63
(lp4600
g56
(g77
g58
NtRp4601
(dp4602
g61
(dp4603
g81
g82
ssg70
g4597
sg63
(lp4604
S'status'
p4605
asbag56
(g77
g58
NtRp4606
(dp4607
g61
(dp4608
g88
g89
ssg70
g4597
sg63
(lp4609
S':'
asbag56
(g77
g58
NtRp4610
(dp4611
g61
(dp4612
sg70
g4597
sg63
(lp4613
g56
(g57
g58
NtRp4614
(dp4615
g61
(dp4616
g69
I5
ssg70
g4610
sg63
(lp4617
S'200'
p4618
asbasbasbag56
(g72
g58
NtRp4619
(dp4620
g61
(dp4621
sg70
g3562
sg63
(lp4622
g56
(g77
g58
NtRp4623
(dp4624
g61
(dp4625
g81
g82
ssg70
g4619
sg63
(lp4626
S'subtitle'
p4627
asbag56
(g77
g58
NtRp4628
(dp4629
g61
(dp4630
g88
g89
ssg70
g4619
sg63
(lp4631
S':'
asbag56
(g77
g58
NtRp4632
(dp4633
g61
(dp4634
sg70
g4619
sg63
(lp4635
g56
(g57
g58
NtRp4636
(dp4637
g61
(dp4638
g69
I5
ssg70
g4632
sg63
(lp4639
S'a platform for easy submission of peer grades'
p4640
asbasbasbag56
(g72
g58
NtRp4641
(dp4642
g61
(dp4643
sg70
g3562
sg63
(lp4644
g56
(g77
g58
NtRp4645
(dp4646
g61
(dp4647
g81
g82
ssg70
g4641
sg63
(lp4648
S'title'
p4649
asbag56
(g77
g58
NtRp4650
(dp4651
g61
(dp4652
g88
g89
ssg70
g4641
sg63
(lp4653
S':'
asbag56
(g77
g58
NtRp4654
(dp4655
g61
(dp4656
sg70
g4641
sg63
(lp4657
g56
(g57
g58
NtRp4658
(dp4659
g61
(dp4660
g69
I5
ssg70
g4654
sg63
(lp4661
S'Grades'
p4662
asbasbasbag56
(g72
g58
NtRp4663
(dp4664
g61
(dp4665
sg70
g3562
sg63
(lp4666
g56
(g77
g58
NtRp4667
(dp4668
g61
(dp4669
g81
g82
ssg70
g4663
sg63
(lp4670
g2519
asbag56
(g77
g58
NtRp4671
(dp4672
g61
(dp4673
g88
g89
ssg70
g4663
sg63
(lp4674
S':'
asbag56
(g77
g58
NtRp4675
(dp4676
g61
(dp4677
sg70
g4663
sg63
(lp4678
g56
(g57
g58
NtRp4679
(dp4680
g61
(dp4681
g69
I5
ssg70
g4675
sg63
(lp4682
g2532
asbasbasbag56
(g72
g58
NtRp4683
(dp4684
g61
(dp4685
sg70
g3562
sg63
(lp4686
g56
(g77
g58
NtRp4687
(dp4688
g61
(dp4689
g81
g82
ssg70
g4683
sg63
(lp4690
S'view'
p4691
asbag56
(g77
g58
NtRp4692
(dp4693
g61
(dp4694
g88
g89
ssg70
g4683
sg63
(lp4695
S':'
asbag56
(g77
g58
NtRp4696
(dp4697
g61
(dp4698
sg70
g4683
sg63
(lp4699
g56
(g57
g58
NtRp4700
(dp4701
g61
(dp4702
g69
I5
ssg70
g4696
sg63
(lp4703
S'default/grades_report.html'
p4704
asbasbasbasbasbsS'locals'
p4705
(dp4706
S'Service'
p4707
S"<class 'gluon.tools.Service'>"
p4708
sS'OBJECT'
p4709
S"<class 'gluon.html.OBJECT'>"
p4710
sS'SQLDB'
p4711
S"<class 'gluon.dal.DAL'>"
p4712
sS'grades'
p4713
S"{1: {'the_date': [3.2]}}"
p4714
sg3234
S"<Storage {'debug': '15', '_auth_next': '/grades/...\\xcdAr\\xe5\\x1f\\x1d\\xcd\\xde\\xa3\\x14Age\\xfdw\\xbf'}>"
p4715
sS'LINK'
p4716
S"<class 'gluon.html.LINK'>"
p4717
sS'BR'
p4718
S"<class 'gluon.html.BR'>"
p4719
sS'local_import'
p4720
S'<function <lambda>>'
p4721
sS'OPTGROUP'
p4722
S"<class 'gluon.html.OPTGROUP'>"
p4723
sS'PRE'
p4724
S"<class 'gluon.html.PRE'>"
p4725
sS'IS_INT_IN_RANGE'
p4726
S"<class 'gluon.validators.IS_INT_IN_RANGE'>"
p4727
sS'left_sidebar_enabled'
p4728
g99
sS'IS_LOWER'
p4729
S"<class 'gluon.validators.IS_LOWER'>"
p4730
sS'IS_STRONG'
p4731
S"<class 'gluon.validators.IS_STRONG'>"
p4732
sS'Recaptcha'
p4733
S"<class 'gluon.tools.Recaptcha'>"
p4734
sS'cache'
p4735
S'<gluon.cache.Cache object>'
p4736
sS'IS_IN_DB'
p4737
S"<class 'gluon.validators.IS_IN_DB'>"
p4738
sS'TAG'
p4739
S'<gluon.html.__TAG__ object>'
p4740
sS'SQLField'
p4741
S"<class 'gluon.dal.Field'>"
p4742
sS'mail'
p4743
S'<gluon.tools.Mail object>'
p4744
sS'BODY'
p4745
S"<class 'gluon.html.BODY'>"
p4746
sS'IS_DATE_IN_RANGE'
p4747
S"<class 'gluon.validators.IS_DATE_IN_RANGE'>"
p4748
sS'TH'
p4749
S"<class 'gluon.html.TH'>"
p4750
sS'URL'
p4751
S'<function URL>'
p4752
sS'__file__'
p4753
S"'/home/ian/web2py/applications/grades/views/default/grades_report.html'"
p4754
sS'db'
p4755
S"<DAL {'auth_event': <Table {'origin': <gluon.dal..., 'id': <gluon.dal.Field object at 0x78d65d0>}>}>"
p4756
sS'auth'
p4757
S'<gluon.tools.Auth object>'
p4758
sS'P'
S"<class 'gluon.html.P'>"
p4759
sS'TFOOT'
p4760
S"<class 'gluon.html.TFOOT'>"
p4761
sS'XHTML'
p4762
S"<class 'gluon.html.XHTML'>"
p4763
sS'ON'
p4764
g1854
sS'OL'
p4765
S"<class 'gluon.html.OL'>"
p4766
sS'TEXTAREA'
p4767
S"<class 'gluon.html.TEXTAREA'>"
p4768
sS'settings'
p4769
S"<Storage {'layout_theme': 'Default', 'subtitle':...l_server': 'localhost', 'login_method': 'local'}>"
p4770
sS'MENU'
p4771
S"<class 'gluon.html.MENU'>"
p4772
sS'IS_IMAGE'
p4773
S"<class 'gluon.validators.IS_IMAGE'>"
p4774
sS'LOAD'
p4775
S'<gluon.compileapp.LoadFactory object>'
p4776
sS'CODE'
p4777
S"<class 'gluon.html.CODE'>"
p4778
sS'HTTP'
p4779
S"<class 'gluon.http.HTTP'>"
p4780
sS'HR'
p4781
S"<class 'gluon.html.HR'>"
p4782
sS'IS_DATETIME'
p4783
S"<class 'gluon.validators.IS_DATETIME'>"
p4784
sS'Storage'
p4785
S"<class 'gluon.storage.Storage'>"
p4786
sS'HEAD'
p4787
S"<class 'gluon.html.HEAD'>"
p4788
sS'LABEL'
p4789
S"<class 'gluon.html.LABEL'>"
p4790
sS'META'
p4791
S"<class 'gluon.html.META'>"
p4792
sS'plugins'
p4793
S'<gluon.tools.PluginManager object>'
p4794
sS'SELECT'
p4795
S"<class 'gluon.html.SELECT'>"
p4796
sS'use_janrain'
p4797
S'<function use_janrain>'
p4798
sS'CENTER'
p4799
S"<class 'gluon.html.CENTER'>"
p4800
sS'prettydate'
p4801
S'<function prettydate>'
p4802
sS'Crud'
p4803
S"<class 'gluon.tools.Crud'>"
p4804
sS'Auth'
p4805
S"<class 'gluon.tools.Auth'>"
p4806
sS'current'
p4807
S'<thread._local object>'
p4808
sS'IS_EQUAL_TO'
p4809
S"<class 'gluon.validators.IS_EQUAL_TO'>"
p4810
sS'HTML'
p4811
S"<class 'gluon.html.HTML'>"
p4812
sS'SQLFORM'
p4813
S"<class 'gluon.sqlhtml.SQLFORM'>"
p4814
sS'EM'
p4815
S"<class 'gluon.html.EM'>"
p4816
sS'redirect'
p4817
S'<function redirect>'
p4818
sS'FIELDSET'
p4819
S"<class 'gluon.html.FIELDSET'>"
p4820
sS'__builtins__'
p4821
S"{'ArithmeticError': <type 'exceptions.ArithmeticError'>, 'AssertionError': <type 'exceptions.AssertionError'>, 'AttributeError': <type 'exceptions.AttributeError'>, 'BaseException': <type 'exceptions.BaseException'>, 'BufferError': <type 'exceptions.BufferError'>, 'BytesWarning': <type 'exceptions.BytesWarning'>, 'DeprecationWarning': <type 'exceptions.DeprecationWarning'>, 'EOFError': <type 'exceptions.EOFError'>, 'Ellipsis': Ellipsis, 'EnvironmentError': <type 'exceptions.EnvironmentError'>, ...}"
p4822
sS'embed64'
p4823
S'<function embed64>'
p4824
sS'IS_LIST_OF'
p4825
S"<class 'gluon.validators.IS_LIST_OF'>"
p4826
sS'INPUT'
p4827
S"<class 'gluon.html.INPUT'>"
p4828
sS'EMBED'
p4829
S"<class 'gluon.html.EMBED'>"
p4830
sS'FORM'
p4831
S"<class 'gluon.html.FORM'>"
p4832
sS'width_content'
p4833
S"'100%'"
p4834
sS'H2'
p4835
S"<class 'gluon.html.H2'>"
p4836
sS'H3'
p4837
S"<class 'gluon.html.H3'>"
p4838
sS'BUTTON'
p4839
S"<class 'gluon.html.BUTTON'>"
p4840
sS'H1'
p4841
S"<class 'gluon.html.H1'>"
p4842
sS'H6'
p4843
S"<class 'gluon.html.H6'>"
p4844
sS'H4'
p4845
S"<class 'gluon.html.H4'>"
p4846
sS'H5'
p4847
S"<class 'gluon.html.H5'>"
p4848
sS'UL'
p4849
S"<class 'gluon.html.UL'>"
p4850
sS'IS_UPPER'
p4851
S"<class 'gluon.validators.IS_UPPER'>"
p4852
sS'xmlescape'
p4853
S'<function xmlescape>'
p4854
sS'IS_TIME'
p4855
S"<class 'gluon.validators.IS_TIME'>"
p4856
sS'OPTION'
p4857
S"<class 'gluon.html.OPTION'>"
p4858
sS'TITLE'
p4859
S"<class 'gluon.html.TITLE'>"
p4860
sS'CRYPT'
p4861
S"<class 'gluon.validators.CRYPT'>"
p4862
sS'IS_EMPTY_OR'
p4863
S"<class 'gluon.validators.IS_EMPTY_OR'>"
p4864
sS'MARKMIN'
p4865
S"<class 'gluon.html.MARKMIN'>"
p4866
sS'COL'
p4867
S"<class 'gluon.html.COL'>"
p4868
sS'service'
p4869
S'<gluon.tools.Service object>'
p4870
sS'SCRIPT'
p4871
S"<class 'gluon.html.SCRIPT'>"
p4872
sS'TABLE'
p4873
S"<class 'gluon.html.TABLE'>"
p4874
sS'IS_IPV4'
p4875
S"<class 'gluon.validators.IS_IPV4'>"
p4876
sS'IS_LENGTH'
p4877
S"<class 'gluon.validators.IS_LENGTH'>"
p4878
sS'XML'
p4879
S"<class 'gluon.html.XML'>"
p4880
sS'B'
S"<class 'gluon.html.B'>"
p4881
sS'IMG'
p4882
S"<class 'gluon.html.IMG'>"
p4883
sS'SQLTABLE'
p4884
S"<class 'gluon.sqlhtml.SQLTABLE'>"
p4885
sS'IS_MATCH'
p4886
S"<class 'gluon.validators.IS_MATCH'>"
p4887
sS'IS_ALPHANUMERIC'
p4888
S"<class 'gluon.validators.IS_ALPHANUMERIC'>"
p4889
sS'SPAN'
p4890
S"<class 'gluon.html.SPAN'>"
p4891
sS'IS_SLUG'
p4892
S"<class 'gluon.validators.IS_SLUG'>"
p4893
sS'CLEANUP'
p4894
S"<class 'gluon.validators.CLEANUP'>"
p4895
sS'IS_DATE'
p4896
S"<class 'gluon.validators.IS_DATE'>"
p4897
sS'IS_EMAIL'
p4898
S"<class 'gluon.validators.IS_EMAIL'>"
p4899
sS'IS_NOT_EMPTY'
p4900
S"<class 'gluon.validators.IS_NOT_EMPTY'>"
p4901
sg55
S"<Storage {'body': <cStringIO.StringO object at 0..._vars': <Storage {}>, 'post_vars': <Storage {}>}>"
p4902
sS'BEAUTIFY'
p4903
S"<class 'gluon.html.BEAUTIFY'>"
p4904
sS'TBODY'
p4905
S"<class 'gluon.html.TBODY'>"
p4906
sS'CAT'
p4907
S"<class 'gluon.html.CAT'>"
p4908
sS'Field'
p4909
S"<class 'gluon.dal.Field'>"
p4910
sS'DIV'
p4911
S"<class 'gluon.html.DIV'>"
p4912
sS'LEGEND'
p4913
S"<class 'gluon.html.LEGEND'>"
p4914
sS'COLGROUP'
p4915
S"<class 'gluon.html.COLGROUP'>"
p4916
sS'DAL'
p4917
S"<class 'gluon.dal.DAL'>"
p4918
sS'TT'
p4919
S"<class 'gluon.html.TT'>"
p4920
sS'TR'
p4921
S"<class 'gluon.html.TR'>"
p4922
sS'LI'
p4923
S"<class 'gluon.html.LI'>"
p4924
sS'right_sidebar_enabled'
p4925
g99
sS'IFRAME'
p4926
S"<class 'gluon.html.IFRAME'>"
p4927
sS'TD'
p4928
S"<class 'gluon.html.TD'>"
p4929
sS'PluginManager'
p4930
S"<class 'gluon.tools.PluginManager'>"
p4931
sS'IS_URL'
p4932
S"<class 'gluon.validators.IS_URL'>"
p4933
sS'A'
S"<class 'gluon.html.A'>"
p4934
sS'STYLE'
p4935
S"<class 'gluon.html.STYLE'>"
p4936
sS'IS_DATETIME_IN_RANGE'
p4937
S"<class 'gluon.validators.IS_DATETIME_IN_RANGE'>"
p4938
sS'populate'
p4939
S'<function populate>'
p4940
sS'I'
S"<class 'gluon.html.I'>"
p4941
sS'crud'
p4942
S'<gluon.tools.Crud object>'
p4943
sS'right_sidebar_style'
p4944
S'\'style="display: none;"\''
p4945
sS'IS_NOT_IN_DB'
p4946
S"<class 'gluon.validators.IS_NOT_IN_DB'>"
p4947
sS'student'
p4948
S"'Kwok, Kam'"
p4949
sg3557
S"<Storage {'body': <cStringIO.StringO object at 0...x78f0938>, 'view': 'default/grades_report.html'}>"
p4950
sS'THEAD'
p4951
S"<class 'gluon.html.THEAD'>"
p4952
sS'IS_NULL_OR'
p4953
S"<class 'gluon.validators.IS_EMPTY_OR'>"
p4954
sS'left_sidebar_style'
p4955
S'\'style="display: none;"\''
p4956
sS'IS_FLOAT_IN_RANGE'
p4957
S"<class 'gluon.validators.IS_FLOAT_IN_RANGE'>"
p4958
sS'IS_EXPR'
p4959
S"<class 'gluon.validators.IS_EXPR'>"
p4960
sS'T'
S'<gluon.languages.translator object>'
p4961
sS'IS_IN_SET'
p4962
S"<class 'gluon.validators.IS_IN_SET'>"
p4963
sS'students'
p4964
S"{11: 'Scott, Ian', 12: 'Man, Jacquelyn', 13: 'Sequeira, Adrianne', 14: 'Johnston, Dianne', 15: 'Kwok, Kam', 16: 'Chen, Gary', 17: 'Tam, Derek', 18: 'ADHIKARY, RICHARD', 19: 'asamoah, david', 20: 'Seto, Michael', ...}"
p4965
sS'IS_UPLOAD_FILENAME'
p4966
S"<class 'gluon.validators.IS_UPLOAD_FILENAME'>"
p4967
sS'style_content'
p4968
S'\'style="width: 100%"\''
p4969
sS'IS_DECIMAL_IN_RANGE'
p4970
S"<class 'gluon.validators.IS_DECIMAL_IN_RANGE'>"
p4971
sssS'traceback'
p4972
S'Traceback (most recent call last):\n  File "/home/ian/web2py/gluon/restricted.py", line 194, in restricted\n    exec ccode in environment\n  File "/home/ian/web2py/applications/grades/views/default/grades_report.html", line 84, in <module>\nTypeError: cannot concatenate \'str\' and \'int\' objects\n'
p4973
s.