(dp1
S'output'
p2
S''
sS'layer'
p3
S'/home/ian/web2py/applications/grades/views/default/grades_report.load'
p4
sS'code'
p5
S'response.write(\'<h3>\', escape=False)\nresponse.write(student)\nresponse.write(\'</h3>\\n\\n<li>\', escape=False)\nresponse.write(c)\nresponse.write(\'</li>\\n\\n    <table>\\n    \', escape=False)\nfor l in courselist:\n    response.write(\'\\n        \', escape=False)\n    for k,v in l.items():\n        response.write(\'\\n            \', escape=False)\n        response.write(TR(TD(k), TD(v)))\n        response.write(\'\\n        \', escape=False)\n        pass\n    response.write(\'\\n    \', escape=False)\n    pass\nresponse.write(\'\\n    </table>\\n\\n\', escape=False)\nif request.args[0] > 0:\n    response.write(\'\\n\', escape=False)\n    response.write(A(\'previous student\', _href=URL(\'grades_report.load\', args=(int(request.args[0])-1)), _class="prevnav", cid=\'viewpane\'))\n    response.write(\'\\n\', escape=False)\n    pass\nresponse.write(\'\\n\\n\', escape=False)\nresponse.write(A(\'next student\', _href=URL(\'grades_report.load\', args=(int(request.args[0])+1)), _class="nextnav", cid=\'viewpane\'))'
p6
sS'snapshot'
p7
(dp8
S'exception'
p9
(dp10
S'__hash__'
p11
S"<method-wrapper '__hash__' of exceptions.NameError object>"
p12
sS'__setattr__'
p13
S"<method-wrapper '__setattr__' of exceptions.NameError object>"
p14
sS'__reduce_ex__'
p15
S'<built-in method __reduce_ex__ of exceptions.NameError object>'
p16
sS'__getslice__'
p17
S"<method-wrapper '__getslice__' of exceptions.NameError object>"
p18
sS'__getitem__'
p19
S"<method-wrapper '__getitem__' of exceptions.NameError object>"
p20
sS'__setstate__'
p21
S'<built-in method __setstate__ of exceptions.NameError object>'
p22
sS'args'
p23
S'("name \'c\' is not defined",)'
p24
sS'__reduce__'
p25
S'<built-in method __reduce__ of exceptions.NameError object>'
p26
sS'__str__'
p27
S"<method-wrapper '__str__' of exceptions.NameError object>"
p28
sS'__format__'
p29
S'<built-in method __format__ of exceptions.NameError object>'
p30
sS'__getattribute__'
p31
S"<method-wrapper '__getattribute__' of exceptions.NameError object>"
p32
sS'__class__'
p33
S"<type 'exceptions.NameError'>"
p34
sS'__unicode__'
p35
S'<built-in method __unicode__ of exceptions.NameError object>'
p36
sS'__delattr__'
p37
S"<method-wrapper '__delattr__' of exceptions.NameError object>"
p38
sS'__subclasshook__'
p39
S'<built-in method __subclasshook__ of type object>'
p40
sS'__repr__'
p41
S"<method-wrapper '__repr__' of exceptions.NameError object>"
p42
sS'__dict__'
p43
S'{}'
p44
sS'__sizeof__'
p45
S'<built-in method __sizeof__ of exceptions.NameError object>'
p46
sS'__doc__'
p47
S"'Name not found globally.'"
p48
sS'__init__'
p49
S"<method-wrapper '__init__' of exceptions.NameError object>"
p50
sS'__new__'
p51
S'<built-in method __new__ of type object>'
p52
ssS'evalue'
p53
S"name 'c' is not defined"
p54
sS'request'
p55
ccopy_reg
_reconstructor
p56
(cgluon.html
BEAUTIFY
p57
c__builtin__
object
p58
NtRp59
(dp60
S'attributes'
p61
(dp62
sS'components'
p63
(lp64
g56
(cgluon.html
TABLE
p65
g58
NtRp66
(dp67
g61
(dp68
S'level'
p69
I5
ssS'parent'
p70
Nsg63
(lp71
g56
(cgluon.html
TR
p72
g58
NtRp73
(dp74
g61
(dp75
sg70
g66
sg63
(lp76
g56
(cgluon.html
TD
p77
g58
NtRp78
(dp79
g61
(dp80
S'_style'
p81
S'font-weight:bold;'
p82
ssg70
g73
sg63
(lp83
S'ajax'
p84
asbag56
(g77
g58
NtRp85
(dp86
g61
(dp87
S'_valign'
p88
S'top'
p89
ssg70
g73
sg63
(lp90
S':'
asbag56
(g77
g58
NtRp91
(dp92
g61
(dp93
sg70
g73
sg63
(lp94
g56
(g57
g58
NtRp95
(dp96
g61
(dp97
g69
I5
ssg70
g91
sg63
(lp98
S'True'
p99
asbasbasbag56
(g72
g58
NtRp100
(dp101
g61
(dp102
sg70
g66
sg63
(lp103
g56
(g77
g58
NtRp104
(dp105
g61
(dp106
g81
g82
ssg70
g100
sg63
(lp107
S'application'
p108
asbag56
(g77
g58
NtRp109
(dp110
g61
(dp111
g88
g89
ssg70
g100
sg63
(lp112
S':'
asbag56
(g77
g58
NtRp113
(dp114
g61
(dp115
sg70
g100
sg63
(lp116
g56
(g57
g58
NtRp117
(dp118
g61
(dp119
g69
I5
ssg70
g113
sg63
(lp120
S'grades'
p121
asbasbasbag56
(g72
g58
NtRp122
(dp123
g61
(dp124
sg70
g66
sg63
(lp125
g56
(g77
g58
NtRp126
(dp127
g61
(dp128
g81
g82
ssg70
g122
sg63
(lp129
g23
asbag56
(g77
g58
NtRp130
(dp131
g61
(dp132
g88
g89
ssg70
g122
sg63
(lp133
S':'
asbag56
(g77
g58
NtRp134
(dp135
g61
(dp136
sg70
g122
sg63
(lp137
g56
(g57
g58
NtRp138
(dp139
g61
(dp140
g69
I5
ssg70
g134
sg63
(lp141
g56
(g65
g58
NtRp142
(dp143
g61
(dp144
g69
I4
ssg70
Nsg63
(lp145
g56
(g72
g58
NtRp146
(dp147
g61
(dp148
sg70
g142
sg63
(lp149
g56
(g77
g58
NtRp150
(dp151
g61
(dp152
sg70
g146
sg63
(lp153
g56
(g57
g58
NtRp154
(dp155
g61
(dp156
g69
I4
ssg70
g150
sg63
(lp157
S'11'
p158
asbasbasbasbasbasbasbag56
(g72
g58
NtRp159
(dp160
g61
(dp161
sg70
g66
sg63
(lp162
g56
(g77
g58
NtRp163
(dp164
g61
(dp165
g81
g82
ssg70
g159
sg63
(lp166
S'body'
p167
asbag56
(g77
g58
NtRp168
(dp169
g61
(dp170
g88
g89
ssg70
g159
sg63
(lp171
S':'
asbag56
(g77
g58
NtRp172
(dp173
g61
(dp174
sg70
g159
sg63
(lp175
g56
(g57
g58
NtRp176
(dp177
g61
(dp178
g69
I5
ssg70
g172
sg63
(lp179
S'<cStringIO.StringO object at 0x403ef80>'
p180
asbasbasbag56
(g72
g58
NtRp181
(dp182
g61
(dp183
sg70
g66
sg63
(lp184
g56
(g77
g58
NtRp185
(dp186
g61
(dp187
g81
g82
ssg70
g181
sg63
(lp188
S'cid'
p189
asbag56
(g77
g58
NtRp190
(dp191
g61
(dp192
g88
g89
ssg70
g181
sg63
(lp193
S':'
asbag56
(g77
g58
NtRp194
(dp195
g61
(dp196
sg70
g181
sg63
(lp197
g56
(g57
g58
NtRp198
(dp199
g61
(dp200
g69
I5
ssg70
g194
sg63
(lp201
S'viewpane'
p202
asbasbasbag56
(g72
g58
NtRp203
(dp204
g61
(dp205
sg70
g66
sg63
(lp206
g56
(g77
g58
NtRp207
(dp208
g61
(dp209
g81
g82
ssg70
g203
sg63
(lp210
S'client'
p211
asbag56
(g77
g58
NtRp212
(dp213
g61
(dp214
g88
g89
ssg70
g203
sg63
(lp215
S':'
asbag56
(g77
g58
NtRp216
(dp217
g61
(dp218
sg70
g203
sg63
(lp219
g56
(g57
g58
NtRp220
(dp221
g61
(dp222
g69
I5
ssg70
g216
sg63
(lp223
S'127.0.0.1'
p224
asbasbasbag56
(g72
g58
NtRp225
(dp226
g61
(dp227
sg70
g66
sg63
(lp228
g56
(g77
g58
NtRp229
(dp230
g61
(dp231
g81
g82
ssg70
g225
sg63
(lp232
S'controller'
p233
asbag56
(g77
g58
NtRp234
(dp235
g61
(dp236
g88
g89
ssg70
g225
sg63
(lp237
S':'
asbag56
(g77
g58
NtRp238
(dp239
g61
(dp240
sg70
g225
sg63
(lp241
g56
(g57
g58
NtRp242
(dp243
g61
(dp244
g69
I5
ssg70
g238
sg63
(lp245
S'default'
p246
asbasbasbag56
(g72
g58
NtRp247
(dp248
g61
(dp249
sg70
g66
sg63
(lp250
g56
(g77
g58
NtRp251
(dp252
g61
(dp253
g81
g82
ssg70
g247
sg63
(lp254
S'cookies'
p255
asbag56
(g77
g58
NtRp256
(dp257
g61
(dp258
g88
g89
ssg70
g247
sg63
(lp259
S':'
asbag56
(g77
g58
NtRp260
(dp261
g61
(dp262
sg70
g247
sg63
(lp263
g56
(g57
g58
NtRp264
(dp265
g61
(dp266
g69
I5
ssg70
g260
sg63
(lp267
g56
(g65
g58
NtRp268
(dp269
g61
(dp270
g69
I4
ssg70
Nsg63
(lp271
g56
(g72
g58
NtRp272
(dp273
g61
(dp274
sg70
g268
sg63
(lp275
g56
(g77
g58
NtRp276
(dp277
g61
(dp278
g81
g82
ssg70
g272
sg63
(lp279
S'session_id_admin'
p280
asbag56
(g77
g58
NtRp281
(dp282
g61
(dp283
g88
g89
ssg70
g272
sg63
(lp284
S':'
asbag56
(g77
g58
NtRp285
(dp286
g61
(dp287
sg70
g272
sg63
(lp288
g56
(g57
g58
NtRp289
(dp290
g61
(dp291
g69
I4
ssg70
g285
sg63
(lp292
g56
(g65
g58
NtRp293
(dp294
g61
(dp295
g69
I3
ssg70
Nsg63
(lp296
g56
(g72
g58
NtRp297
(dp298
g61
(dp299
sg70
g293
sg63
(lp300
g56
(g77
g58
NtRp301
(dp302
g61
(dp303
g81
g82
ssg70
g297
sg63
(lp304
S'comment'
p305
asbag56
(g77
g58
NtRp306
(dp307
g61
(dp308
g88
g89
ssg70
g297
sg63
(lp309
S':'
asbag56
(g77
g58
NtRp310
(dp311
g61
(dp312
sg70
g297
sg63
(lp313
g56
(g57
g58
NtRp314
(dp315
g61
(dp316
g69
I3
ssg70
g310
sg63
(lp317
S''
asbasbasbag56
(g72
g58
NtRp318
(dp319
g61
(dp320
sg70
g293
sg63
(lp321
g56
(g77
g58
NtRp322
(dp323
g61
(dp324
g81
g82
ssg70
g318
sg63
(lp325
S'domain'
p326
asbag56
(g77
g58
NtRp327
(dp328
g61
(dp329
g88
g89
ssg70
g318
sg63
(lp330
S':'
asbag56
(g77
g58
NtRp331
(dp332
g61
(dp333
sg70
g318
sg63
(lp334
g56
(g57
g58
NtRp335
(dp336
g61
(dp337
g69
I3
ssg70
g331
sg63
(lp338
S''
asbasbasbag56
(g72
g58
NtRp339
(dp340
g61
(dp341
sg70
g293
sg63
(lp342
g56
(g77
g58
NtRp343
(dp344
g61
(dp345
g81
g82
ssg70
g339
sg63
(lp346
S'expires'
p347
asbag56
(g77
g58
NtRp348
(dp349
g61
(dp350
g88
g89
ssg70
g339
sg63
(lp351
S':'
asbag56
(g77
g58
NtRp352
(dp353
g61
(dp354
sg70
g339
sg63
(lp355
g56
(g57
g58
NtRp356
(dp357
g61
(dp358
g69
I3
ssg70
g352
sg63
(lp359
S''
asbasbasbag56
(g72
g58
NtRp360
(dp361
g61
(dp362
sg70
g293
sg63
(lp363
g56
(g77
g58
NtRp364
(dp365
g61
(dp366
g81
g82
ssg70
g360
sg63
(lp367
S'httponly'
p368
asbag56
(g77
g58
NtRp369
(dp370
g61
(dp371
g88
g89
ssg70
g360
sg63
(lp372
S':'
asbag56
(g77
g58
NtRp373
(dp374
g61
(dp375
sg70
g360
sg63
(lp376
g56
(g57
g58
NtRp377
(dp378
g61
(dp379
g69
I3
ssg70
g373
sg63
(lp380
S''
asbasbasbag56
(g72
g58
NtRp381
(dp382
g61
(dp383
sg70
g293
sg63
(lp384
g56
(g77
g58
NtRp385
(dp386
g61
(dp387
g81
g82
ssg70
g381
sg63
(lp388
S'max-age'
p389
asbag56
(g77
g58
NtRp390
(dp391
g61
(dp392
g88
g89
ssg70
g381
sg63
(lp393
S':'
asbag56
(g77
g58
NtRp394
(dp395
g61
(dp396
sg70
g381
sg63
(lp397
g56
(g57
g58
NtRp398
(dp399
g61
(dp400
g69
I3
ssg70
g394
sg63
(lp401
S''
asbasbasbag56
(g72
g58
NtRp402
(dp403
g61
(dp404
sg70
g293
sg63
(lp405
g56
(g77
g58
NtRp406
(dp407
g61
(dp408
g81
g82
ssg70
g402
sg63
(lp409
S'path'
p410
asbag56
(g77
g58
NtRp411
(dp412
g61
(dp413
g88
g89
ssg70
g402
sg63
(lp414
S':'
asbag56
(g77
g58
NtRp415
(dp416
g61
(dp417
sg70
g402
sg63
(lp418
g56
(g57
g58
NtRp419
(dp420
g61
(dp421
g69
I3
ssg70
g415
sg63
(lp422
S''
asbasbasbag56
(g72
g58
NtRp423
(dp424
g61
(dp425
sg70
g293
sg63
(lp426
g56
(g77
g58
NtRp427
(dp428
g61
(dp429
g81
g82
ssg70
g423
sg63
(lp430
S'secure'
p431
asbag56
(g77
g58
NtRp432
(dp433
g61
(dp434
g88
g89
ssg70
g423
sg63
(lp435
S':'
asbag56
(g77
g58
NtRp436
(dp437
g61
(dp438
sg70
g423
sg63
(lp439
g56
(g57
g58
NtRp440
(dp441
g61
(dp442
g69
I3
ssg70
g436
sg63
(lp443
S''
asbasbasbag56
(g72
g58
NtRp444
(dp445
g61
(dp446
sg70
g293
sg63
(lp447
g56
(g77
g58
NtRp448
(dp449
g61
(dp450
g81
g82
ssg70
g444
sg63
(lp451
S'version'
p452
asbag56
(g77
g58
NtRp453
(dp454
g61
(dp455
g88
g89
ssg70
g444
sg63
(lp456
S':'
asbag56
(g77
g58
NtRp457
(dp458
g61
(dp459
sg70
g444
sg63
(lp460
g56
(g57
g58
NtRp461
(dp462
g61
(dp463
g69
I3
ssg70
g457
sg63
(lp464
S''
asbasbasbasbasbasbasbag56
(g72
g58
NtRp465
(dp466
g61
(dp467
sg70
g268
sg63
(lp468
g56
(g77
g58
NtRp469
(dp470
g61
(dp471
g81
g82
ssg70
g465
sg63
(lp472
S'session_id_grades'
p473
asbag56
(g77
g58
NtRp474
(dp475
g61
(dp476
g88
g89
ssg70
g465
sg63
(lp477
S':'
asbag56
(g77
g58
NtRp478
(dp479
g61
(dp480
sg70
g465
sg63
(lp481
g56
(g57
g58
NtRp482
(dp483
g61
(dp484
g69
I4
ssg70
g478
sg63
(lp485
g56
(g65
g58
NtRp486
(dp487
g61
(dp488
g69
I3
ssg70
Nsg63
(lp489
g56
(g72
g58
NtRp490
(dp491
g61
(dp492
sg70
g486
sg63
(lp493
g56
(g77
g58
NtRp494
(dp495
g61
(dp496
g81
g82
ssg70
g490
sg63
(lp497
g305
asbag56
(g77
g58
NtRp498
(dp499
g61
(dp500
g88
g89
ssg70
g490
sg63
(lp501
S':'
asbag56
(g77
g58
NtRp502
(dp503
g61
(dp504
sg70
g490
sg63
(lp505
g56
(g57
g58
NtRp506
(dp507
g61
(dp508
g69
I3
ssg70
g502
sg63
(lp509
S''
asbasbasbag56
(g72
g58
NtRp510
(dp511
g61
(dp512
sg70
g486
sg63
(lp513
g56
(g77
g58
NtRp514
(dp515
g61
(dp516
g81
g82
ssg70
g510
sg63
(lp517
g326
asbag56
(g77
g58
NtRp518
(dp519
g61
(dp520
g88
g89
ssg70
g510
sg63
(lp521
S':'
asbag56
(g77
g58
NtRp522
(dp523
g61
(dp524
sg70
g510
sg63
(lp525
g56
(g57
g58
NtRp526
(dp527
g61
(dp528
g69
I3
ssg70
g522
sg63
(lp529
S''
asbasbasbag56
(g72
g58
NtRp530
(dp531
g61
(dp532
sg70
g486
sg63
(lp533
g56
(g77
g58
NtRp534
(dp535
g61
(dp536
g81
g82
ssg70
g530
sg63
(lp537
g347
asbag56
(g77
g58
NtRp538
(dp539
g61
(dp540
g88
g89
ssg70
g530
sg63
(lp541
S':'
asbag56
(g77
g58
NtRp542
(dp543
g61
(dp544
sg70
g530
sg63
(lp545
g56
(g57
g58
NtRp546
(dp547
g61
(dp548
g69
I3
ssg70
g542
sg63
(lp549
S''
asbasbasbag56
(g72
g58
NtRp550
(dp551
g61
(dp552
sg70
g486
sg63
(lp553
g56
(g77
g58
NtRp554
(dp555
g61
(dp556
g81
g82
ssg70
g550
sg63
(lp557
g368
asbag56
(g77
g58
NtRp558
(dp559
g61
(dp560
g88
g89
ssg70
g550
sg63
(lp561
S':'
asbag56
(g77
g58
NtRp562
(dp563
g61
(dp564
sg70
g550
sg63
(lp565
g56
(g57
g58
NtRp566
(dp567
g61
(dp568
g69
I3
ssg70
g562
sg63
(lp569
S''
asbasbasbag56
(g72
g58
NtRp570
(dp571
g61
(dp572
sg70
g486
sg63
(lp573
g56
(g77
g58
NtRp574
(dp575
g61
(dp576
g81
g82
ssg70
g570
sg63
(lp577
g389
asbag56
(g77
g58
NtRp578
(dp579
g61
(dp580
g88
g89
ssg70
g570
sg63
(lp581
S':'
asbag56
(g77
g58
NtRp582
(dp583
g61
(dp584
sg70
g570
sg63
(lp585
g56
(g57
g58
NtRp586
(dp587
g61
(dp588
g69
I3
ssg70
g582
sg63
(lp589
S''
asbasbasbag56
(g72
g58
NtRp590
(dp591
g61
(dp592
sg70
g486
sg63
(lp593
g56
(g77
g58
NtRp594
(dp595
g61
(dp596
g81
g82
ssg70
g590
sg63
(lp597
g410
asbag56
(g77
g58
NtRp598
(dp599
g61
(dp600
g88
g89
ssg70
g590
sg63
(lp601
S':'
asbag56
(g77
g58
NtRp602
(dp603
g61
(dp604
sg70
g590
sg63
(lp605
g56
(g57
g58
NtRp606
(dp607
g61
(dp608
g69
I3
ssg70
g602
sg63
(lp609
S''
asbasbasbag56
(g72
g58
NtRp610
(dp611
g61
(dp612
sg70
g486
sg63
(lp613
g56
(g77
g58
NtRp614
(dp615
g61
(dp616
g81
g82
ssg70
g610
sg63
(lp617
g431
asbag56
(g77
g58
NtRp618
(dp619
g61
(dp620
g88
g89
ssg70
g610
sg63
(lp621
S':'
asbag56
(g77
g58
NtRp622
(dp623
g61
(dp624
sg70
g610
sg63
(lp625
g56
(g57
g58
NtRp626
(dp627
g61
(dp628
g69
I3
ssg70
g622
sg63
(lp629
S''
asbasbasbag56
(g72
g58
NtRp630
(dp631
g61
(dp632
sg70
g486
sg63
(lp633
g56
(g77
g58
NtRp634
(dp635
g61
(dp636
g81
g82
ssg70
g630
sg63
(lp637
g452
asbag56
(g77
g58
NtRp638
(dp639
g61
(dp640
g88
g89
ssg70
g630
sg63
(lp641
S':'
asbag56
(g77
g58
NtRp642
(dp643
g61
(dp644
sg70
g630
sg63
(lp645
g56
(g57
g58
NtRp646
(dp647
g61
(dp648
g69
I3
ssg70
g642
sg63
(lp649
S''
asbasbasbasbasbasbasbag56
(g72
g58
NtRp650
(dp651
g61
(dp652
sg70
g268
sg63
(lp653
g56
(g77
g58
NtRp654
(dp655
g61
(dp656
g81
g82
ssg70
g650
sg63
(lp657
S'session_id_paideia'
p658
asbag56
(g77
g58
NtRp659
(dp660
g61
(dp661
g88
g89
ssg70
g650
sg63
(lp662
S':'
asbag56
(g77
g58
NtRp663
(dp664
g61
(dp665
sg70
g650
sg63
(lp666
g56
(g57
g58
NtRp667
(dp668
g61
(dp669
g69
I4
ssg70
g663
sg63
(lp670
g56
(g65
g58
NtRp671
(dp672
g61
(dp673
g69
I3
ssg70
Nsg63
(lp674
g56
(g72
g58
NtRp675
(dp676
g61
(dp677
sg70
g671
sg63
(lp678
g56
(g77
g58
NtRp679
(dp680
g61
(dp681
g81
g82
ssg70
g675
sg63
(lp682
g305
asbag56
(g77
g58
NtRp683
(dp684
g61
(dp685
g88
g89
ssg70
g675
sg63
(lp686
S':'
asbag56
(g77
g58
NtRp687
(dp688
g61
(dp689
sg70
g675
sg63
(lp690
g56
(g57
g58
NtRp691
(dp692
g61
(dp693
g69
I3
ssg70
g687
sg63
(lp694
S''
asbasbasbag56
(g72
g58
NtRp695
(dp696
g61
(dp697
sg70
g671
sg63
(lp698
g56
(g77
g58
NtRp699
(dp700
g61
(dp701
g81
g82
ssg70
g695
sg63
(lp702
g326
asbag56
(g77
g58
NtRp703
(dp704
g61
(dp705
g88
g89
ssg70
g695
sg63
(lp706
S':'
asbag56
(g77
g58
NtRp707
(dp708
g61
(dp709
sg70
g695
sg63
(lp710
g56
(g57
g58
NtRp711
(dp712
g61
(dp713
g69
I3
ssg70
g707
sg63
(lp714
S''
asbasbasbag56
(g72
g58
NtRp715
(dp716
g61
(dp717
sg70
g671
sg63
(lp718
g56
(g77
g58
NtRp719
(dp720
g61
(dp721
g81
g82
ssg70
g715
sg63
(lp722
g347
asbag56
(g77
g58
NtRp723
(dp724
g61
(dp725
g88
g89
ssg70
g715
sg63
(lp726
S':'
asbag56
(g77
g58
NtRp727
(dp728
g61
(dp729
sg70
g715
sg63
(lp730
g56
(g57
g58
NtRp731
(dp732
g61
(dp733
g69
I3
ssg70
g727
sg63
(lp734
S''
asbasbasbag56
(g72
g58
NtRp735
(dp736
g61
(dp737
sg70
g671
sg63
(lp738
g56
(g77
g58
NtRp739
(dp740
g61
(dp741
g81
g82
ssg70
g735
sg63
(lp742
g368
asbag56
(g77
g58
NtRp743
(dp744
g61
(dp745
g88
g89
ssg70
g735
sg63
(lp746
S':'
asbag56
(g77
g58
NtRp747
(dp748
g61
(dp749
sg70
g735
sg63
(lp750
g56
(g57
g58
NtRp751
(dp752
g61
(dp753
g69
I3
ssg70
g747
sg63
(lp754
S''
asbasbasbag56
(g72
g58
NtRp755
(dp756
g61
(dp757
sg70
g671
sg63
(lp758
g56
(g77
g58
NtRp759
(dp760
g61
(dp761
g81
g82
ssg70
g755
sg63
(lp762
g389
asbag56
(g77
g58
NtRp763
(dp764
g61
(dp765
g88
g89
ssg70
g755
sg63
(lp766
S':'
asbag56
(g77
g58
NtRp767
(dp768
g61
(dp769
sg70
g755
sg63
(lp770
g56
(g57
g58
NtRp771
(dp772
g61
(dp773
g69
I3
ssg70
g767
sg63
(lp774
S''
asbasbasbag56
(g72
g58
NtRp775
(dp776
g61
(dp777
sg70
g671
sg63
(lp778
g56
(g77
g58
NtRp779
(dp780
g61
(dp781
g81
g82
ssg70
g775
sg63
(lp782
g410
asbag56
(g77
g58
NtRp783
(dp784
g61
(dp785
g88
g89
ssg70
g775
sg63
(lp786
S':'
asbag56
(g77
g58
NtRp787
(dp788
g61
(dp789
sg70
g775
sg63
(lp790
g56
(g57
g58
NtRp791
(dp792
g61
(dp793
g69
I3
ssg70
g787
sg63
(lp794
S''
asbasbasbag56
(g72
g58
NtRp795
(dp796
g61
(dp797
sg70
g671
sg63
(lp798
g56
(g77
g58
NtRp799
(dp800
g61
(dp801
g81
g82
ssg70
g795
sg63
(lp802
g431
asbag56
(g77
g58
NtRp803
(dp804
g61
(dp805
g88
g89
ssg70
g795
sg63
(lp806
S':'
asbag56
(g77
g58
NtRp807
(dp808
g61
(dp809
sg70
g795
sg63
(lp810
g56
(g57
g58
NtRp811
(dp812
g61
(dp813
g69
I3
ssg70
g807
sg63
(lp814
S''
asbasbasbag56
(g72
g58
NtRp815
(dp816
g61
(dp817
sg70
g671
sg63
(lp818
g56
(g77
g58
NtRp819
(dp820
g61
(dp821
g81
g82
ssg70
g815
sg63
(lp822
g452
asbag56
(g77
g58
NtRp823
(dp824
g61
(dp825
g88
g89
ssg70
g815
sg63
(lp826
S':'
asbag56
(g77
g58
NtRp827
(dp828
g61
(dp829
sg70
g815
sg63
(lp830
g56
(g57
g58
NtRp831
(dp832
g61
(dp833
g69
I3
ssg70
g827
sg63
(lp834
S''
asbasbasbasbasbasbasbag56
(g72
g58
NtRp835
(dp836
g61
(dp837
sg70
g268
sg63
(lp838
g56
(g77
g58
NtRp839
(dp840
g61
(dp841
g81
g82
ssg70
g835
sg63
(lp842
S'session_id_welcome'
p843
asbag56
(g77
g58
NtRp844
(dp845
g61
(dp846
g88
g89
ssg70
g835
sg63
(lp847
S':'
asbag56
(g77
g58
NtRp848
(dp849
g61
(dp850
sg70
g835
sg63
(lp851
g56
(g57
g58
NtRp852
(dp853
g61
(dp854
g69
I4
ssg70
g848
sg63
(lp855
g56
(g65
g58
NtRp856
(dp857
g61
(dp858
g69
I3
ssg70
Nsg63
(lp859
g56
(g72
g58
NtRp860
(dp861
g61
(dp862
sg70
g856
sg63
(lp863
g56
(g77
g58
NtRp864
(dp865
g61
(dp866
g81
g82
ssg70
g860
sg63
(lp867
g305
asbag56
(g77
g58
NtRp868
(dp869
g61
(dp870
g88
g89
ssg70
g860
sg63
(lp871
S':'
asbag56
(g77
g58
NtRp872
(dp873
g61
(dp874
sg70
g860
sg63
(lp875
g56
(g57
g58
NtRp876
(dp877
g61
(dp878
g69
I3
ssg70
g872
sg63
(lp879
S''
asbasbasbag56
(g72
g58
NtRp880
(dp881
g61
(dp882
sg70
g856
sg63
(lp883
g56
(g77
g58
NtRp884
(dp885
g61
(dp886
g81
g82
ssg70
g880
sg63
(lp887
g326
asbag56
(g77
g58
NtRp888
(dp889
g61
(dp890
g88
g89
ssg70
g880
sg63
(lp891
S':'
asbag56
(g77
g58
NtRp892
(dp893
g61
(dp894
sg70
g880
sg63
(lp895
g56
(g57
g58
NtRp896
(dp897
g61
(dp898
g69
I3
ssg70
g892
sg63
(lp899
S''
asbasbasbag56
(g72
g58
NtRp900
(dp901
g61
(dp902
sg70
g856
sg63
(lp903
g56
(g77
g58
NtRp904
(dp905
g61
(dp906
g81
g82
ssg70
g900
sg63
(lp907
g347
asbag56
(g77
g58
NtRp908
(dp909
g61
(dp910
g88
g89
ssg70
g900
sg63
(lp911
S':'
asbag56
(g77
g58
NtRp912
(dp913
g61
(dp914
sg70
g900
sg63
(lp915
g56
(g57
g58
NtRp916
(dp917
g61
(dp918
g69
I3
ssg70
g912
sg63
(lp919
S''
asbasbasbag56
(g72
g58
NtRp920
(dp921
g61
(dp922
sg70
g856
sg63
(lp923
g56
(g77
g58
NtRp924
(dp925
g61
(dp926
g81
g82
ssg70
g920
sg63
(lp927
g368
asbag56
(g77
g58
NtRp928
(dp929
g61
(dp930
g88
g89
ssg70
g920
sg63
(lp931
S':'
asbag56
(g77
g58
NtRp932
(dp933
g61
(dp934
sg70
g920
sg63
(lp935
g56
(g57
g58
NtRp936
(dp937
g61
(dp938
g69
I3
ssg70
g932
sg63
(lp939
S''
asbasbasbag56
(g72
g58
NtRp940
(dp941
g61
(dp942
sg70
g856
sg63
(lp943
g56
(g77
g58
NtRp944
(dp945
g61
(dp946
g81
g82
ssg70
g940
sg63
(lp947
g389
asbag56
(g77
g58
NtRp948
(dp949
g61
(dp950
g88
g89
ssg70
g940
sg63
(lp951
S':'
asbag56
(g77
g58
NtRp952
(dp953
g61
(dp954
sg70
g940
sg63
(lp955
g56
(g57
g58
NtRp956
(dp957
g61
(dp958
g69
I3
ssg70
g952
sg63
(lp959
S''
asbasbasbag56
(g72
g58
NtRp960
(dp961
g61
(dp962
sg70
g856
sg63
(lp963
g56
(g77
g58
NtRp964
(dp965
g61
(dp966
g81
g82
ssg70
g960
sg63
(lp967
g410
asbag56
(g77
g58
NtRp968
(dp969
g61
(dp970
g88
g89
ssg70
g960
sg63
(lp971
S':'
asbag56
(g77
g58
NtRp972
(dp973
g61
(dp974
sg70
g960
sg63
(lp975
g56
(g57
g58
NtRp976
(dp977
g61
(dp978
g69
I3
ssg70
g972
sg63
(lp979
S''
asbasbasbag56
(g72
g58
NtRp980
(dp981
g61
(dp982
sg70
g856
sg63
(lp983
g56
(g77
g58
NtRp984
(dp985
g61
(dp986
g81
g82
ssg70
g980
sg63
(lp987
g431
asbag56
(g77
g58
NtRp988
(dp989
g61
(dp990
g88
g89
ssg70
g980
sg63
(lp991
S':'
asbag56
(g77
g58
NtRp992
(dp993
g61
(dp994
sg70
g980
sg63
(lp995
g56
(g57
g58
NtRp996
(dp997
g61
(dp998
g69
I3
ssg70
g992
sg63
(lp999
S''
asbasbasbag56
(g72
g58
NtRp1000
(dp1001
g61
(dp1002
sg70
g856
sg63
(lp1003
g56
(g77
g58
NtRp1004
(dp1005
g61
(dp1006
g81
g82
ssg70
g1000
sg63
(lp1007
g452
asbag56
(g77
g58
NtRp1008
(dp1009
g61
(dp1010
g88
g89
ssg70
g1000
sg63
(lp1011
S':'
asbag56
(g77
g58
NtRp1012
(dp1013
g61
(dp1014
sg70
g1000
sg63
(lp1015
g56
(g57
g58
NtRp1016
(dp1017
g61
(dp1018
g69
I3
ssg70
g1012
sg63
(lp1019
S''
asbasbasbasbasbasbasbasbasbasbasbag56
(g72
g58
NtRp1020
(dp1021
g61
(dp1022
sg70
g66
sg63
(lp1023
g56
(g77
g58
NtRp1024
(dp1025
g61
(dp1026
g81
g82
ssg70
g1020
sg63
(lp1027
S'env'
p1028
asbag56
(g77
g58
NtRp1029
(dp1030
g61
(dp1031
g88
g89
ssg70
g1020
sg63
(lp1032
S':'
asbag56
(g77
g58
NtRp1033
(dp1034
g61
(dp1035
sg70
g1020
sg63
(lp1036
g56
(g57
g58
NtRp1037
(dp1038
g61
(dp1039
g69
I5
ssg70
g1033
sg63
(lp1040
g56
(g65
g58
NtRp1041
(dp1042
g61
(dp1043
g69
I4
ssg70
Nsg63
(lp1044
g56
(g72
g58
NtRp1045
(dp1046
g61
(dp1047
sg70
g1041
sg63
(lp1048
g56
(g77
g58
NtRp1049
(dp1050
g61
(dp1051
g81
g82
ssg70
g1045
sg63
(lp1052
S'app_folders'
p1053
asbag56
(g77
g58
NtRp1054
(dp1055
g61
(dp1056
g88
g89
ssg70
g1045
sg63
(lp1057
S':'
asbag56
(g77
g58
NtRp1058
(dp1059
g61
(dp1060
sg70
g1045
sg63
(lp1061
g56
(g57
g58
NtRp1062
(dp1063
g61
(dp1064
g69
I4
ssg70
g1058
sg63
(lp1065
S"set(['/home/ian/web2py/applications/welcome/', '/home/ian/web2py/applications/grades/', '/home/ian/web2py/applications/admin/'])"
p1066
asbasbasbag56
(g72
g58
NtRp1067
(dp1068
g61
(dp1069
sg70
g1041
sg63
(lp1070
g56
(g77
g58
NtRp1071
(dp1072
g61
(dp1073
g81
g82
ssg70
g1067
sg63
(lp1074
S'applications_parent'
p1075
asbag56
(g77
g58
NtRp1076
(dp1077
g61
(dp1078
g88
g89
ssg70
g1067
sg63
(lp1079
S':'
asbag56
(g77
g58
NtRp1080
(dp1081
g61
(dp1082
sg70
g1067
sg63
(lp1083
g56
(g57
g58
NtRp1084
(dp1085
g61
(dp1086
g69
I4
ssg70
g1080
sg63
(lp1087
S'/home/ian/web2py'
p1088
asbasbasbag56
(g72
g58
NtRp1089
(dp1090
g61
(dp1091
sg70
g1041
sg63
(lp1092
g56
(g77
g58
NtRp1093
(dp1094
g61
(dp1095
g81
g82
ssg70
g1089
sg63
(lp1096
S'cmd_args'
p1097
asbag56
(g77
g58
NtRp1098
(dp1099
g61
(dp1100
g88
g89
ssg70
g1089
sg63
(lp1101
S':'
asbag56
(g77
g58
NtRp1102
(dp1103
g61
(dp1104
sg70
g1089
sg63
(lp1105
g56
(g57
g58
NtRp1106
(dp1107
g61
(dp1108
g69
I4
ssg70
g1102
sg63
(lp1109
g56
(g65
g58
NtRp1110
(dp1111
g61
(dp1112
g69
I3
ssg70
Nsg63
(lp1113
sbasbasbasbag56
(g72
g58
NtRp1114
(dp1115
g61
(dp1116
sg70
g1041
sg63
(lp1117
g56
(g77
g58
NtRp1118
(dp1119
g61
(dp1120
g81
g82
ssg70
g1114
sg63
(lp1121
S'cmd_options'
p1122
asbag56
(g77
g58
NtRp1123
(dp1124
g61
(dp1125
g88
g89
ssg70
g1114
sg63
(lp1126
S':'
asbag56
(g77
g58
NtRp1127
(dp1128
g61
(dp1129
sg70
g1114
sg63
(lp1130
g56
(g57
g58
NtRp1131
(dp1132
g61
(dp1133
g69
I4
ssg70
g1127
sg63
(lp1134
S"<Values at 0x1ffe758: {'verbose': False, 'ip': '127.0.0.1', 'shutdown_timeout': 5, 'taskbar': False, 'nocron': False, 'pid_filename': 'httpserver.pid', 'maxthreads': None, 'softcron': False, 'server_name': 'uriel', 'bpython': False, 'nogui': False, 'port': 8000, 'extcron': False, 'debuglevel': 30, 'test': None, 'folder': '/home/ian/web2py', 'config': '', 'import_models': False, 'winservice': '', 'shell': None, 'run': '', 'log_filename': 'httpserver.log', 'args': [''], 'ssl_ca_certificate': None, 'scheduler': None, 'profiler_filename': None, 'ssl_private_key': '', 'password': '<ask>', 'request_queue_size': 5, 'ssl_certificate': '', 'cronjob': False, 'plain': False, 'quiet': False, 'interfaces': None, 'minthreads': None, 'timeout': 10, 'numthreads': None, 'nobanner': False}>"
p1135
asbasbasbag56
(g72
g58
NtRp1136
(dp1137
g61
(dp1138
sg70
g1041
sg63
(lp1139
g56
(g77
g58
NtRp1140
(dp1141
g61
(dp1142
g81
g82
ssg70
g1136
sg63
(lp1143
S'db_sessions'
p1144
asbag56
(g77
g58
NtRp1145
(dp1146
g61
(dp1147
g88
g89
ssg70
g1136
sg63
(lp1148
S':'
asbag56
(g77
g58
NtRp1149
(dp1150
g61
(dp1151
sg70
g1136
sg63
(lp1152
g56
(g57
g58
NtRp1153
(dp1154
g61
(dp1155
g69
I4
ssg70
g1149
sg63
(lp1156
S'set([])'
p1157
asbasbasbag56
(g72
g58
NtRp1158
(dp1159
g61
(dp1160
sg70
g1041
sg63
(lp1161
g56
(g77
g58
NtRp1162
(dp1163
g61
(dp1164
g81
g82
ssg70
g1158
sg63
(lp1165
S'debugging'
p1166
asbag56
(g77
g58
NtRp1167
(dp1168
g61
(dp1169
g88
g89
ssg70
g1158
sg63
(lp1170
S':'
asbag56
(g77
g58
NtRp1171
(dp1172
g61
(dp1173
sg70
g1158
sg63
(lp1174
g56
(g57
g58
NtRp1175
(dp1176
g61
(dp1177
g69
I4
ssg70
g1171
sg63
(lp1178
S'False'
p1179
asbasbasbag56
(g72
g58
NtRp1180
(dp1181
g61
(dp1182
sg70
g1041
sg63
(lp1183
g56
(g77
g58
NtRp1184
(dp1185
g61
(dp1186
g81
g82
ssg70
g1180
sg63
(lp1187
S'gluon_parent'
p1188
asbag56
(g77
g58
NtRp1189
(dp1190
g61
(dp1191
g88
g89
ssg70
g1180
sg63
(lp1192
S':'
asbag56
(g77
g58
NtRp1193
(dp1194
g61
(dp1195
sg70
g1180
sg63
(lp1196
g56
(g57
g58
NtRp1197
(dp1198
g61
(dp1199
g69
I4
ssg70
g1193
sg63
(lp1200
S'/home/ian/web2py'
p1201
asbasbasbag56
(g72
g58
NtRp1202
(dp1203
g61
(dp1204
sg70
g1041
sg63
(lp1205
g56
(g77
g58
NtRp1206
(dp1207
g61
(dp1208
g81
g82
ssg70
g1202
sg63
(lp1209
S'http_accept'
p1210
asbag56
(g77
g58
NtRp1211
(dp1212
g61
(dp1213
g88
g89
ssg70
g1202
sg63
(lp1214
S':'
asbag56
(g77
g58
NtRp1215
(dp1216
g61
(dp1217
sg70
g1202
sg63
(lp1218
g56
(g57
g58
NtRp1219
(dp1220
g61
(dp1221
g69
I4
ssg70
g1215
sg63
(lp1222
S'*/*'
p1223
asbasbasbag56
(g72
g58
NtRp1224
(dp1225
g61
(dp1226
sg70
g1041
sg63
(lp1227
g56
(g77
g58
NtRp1228
(dp1229
g61
(dp1230
g81
g82
ssg70
g1224
sg63
(lp1231
S'http_accept_encoding'
p1232
asbag56
(g77
g58
NtRp1233
(dp1234
g61
(dp1235
g88
g89
ssg70
g1224
sg63
(lp1236
S':'
asbag56
(g77
g58
NtRp1237
(dp1238
g61
(dp1239
sg70
g1224
sg63
(lp1240
g56
(g57
g58
NtRp1241
(dp1242
g61
(dp1243
g69
I4
ssg70
g1237
sg63
(lp1244
S'gzip, deflate'
p1245
asbasbasbag56
(g72
g58
NtRp1246
(dp1247
g61
(dp1248
sg70
g1041
sg63
(lp1249
g56
(g77
g58
NtRp1250
(dp1251
g61
(dp1252
g81
g82
ssg70
g1246
sg63
(lp1253
S'http_accept_language'
p1254
asbag56
(g77
g58
NtRp1255
(dp1256
g61
(dp1257
g88
g89
ssg70
g1246
sg63
(lp1258
S':'
asbag56
(g77
g58
NtRp1259
(dp1260
g61
(dp1261
sg70
g1246
sg63
(lp1262
g56
(g57
g58
NtRp1263
(dp1264
g61
(dp1265
g69
I4
ssg70
g1259
sg63
(lp1266
S'en-us,en;q=0.5'
p1267
asbasbasbag56
(g72
g58
NtRp1268
(dp1269
g61
(dp1270
sg70
g1041
sg63
(lp1271
g56
(g77
g58
NtRp1272
(dp1273
g61
(dp1274
g81
g82
ssg70
g1268
sg63
(lp1275
S'http_connection'
p1276
asbag56
(g77
g58
NtRp1277
(dp1278
g61
(dp1279
g88
g89
ssg70
g1268
sg63
(lp1280
S':'
asbag56
(g77
g58
NtRp1281
(dp1282
g61
(dp1283
sg70
g1268
sg63
(lp1284
g56
(g57
g58
NtRp1285
(dp1286
g61
(dp1287
g69
I4
ssg70
g1281
sg63
(lp1288
S'keep-alive'
p1289
asbasbasbag56
(g72
g58
NtRp1290
(dp1291
g61
(dp1292
sg70
g1041
sg63
(lp1293
g56
(g77
g58
NtRp1294
(dp1295
g61
(dp1296
g81
g82
ssg70
g1290
sg63
(lp1297
S'http_cookie'
p1298
asbag56
(g77
g58
NtRp1299
(dp1300
g61
(dp1301
g88
g89
ssg70
g1290
sg63
(lp1302
S':'
asbag56
(g77
g58
NtRp1303
(dp1304
g61
(dp1305
sg70
g1290
sg63
(lp1306
g56
(g57
g58
NtRp1307
(dp1308
g61
(dp1309
g69
I4
ssg70
g1303
sg63
(lp1310
S'session_id_paideia=127.0.0.1-5296f1e9-849e-4717-b7d4-f5f298041148; session_id_welcome=127.0.0.1-cbd9183f-89a3-433a-9c7b-93d2c556d545; session_id_grades=127.0.0.1-7e779f51-d72f-4159-aa81-826b4f2d26c1; session_id_admin=127.0.0.1-0a4d4364-3576-4988-bc56-f95aeecb4481'
p1311
asbasbasbag56
(g72
g58
NtRp1312
(dp1313
g61
(dp1314
sg70
g1041
sg63
(lp1315
g56
(g77
g58
NtRp1316
(dp1317
g61
(dp1318
g81
g82
ssg70
g1312
sg63
(lp1319
S'http_host'
p1320
asbag56
(g77
g58
NtRp1321
(dp1322
g61
(dp1323
g88
g89
ssg70
g1312
sg63
(lp1324
S':'
asbag56
(g77
g58
NtRp1325
(dp1326
g61
(dp1327
sg70
g1312
sg63
(lp1328
g56
(g57
g58
NtRp1329
(dp1330
g61
(dp1331
g69
I4
ssg70
g1325
sg63
(lp1332
S'127.0.0.1:8000'
p1333
asbasbasbag56
(g72
g58
NtRp1334
(dp1335
g61
(dp1336
sg70
g1041
sg63
(lp1337
g56
(g77
g58
NtRp1338
(dp1339
g61
(dp1340
g81
g82
ssg70
g1334
sg63
(lp1341
S'http_referer'
p1342
asbag56
(g77
g58
NtRp1343
(dp1344
g61
(dp1345
g88
g89
ssg70
g1334
sg63
(lp1346
S':'
asbag56
(g77
g58
NtRp1347
(dp1348
g61
(dp1349
sg70
g1334
sg63
(lp1350
g56
(g57
g58
NtRp1351
(dp1352
g61
(dp1353
g69
I4
ssg70
g1347
sg63
(lp1354
S'http://127.0.0.1:8000/grades/default/grades_report/15'
p1355
asbasbasbag56
(g72
g58
NtRp1356
(dp1357
g61
(dp1358
sg70
g1041
sg63
(lp1359
g56
(g77
g58
NtRp1360
(dp1361
g61
(dp1362
g81
g82
ssg70
g1356
sg63
(lp1363
S'http_user_agent'
p1364
asbag56
(g77
g58
NtRp1365
(dp1366
g61
(dp1367
g88
g89
ssg70
g1356
sg63
(lp1368
S':'
asbag56
(g77
g58
NtRp1369
(dp1370
g61
(dp1371
sg70
g1356
sg63
(lp1372
g56
(g57
g58
NtRp1373
(dp1374
g61
(dp1375
g69
I4
ssg70
g1369
sg63
(lp1376
S'Mozilla/5.0 (X11; Linux x86_64; rv:8.0) Gecko/20100101 Firefox/8.0'
p1377
asbasbasbag56
(g72
g58
NtRp1378
(dp1379
g61
(dp1380
sg70
g1041
sg63
(lp1381
g56
(g77
g58
NtRp1382
(dp1383
g61
(dp1384
g81
g82
ssg70
g1378
sg63
(lp1385
S'http_web2py_component_element'
p1386
asbag56
(g77
g58
NtRp1387
(dp1388
g61
(dp1389
g88
g89
ssg70
g1378
sg63
(lp1390
S':'
asbag56
(g77
g58
NtRp1391
(dp1392
g61
(dp1393
sg70
g1378
sg63
(lp1394
g56
(g57
g58
NtRp1395
(dp1396
g61
(dp1397
g69
I4
ssg70
g1391
sg63
(lp1398
g202
asbasbasbag56
(g72
g58
NtRp1399
(dp1400
g61
(dp1401
sg70
g1041
sg63
(lp1402
g56
(g77
g58
NtRp1403
(dp1404
g61
(dp1405
g81
g82
ssg70
g1399
sg63
(lp1406
S'http_web2py_component_location'
p1407
asbag56
(g77
g58
NtRp1408
(dp1409
g61
(dp1410
g88
g89
ssg70
g1399
sg63
(lp1411
S':'
asbag56
(g77
g58
NtRp1412
(dp1413
g61
(dp1414
sg70
g1399
sg63
(lp1415
g56
(g57
g58
NtRp1416
(dp1417
g61
(dp1418
g69
I4
ssg70
g1412
sg63
(lp1419
S'http://127.0.0.1:8000/grades/default/grades_report/15'
p1420
asbasbasbag56
(g72
g58
NtRp1421
(dp1422
g61
(dp1423
sg70
g1041
sg63
(lp1424
g56
(g77
g58
NtRp1425
(dp1426
g61
(dp1427
g81
g82
ssg70
g1421
sg63
(lp1428
S'http_x_requested_with'
p1429
asbag56
(g77
g58
NtRp1430
(dp1431
g61
(dp1432
g88
g89
ssg70
g1421
sg63
(lp1433
S':'
asbag56
(g77
g58
NtRp1434
(dp1435
g61
(dp1436
sg70
g1421
sg63
(lp1437
g56
(g57
g58
NtRp1438
(dp1439
g61
(dp1440
g69
I4
ssg70
g1434
sg63
(lp1441
S'XMLHttpRequest'
p1442
asbasbasbag56
(g72
g58
NtRp1443
(dp1444
g61
(dp1445
sg70
g1041
sg63
(lp1446
g56
(g77
g58
NtRp1447
(dp1448
g61
(dp1449
g81
g82
ssg70
g1443
sg63
(lp1450
S'is_jython'
p1451
asbag56
(g77
g58
NtRp1452
(dp1453
g61
(dp1454
g88
g89
ssg70
g1443
sg63
(lp1455
S':'
asbag56
(g77
g58
NtRp1456
(dp1457
g61
(dp1458
sg70
g1443
sg63
(lp1459
g56
(g57
g58
NtRp1460
(dp1461
g61
(dp1462
g69
I4
ssg70
g1456
sg63
(lp1463
g1179
asbasbasbag56
(g72
g58
NtRp1464
(dp1465
g61
(dp1466
sg70
g1041
sg63
(lp1467
g56
(g77
g58
NtRp1468
(dp1469
g61
(dp1470
g81
g82
ssg70
g1464
sg63
(lp1471
S'path_info'
p1472
asbag56
(g77
g58
NtRp1473
(dp1474
g61
(dp1475
g88
g89
ssg70
g1464
sg63
(lp1476
S':'
asbag56
(g77
g58
NtRp1477
(dp1478
g61
(dp1479
sg70
g1464
sg63
(lp1480
g56
(g57
g58
NtRp1481
(dp1482
g61
(dp1483
g69
I4
ssg70
g1477
sg63
(lp1484
S'/grades/default/grades_report.load/11'
p1485
asbasbasbag56
(g72
g58
NtRp1486
(dp1487
g61
(dp1488
sg70
g1041
sg63
(lp1489
g56
(g77
g58
NtRp1490
(dp1491
g61
(dp1492
g81
g82
ssg70
g1486
sg63
(lp1493
S'query_string'
p1494
asbag56
(g77
g58
NtRp1495
(dp1496
g61
(dp1497
g88
g89
ssg70
g1486
sg63
(lp1498
S':'
asbag56
(g77
g58
NtRp1499
(dp1500
g61
(dp1501
sg70
g1486
sg63
(lp1502
g56
(g57
g58
NtRp1503
(dp1504
g61
(dp1505
g69
I4
ssg70
g1499
sg63
(lp1506
S''
asbasbasbag56
(g72
g58
NtRp1507
(dp1508
g61
(dp1509
sg70
g1041
sg63
(lp1510
g56
(g77
g58
NtRp1511
(dp1512
g61
(dp1513
g81
g82
ssg70
g1507
sg63
(lp1514
S'remote_addr'
p1515
asbag56
(g77
g58
NtRp1516
(dp1517
g61
(dp1518
g88
g89
ssg70
g1507
sg63
(lp1519
S':'
asbag56
(g77
g58
NtRp1520
(dp1521
g61
(dp1522
sg70
g1507
sg63
(lp1523
g56
(g57
g58
NtRp1524
(dp1525
g61
(dp1526
g69
I4
ssg70
g1520
sg63
(lp1527
g224
asbasbasbag56
(g72
g58
NtRp1528
(dp1529
g61
(dp1530
sg70
g1041
sg63
(lp1531
g56
(g77
g58
NtRp1532
(dp1533
g61
(dp1534
g81
g82
ssg70
g1528
sg63
(lp1535
S'remote_port'
p1536
asbag56
(g77
g58
NtRp1537
(dp1538
g61
(dp1539
g88
g89
ssg70
g1528
sg63
(lp1540
S':'
asbag56
(g77
g58
NtRp1541
(dp1542
g61
(dp1543
sg70
g1528
sg63
(lp1544
g56
(g57
g58
NtRp1545
(dp1546
g61
(dp1547
g69
I4
ssg70
g1541
sg63
(lp1548
S'32957'
p1549
asbasbasbag56
(g72
g58
NtRp1550
(dp1551
g61
(dp1552
sg70
g1041
sg63
(lp1553
g56
(g77
g58
NtRp1554
(dp1555
g61
(dp1556
g81
g82
ssg70
g1550
sg63
(lp1557
S'request_method'
p1558
asbag56
(g77
g58
NtRp1559
(dp1560
g61
(dp1561
g88
g89
ssg70
g1550
sg63
(lp1562
S':'
asbag56
(g77
g58
NtRp1563
(dp1564
g61
(dp1565
sg70
g1550
sg63
(lp1566
g56
(g57
g58
NtRp1567
(dp1568
g61
(dp1569
g69
I4
ssg70
g1563
sg63
(lp1570
S'GET'
p1571
asbasbasbag56
(g72
g58
NtRp1572
(dp1573
g61
(dp1574
sg70
g1041
sg63
(lp1575
g56
(g77
g58
NtRp1576
(dp1577
g61
(dp1578
g81
g82
ssg70
g1572
sg63
(lp1579
S'script_name'
p1580
asbag56
(g77
g58
NtRp1581
(dp1582
g61
(dp1583
g88
g89
ssg70
g1572
sg63
(lp1584
S':'
asbag56
(g77
g58
NtRp1585
(dp1586
g61
(dp1587
sg70
g1572
sg63
(lp1588
g56
(g57
g58
NtRp1589
(dp1590
g61
(dp1591
g69
I4
ssg70
g1585
sg63
(lp1592
S''
asbasbasbag56
(g72
g58
NtRp1593
(dp1594
g61
(dp1595
sg70
g1041
sg63
(lp1596
g56
(g77
g58
NtRp1597
(dp1598
g61
(dp1599
g81
g82
ssg70
g1593
sg63
(lp1600
S'server_name'
p1601
asbag56
(g77
g58
NtRp1602
(dp1603
g61
(dp1604
g88
g89
ssg70
g1593
sg63
(lp1605
S':'
asbag56
(g77
g58
NtRp1606
(dp1607
g61
(dp1608
sg70
g1593
sg63
(lp1609
g56
(g57
g58
NtRp1610
(dp1611
g61
(dp1612
g69
I4
ssg70
g1606
sg63
(lp1613
S'uriel'
p1614
asbasbasbag56
(g72
g58
NtRp1615
(dp1616
g61
(dp1617
sg70
g1041
sg63
(lp1618
g56
(g77
g58
NtRp1619
(dp1620
g61
(dp1621
g81
g82
ssg70
g1615
sg63
(lp1622
S'server_port'
p1623
asbag56
(g77
g58
NtRp1624
(dp1625
g61
(dp1626
g88
g89
ssg70
g1615
sg63
(lp1627
S':'
asbag56
(g77
g58
NtRp1628
(dp1629
g61
(dp1630
sg70
g1615
sg63
(lp1631
g56
(g57
g58
NtRp1632
(dp1633
g61
(dp1634
g69
I4
ssg70
g1628
sg63
(lp1635
S'8000'
p1636
asbasbasbag56
(g72
g58
NtRp1637
(dp1638
g61
(dp1639
sg70
g1041
sg63
(lp1640
g56
(g77
g58
NtRp1641
(dp1642
g61
(dp1643
g81
g82
ssg70
g1637
sg63
(lp1644
S'server_protocol'
p1645
asbag56
(g77
g58
NtRp1646
(dp1647
g61
(dp1648
g88
g89
ssg70
g1637
sg63
(lp1649
S':'
asbag56
(g77
g58
NtRp1650
(dp1651
g61
(dp1652
sg70
g1637
sg63
(lp1653
g56
(g57
g58
NtRp1654
(dp1655
g61
(dp1656
g69
I4
ssg70
g1650
sg63
(lp1657
S'HTTP/1.1'
p1658
asbasbasbag56
(g72
g58
NtRp1659
(dp1660
g61
(dp1661
sg70
g1041
sg63
(lp1662
g56
(g77
g58
NtRp1663
(dp1664
g61
(dp1665
g81
g82
ssg70
g1659
sg63
(lp1666
S'server_software'
p1667
asbag56
(g77
g58
NtRp1668
(dp1669
g61
(dp1670
g88
g89
ssg70
g1659
sg63
(lp1671
S':'
asbag56
(g77
g58
NtRp1672
(dp1673
g61
(dp1674
sg70
g1659
sg63
(lp1675
g56
(g57
g58
NtRp1676
(dp1677
g61
(dp1678
g69
I4
ssg70
g1672
sg63
(lp1679
S'Rocket 1.2.4'
p1680
asbasbasbag56
(g72
g58
NtRp1681
(dp1682
g61
(dp1683
sg70
g1041
sg63
(lp1684
g56
(g77
g58
NtRp1685
(dp1686
g61
(dp1687
g81
g82
ssg70
g1681
sg63
(lp1688
S'web2py_crontype'
p1689
asbag56
(g77
g58
NtRp1690
(dp1691
g61
(dp1692
g88
g89
ssg70
g1681
sg63
(lp1693
S':'
asbag56
(g77
g58
NtRp1694
(dp1695
g61
(dp1696
sg70
g1681
sg63
(lp1697
g56
(g57
g58
NtRp1698
(dp1699
g61
(dp1700
g69
I4
ssg70
g1694
sg63
(lp1701
S'hard'
p1702
asbasbasbag56
(g72
g58
NtRp1703
(dp1704
g61
(dp1705
sg70
g1041
sg63
(lp1706
g56
(g77
g58
NtRp1707
(dp1708
g61
(dp1709
g81
g82
ssg70
g1703
sg63
(lp1710
S'web2py_path'
p1711
asbag56
(g77
g58
NtRp1712
(dp1713
g61
(dp1714
g88
g89
ssg70
g1703
sg63
(lp1715
S':'
asbag56
(g77
g58
NtRp1716
(dp1717
g61
(dp1718
sg70
g1703
sg63
(lp1719
g56
(g57
g58
NtRp1720
(dp1721
g61
(dp1722
g69
I4
ssg70
g1716
sg63
(lp1723
g1088
asbasbasbag56
(g72
g58
NtRp1724
(dp1725
g61
(dp1726
sg70
g1041
sg63
(lp1727
g56
(g77
g58
NtRp1728
(dp1729
g61
(dp1730
g81
g82
ssg70
g1724
sg63
(lp1731
S'web2py_version'
p1732
asbag56
(g77
g58
NtRp1733
(dp1734
g61
(dp1735
g88
g89
ssg70
g1724
sg63
(lp1736
S':'
asbag56
(g77
g58
NtRp1737
(dp1738
g61
(dp1739
sg70
g1724
sg63
(lp1740
g56
(g57
g58
NtRp1741
(dp1742
g61
(dp1743
g69
I4
ssg70
g1737
sg63
(lp1744
g56
(g65
g58
NtRp1745
(dp1746
g61
(dp1747
g69
I3
ssg70
Nsg63
(lp1748
g56
(g72
g58
NtRp1749
(dp1750
g61
(dp1751
sg70
g1745
sg63
(lp1752
g56
(g77
g58
NtRp1753
(dp1754
g61
(dp1755
sg70
g1749
sg63
(lp1756
g56
(g57
g58
NtRp1757
(dp1758
g61
(dp1759
g69
I3
ssg70
g1753
sg63
(lp1760
S'1'
asbasbasbag56
(g72
g58
NtRp1761
(dp1762
g61
(dp1763
sg70
g1745
sg63
(lp1764
g56
(g77
g58
NtRp1765
(dp1766
g61
(dp1767
sg70
g1761
sg63
(lp1768
g56
(g57
g58
NtRp1769
(dp1770
g61
(dp1771
g69
I3
ssg70
g1765
sg63
(lp1772
S'99'
p1773
asbasbasbag56
(g72
g58
NtRp1774
(dp1775
g61
(dp1776
sg70
g1745
sg63
(lp1777
g56
(g77
g58
NtRp1778
(dp1779
g61
(dp1780
sg70
g1774
sg63
(lp1781
g56
(g57
g58
NtRp1782
(dp1783
g61
(dp1784
g69
I3
ssg70
g1778
sg63
(lp1785
S'2'
asbasbasbag56
(g72
g58
NtRp1786
(dp1787
g61
(dp1788
sg70
g1745
sg63
(lp1789
g56
(g77
g58
NtRp1790
(dp1791
g61
(dp1792
sg70
g1786
sg63
(lp1793
g56
(g57
g58
NtRp1794
(dp1795
g61
(dp1796
g69
I3
ssg70
g1790
sg63
(lp1797
S'datetime.datetime(2011, 9, 26, 6, 55, 33)'
p1798
asbasbasbag56
(g72
g58
NtRp1799
(dp1800
g61
(dp1801
sg70
g1745
sg63
(lp1802
g56
(g77
g58
NtRp1803
(dp1804
g61
(dp1805
sg70
g1799
sg63
(lp1806
g56
(g57
g58
NtRp1807
(dp1808
g61
(dp1809
g69
I3
ssg70
g1803
sg63
(lp1810
S'stable'
p1811
asbasbasbasbasbasbasbag56
(g72
g58
NtRp1812
(dp1813
g61
(dp1814
sg70
g1041
sg63
(lp1815
g56
(g77
g58
NtRp1816
(dp1817
g61
(dp1818
g81
g82
ssg70
g1812
sg63
(lp1819
S'wsgi_errors'
p1820
asbag56
(g77
g58
NtRp1821
(dp1822
g61
(dp1823
g88
g89
ssg70
g1812
sg63
(lp1824
S':'
asbag56
(g77
g58
NtRp1825
(dp1826
g61
(dp1827
sg70
g1812
sg63
(lp1828
g56
(g57
g58
NtRp1829
(dp1830
g61
(dp1831
g69
I4
ssg70
g1825
sg63
(lp1832
S"<open file '<stderr>', mode 'w' at 0x7f9678b3d270>"
p1833
asbasbasbag56
(g72
g58
NtRp1834
(dp1835
g61
(dp1836
sg70
g1041
sg63
(lp1837
g56
(g77
g58
NtRp1838
(dp1839
g61
(dp1840
g81
g82
ssg70
g1834
sg63
(lp1841
S'wsgi_file_wrapper'
p1842
asbag56
(g77
g58
NtRp1843
(dp1844
g61
(dp1845
g88
g89
ssg70
g1834
sg63
(lp1846
S':'
asbag56
(g77
g58
NtRp1847
(dp1848
g61
(dp1849
sg70
g1834
sg63
(lp1850
g56
(g57
g58
NtRp1851
(dp1852
g61
(dp1853
g69
I4
ssg70
g1847
sg63
(lp1854
S'<class wsgiref.util.FileWrapper at 0x1ec9870>'
p1855
asbasbasbag56
(g72
g58
NtRp1856
(dp1857
g61
(dp1858
sg70
g1041
sg63
(lp1859
g56
(g77
g58
NtRp1860
(dp1861
g61
(dp1862
g81
g82
ssg70
g1856
sg63
(lp1863
S'wsgi_input'
p1864
asbag56
(g77
g58
NtRp1865
(dp1866
g61
(dp1867
g88
g89
ssg70
g1856
sg63
(lp1868
S':'
asbag56
(g77
g58
NtRp1869
(dp1870
g61
(dp1871
sg70
g1856
sg63
(lp1872
g56
(g57
g58
NtRp1873
(dp1874
g61
(dp1875
g69
I4
ssg70
g1869
sg63
(lp1876
S'<socket._fileobject object at 0x38de1d0>'
p1877
asbasbasbag56
(g72
g58
NtRp1878
(dp1879
g61
(dp1880
sg70
g1041
sg63
(lp1881
g56
(g77
g58
NtRp1882
(dp1883
g61
(dp1884
g81
g82
ssg70
g1878
sg63
(lp1885
S'wsgi_multiprocess'
p1886
asbag56
(g77
g58
NtRp1887
(dp1888
g61
(dp1889
g88
g89
ssg70
g1878
sg63
(lp1890
S':'
asbag56
(g77
g58
NtRp1891
(dp1892
g61
(dp1893
sg70
g1878
sg63
(lp1894
g56
(g57
g58
NtRp1895
(dp1896
g61
(dp1897
g69
I4
ssg70
g1891
sg63
(lp1898
g1179
asbasbasbag56
(g72
g58
NtRp1899
(dp1900
g61
(dp1901
sg70
g1041
sg63
(lp1902
g56
(g77
g58
NtRp1903
(dp1904
g61
(dp1905
g81
g82
ssg70
g1899
sg63
(lp1906
S'wsgi_multithread'
p1907
asbag56
(g77
g58
NtRp1908
(dp1909
g61
(dp1910
g88
g89
ssg70
g1899
sg63
(lp1911
S':'
asbag56
(g77
g58
NtRp1912
(dp1913
g61
(dp1914
sg70
g1899
sg63
(lp1915
g56
(g57
g58
NtRp1916
(dp1917
g61
(dp1918
g69
I4
ssg70
g1912
sg63
(lp1919
g99
asbasbasbag56
(g72
g58
NtRp1920
(dp1921
g61
(dp1922
sg70
g1041
sg63
(lp1923
g56
(g77
g58
NtRp1924
(dp1925
g61
(dp1926
g81
g82
ssg70
g1920
sg63
(lp1927
S'wsgi_run_once'
p1928
asbag56
(g77
g58
NtRp1929
(dp1930
g61
(dp1931
g88
g89
ssg70
g1920
sg63
(lp1932
S':'
asbag56
(g77
g58
NtRp1933
(dp1934
g61
(dp1935
sg70
g1920
sg63
(lp1936
g56
(g57
g58
NtRp1937
(dp1938
g61
(dp1939
g69
I4
ssg70
g1933
sg63
(lp1940
g1179
asbasbasbag56
(g72
g58
NtRp1941
(dp1942
g61
(dp1943
sg70
g1041
sg63
(lp1944
g56
(g77
g58
NtRp1945
(dp1946
g61
(dp1947
g81
g82
ssg70
g1941
sg63
(lp1948
S'wsgi_url_scheme'
p1949
asbag56
(g77
g58
NtRp1950
(dp1951
g61
(dp1952
g88
g89
ssg70
g1941
sg63
(lp1953
S':'
asbag56
(g77
g58
NtRp1954
(dp1955
g61
(dp1956
sg70
g1941
sg63
(lp1957
g56
(g57
g58
NtRp1958
(dp1959
g61
(dp1960
g69
I4
ssg70
g1954
sg63
(lp1961
S'http'
p1962
asbasbasbag56
(g72
g58
NtRp1963
(dp1964
g61
(dp1965
sg70
g1041
sg63
(lp1966
g56
(g77
g58
NtRp1967
(dp1968
g61
(dp1969
g81
g82
ssg70
g1963
sg63
(lp1970
S'wsgi_version'
p1971
asbag56
(g77
g58
NtRp1972
(dp1973
g61
(dp1974
g88
g89
ssg70
g1963
sg63
(lp1975
S':'
asbag56
(g77
g58
NtRp1976
(dp1977
g61
(dp1978
sg70
g1963
sg63
(lp1979
g56
(g57
g58
NtRp1980
(dp1981
g61
(dp1982
g69
I4
ssg70
g1976
sg63
(lp1983
g56
(g65
g58
NtRp1984
(dp1985
g61
(dp1986
g69
I3
ssg70
Nsg63
(lp1987
g56
(g72
g58
NtRp1988
(dp1989
g61
(dp1990
sg70
g1984
sg63
(lp1991
g56
(g77
g58
NtRp1992
(dp1993
g61
(dp1994
sg70
g1988
sg63
(lp1995
g56
(g57
g58
NtRp1996
(dp1997
g61
(dp1998
g69
I3
ssg70
g1992
sg63
(lp1999
S'1'
asbasbasbag56
(g72
g58
NtRp2000
(dp2001
g61
(dp2002
sg70
g1984
sg63
(lp2003
g56
(g77
g58
NtRp2004
(dp2005
g61
(dp2006
sg70
g2000
sg63
(lp2007
g56
(g57
g58
NtRp2008
(dp2009
g61
(dp2010
g69
I3
ssg70
g2004
sg63
(lp2011
S'0'
asbasbasbasbasbasbasbasbasbasbasbag56
(g72
g58
NtRp2012
(dp2013
g61
(dp2014
sg70
g66
sg63
(lp2015
g56
(g77
g58
NtRp2016
(dp2017
g61
(dp2018
g81
g82
ssg70
g2012
sg63
(lp2019
S'extension'
p2020
asbag56
(g77
g58
NtRp2021
(dp2022
g61
(dp2023
g88
g89
ssg70
g2012
sg63
(lp2024
S':'
asbag56
(g77
g58
NtRp2025
(dp2026
g61
(dp2027
sg70
g2012
sg63
(lp2028
g56
(g57
g58
NtRp2029
(dp2030
g61
(dp2031
g69
I5
ssg70
g2025
sg63
(lp2032
S'load'
p2033
asbasbasbag56
(g72
g58
NtRp2034
(dp2035
g61
(dp2036
sg70
g66
sg63
(lp2037
g56
(g77
g58
NtRp2038
(dp2039
g61
(dp2040
g81
g82
ssg70
g2034
sg63
(lp2041
S'folder'
p2042
asbag56
(g77
g58
NtRp2043
(dp2044
g61
(dp2045
g88
g89
ssg70
g2034
sg63
(lp2046
S':'
asbag56
(g77
g58
NtRp2047
(dp2048
g61
(dp2049
sg70
g2034
sg63
(lp2050
g56
(g57
g58
NtRp2051
(dp2052
g61
(dp2053
g69
I5
ssg70
g2047
sg63
(lp2054
S'/home/ian/web2py/applications/grades/'
p2055
asbasbasbag56
(g72
g58
NtRp2056
(dp2057
g61
(dp2058
sg70
g66
sg63
(lp2059
g56
(g77
g58
NtRp2060
(dp2061
g61
(dp2062
g81
g82
ssg70
g2056
sg63
(lp2063
S'function'
p2064
asbag56
(g77
g58
NtRp2065
(dp2066
g61
(dp2067
g88
g89
ssg70
g2056
sg63
(lp2068
S':'
asbag56
(g77
g58
NtRp2069
(dp2070
g61
(dp2071
sg70
g2056
sg63
(lp2072
g56
(g57
g58
NtRp2073
(dp2074
g61
(dp2075
g69
I5
ssg70
g2069
sg63
(lp2076
S'grades_report'
p2077
asbasbasbag56
(g72
g58
NtRp2078
(dp2079
g61
(dp2080
sg70
g66
sg63
(lp2081
g56
(g77
g58
NtRp2082
(dp2083
g61
(dp2084
g81
g82
ssg70
g2078
sg63
(lp2085
S'get_vars'
p2086
asbag56
(g77
g58
NtRp2087
(dp2088
g61
(dp2089
g88
g89
ssg70
g2078
sg63
(lp2090
S':'
asbag56
(g77
g58
NtRp2091
(dp2092
g61
(dp2093
sg70
g2078
sg63
(lp2094
g56
(g57
g58
NtRp2095
(dp2096
g61
(dp2097
g69
I5
ssg70
g2091
sg63
(lp2098
g56
(g65
g58
NtRp2099
(dp2100
g61
(dp2101
g69
I4
ssg70
Nsg63
(lp2102
sbasbasbasbag56
(g72
g58
NtRp2103
(dp2104
g61
(dp2105
sg70
g66
sg63
(lp2106
g56
(g77
g58
NtRp2107
(dp2108
g61
(dp2109
g81
g82
ssg70
g2103
sg63
(lp2110
S'global_settings'
p2111
asbag56
(g77
g58
NtRp2112
(dp2113
g61
(dp2114
g88
g89
ssg70
g2103
sg63
(lp2115
S':'
asbag56
(g77
g58
NtRp2116
(dp2117
g61
(dp2118
sg70
g2103
sg63
(lp2119
g56
(g57
g58
NtRp2120
(dp2121
g61
(dp2122
g69
I5
ssg70
g2116
sg63
(lp2123
g56
(g65
g58
NtRp2124
(dp2125
g61
(dp2126
g69
I4
ssg70
Nsg63
(lp2127
g56
(g72
g58
NtRp2128
(dp2129
g61
(dp2130
sg70
g2124
sg63
(lp2131
g56
(g77
g58
NtRp2132
(dp2133
g61
(dp2134
g81
g82
ssg70
g2128
sg63
(lp2135
g1053
asbag56
(g77
g58
NtRp2136
(dp2137
g61
(dp2138
g88
g89
ssg70
g2128
sg63
(lp2139
S':'
asbag56
(g77
g58
NtRp2140
(dp2141
g61
(dp2142
sg70
g2128
sg63
(lp2143
g56
(g57
g58
NtRp2144
(dp2145
g61
(dp2146
g69
I4
ssg70
g2140
sg63
(lp2147
S"set(['/home/ian/web2py/applications/welcome/', '/home/ian/web2py/applications/grades/', '/home/ian/web2py/applications/admin/'])"
p2148
asbasbasbag56
(g72
g58
NtRp2149
(dp2150
g61
(dp2151
sg70
g2124
sg63
(lp2152
g56
(g77
g58
NtRp2153
(dp2154
g61
(dp2155
g81
g82
ssg70
g2149
sg63
(lp2156
g1075
asbag56
(g77
g58
NtRp2157
(dp2158
g61
(dp2159
g88
g89
ssg70
g2149
sg63
(lp2160
S':'
asbag56
(g77
g58
NtRp2161
(dp2162
g61
(dp2163
sg70
g2149
sg63
(lp2164
g56
(g57
g58
NtRp2165
(dp2166
g61
(dp2167
g69
I4
ssg70
g2161
sg63
(lp2168
g1088
asbasbasbag56
(g72
g58
NtRp2169
(dp2170
g61
(dp2171
sg70
g2124
sg63
(lp2172
g56
(g77
g58
NtRp2173
(dp2174
g61
(dp2175
g81
g82
ssg70
g2169
sg63
(lp2176
g1097
asbag56
(g77
g58
NtRp2177
(dp2178
g61
(dp2179
g88
g89
ssg70
g2169
sg63
(lp2180
S':'
asbag56
(g77
g58
NtRp2181
(dp2182
g61
(dp2183
sg70
g2169
sg63
(lp2184
g56
(g57
g58
NtRp2185
(dp2186
g61
(dp2187
g69
I4
ssg70
g2181
sg63
(lp2188
g56
(g65
g58
NtRp2189
(dp2190
g61
(dp2191
g69
I3
ssg70
Nsg63
(lp2192
sbasbasbasbag56
(g72
g58
NtRp2193
(dp2194
g61
(dp2195
sg70
g2124
sg63
(lp2196
g56
(g77
g58
NtRp2197
(dp2198
g61
(dp2199
g81
g82
ssg70
g2193
sg63
(lp2200
g1122
asbag56
(g77
g58
NtRp2201
(dp2202
g61
(dp2203
g88
g89
ssg70
g2193
sg63
(lp2204
S':'
asbag56
(g77
g58
NtRp2205
(dp2206
g61
(dp2207
sg70
g2193
sg63
(lp2208
g56
(g57
g58
NtRp2209
(dp2210
g61
(dp2211
g69
I4
ssg70
g2205
sg63
(lp2212
S"<Values at 0x1ffe758: {'verbose': False, 'ip': '127.0.0.1', 'shutdown_timeout': 5, 'taskbar': False, 'nocron': False, 'pid_filename': 'httpserver.pid', 'maxthreads': None, 'softcron': False, 'server_name': 'uriel', 'bpython': False, 'nogui': False, 'port': 8000, 'extcron': False, 'debuglevel': 30, 'test': None, 'folder': '/home/ian/web2py', 'config': '', 'import_models': False, 'winservice': '', 'shell': None, 'run': '', 'log_filename': 'httpserver.log', 'args': [''], 'ssl_ca_certificate': None, 'scheduler': None, 'profiler_filename': None, 'ssl_private_key': '', 'password': '<ask>', 'request_queue_size': 5, 'ssl_certificate': '', 'cronjob': False, 'plain': False, 'quiet': False, 'interfaces': None, 'minthreads': None, 'timeout': 10, 'numthreads': None, 'nobanner': False}>"
p2213
asbasbasbag56
(g72
g58
NtRp2214
(dp2215
g61
(dp2216
sg70
g2124
sg63
(lp2217
g56
(g77
g58
NtRp2218
(dp2219
g61
(dp2220
g81
g82
ssg70
g2214
sg63
(lp2221
g1144
asbag56
(g77
g58
NtRp2222
(dp2223
g61
(dp2224
g88
g89
ssg70
g2214
sg63
(lp2225
S':'
asbag56
(g77
g58
NtRp2226
(dp2227
g61
(dp2228
sg70
g2214
sg63
(lp2229
g56
(g57
g58
NtRp2230
(dp2231
g61
(dp2232
g69
I4
ssg70
g2226
sg63
(lp2233
S'set([])'
p2234
asbasbasbag56
(g72
g58
NtRp2235
(dp2236
g61
(dp2237
sg70
g2124
sg63
(lp2238
g56
(g77
g58
NtRp2239
(dp2240
g61
(dp2241
g81
g82
ssg70
g2235
sg63
(lp2242
g1166
asbag56
(g77
g58
NtRp2243
(dp2244
g61
(dp2245
g88
g89
ssg70
g2235
sg63
(lp2246
S':'
asbag56
(g77
g58
NtRp2247
(dp2248
g61
(dp2249
sg70
g2235
sg63
(lp2250
g56
(g57
g58
NtRp2251
(dp2252
g61
(dp2253
g69
I4
ssg70
g2247
sg63
(lp2254
g1179
asbasbasbag56
(g72
g58
NtRp2255
(dp2256
g61
(dp2257
sg70
g2124
sg63
(lp2258
g56
(g77
g58
NtRp2259
(dp2260
g61
(dp2261
g81
g82
ssg70
g2255
sg63
(lp2262
g1188
asbag56
(g77
g58
NtRp2263
(dp2264
g61
(dp2265
g88
g89
ssg70
g2255
sg63
(lp2266
S':'
asbag56
(g77
g58
NtRp2267
(dp2268
g61
(dp2269
sg70
g2255
sg63
(lp2270
g56
(g57
g58
NtRp2271
(dp2272
g61
(dp2273
g69
I4
ssg70
g2267
sg63
(lp2274
g1201
asbasbasbag56
(g72
g58
NtRp2275
(dp2276
g61
(dp2277
sg70
g2124
sg63
(lp2278
g56
(g77
g58
NtRp2279
(dp2280
g61
(dp2281
g81
g82
ssg70
g2275
sg63
(lp2282
g1451
asbag56
(g77
g58
NtRp2283
(dp2284
g61
(dp2285
g88
g89
ssg70
g2275
sg63
(lp2286
S':'
asbag56
(g77
g58
NtRp2287
(dp2288
g61
(dp2289
sg70
g2275
sg63
(lp2290
g56
(g57
g58
NtRp2291
(dp2292
g61
(dp2293
g69
I4
ssg70
g2287
sg63
(lp2294
g1179
asbasbasbag56
(g72
g58
NtRp2295
(dp2296
g61
(dp2297
sg70
g2124
sg63
(lp2298
g56
(g77
g58
NtRp2299
(dp2300
g61
(dp2301
g81
g82
ssg70
g2295
sg63
(lp2302
g1689
asbag56
(g77
g58
NtRp2303
(dp2304
g61
(dp2305
g88
g89
ssg70
g2295
sg63
(lp2306
S':'
asbag56
(g77
g58
NtRp2307
(dp2308
g61
(dp2309
sg70
g2295
sg63
(lp2310
g56
(g57
g58
NtRp2311
(dp2312
g61
(dp2313
g69
I4
ssg70
g2307
sg63
(lp2314
g1702
asbasbasbag56
(g72
g58
NtRp2315
(dp2316
g61
(dp2317
sg70
g2124
sg63
(lp2318
g56
(g77
g58
NtRp2319
(dp2320
g61
(dp2321
g81
g82
ssg70
g2315
sg63
(lp2322
g1732
asbag56
(g77
g58
NtRp2323
(dp2324
g61
(dp2325
g88
g89
ssg70
g2315
sg63
(lp2326
S':'
asbag56
(g77
g58
NtRp2327
(dp2328
g61
(dp2329
sg70
g2315
sg63
(lp2330
g56
(g57
g58
NtRp2331
(dp2332
g61
(dp2333
g69
I4
ssg70
g2327
sg63
(lp2334
g56
(g65
g58
NtRp2335
(dp2336
g61
(dp2337
g69
I3
ssg70
Nsg63
(lp2338
g56
(g72
g58
NtRp2339
(dp2340
g61
(dp2341
sg70
g2335
sg63
(lp2342
g56
(g77
g58
NtRp2343
(dp2344
g61
(dp2345
sg70
g2339
sg63
(lp2346
g56
(g57
g58
NtRp2347
(dp2348
g61
(dp2349
g69
I3
ssg70
g2343
sg63
(lp2350
S'1'
asbasbasbag56
(g72
g58
NtRp2351
(dp2352
g61
(dp2353
sg70
g2335
sg63
(lp2354
g56
(g77
g58
NtRp2355
(dp2356
g61
(dp2357
sg70
g2351
sg63
(lp2358
g56
(g57
g58
NtRp2359
(dp2360
g61
(dp2361
g69
I3
ssg70
g2355
sg63
(lp2362
S'99'
p2363
asbasbasbag56
(g72
g58
NtRp2364
(dp2365
g61
(dp2366
sg70
g2335
sg63
(lp2367
g56
(g77
g58
NtRp2368
(dp2369
g61
(dp2370
sg70
g2364
sg63
(lp2371
g56
(g57
g58
NtRp2372
(dp2373
g61
(dp2374
g69
I3
ssg70
g2368
sg63
(lp2375
S'2'
asbasbasbag56
(g72
g58
NtRp2376
(dp2377
g61
(dp2378
sg70
g2335
sg63
(lp2379
g56
(g77
g58
NtRp2380
(dp2381
g61
(dp2382
sg70
g2376
sg63
(lp2383
g56
(g57
g58
NtRp2384
(dp2385
g61
(dp2386
g69
I3
ssg70
g2380
sg63
(lp2387
S'datetime.datetime(2011, 9, 26, 6, 55, 33)'
p2388
asbasbasbag56
(g72
g58
NtRp2389
(dp2390
g61
(dp2391
sg70
g2335
sg63
(lp2392
g56
(g77
g58
NtRp2393
(dp2394
g61
(dp2395
sg70
g2389
sg63
(lp2396
g56
(g57
g58
NtRp2397
(dp2398
g61
(dp2399
g69
I3
ssg70
g2393
sg63
(lp2400
g1811
asbasbasbasbasbasbasbasbasbasbasbag56
(g72
g58
NtRp2401
(dp2402
g61
(dp2403
sg70
g66
sg63
(lp2404
g56
(g77
g58
NtRp2405
(dp2406
g61
(dp2407
g81
g82
ssg70
g2401
sg63
(lp2408
S'is_https'
p2409
asbag56
(g77
g58
NtRp2410
(dp2411
g61
(dp2412
g88
g89
ssg70
g2401
sg63
(lp2413
S':'
asbag56
(g77
g58
NtRp2414
(dp2415
g61
(dp2416
sg70
g2401
sg63
(lp2417
g56
(g57
g58
NtRp2418
(dp2419
g61
(dp2420
g69
I5
ssg70
g2414
sg63
(lp2421
g1179
asbasbasbag56
(g72
g58
NtRp2422
(dp2423
g61
(dp2424
sg70
g66
sg63
(lp2425
g56
(g77
g58
NtRp2426
(dp2427
g61
(dp2428
g81
g82
ssg70
g2422
sg63
(lp2429
S'is_local'
p2430
asbag56
(g77
g58
NtRp2431
(dp2432
g61
(dp2433
g88
g89
ssg70
g2422
sg63
(lp2434
S':'
asbag56
(g77
g58
NtRp2435
(dp2436
g61
(dp2437
sg70
g2422
sg63
(lp2438
g56
(g57
g58
NtRp2439
(dp2440
g61
(dp2441
g69
I5
ssg70
g2435
sg63
(lp2442
g99
asbasbasbag56
(g72
g58
NtRp2443
(dp2444
g61
(dp2445
sg70
g66
sg63
(lp2446
g56
(g77
g58
NtRp2447
(dp2448
g61
(dp2449
g81
g82
ssg70
g2443
sg63
(lp2450
S'is_restful'
p2451
asbag56
(g77
g58
NtRp2452
(dp2453
g61
(dp2454
g88
g89
ssg70
g2443
sg63
(lp2455
S':'
asbag56
(g77
g58
NtRp2456
(dp2457
g61
(dp2458
sg70
g2443
sg63
(lp2459
g56
(g57
g58
NtRp2460
(dp2461
g61
(dp2462
g69
I5
ssg70
g2456
sg63
(lp2463
g1179
asbasbasbag56
(g72
g58
NtRp2464
(dp2465
g61
(dp2466
sg70
g66
sg63
(lp2467
g56
(g77
g58
NtRp2468
(dp2469
g61
(dp2470
g81
g82
ssg70
g2464
sg63
(lp2471
S'now'
p2472
asbag56
(g77
g58
NtRp2473
(dp2474
g61
(dp2475
g88
g89
ssg70
g2464
sg63
(lp2476
S':'
asbag56
(g77
g58
NtRp2477
(dp2478
g61
(dp2479
sg70
g2464
sg63
(lp2480
g56
(g57
g58
NtRp2481
(dp2482
g61
(dp2483
g69
I5
ssg70
g2477
sg63
(lp2484
S'datetime.datetime(2011, 11, 9, 13, 49, 36, 991924)'
p2485
asbasbasbag56
(g72
g58
NtRp2486
(dp2487
g61
(dp2488
sg70
g66
sg63
(lp2489
g56
(g77
g58
NtRp2490
(dp2491
g61
(dp2492
g81
g82
ssg70
g2486
sg63
(lp2493
S'post_vars'
p2494
asbag56
(g77
g58
NtRp2495
(dp2496
g61
(dp2497
g88
g89
ssg70
g2486
sg63
(lp2498
S':'
asbag56
(g77
g58
NtRp2499
(dp2500
g61
(dp2501
sg70
g2486
sg63
(lp2502
g56
(g57
g58
NtRp2503
(dp2504
g61
(dp2505
g69
I5
ssg70
g2499
sg63
(lp2506
g56
(g65
g58
NtRp2507
(dp2508
g61
(dp2509
g69
I4
ssg70
Nsg63
(lp2510
sbasbasbasbag56
(g72
g58
NtRp2511
(dp2512
g61
(dp2513
sg70
g66
sg63
(lp2514
g56
(g77
g58
NtRp2515
(dp2516
g61
(dp2517
g81
g82
ssg70
g2511
sg63
(lp2518
S'raw_args'
p2519
asbag56
(g77
g58
NtRp2520
(dp2521
g61
(dp2522
g88
g89
ssg70
g2511
sg63
(lp2523
S':'
asbag56
(g77
g58
NtRp2524
(dp2525
g61
(dp2526
sg70
g2511
sg63
(lp2527
g56
(g57
g58
NtRp2528
(dp2529
g61
(dp2530
g69
I5
ssg70
g2524
sg63
(lp2531
g158
asbasbasbag56
(g72
g58
NtRp2532
(dp2533
g61
(dp2534
sg70
g66
sg63
(lp2535
g56
(g77
g58
NtRp2536
(dp2537
g61
(dp2538
g81
g82
ssg70
g2532
sg63
(lp2539
S'raw_extension'
p2540
asbag56
(g77
g58
NtRp2541
(dp2542
g61
(dp2543
g88
g89
ssg70
g2532
sg63
(lp2544
S':'
asbag56
(g77
g58
NtRp2545
(dp2546
g61
(dp2547
sg70
g2532
sg63
(lp2548
g56
(g57
g58
NtRp2549
(dp2550
g61
(dp2551
g69
I5
ssg70
g2545
sg63
(lp2552
g2033
asbasbasbag56
(g72
g58
NtRp2553
(dp2554
g61
(dp2555
sg70
g66
sg63
(lp2556
g56
(g77
g58
NtRp2557
(dp2558
g61
(dp2559
g81
g82
ssg70
g2553
sg63
(lp2560
S'url'
p2561
asbag56
(g77
g58
NtRp2562
(dp2563
g61
(dp2564
g88
g89
ssg70
g2553
sg63
(lp2565
S':'
asbag56
(g77
g58
NtRp2566
(dp2567
g61
(dp2568
sg70
g2553
sg63
(lp2569
g56
(g57
g58
NtRp2570
(dp2571
g61
(dp2572
g69
I5
ssg70
g2566
sg63
(lp2573
S'/grades/default/grades_report.load/11'
p2574
asbasbasbag56
(g72
g58
NtRp2575
(dp2576
g61
(dp2577
sg70
g66
sg63
(lp2578
g56
(g77
g58
NtRp2579
(dp2580
g61
(dp2581
g81
g82
ssg70
g2575
sg63
(lp2582
S'utcnow'
p2583
asbag56
(g77
g58
NtRp2584
(dp2585
g61
(dp2586
g88
g89
ssg70
g2575
sg63
(lp2587
S':'
asbag56
(g77
g58
NtRp2588
(dp2589
g61
(dp2590
sg70
g2575
sg63
(lp2591
g56
(g57
g58
NtRp2592
(dp2593
g61
(dp2594
g69
I5
ssg70
g2588
sg63
(lp2595
S'datetime.datetime(2011, 11, 9, 18, 49, 36, 991979)'
p2596
asbasbasbag56
(g72
g58
NtRp2597
(dp2598
g61
(dp2599
sg70
g66
sg63
(lp2600
g56
(g77
g58
NtRp2601
(dp2602
g61
(dp2603
g81
g82
ssg70
g2597
sg63
(lp2604
S'uuid'
p2605
asbag56
(g77
g58
NtRp2606
(dp2607
g61
(dp2608
g88
g89
ssg70
g2597
sg63
(lp2609
S':'
asbag56
(g77
g58
NtRp2610
(dp2611
g61
(dp2612
sg70
g2597
sg63
(lp2613
g56
(g57
g58
NtRp2614
(dp2615
g61
(dp2616
g69
I5
ssg70
g2610
sg63
(lp2617
S'grades/127.0.0.1.2011-11-09.13-49-36.b63d60ca-3cb0-4dd5-b6f2-07b7c59cbc15'
p2618
asbasbasbag56
(g72
g58
NtRp2619
(dp2620
g61
(dp2621
sg70
g66
sg63
(lp2622
g56
(g77
g58
NtRp2623
(dp2624
g61
(dp2625
g81
g82
ssg70
g2619
sg63
(lp2626
S'vars'
p2627
asbag56
(g77
g58
NtRp2628
(dp2629
g61
(dp2630
g88
g89
ssg70
g2619
sg63
(lp2631
S':'
asbag56
(g77
g58
NtRp2632
(dp2633
g61
(dp2634
sg70
g2619
sg63
(lp2635
g56
(g57
g58
NtRp2636
(dp2637
g61
(dp2638
g69
I5
ssg70
g2632
sg63
(lp2639
g56
(g65
g58
NtRp2640
(dp2641
g61
(dp2642
g69
I4
ssg70
Nsg63
(lp2643
sbasbasbasbag56
(g72
g58
NtRp2644
(dp2645
g61
(dp2646
sg70
g66
sg63
(lp2647
g56
(g77
g58
NtRp2648
(dp2649
g61
(dp2650
g81
g82
ssg70
g2644
sg63
(lp2651
S'wsgi'
p2652
asbag56
(g77
g58
NtRp2653
(dp2654
g61
(dp2655
g88
g89
ssg70
g2644
sg63
(lp2656
S':'
asbag56
(g77
g58
NtRp2657
(dp2658
g61
(dp2659
sg70
g2644
sg63
(lp2660
g56
(g57
g58
NtRp2661
(dp2662
g61
(dp2663
g69
I5
ssg70
g2657
sg63
(lp2664
g56
(g65
g58
NtRp2665
(dp2666
g61
(dp2667
g69
I4
ssg70
Nsg63
(lp2668
g56
(g72
g58
NtRp2669
(dp2670
g61
(dp2671
sg70
g2665
sg63
(lp2672
g56
(g77
g58
NtRp2673
(dp2674
g61
(dp2675
g81
g82
ssg70
g2669
sg63
(lp2676
S'environ'
p2677
asbag56
(g77
g58
NtRp2678
(dp2679
g61
(dp2680
g88
g89
ssg70
g2669
sg63
(lp2681
S':'
asbag56
(g77
g58
NtRp2682
(dp2683
g61
(dp2684
sg70
g2669
sg63
(lp2685
g56
(g57
g58
NtRp2686
(dp2687
g61
(dp2688
g69
I4
ssg70
g2682
sg63
(lp2689
g56
(g65
g58
NtRp2690
(dp2691
g61
(dp2692
g69
I3
ssg70
Nsg63
(lp2693
g56
(g72
g58
NtRp2694
(dp2695
g61
(dp2696
sg70
g2690
sg63
(lp2697
g56
(g77
g58
NtRp2698
(dp2699
g61
(dp2700
g81
g82
ssg70
g2694
sg63
(lp2701
S'HTTP_ACCEPT'
p2702
asbag56
(g77
g58
NtRp2703
(dp2704
g61
(dp2705
g88
g89
ssg70
g2694
sg63
(lp2706
S':'
asbag56
(g77
g58
NtRp2707
(dp2708
g61
(dp2709
sg70
g2694
sg63
(lp2710
g56
(g57
g58
NtRp2711
(dp2712
g61
(dp2713
g69
I3
ssg70
g2707
sg63
(lp2714
g1223
asbasbasbag56
(g72
g58
NtRp2715
(dp2716
g61
(dp2717
sg70
g2690
sg63
(lp2718
g56
(g77
g58
NtRp2719
(dp2720
g61
(dp2721
g81
g82
ssg70
g2715
sg63
(lp2722
S'HTTP_ACCEPT_ENCODING'
p2723
asbag56
(g77
g58
NtRp2724
(dp2725
g61
(dp2726
g88
g89
ssg70
g2715
sg63
(lp2727
S':'
asbag56
(g77
g58
NtRp2728
(dp2729
g61
(dp2730
sg70
g2715
sg63
(lp2731
g56
(g57
g58
NtRp2732
(dp2733
g61
(dp2734
g69
I3
ssg70
g2728
sg63
(lp2735
g1245
asbasbasbag56
(g72
g58
NtRp2736
(dp2737
g61
(dp2738
sg70
g2690
sg63
(lp2739
g56
(g77
g58
NtRp2740
(dp2741
g61
(dp2742
g81
g82
ssg70
g2736
sg63
(lp2743
S'HTTP_ACCEPT_LANGUAGE'
p2744
asbag56
(g77
g58
NtRp2745
(dp2746
g61
(dp2747
g88
g89
ssg70
g2736
sg63
(lp2748
S':'
asbag56
(g77
g58
NtRp2749
(dp2750
g61
(dp2751
sg70
g2736
sg63
(lp2752
g56
(g57
g58
NtRp2753
(dp2754
g61
(dp2755
g69
I3
ssg70
g2749
sg63
(lp2756
g1267
asbasbasbag56
(g72
g58
NtRp2757
(dp2758
g61
(dp2759
sg70
g2690
sg63
(lp2760
g56
(g77
g58
NtRp2761
(dp2762
g61
(dp2763
g81
g82
ssg70
g2757
sg63
(lp2764
S'HTTP_CONNECTION'
p2765
asbag56
(g77
g58
NtRp2766
(dp2767
g61
(dp2768
g88
g89
ssg70
g2757
sg63
(lp2769
S':'
asbag56
(g77
g58
NtRp2770
(dp2771
g61
(dp2772
sg70
g2757
sg63
(lp2773
g56
(g57
g58
NtRp2774
(dp2775
g61
(dp2776
g69
I3
ssg70
g2770
sg63
(lp2777
g1289
asbasbasbag56
(g72
g58
NtRp2778
(dp2779
g61
(dp2780
sg70
g2690
sg63
(lp2781
g56
(g77
g58
NtRp2782
(dp2783
g61
(dp2784
g81
g82
ssg70
g2778
sg63
(lp2785
S'HTTP_COOKIE'
p2786
asbag56
(g77
g58
NtRp2787
(dp2788
g61
(dp2789
g88
g89
ssg70
g2778
sg63
(lp2790
S':'
asbag56
(g77
g58
NtRp2791
(dp2792
g61
(dp2793
sg70
g2778
sg63
(lp2794
g56
(g57
g58
NtRp2795
(dp2796
g61
(dp2797
g69
I3
ssg70
g2791
sg63
(lp2798
g1311
asbasbasbag56
(g72
g58
NtRp2799
(dp2800
g61
(dp2801
sg70
g2690
sg63
(lp2802
g56
(g77
g58
NtRp2803
(dp2804
g61
(dp2805
g81
g82
ssg70
g2799
sg63
(lp2806
S'HTTP_HOST'
p2807
asbag56
(g77
g58
NtRp2808
(dp2809
g61
(dp2810
g88
g89
ssg70
g2799
sg63
(lp2811
S':'
asbag56
(g77
g58
NtRp2812
(dp2813
g61
(dp2814
sg70
g2799
sg63
(lp2815
g56
(g57
g58
NtRp2816
(dp2817
g61
(dp2818
g69
I3
ssg70
g2812
sg63
(lp2819
g1333
asbasbasbag56
(g72
g58
NtRp2820
(dp2821
g61
(dp2822
sg70
g2690
sg63
(lp2823
g56
(g77
g58
NtRp2824
(dp2825
g61
(dp2826
g81
g82
ssg70
g2820
sg63
(lp2827
S'HTTP_REFERER'
p2828
asbag56
(g77
g58
NtRp2829
(dp2830
g61
(dp2831
g88
g89
ssg70
g2820
sg63
(lp2832
S':'
asbag56
(g77
g58
NtRp2833
(dp2834
g61
(dp2835
sg70
g2820
sg63
(lp2836
g56
(g57
g58
NtRp2837
(dp2838
g61
(dp2839
g69
I3
ssg70
g2833
sg63
(lp2840
g1355
asbasbasbag56
(g72
g58
NtRp2841
(dp2842
g61
(dp2843
sg70
g2690
sg63
(lp2844
g56
(g77
g58
NtRp2845
(dp2846
g61
(dp2847
g81
g82
ssg70
g2841
sg63
(lp2848
S'HTTP_USER_AGENT'
p2849
asbag56
(g77
g58
NtRp2850
(dp2851
g61
(dp2852
g88
g89
ssg70
g2841
sg63
(lp2853
S':'
asbag56
(g77
g58
NtRp2854
(dp2855
g61
(dp2856
sg70
g2841
sg63
(lp2857
g56
(g57
g58
NtRp2858
(dp2859
g61
(dp2860
g69
I3
ssg70
g2854
sg63
(lp2861
g1377
asbasbasbag56
(g72
g58
NtRp2862
(dp2863
g61
(dp2864
sg70
g2690
sg63
(lp2865
g56
(g77
g58
NtRp2866
(dp2867
g61
(dp2868
g81
g82
ssg70
g2862
sg63
(lp2869
S'HTTP_WEB2PY_COMPONENT_ELEMENT'
p2870
asbag56
(g77
g58
NtRp2871
(dp2872
g61
(dp2873
g88
g89
ssg70
g2862
sg63
(lp2874
S':'
asbag56
(g77
g58
NtRp2875
(dp2876
g61
(dp2877
sg70
g2862
sg63
(lp2878
g56
(g57
g58
NtRp2879
(dp2880
g61
(dp2881
g69
I3
ssg70
g2875
sg63
(lp2882
g202
asbasbasbag56
(g72
g58
NtRp2883
(dp2884
g61
(dp2885
sg70
g2690
sg63
(lp2886
g56
(g77
g58
NtRp2887
(dp2888
g61
(dp2889
g81
g82
ssg70
g2883
sg63
(lp2890
S'HTTP_WEB2PY_COMPONENT_LOCATION'
p2891
asbag56
(g77
g58
NtRp2892
(dp2893
g61
(dp2894
g88
g89
ssg70
g2883
sg63
(lp2895
S':'
asbag56
(g77
g58
NtRp2896
(dp2897
g61
(dp2898
sg70
g2883
sg63
(lp2899
g56
(g57
g58
NtRp2900
(dp2901
g61
(dp2902
g69
I3
ssg70
g2896
sg63
(lp2903
g1420
asbasbasbag56
(g72
g58
NtRp2904
(dp2905
g61
(dp2906
sg70
g2690
sg63
(lp2907
g56
(g77
g58
NtRp2908
(dp2909
g61
(dp2910
g81
g82
ssg70
g2904
sg63
(lp2911
S'HTTP_X_REQUESTED_WITH'
p2912
asbag56
(g77
g58
NtRp2913
(dp2914
g61
(dp2915
g88
g89
ssg70
g2904
sg63
(lp2916
S':'
asbag56
(g77
g58
NtRp2917
(dp2918
g61
(dp2919
sg70
g2904
sg63
(lp2920
g56
(g57
g58
NtRp2921
(dp2922
g61
(dp2923
g69
I3
ssg70
g2917
sg63
(lp2924
g1442
asbasbasbag56
(g72
g58
NtRp2925
(dp2926
g61
(dp2927
sg70
g2690
sg63
(lp2928
g56
(g77
g58
NtRp2929
(dp2930
g61
(dp2931
g81
g82
ssg70
g2925
sg63
(lp2932
S'PATH_INFO'
p2933
asbag56
(g77
g58
NtRp2934
(dp2935
g61
(dp2936
g88
g89
ssg70
g2925
sg63
(lp2937
S':'
asbag56
(g77
g58
NtRp2938
(dp2939
g61
(dp2940
sg70
g2925
sg63
(lp2941
g56
(g57
g58
NtRp2942
(dp2943
g61
(dp2944
g69
I3
ssg70
g2938
sg63
(lp2945
g1485
asbasbasbag56
(g72
g58
NtRp2946
(dp2947
g61
(dp2948
sg70
g2690
sg63
(lp2949
g56
(g77
g58
NtRp2950
(dp2951
g61
(dp2952
g81
g82
ssg70
g2946
sg63
(lp2953
S'QUERY_STRING'
p2954
asbag56
(g77
g58
NtRp2955
(dp2956
g61
(dp2957
g88
g89
ssg70
g2946
sg63
(lp2958
S':'
asbag56
(g77
g58
NtRp2959
(dp2960
g61
(dp2961
sg70
g2946
sg63
(lp2962
g56
(g57
g58
NtRp2963
(dp2964
g61
(dp2965
g69
I3
ssg70
g2959
sg63
(lp2966
S''
asbasbasbag56
(g72
g58
NtRp2967
(dp2968
g61
(dp2969
sg70
g2690
sg63
(lp2970
g56
(g77
g58
NtRp2971
(dp2972
g61
(dp2973
g81
g82
ssg70
g2967
sg63
(lp2974
S'REMOTE_ADDR'
p2975
asbag56
(g77
g58
NtRp2976
(dp2977
g61
(dp2978
g88
g89
ssg70
g2967
sg63
(lp2979
S':'
asbag56
(g77
g58
NtRp2980
(dp2981
g61
(dp2982
sg70
g2967
sg63
(lp2983
g56
(g57
g58
NtRp2984
(dp2985
g61
(dp2986
g69
I3
ssg70
g2980
sg63
(lp2987
g224
asbasbasbag56
(g72
g58
NtRp2988
(dp2989
g61
(dp2990
sg70
g2690
sg63
(lp2991
g56
(g77
g58
NtRp2992
(dp2993
g61
(dp2994
g81
g82
ssg70
g2988
sg63
(lp2995
S'REMOTE_PORT'
p2996
asbag56
(g77
g58
NtRp2997
(dp2998
g61
(dp2999
g88
g89
ssg70
g2988
sg63
(lp3000
S':'
asbag56
(g77
g58
NtRp3001
(dp3002
g61
(dp3003
sg70
g2988
sg63
(lp3004
g56
(g57
g58
NtRp3005
(dp3006
g61
(dp3007
g69
I3
ssg70
g3001
sg63
(lp3008
g1549
asbasbasbag56
(g72
g58
NtRp3009
(dp3010
g61
(dp3011
sg70
g2690
sg63
(lp3012
g56
(g77
g58
NtRp3013
(dp3014
g61
(dp3015
g81
g82
ssg70
g3009
sg63
(lp3016
S'REQUEST_METHOD'
p3017
asbag56
(g77
g58
NtRp3018
(dp3019
g61
(dp3020
g88
g89
ssg70
g3009
sg63
(lp3021
S':'
asbag56
(g77
g58
NtRp3022
(dp3023
g61
(dp3024
sg70
g3009
sg63
(lp3025
g56
(g57
g58
NtRp3026
(dp3027
g61
(dp3028
g69
I3
ssg70
g3022
sg63
(lp3029
g1571
asbasbasbag56
(g72
g58
NtRp3030
(dp3031
g61
(dp3032
sg70
g2690
sg63
(lp3033
g56
(g77
g58
NtRp3034
(dp3035
g61
(dp3036
g81
g82
ssg70
g3030
sg63
(lp3037
S'SCRIPT_NAME'
p3038
asbag56
(g77
g58
NtRp3039
(dp3040
g61
(dp3041
g88
g89
ssg70
g3030
sg63
(lp3042
S':'
asbag56
(g77
g58
NtRp3043
(dp3044
g61
(dp3045
sg70
g3030
sg63
(lp3046
g56
(g57
g58
NtRp3047
(dp3048
g61
(dp3049
g69
I3
ssg70
g3043
sg63
(lp3050
S''
asbasbasbag56
(g72
g58
NtRp3051
(dp3052
g61
(dp3053
sg70
g2690
sg63
(lp3054
g56
(g77
g58
NtRp3055
(dp3056
g61
(dp3057
g81
g82
ssg70
g3051
sg63
(lp3058
S'SERVER_NAME'
p3059
asbag56
(g77
g58
NtRp3060
(dp3061
g61
(dp3062
g88
g89
ssg70
g3051
sg63
(lp3063
S':'
asbag56
(g77
g58
NtRp3064
(dp3065
g61
(dp3066
sg70
g3051
sg63
(lp3067
g56
(g57
g58
NtRp3068
(dp3069
g61
(dp3070
g69
I3
ssg70
g3064
sg63
(lp3071
g1614
asbasbasbag56
(g72
g58
NtRp3072
(dp3073
g61
(dp3074
sg70
g2690
sg63
(lp3075
g56
(g77
g58
NtRp3076
(dp3077
g61
(dp3078
g81
g82
ssg70
g3072
sg63
(lp3079
S'SERVER_PORT'
p3080
asbag56
(g77
g58
NtRp3081
(dp3082
g61
(dp3083
g88
g89
ssg70
g3072
sg63
(lp3084
S':'
asbag56
(g77
g58
NtRp3085
(dp3086
g61
(dp3087
sg70
g3072
sg63
(lp3088
g56
(g57
g58
NtRp3089
(dp3090
g61
(dp3091
g69
I3
ssg70
g3085
sg63
(lp3092
g1636
asbasbasbag56
(g72
g58
NtRp3093
(dp3094
g61
(dp3095
sg70
g2690
sg63
(lp3096
g56
(g77
g58
NtRp3097
(dp3098
g61
(dp3099
g81
g82
ssg70
g3093
sg63
(lp3100
S'SERVER_PROTOCOL'
p3101
asbag56
(g77
g58
NtRp3102
(dp3103
g61
(dp3104
g88
g89
ssg70
g3093
sg63
(lp3105
S':'
asbag56
(g77
g58
NtRp3106
(dp3107
g61
(dp3108
sg70
g3093
sg63
(lp3109
g56
(g57
g58
NtRp3110
(dp3111
g61
(dp3112
g69
I3
ssg70
g3106
sg63
(lp3113
g1658
asbasbasbag56
(g72
g58
NtRp3114
(dp3115
g61
(dp3116
sg70
g2690
sg63
(lp3117
g56
(g77
g58
NtRp3118
(dp3119
g61
(dp3120
g81
g82
ssg70
g3114
sg63
(lp3121
S'SERVER_SOFTWARE'
p3122
asbag56
(g77
g58
NtRp3123
(dp3124
g61
(dp3125
g88
g89
ssg70
g3114
sg63
(lp3126
S':'
asbag56
(g77
g58
NtRp3127
(dp3128
g61
(dp3129
sg70
g3114
sg63
(lp3130
g56
(g57
g58
NtRp3131
(dp3132
g61
(dp3133
g69
I3
ssg70
g3127
sg63
(lp3134
g1680
asbasbasbag56
(g72
g58
NtRp3135
(dp3136
g61
(dp3137
sg70
g2690
sg63
(lp3138
g56
(g77
g58
NtRp3139
(dp3140
g61
(dp3141
g81
g82
ssg70
g3135
sg63
(lp3142
S'wsgi.errors'
p3143
asbag56
(g77
g58
NtRp3144
(dp3145
g61
(dp3146
g88
g89
ssg70
g3135
sg63
(lp3147
S':'
asbag56
(g77
g58
NtRp3148
(dp3149
g61
(dp3150
sg70
g3135
sg63
(lp3151
g56
(g57
g58
NtRp3152
(dp3153
g61
(dp3154
g69
I3
ssg70
g3148
sg63
(lp3155
S"<open file '<stderr>', mode 'w' at 0x7f9678b3d270>"
p3156
asbasbasbag56
(g72
g58
NtRp3157
(dp3158
g61
(dp3159
sg70
g2690
sg63
(lp3160
g56
(g77
g58
NtRp3161
(dp3162
g61
(dp3163
g81
g82
ssg70
g3157
sg63
(lp3164
S'wsgi.file_wrapper'
p3165
asbag56
(g77
g58
NtRp3166
(dp3167
g61
(dp3168
g88
g89
ssg70
g3157
sg63
(lp3169
S':'
asbag56
(g77
g58
NtRp3170
(dp3171
g61
(dp3172
sg70
g3157
sg63
(lp3173
g56
(g57
g58
NtRp3174
(dp3175
g61
(dp3176
g69
I3
ssg70
g3170
sg63
(lp3177
S'<class wsgiref.util.FileWrapper at 0x1ec9870>'
p3178
asbasbasbag56
(g72
g58
NtRp3179
(dp3180
g61
(dp3181
sg70
g2690
sg63
(lp3182
g56
(g77
g58
NtRp3183
(dp3184
g61
(dp3185
g81
g82
ssg70
g3179
sg63
(lp3186
S'wsgi.input'
p3187
asbag56
(g77
g58
NtRp3188
(dp3189
g61
(dp3190
g88
g89
ssg70
g3179
sg63
(lp3191
S':'
asbag56
(g77
g58
NtRp3192
(dp3193
g61
(dp3194
sg70
g3179
sg63
(lp3195
g56
(g57
g58
NtRp3196
(dp3197
g61
(dp3198
g69
I3
ssg70
g3192
sg63
(lp3199
S'<cStringIO.StringO object at 0x403ef80>'
p3200
asbasbasbag56
(g72
g58
NtRp3201
(dp3202
g61
(dp3203
sg70
g2690
sg63
(lp3204
g56
(g77
g58
NtRp3205
(dp3206
g61
(dp3207
g81
g82
ssg70
g3201
sg63
(lp3208
S'wsgi.multiprocess'
p3209
asbag56
(g77
g58
NtRp3210
(dp3211
g61
(dp3212
g88
g89
ssg70
g3201
sg63
(lp3213
S':'
asbag56
(g77
g58
NtRp3214
(dp3215
g61
(dp3216
sg70
g3201
sg63
(lp3217
g56
(g57
g58
NtRp3218
(dp3219
g61
(dp3220
g69
I3
ssg70
g3214
sg63
(lp3221
g1179
asbasbasbag56
(g72
g58
NtRp3222
(dp3223
g61
(dp3224
sg70
g2690
sg63
(lp3225
g56
(g77
g58
NtRp3226
(dp3227
g61
(dp3228
g81
g82
ssg70
g3222
sg63
(lp3229
S'wsgi.multithread'
p3230
asbag56
(g77
g58
NtRp3231
(dp3232
g61
(dp3233
g88
g89
ssg70
g3222
sg63
(lp3234
S':'
asbag56
(g77
g58
NtRp3235
(dp3236
g61
(dp3237
sg70
g3222
sg63
(lp3238
g56
(g57
g58
NtRp3239
(dp3240
g61
(dp3241
g69
I3
ssg70
g3235
sg63
(lp3242
g99
asbasbasbag56
(g72
g58
NtRp3243
(dp3244
g61
(dp3245
sg70
g2690
sg63
(lp3246
g56
(g77
g58
NtRp3247
(dp3248
g61
(dp3249
g81
g82
ssg70
g3243
sg63
(lp3250
S'wsgi.run_once'
p3251
asbag56
(g77
g58
NtRp3252
(dp3253
g61
(dp3254
g88
g89
ssg70
g3243
sg63
(lp3255
S':'
asbag56
(g77
g58
NtRp3256
(dp3257
g61
(dp3258
sg70
g3243
sg63
(lp3259
g56
(g57
g58
NtRp3260
(dp3261
g61
(dp3262
g69
I3
ssg70
g3256
sg63
(lp3263
g1179
asbasbasbag56
(g72
g58
NtRp3264
(dp3265
g61
(dp3266
sg70
g2690
sg63
(lp3267
g56
(g77
g58
NtRp3268
(dp3269
g61
(dp3270
g81
g82
ssg70
g3264
sg63
(lp3271
S'wsgi.url_scheme'
p3272
asbag56
(g77
g58
NtRp3273
(dp3274
g61
(dp3275
g88
g89
ssg70
g3264
sg63
(lp3276
S':'
asbag56
(g77
g58
NtRp3277
(dp3278
g61
(dp3279
sg70
g3264
sg63
(lp3280
g56
(g57
g58
NtRp3281
(dp3282
g61
(dp3283
g69
I3
ssg70
g3277
sg63
(lp3284
g1962
asbasbasbag56
(g72
g58
NtRp3285
(dp3286
g61
(dp3287
sg70
g2690
sg63
(lp3288
g56
(g77
g58
NtRp3289
(dp3290
g61
(dp3291
g81
g82
ssg70
g3285
sg63
(lp3292
S'wsgi.version'
p3293
asbag56
(g77
g58
NtRp3294
(dp3295
g61
(dp3296
g88
g89
ssg70
g3285
sg63
(lp3297
S':'
asbag56
(g77
g58
NtRp3298
(dp3299
g61
(dp3300
sg70
g3285
sg63
(lp3301
g56
(g57
g58
NtRp3302
(dp3303
g61
(dp3304
g69
I3
ssg70
g3298
sg63
(lp3305
S'1'
asbasbasbasbasbasbasbasbasbasbasbasbasbsS'frames'
p3306
(lp3307
(dp3308
S'file'
p3309
S'/home/ian/web2py/gluon/restricted.py'
p3310
sS'dump'
p3311
(dp3312
S'environment'
p3313
S"{'A': <class 'gluon.html.A'>, 'Auth': <class 'gluon.tools.Auth'>, 'B': <class 'gluon.html.B'>, 'BEAUTIFY': <class 'gluon.html.BEAUTIFY'>, 'BODY': <class 'gluon.html.BODY'>, 'BR': <class 'gluon.html.BR'>, 'BUTTON': <class 'gluon.html.BUTTON'>, 'CAT': <class 'gluon.html.CAT'>, 'CENTER': <class 'gluon.html.CENTER'>, 'CLEANUP': <class 'gluon.validators.CLEANUP'>, ...}"
p3314
sS'ccode'
p3315
S'<code object <module> at 0x35b12b0, file "/home/...grades/views/default/grades_report.load", line 1>'
p3316
ssS'lnum'
p3317
I194
sS'lines'
p3318
(dp3319
I192
S'        else:'
p3320
sI193
S'            ccode = compile2(code,layer)'
p3321
sI194
S'        exec ccode in environment'
p3322
sI195
S'    except HTTP:'
p3323
sI196
S'        raise'
p3324
sI197
S'    except Exception, error:'
p3325
sI198
S'        # XXX Show exception in Wing IDE if running in debugger'
p3326
sI189
S'    try:'
p3327
sI190
S'        if type(code) == types.CodeType:'
p3328
sI191
S'            ccode = code'
p3329
ssS'call'
p3330
S'(code=\'response.write(\\\'<h3>\\\', escape=False)\\nresponse.wr....args[0])+1)), _class="nextnav", cid=\\\'viewpane\\\'))\', environment={\'A\': <class \'gluon.html.A\'>, \'Auth\': <class \'gluon.tools.Auth\'>, \'B\': <class \'gluon.html.B\'>, \'BEAUTIFY\': <class \'gluon.html.BEAUTIFY\'>, \'BODY\': <class \'gluon.html.BODY\'>, \'BR\': <class \'gluon.html.BR\'>, \'BUTTON\': <class \'gluon.html.BUTTON\'>, \'CAT\': <class \'gluon.html.CAT\'>, \'CENTER\': <class \'gluon.html.CENTER\'>, \'CLEANUP\': <class \'gluon.validators.CLEANUP\'>, ...}, layer=\'/home/ian/web2py/applications/grades/views/default/grades_report.load\')'
p3331
sS'func'
p3332
S'restricted'
p3333
sa(dp3334
g3309
S'/home/ian/web2py/applications/grades/views/default/grades_report.load'
p3335
sg3311
(dp3336
S'table'
p3337
S'undefined'
p3338
ssg3317
I4
sg3318
(dp3339
I2
S''
sI3
S'<li>{{=c}}</li>'
p3340
sI4
S''
sI5
S'    <table>'
p3341
sI6
S'    {{for l in courselist:}}'
p3342
sI7
S'        {{for k,v in l.items():}}'
p3343
sI8
S'            {{=TR(TD(k), TD(v))}}'
p3344
sI9
S'        {{pass}}'
p3345
sI10
S'    {{pass}}'
p3346
sI11
S'    </table>'
p3347
ssg3330
S'()'
p3348
sg3332
S'<module>'
p3349
sasS'pyver'
p3350
S'Python 2.7.2+: /usr/bin/python2.7'
p3351
sS'session'
p3352
g56
(g57
g58
NtRp3353
(dp3354
g61
(dp3355
sg63
(lp3356
g56
(g65
g58
NtRp3357
(dp3358
g61
(dp3359
g69
I5
ssg70
Nsg63
(lp3360
g56
(g72
g58
NtRp3361
(dp3362
g61
(dp3363
sg70
g3357
sg63
(lp3364
g56
(g77
g58
NtRp3365
(dp3366
g61
(dp3367
g81
g82
ssg70
g3361
sg63
(lp3368
S'auth'
p3369
asbag56
(g77
g58
NtRp3370
(dp3371
g61
(dp3372
g88
g89
ssg70
g3361
sg63
(lp3373
S':'
asbag56
(g77
g58
NtRp3374
(dp3375
g61
(dp3376
sg70
g3361
sg63
(lp3377
g56
(g57
g58
NtRp3378
(dp3379
g61
(dp3380
g69
I5
ssg70
g3374
sg63
(lp3381
g56
(g65
g58
NtRp3382
(dp3383
g61
(dp3384
g69
I4
ssg70
Nsg63
(lp3385
g56
(g72
g58
NtRp3386
(dp3387
g61
(dp3388
sg70
g3382
sg63
(lp3389
g56
(g77
g58
NtRp3390
(dp3391
g61
(dp3392
g81
g82
ssg70
g3386
sg63
(lp3393
S'expiration'
p3394
asbag56
(g77
g58
NtRp3395
(dp3396
g61
(dp3397
g88
g89
ssg70
g3386
sg63
(lp3398
S':'
asbag56
(g77
g58
NtRp3399
(dp3400
g61
(dp3401
sg70
g3386
sg63
(lp3402
g56
(g57
g58
NtRp3403
(dp3404
g61
(dp3405
g69
I4
ssg70
g3399
sg63
(lp3406
S'2592000'
p3407
asbasbasbag56
(g72
g58
NtRp3408
(dp3409
g61
(dp3410
sg70
g3382
sg63
(lp3411
g56
(g77
g58
NtRp3412
(dp3413
g61
(dp3414
g81
g82
ssg70
g3408
sg63
(lp3415
S'hmac_key'
p3416
asbag56
(g77
g58
NtRp3417
(dp3418
g61
(dp3419
g88
g89
ssg70
g3408
sg63
(lp3420
S':'
asbag56
(g77
g58
NtRp3421
(dp3422
g61
(dp3423
sg70
g3408
sg63
(lp3424
g56
(g57
g58
NtRp3425
(dp3426
g61
(dp3427
g69
I4
ssg70
g3421
sg63
(lp3428
S'9b7ebcac-3930-4d2e-b821-147c95f7c4c2'
p3429
asbasbasbag56
(g72
g58
NtRp3430
(dp3431
g61
(dp3432
sg70
g3382
sg63
(lp3433
g56
(g77
g58
NtRp3434
(dp3435
g61
(dp3436
g81
g82
ssg70
g3430
sg63
(lp3437
S'last_visit'
p3438
asbag56
(g77
g58
NtRp3439
(dp3440
g61
(dp3441
g88
g89
ssg70
g3430
sg63
(lp3442
S':'
asbag56
(g77
g58
NtRp3443
(dp3444
g61
(dp3445
sg70
g3430
sg63
(lp3446
g56
(g57
g58
NtRp3447
(dp3448
g61
(dp3449
g69
I4
ssg70
g3443
sg63
(lp3450
S'datetime.datetime(2011, 11, 6, 15, 31, 56, 972407)'
p3451
asbasbasbag56
(g72
g58
NtRp3452
(dp3453
g61
(dp3454
sg70
g3382
sg63
(lp3455
g56
(g77
g58
NtRp3456
(dp3457
g61
(dp3458
g81
g82
ssg70
g3452
sg63
(lp3459
S'remember'
p3460
asbag56
(g77
g58
NtRp3461
(dp3462
g61
(dp3463
g88
g89
ssg70
g3452
sg63
(lp3464
S':'
asbag56
(g77
g58
NtRp3465
(dp3466
g61
(dp3467
sg70
g3452
sg63
(lp3468
g56
(g57
g58
NtRp3469
(dp3470
g61
(dp3471
g69
I4
ssg70
g3465
sg63
(lp3472
g1179
asbasbasbag56
(g72
g58
NtRp3473
(dp3474
g61
(dp3475
sg70
g3382
sg63
(lp3476
g56
(g77
g58
NtRp3477
(dp3478
g61
(dp3479
g81
g82
ssg70
g3473
sg63
(lp3480
S'user'
p3481
asbag56
(g77
g58
NtRp3482
(dp3483
g61
(dp3484
g88
g89
ssg70
g3473
sg63
(lp3485
S':'
asbag56
(g77
g58
NtRp3486
(dp3487
g61
(dp3488
sg70
g3473
sg63
(lp3489
g56
(g57
g58
NtRp3490
(dp3491
g61
(dp3492
g69
I4
ssg70
g3486
sg63
(lp3493
g56
(g65
g58
NtRp3494
(dp3495
g61
(dp3496
g69
I3
ssg70
Nsg63
(lp3497
g56
(g72
g58
NtRp3498
(dp3499
g61
(dp3500
sg70
g3494
sg63
(lp3501
g56
(g77
g58
NtRp3502
(dp3503
g61
(dp3504
g81
g82
ssg70
g3498
sg63
(lp3505
S'email'
p3506
asbag56
(g77
g58
NtRp3507
(dp3508
g61
(dp3509
g88
g89
ssg70
g3498
sg63
(lp3510
S':'
asbag56
(g77
g58
NtRp3511
(dp3512
g61
(dp3513
sg70
g3498
sg63
(lp3514
g56
(g57
g58
NtRp3515
(dp3516
g61
(dp3517
g69
I3
ssg70
g3511
sg63
(lp3518
S'scottianw@gmail.com'
p3519
asbasbasbag56
(g72
g58
NtRp3520
(dp3521
g61
(dp3522
sg70
g3494
sg63
(lp3523
g56
(g77
g58
NtRp3524
(dp3525
g61
(dp3526
g81
g82
ssg70
g3520
sg63
(lp3527
S'first_name'
p3528
asbag56
(g77
g58
NtRp3529
(dp3530
g61
(dp3531
g88
g89
ssg70
g3520
sg63
(lp3532
S':'
asbag56
(g77
g58
NtRp3533
(dp3534
g61
(dp3535
sg70
g3520
sg63
(lp3536
g56
(g57
g58
NtRp3537
(dp3538
g61
(dp3539
g69
I3
ssg70
g3533
sg63
(lp3540
S'Ian'
p3541
asbasbasbag56
(g72
g58
NtRp3542
(dp3543
g61
(dp3544
sg70
g3494
sg63
(lp3545
g56
(g77
g58
NtRp3546
(dp3547
g61
(dp3548
g81
g82
ssg70
g3542
sg63
(lp3549
S'id'
p3550
asbag56
(g77
g58
NtRp3551
(dp3552
g61
(dp3553
g88
g89
ssg70
g3542
sg63
(lp3554
S':'
asbag56
(g77
g58
NtRp3555
(dp3556
g61
(dp3557
sg70
g3542
sg63
(lp3558
g56
(g57
g58
NtRp3559
(dp3560
g61
(dp3561
g69
I3
ssg70
g3555
sg63
(lp3562
S'11'
p3563
asbasbasbag56
(g72
g58
NtRp3564
(dp3565
g61
(dp3566
sg70
g3494
sg63
(lp3567
g56
(g77
g58
NtRp3568
(dp3569
g61
(dp3570
g81
g82
ssg70
g3564
sg63
(lp3571
S'last_name'
p3572
asbag56
(g77
g58
NtRp3573
(dp3574
g61
(dp3575
g88
g89
ssg70
g3564
sg63
(lp3576
S':'
asbag56
(g77
g58
NtRp3577
(dp3578
g61
(dp3579
sg70
g3564
sg63
(lp3580
g56
(g57
g58
NtRp3581
(dp3582
g61
(dp3583
g69
I3
ssg70
g3577
sg63
(lp3584
S'Scott'
p3585
asbasbasbag56
(g72
g58
NtRp3586
(dp3587
g61
(dp3588
sg70
g3494
sg63
(lp3589
g56
(g77
g58
NtRp3590
(dp3591
g61
(dp3592
g81
g82
ssg70
g3586
sg63
(lp3593
S'password'
p3594
asbag56
(g77
g58
NtRp3595
(dp3596
g61
(dp3597
g88
g89
ssg70
g3586
sg63
(lp3598
S':'
asbag56
(g77
g58
NtRp3599
(dp3600
g61
(dp3601
sg70
g3586
sg63
(lp3602
g56
(g57
g58
NtRp3603
(dp3604
g61
(dp3605
g69
I3
ssg70
g3599
sg63
(lp3606
S'351bc855a8ae4839e89ee60d2f279ed9'
p3607
asbasbasbag56
(g72
g58
NtRp3608
(dp3609
g61
(dp3610
sg70
g3494
sg63
(lp3611
g56
(g77
g58
NtRp3612
(dp3613
g61
(dp3614
g81
g82
ssg70
g3608
sg63
(lp3615
S'registration_key'
p3616
asbag56
(g77
g58
NtRp3617
(dp3618
g61
(dp3619
g88
g89
ssg70
g3608
sg63
(lp3620
S':'
asbag56
(g77
g58
NtRp3621
(dp3622
g61
(dp3623
sg70
g3608
sg63
(lp3624
g56
(g57
g58
NtRp3625
(dp3626
g61
(dp3627
g69
I3
ssg70
g3621
sg63
(lp3628
S''
asbasbasbag56
(g72
g58
NtRp3629
(dp3630
g61
(dp3631
sg70
g3494
sg63
(lp3632
g56
(g77
g58
NtRp3633
(dp3634
g61
(dp3635
g81
g82
ssg70
g3629
sg63
(lp3636
S'reset_password_key'
p3637
asbag56
(g77
g58
NtRp3638
(dp3639
g61
(dp3640
g88
g89
ssg70
g3629
sg63
(lp3641
S':'
asbag56
(g77
g58
NtRp3642
(dp3643
g61
(dp3644
sg70
g3629
sg63
(lp3645
g56
(g57
g58
NtRp3646
(dp3647
g61
(dp3648
g69
I3
ssg70
g3642
sg63
(lp3649
S''
asbasbasbasbasbasbasbasbasbasbasbag56
(g72
g58
NtRp3650
(dp3651
g61
(dp3652
sg70
g3357
sg63
(lp3653
g56
(g77
g58
NtRp3654
(dp3655
g61
(dp3656
g81
g82
ssg70
g3650
sg63
(lp3657
S'debug'
p3658
asbag56
(g77
g58
NtRp3659
(dp3660
g61
(dp3661
g88
g89
ssg70
g3650
sg63
(lp3662
S':'
asbag56
(g77
g58
NtRp3663
(dp3664
g61
(dp3665
sg70
g3650
sg63
(lp3666
g56
(g57
g58
NtRp3667
(dp3668
g61
(dp3669
g69
I5
ssg70
g3663
sg63
(lp3670
S'41'
p3671
asbasbasbasbasbsS'etype'
p3672
S"<type 'exceptions.NameError'>"
p3673
sS'date'
p3674
S'Wed Nov  9 13:49:37 2011'
p3675
sS'response'
p3676
g56
(g57
g58
NtRp3677
(dp3678
g61
(dp3679
sg63
(lp3680
g56
(g65
g58
NtRp3681
(dp3682
g61
(dp3683
g69
I5
ssg70
Nsg63
(lp3684
g56
(g72
g58
NtRp3685
(dp3686
g61
(dp3687
sg70
g3681
sg63
(lp3688
g56
(g77
g58
NtRp3689
(dp3690
g61
(dp3691
g81
g82
ssg70
g3685
sg63
(lp3692
g167
asbag56
(g77
g58
NtRp3693
(dp3694
g61
(dp3695
g88
g89
ssg70
g3685
sg63
(lp3696
S':'
asbag56
(g77
g58
NtRp3697
(dp3698
g61
(dp3699
sg70
g3685
sg63
(lp3700
g56
(g57
g58
NtRp3701
(dp3702
g61
(dp3703
g69
I5
ssg70
g3697
sg63
(lp3704
S'<cStringIO.StringO object at 0x3950650>'
p3705
asbasbasbag56
(g72
g58
NtRp3706
(dp3707
g61
(dp3708
sg70
g3681
sg63
(lp3709
g56
(g77
g58
NtRp3710
(dp3711
g61
(dp3712
g81
g82
ssg70
g3706
sg63
(lp3713
g255
asbag56
(g77
g58
NtRp3714
(dp3715
g61
(dp3716
g88
g89
ssg70
g3706
sg63
(lp3717
S':'
asbag56
(g77
g58
NtRp3718
(dp3719
g61
(dp3720
sg70
g3706
sg63
(lp3721
g56
(g57
g58
NtRp3722
(dp3723
g61
(dp3724
g69
I5
ssg70
g3718
sg63
(lp3725
g56
(g65
g58
NtRp3726
(dp3727
g61
(dp3728
g69
I4
ssg70
Nsg63
(lp3729
g56
(g72
g58
NtRp3730
(dp3731
g61
(dp3732
sg70
g3726
sg63
(lp3733
g56
(g77
g58
NtRp3734
(dp3735
g61
(dp3736
g81
g82
ssg70
g3730
sg63
(lp3737
S'session_id_grades'
p3738
asbag56
(g77
g58
NtRp3739
(dp3740
g61
(dp3741
g88
g89
ssg70
g3730
sg63
(lp3742
S':'
asbag56
(g77
g58
NtRp3743
(dp3744
g61
(dp3745
sg70
g3730
sg63
(lp3746
g56
(g57
g58
NtRp3747
(dp3748
g61
(dp3749
g69
I4
ssg70
g3743
sg63
(lp3750
g56
(g65
g58
NtRp3751
(dp3752
g61
(dp3753
g69
I3
ssg70
Nsg63
(lp3754
g56
(g72
g58
NtRp3755
(dp3756
g61
(dp3757
sg70
g3751
sg63
(lp3758
g56
(g77
g58
NtRp3759
(dp3760
g61
(dp3761
g81
g82
ssg70
g3755
sg63
(lp3762
g305
asbag56
(g77
g58
NtRp3763
(dp3764
g61
(dp3765
g88
g89
ssg70
g3755
sg63
(lp3766
S':'
asbag56
(g77
g58
NtRp3767
(dp3768
g61
(dp3769
sg70
g3755
sg63
(lp3770
g56
(g57
g58
NtRp3771
(dp3772
g61
(dp3773
g69
I3
ssg70
g3767
sg63
(lp3774
S''
asbasbasbag56
(g72
g58
NtRp3775
(dp3776
g61
(dp3777
sg70
g3751
sg63
(lp3778
g56
(g77
g58
NtRp3779
(dp3780
g61
(dp3781
g81
g82
ssg70
g3775
sg63
(lp3782
g326
asbag56
(g77
g58
NtRp3783
(dp3784
g61
(dp3785
g88
g89
ssg70
g3775
sg63
(lp3786
S':'
asbag56
(g77
g58
NtRp3787
(dp3788
g61
(dp3789
sg70
g3775
sg63
(lp3790
g56
(g57
g58
NtRp3791
(dp3792
g61
(dp3793
g69
I3
ssg70
g3787
sg63
(lp3794
S''
asbasbasbag56
(g72
g58
NtRp3795
(dp3796
g61
(dp3797
sg70
g3751
sg63
(lp3798
g56
(g77
g58
NtRp3799
(dp3800
g61
(dp3801
g81
g82
ssg70
g3795
sg63
(lp3802
g347
asbag56
(g77
g58
NtRp3803
(dp3804
g61
(dp3805
g88
g89
ssg70
g3795
sg63
(lp3806
S':'
asbag56
(g77
g58
NtRp3807
(dp3808
g61
(dp3809
sg70
g3795
sg63
(lp3810
g56
(g57
g58
NtRp3811
(dp3812
g61
(dp3813
g69
I3
ssg70
g3807
sg63
(lp3814
S''
asbasbasbag56
(g72
g58
NtRp3815
(dp3816
g61
(dp3817
sg70
g3751
sg63
(lp3818
g56
(g77
g58
NtRp3819
(dp3820
g61
(dp3821
g81
g82
ssg70
g3815
sg63
(lp3822
g368
asbag56
(g77
g58
NtRp3823
(dp3824
g61
(dp3825
g88
g89
ssg70
g3815
sg63
(lp3826
S':'
asbag56
(g77
g58
NtRp3827
(dp3828
g61
(dp3829
sg70
g3815
sg63
(lp3830
g56
(g57
g58
NtRp3831
(dp3832
g61
(dp3833
g69
I3
ssg70
g3827
sg63
(lp3834
S''
asbasbasbag56
(g72
g58
NtRp3835
(dp3836
g61
(dp3837
sg70
g3751
sg63
(lp3838
g56
(g77
g58
NtRp3839
(dp3840
g61
(dp3841
g81
g82
ssg70
g3835
sg63
(lp3842
g389
asbag56
(g77
g58
NtRp3843
(dp3844
g61
(dp3845
g88
g89
ssg70
g3835
sg63
(lp3846
S':'
asbag56
(g77
g58
NtRp3847
(dp3848
g61
(dp3849
sg70
g3835
sg63
(lp3850
g56
(g57
g58
NtRp3851
(dp3852
g61
(dp3853
g69
I3
ssg70
g3847
sg63
(lp3854
S''
asbasbasbag56
(g72
g58
NtRp3855
(dp3856
g61
(dp3857
sg70
g3751
sg63
(lp3858
g56
(g77
g58
NtRp3859
(dp3860
g61
(dp3861
g81
g82
ssg70
g3855
sg63
(lp3862
g410
asbag56
(g77
g58
NtRp3863
(dp3864
g61
(dp3865
g88
g89
ssg70
g3855
sg63
(lp3866
S':'
asbag56
(g77
g58
NtRp3867
(dp3868
g61
(dp3869
sg70
g3855
sg63
(lp3870
g56
(g57
g58
NtRp3871
(dp3872
g61
(dp3873
g69
I3
ssg70
g3867
sg63
(lp3874
S'/'
asbasbasbag56
(g72
g58
NtRp3875
(dp3876
g61
(dp3877
sg70
g3751
sg63
(lp3878
g56
(g77
g58
NtRp3879
(dp3880
g61
(dp3881
g81
g82
ssg70
g3875
sg63
(lp3882
g431
asbag56
(g77
g58
NtRp3883
(dp3884
g61
(dp3885
g88
g89
ssg70
g3875
sg63
(lp3886
S':'
asbag56
(g77
g58
NtRp3887
(dp3888
g61
(dp3889
sg70
g3875
sg63
(lp3890
g56
(g57
g58
NtRp3891
(dp3892
g61
(dp3893
g69
I3
ssg70
g3887
sg63
(lp3894
S''
asbasbasbag56
(g72
g58
NtRp3895
(dp3896
g61
(dp3897
sg70
g3751
sg63
(lp3898
g56
(g77
g58
NtRp3899
(dp3900
g61
(dp3901
g81
g82
ssg70
g3895
sg63
(lp3902
g452
asbag56
(g77
g58
NtRp3903
(dp3904
g61
(dp3905
g88
g89
ssg70
g3895
sg63
(lp3906
S':'
asbag56
(g77
g58
NtRp3907
(dp3908
g61
(dp3909
sg70
g3895
sg63
(lp3910
g56
(g57
g58
NtRp3911
(dp3912
g61
(dp3913
g69
I3
ssg70
g3907
sg63
(lp3914
S''
asbasbasbasbasbasbasbasbasbasbasbag56
(g72
g58
NtRp3915
(dp3916
g61
(dp3917
sg70
g3681
sg63
(lp3918
g56
(g77
g58
NtRp3919
(dp3920
g61
(dp3921
g81
g82
ssg70
g3915
sg63
(lp3922
S'files'
p3923
asbag56
(g77
g58
NtRp3924
(dp3925
g61
(dp3926
g88
g89
ssg70
g3915
sg63
(lp3927
S':'
asbag56
(g77
g58
NtRp3928
(dp3929
g61
(dp3930
sg70
g3915
sg63
(lp3931
g56
(g57
g58
NtRp3932
(dp3933
g61
(dp3934
g69
I5
ssg70
g3928
sg63
(lp3935
g56
(g65
g58
NtRp3936
(dp3937
g61
(dp3938
g69
I4
ssg70
Nsg63
(lp3939
sbasbasbasbag56
(g72
g58
NtRp3940
(dp3941
g61
(dp3942
sg70
g3681
sg63
(lp3943
g56
(g77
g58
NtRp3944
(dp3945
g61
(dp3946
g81
g82
ssg70
g3940
sg63
(lp3947
S'flash'
p3948
asbag56
(g77
g58
NtRp3949
(dp3950
g61
(dp3951
g88
g89
ssg70
g3940
sg63
(lp3952
S':'
asbag56
(g77
g58
NtRp3953
(dp3954
g61
(dp3955
sg70
g3940
sg63
(lp3956
g56
(g57
g58
NtRp3957
(dp3958
g61
(dp3959
g69
I5
ssg70
g3953
sg63
(lp3960
S''
asbasbasbag56
(g72
g58
NtRp3961
(dp3962
g61
(dp3963
sg70
g3681
sg63
(lp3964
g56
(g77
g58
NtRp3965
(dp3966
g61
(dp3967
g81
g82
ssg70
g3961
sg63
(lp3968
S'generic_patterns'
p3969
asbag56
(g77
g58
NtRp3970
(dp3971
g61
(dp3972
g88
g89
ssg70
g3961
sg63
(lp3973
S':'
asbag56
(g77
g58
NtRp3974
(dp3975
g61
(dp3976
sg70
g3961
sg63
(lp3977
g56
(g57
g58
NtRp3978
(dp3979
g61
(dp3980
g69
I5
ssg70
g3974
sg63
(lp3981
g56
(g65
g58
NtRp3982
(dp3983
g61
(dp3984
g69
I4
ssg70
Nsg63
(lp3985
g56
(g72
g58
NtRp3986
(dp3987
g61
(dp3988
sg70
g3982
sg63
(lp3989
g56
(g77
g58
NtRp3990
(dp3991
g61
(dp3992
sg70
g3986
sg63
(lp3993
g56
(g57
g58
NtRp3994
(dp3995
g61
(dp3996
g69
I4
ssg70
g3990
sg63
(lp3997
S'*'
asbasbasbasbasbasbasbag56
(g72
g58
NtRp3998
(dp3999
g61
(dp4000
sg70
g3681
sg63
(lp4001
g56
(g77
g58
NtRp4002
(dp4003
g61
(dp4004
g81
g82
ssg70
g3998
sg63
(lp4005
S'headers'
p4006
asbag56
(g77
g58
NtRp4007
(dp4008
g61
(dp4009
g88
g89
ssg70
g3998
sg63
(lp4010
S':'
asbag56
(g77
g58
NtRp4011
(dp4012
g61
(dp4013
sg70
g3998
sg63
(lp4014
g56
(g57
g58
NtRp4015
(dp4016
g61
(dp4017
g69
I5
ssg70
g4011
sg63
(lp4018
g56
(g65
g58
NtRp4019
(dp4020
g61
(dp4021
g69
I4
ssg70
Nsg63
(lp4022
g56
(g72
g58
NtRp4023
(dp4024
g61
(dp4025
sg70
g4019
sg63
(lp4026
g56
(g77
g58
NtRp4027
(dp4028
g61
(dp4029
g81
g82
ssg70
g4023
sg63
(lp4030
S'Cache-Control'
p4031
asbag56
(g77
g58
NtRp4032
(dp4033
g61
(dp4034
g88
g89
ssg70
g4023
sg63
(lp4035
S':'
asbag56
(g77
g58
NtRp4036
(dp4037
g61
(dp4038
sg70
g4023
sg63
(lp4039
g56
(g57
g58
NtRp4040
(dp4041
g61
(dp4042
g69
I4
ssg70
g4036
sg63
(lp4043
S'no-store, no-cache, must-revalidate, post-check=0, pre-check=0'
p4044
asbasbasbag56
(g72
g58
NtRp4045
(dp4046
g61
(dp4047
sg70
g4019
sg63
(lp4048
g56
(g77
g58
NtRp4049
(dp4050
g61
(dp4051
g81
g82
ssg70
g4045
sg63
(lp4052
S'Content-Type'
p4053
asbag56
(g77
g58
NtRp4054
(dp4055
g61
(dp4056
g88
g89
ssg70
g4045
sg63
(lp4057
S':'
asbag56
(g77
g58
NtRp4058
(dp4059
g61
(dp4060
sg70
g4045
sg63
(lp4061
g56
(g57
g58
NtRp4062
(dp4063
g61
(dp4064
g69
I4
ssg70
g4058
sg63
(lp4065
S'text/html; charset=utf-8'
p4066
asbasbasbag56
(g72
g58
NtRp4067
(dp4068
g61
(dp4069
sg70
g4019
sg63
(lp4070
g56
(g77
g58
NtRp4071
(dp4072
g61
(dp4073
g81
g82
ssg70
g4067
sg63
(lp4074
S'Expires'
p4075
asbag56
(g77
g58
NtRp4076
(dp4077
g61
(dp4078
g88
g89
ssg70
g4067
sg63
(lp4079
S':'
asbag56
(g77
g58
NtRp4080
(dp4081
g61
(dp4082
sg70
g4067
sg63
(lp4083
g56
(g57
g58
NtRp4084
(dp4085
g61
(dp4086
g69
I4
ssg70
g4080
sg63
(lp4087
S'Wed, 09 Nov 2011 18:49:36 GMT'
p4088
asbasbasbag56
(g72
g58
NtRp4089
(dp4090
g61
(dp4091
sg70
g4019
sg63
(lp4092
g56
(g77
g58
NtRp4093
(dp4094
g61
(dp4095
g81
g82
ssg70
g4089
sg63
(lp4096
S'Pragma'
p4097
asbag56
(g77
g58
NtRp4098
(dp4099
g61
(dp4100
g88
g89
ssg70
g4089
sg63
(lp4101
S':'
asbag56
(g77
g58
NtRp4102
(dp4103
g61
(dp4104
sg70
g4089
sg63
(lp4105
g56
(g57
g58
NtRp4106
(dp4107
g61
(dp4108
g69
I4
ssg70
g4102
sg63
(lp4109
S'no-cache'
p4110
asbasbasbag56
(g72
g58
NtRp4111
(dp4112
g61
(dp4113
sg70
g4019
sg63
(lp4114
g56
(g77
g58
NtRp4115
(dp4116
g61
(dp4117
g81
g82
ssg70
g4111
sg63
(lp4118
S'X-Powered-By'
p4119
asbag56
(g77
g58
NtRp4120
(dp4121
g61
(dp4122
g88
g89
ssg70
g4111
sg63
(lp4123
S':'
asbag56
(g77
g58
NtRp4124
(dp4125
g61
(dp4126
sg70
g4111
sg63
(lp4127
g56
(g57
g58
NtRp4128
(dp4129
g61
(dp4130
g69
I4
ssg70
g4124
sg63
(lp4131
S'web2py'
p4132
asbasbasbasbasbasbasbag56
(g72
g58
NtRp4133
(dp4134
g61
(dp4135
sg70
g3681
sg63
(lp4136
g56
(g77
g58
NtRp4137
(dp4138
g61
(dp4139
g81
g82
ssg70
g4133
sg63
(lp4140
S'menu'
p4141
asbag56
(g77
g58
NtRp4142
(dp4143
g61
(dp4144
g88
g89
ssg70
g4133
sg63
(lp4145
S':'
asbag56
(g77
g58
NtRp4146
(dp4147
g61
(dp4148
sg70
g4133
sg63
(lp4149
g56
(g57
g58
NtRp4150
(dp4151
g61
(dp4152
g69
I5
ssg70
g4146
sg63
(lp4153
g56
(g65
g58
NtRp4154
(dp4155
g61
(dp4156
g69
I4
ssg70
Nsg63
(lp4157
g56
(g72
g58
NtRp4158
(dp4159
g61
(dp4160
sg70
g4154
sg63
(lp4161
g56
(g77
g58
NtRp4162
(dp4163
g61
(dp4164
sg70
g4158
sg63
(lp4165
g56
(g57
g58
NtRp4166
(dp4167
g61
(dp4168
g69
I4
ssg70
g4162
sg63
(lp4169
g56
(g65
g58
NtRp4170
(dp4171
g61
(dp4172
g69
I3
ssg70
Nsg63
(lp4173
g56
(g72
g58
NtRp4174
(dp4175
g61
(dp4176
sg70
g4170
sg63
(lp4177
g56
(g77
g58
NtRp4178
(dp4179
g61
(dp4180
sg70
g4174
sg63
(lp4181
g56
(g57
g58
NtRp4182
(dp4183
g61
(dp4184
g69
I3
ssg70
g4178
sg63
(lp4185
cgluon.languages
lazyT_unpickle
p4186
(S't\x05\x00\x00\x00Index'
tRp4187
asbasbasbag56
(g72
g58
NtRp4188
(dp4189
g61
(dp4190
sg70
g4170
sg63
(lp4191
g56
(g77
g58
NtRp4192
(dp4193
g61
(dp4194
sg70
g4188
sg63
(lp4195
g56
(g57
g58
NtRp4196
(dp4197
g61
(dp4198
g69
I3
ssg70
g4192
sg63
(lp4199
g1179
asbasbasbag56
(g72
g58
NtRp4200
(dp4201
g61
(dp4202
sg70
g4170
sg63
(lp4203
g56
(g77
g58
NtRp4204
(dp4205
g61
(dp4206
sg70
g4200
sg63
(lp4207
g56
(g57
g58
NtRp4208
(dp4209
g61
(dp4210
g69
I3
ssg70
g4204
sg63
(lp4211
S'/grades/default/index.load'
p4212
asbasbasbag56
(g72
g58
NtRp4213
(dp4214
g61
(dp4215
sg70
g4170
sg63
(lp4216
g56
(g77
g58
NtRp4217
(dp4218
g61
(dp4219
sg70
g4213
sg63
(lp4220
g56
(g57
g58
NtRp4221
(dp4222
g61
(dp4223
g69
I3
ssg70
g4217
sg63
(lp4224
g56
(g65
g58
NtRp4225
(dp4226
g61
(dp4227
g69
I2
ssg70
Nsg63
(lp4228
sbasbasbasbasbasbasbasbag56
(g72
g58
NtRp4229
(dp4230
g61
(dp4231
sg70
g4154
sg63
(lp4232
g56
(g77
g58
NtRp4233
(dp4234
g61
(dp4235
sg70
g4229
sg63
(lp4236
g56
(g57
g58
NtRp4237
(dp4238
g61
(dp4239
g69
I4
ssg70
g4233
sg63
(lp4240
g56
(g65
g58
NtRp4241
(dp4242
g61
(dp4243
g69
I3
ssg70
Nsg63
(lp4244
g56
(g72
g58
NtRp4245
(dp4246
g61
(dp4247
sg70
g4241
sg63
(lp4248
g56
(g77
g58
NtRp4249
(dp4250
g61
(dp4251
sg70
g4245
sg63
(lp4252
g56
(g57
g58
NtRp4253
(dp4254
g61
(dp4255
g69
I3
ssg70
g4249
sg63
(lp4256
g4186
(S't\x06\x00\x00\x00Grades'
tRp4257
asbasbasbag56
(g72
g58
NtRp4258
(dp4259
g61
(dp4260
sg70
g4241
sg63
(lp4261
g56
(g77
g58
NtRp4262
(dp4263
g61
(dp4264
sg70
g4258
sg63
(lp4265
g56
(g57
g58
NtRp4266
(dp4267
g61
(dp4268
g69
I3
ssg70
g4262
sg63
(lp4269
g1179
asbasbasbag56
(g72
g58
NtRp4270
(dp4271
g61
(dp4272
sg70
g4241
sg63
(lp4273
g56
(g77
g58
NtRp4274
(dp4275
g61
(dp4276
sg70
g4270
sg63
(lp4277
g56
(g57
g58
NtRp4278
(dp4279
g61
(dp4280
g69
I3
ssg70
g4274
sg63
(lp4281
S'/grades/default/grades_manage.load'
p4282
asbasbasbag56
(g72
g58
NtRp4283
(dp4284
g61
(dp4285
sg70
g4241
sg63
(lp4286
g56
(g77
g58
NtRp4287
(dp4288
g61
(dp4289
sg70
g4283
sg63
(lp4290
g56
(g57
g58
NtRp4291
(dp4292
g61
(dp4293
g69
I3
ssg70
g4287
sg63
(lp4294
g56
(g65
g58
NtRp4295
(dp4296
g61
(dp4297
g69
I2
ssg70
Nsg63
(lp4298
sbasbasbasbasbasbasbasbag56
(g72
g58
NtRp4299
(dp4300
g61
(dp4301
sg70
g4154
sg63
(lp4302
g56
(g77
g58
NtRp4303
(dp4304
g61
(dp4305
sg70
g4299
sg63
(lp4306
g56
(g57
g58
NtRp4307
(dp4308
g61
(dp4309
g69
I4
ssg70
g4303
sg63
(lp4310
g56
(g65
g58
NtRp4311
(dp4312
g61
(dp4313
g69
I3
ssg70
Nsg63
(lp4314
g56
(g72
g58
NtRp4315
(dp4316
g61
(dp4317
sg70
g4311
sg63
(lp4318
g56
(g77
g58
NtRp4319
(dp4320
g61
(dp4321
sg70
g4315
sg63
(lp4322
g56
(g57
g58
NtRp4323
(dp4324
g61
(dp4325
g69
I3
ssg70
g4319
sg63
(lp4326
g4186
(S't\x07\x00\x00\x00Classes'
tRp4327
asbasbasbag56
(g72
g58
NtRp4328
(dp4329
g61
(dp4330
sg70
g4311
sg63
(lp4331
g56
(g77
g58
NtRp4332
(dp4333
g61
(dp4334
sg70
g4328
sg63
(lp4335
g56
(g57
g58
NtRp4336
(dp4337
g61
(dp4338
g69
I3
ssg70
g4332
sg63
(lp4339
g1179
asbasbasbag56
(g72
g58
NtRp4340
(dp4341
g61
(dp4342
sg70
g4311
sg63
(lp4343
g56
(g77
g58
NtRp4344
(dp4345
g61
(dp4346
sg70
g4340
sg63
(lp4347
g56
(g57
g58
NtRp4348
(dp4349
g61
(dp4350
g69
I3
ssg70
g4344
sg63
(lp4351
S'/grades/default/classes_manage.load'
p4352
asbasbasbag56
(g72
g58
NtRp4353
(dp4354
g61
(dp4355
sg70
g4311
sg63
(lp4356
g56
(g77
g58
NtRp4357
(dp4358
g61
(dp4359
sg70
g4353
sg63
(lp4360
g56
(g57
g58
NtRp4361
(dp4362
g61
(dp4363
g69
I3
ssg70
g4357
sg63
(lp4364
g56
(g65
g58
NtRp4365
(dp4366
g61
(dp4367
g69
I2
ssg70
Nsg63
(lp4368
sbasbasbasbasbasbasbasbasbasbasbasbag56
(g72
g58
NtRp4369
(dp4370
g61
(dp4371
sg70
g3681
sg63
(lp4372
g56
(g77
g58
NtRp4373
(dp4374
g61
(dp4375
g81
g82
ssg70
g4369
sg63
(lp4376
S'meta'
p4377
asbag56
(g77
g58
NtRp4378
(dp4379
g61
(dp4380
g88
g89
ssg70
g4369
sg63
(lp4381
S':'
asbag56
(g77
g58
NtRp4382
(dp4383
g61
(dp4384
sg70
g4369
sg63
(lp4385
g56
(g57
g58
NtRp4386
(dp4387
g61
(dp4388
g69
I5
ssg70
g4382
sg63
(lp4389
g56
(g65
g58
NtRp4390
(dp4391
g61
(dp4392
g69
I4
ssg70
Nsg63
(lp4393
g56
(g72
g58
NtRp4394
(dp4395
g61
(dp4396
sg70
g4390
sg63
(lp4397
g56
(g77
g58
NtRp4398
(dp4399
g61
(dp4400
g81
g82
ssg70
g4394
sg63
(lp4401
S'author'
p4402
asbag56
(g77
g58
NtRp4403
(dp4404
g61
(dp4405
g88
g89
ssg70
g4394
sg63
(lp4406
S':'
asbag56
(g77
g58
NtRp4407
(dp4408
g61
(dp4409
sg70
g4394
sg63
(lp4410
g56
(g57
g58
NtRp4411
(dp4412
g61
(dp4413
g69
I4
ssg70
g4407
sg63
(lp4414
S'Ian W. Scott <scottianw@gmail.com>'
p4415
asbasbasbag56
(g72
g58
NtRp4416
(dp4417
g61
(dp4418
sg70
g4390
sg63
(lp4419
g56
(g77
g58
NtRp4420
(dp4421
g61
(dp4422
g81
g82
ssg70
g4416
sg63
(lp4423
S'description'
p4424
asbag56
(g77
g58
NtRp4425
(dp4426
g61
(dp4427
g88
g89
ssg70
g4416
sg63
(lp4428
S':'
asbag56
(g77
g58
NtRp4429
(dp4430
g61
(dp4431
sg70
g4416
sg63
(lp4432
g56
(g57
g58
NtRp4433
(dp4434
g61
(dp4435
g69
I4
ssg70
g4429
sg63
(lp4436
S''
asbasbasbag56
(g72
g58
NtRp4437
(dp4438
g61
(dp4439
sg70
g4390
sg63
(lp4440
g56
(g77
g58
NtRp4441
(dp4442
g61
(dp4443
g81
g82
ssg70
g4437
sg63
(lp4444
S'keywords'
p4445
asbag56
(g77
g58
NtRp4446
(dp4447
g61
(dp4448
g88
g89
ssg70
g4437
sg63
(lp4449
S':'
asbag56
(g77
g58
NtRp4450
(dp4451
g61
(dp4452
sg70
g4437
sg63
(lp4453
g56
(g57
g58
NtRp4454
(dp4455
g61
(dp4456
g69
I4
ssg70
g4450
sg63
(lp4457
S''
asbasbasbasbasbasbasbag56
(g72
g58
NtRp4458
(dp4459
g61
(dp4460
sg70
g3681
sg63
(lp4461
g56
(g77
g58
NtRp4462
(dp4463
g61
(dp4464
g81
g82
ssg70
g4458
sg63
(lp4465
S'postprocessing'
p4466
asbag56
(g77
g58
NtRp4467
(dp4468
g61
(dp4469
g88
g89
ssg70
g4458
sg63
(lp4470
S':'
asbag56
(g77
g58
NtRp4471
(dp4472
g61
(dp4473
sg70
g4458
sg63
(lp4474
g56
(g57
g58
NtRp4475
(dp4476
g61
(dp4477
g69
I5
ssg70
g4471
sg63
(lp4478
g56
(g65
g58
NtRp4479
(dp4480
g61
(dp4481
g69
I4
ssg70
Nsg63
(lp4482
sbasbasbasbag56
(g72
g58
NtRp4483
(dp4484
g61
(dp4485
sg70
g3681
sg63
(lp4486
g56
(g77
g58
NtRp4487
(dp4488
g61
(dp4489
g81
g82
ssg70
g4483
sg63
(lp4490
S'session_file'
p4491
asbag56
(g77
g58
NtRp4492
(dp4493
g61
(dp4494
g88
g89
ssg70
g4483
sg63
(lp4495
S':'
asbag56
(g77
g58
NtRp4496
(dp4497
g61
(dp4498
sg70
g4483
sg63
(lp4499
g56
(g57
g58
NtRp4500
(dp4501
g61
(dp4502
g69
I5
ssg70
g4496
sg63
(lp4503
S"<open file '/home/ian/web2py/applications/grades/sessions/127.0.0.1-7e779f51-d72f-4159-aa81-826b4f2d26c1', mode 'rb+' at 0x33e40c0>"
p4504
asbasbasbag56
(g72
g58
NtRp4505
(dp4506
g61
(dp4507
sg70
g3681
sg63
(lp4508
g56
(g77
g58
NtRp4509
(dp4510
g61
(dp4511
g81
g82
ssg70
g4505
sg63
(lp4512
S'session_filename'
p4513
asbag56
(g77
g58
NtRp4514
(dp4515
g61
(dp4516
g88
g89
ssg70
g4505
sg63
(lp4517
S':'
asbag56
(g77
g58
NtRp4518
(dp4519
g61
(dp4520
sg70
g4505
sg63
(lp4521
g56
(g57
g58
NtRp4522
(dp4523
g61
(dp4524
g69
I5
ssg70
g4518
sg63
(lp4525
S'/home/ian/web2py/applications/grades/sessions/127.0.0.1-7e779f51-d72f-4159-aa81-826b4f2d26c1'
p4526
asbasbasbag56
(g72
g58
NtRp4527
(dp4528
g61
(dp4529
sg70
g3681
sg63
(lp4530
g56
(g77
g58
NtRp4531
(dp4532
g61
(dp4533
g81
g82
ssg70
g4527
sg63
(lp4534
S'session_id'
p4535
asbag56
(g77
g58
NtRp4536
(dp4537
g61
(dp4538
g88
g89
ssg70
g4527
sg63
(lp4539
S':'
asbag56
(g77
g58
NtRp4540
(dp4541
g61
(dp4542
sg70
g4527
sg63
(lp4543
g56
(g57
g58
NtRp4544
(dp4545
g61
(dp4546
g69
I5
ssg70
g4540
sg63
(lp4547
S'127.0.0.1-7e779f51-d72f-4159-aa81-826b4f2d26c1'
p4548
asbasbasbag56
(g72
g58
NtRp4549
(dp4550
g61
(dp4551
sg70
g3681
sg63
(lp4552
g56
(g77
g58
NtRp4553
(dp4554
g61
(dp4555
g81
g82
ssg70
g4549
sg63
(lp4556
S'session_id_name'
p4557
asbag56
(g77
g58
NtRp4558
(dp4559
g61
(dp4560
g88
g89
ssg70
g4549
sg63
(lp4561
S':'
asbag56
(g77
g58
NtRp4562
(dp4563
g61
(dp4564
sg70
g4549
sg63
(lp4565
g56
(g57
g58
NtRp4566
(dp4567
g61
(dp4568
g69
I5
ssg70
g4562
sg63
(lp4569
g3738
asbasbasbag56
(g72
g58
NtRp4570
(dp4571
g61
(dp4572
sg70
g3681
sg63
(lp4573
g56
(g77
g58
NtRp4574
(dp4575
g61
(dp4576
g81
g82
ssg70
g4570
sg63
(lp4577
S'session_locked'
p4578
asbag56
(g77
g58
NtRp4579
(dp4580
g61
(dp4581
g88
g89
ssg70
g4570
sg63
(lp4582
S':'
asbag56
(g77
g58
NtRp4583
(dp4584
g61
(dp4585
sg70
g4570
sg63
(lp4586
g56
(g57
g58
NtRp4587
(dp4588
g61
(dp4589
g69
I5
ssg70
g4583
sg63
(lp4590
g99
asbasbasbag56
(g72
g58
NtRp4591
(dp4592
g61
(dp4593
sg70
g3681
sg63
(lp4594
g56
(g77
g58
NtRp4595
(dp4596
g61
(dp4597
g81
g82
ssg70
g4591
sg63
(lp4598
S'session_new'
p4599
asbag56
(g77
g58
NtRp4600
(dp4601
g61
(dp4602
g88
g89
ssg70
g4591
sg63
(lp4603
S':'
asbag56
(g77
g58
NtRp4604
(dp4605
g61
(dp4606
sg70
g4591
sg63
(lp4607
g56
(g57
g58
NtRp4608
(dp4609
g61
(dp4610
g69
I5
ssg70
g4604
sg63
(lp4611
g1179
asbasbasbag56
(g72
g58
NtRp4612
(dp4613
g61
(dp4614
sg70
g3681
sg63
(lp4615
g56
(g77
g58
NtRp4616
(dp4617
g61
(dp4618
g81
g82
ssg70
g4612
sg63
(lp4619
S'status'
p4620
asbag56
(g77
g58
NtRp4621
(dp4622
g61
(dp4623
g88
g89
ssg70
g4612
sg63
(lp4624
S':'
asbag56
(g77
g58
NtRp4625
(dp4626
g61
(dp4627
sg70
g4612
sg63
(lp4628
g56
(g57
g58
NtRp4629
(dp4630
g61
(dp4631
g69
I5
ssg70
g4625
sg63
(lp4632
S'200'
p4633
asbasbasbag56
(g72
g58
NtRp4634
(dp4635
g61
(dp4636
sg70
g3681
sg63
(lp4637
g56
(g77
g58
NtRp4638
(dp4639
g61
(dp4640
g81
g82
ssg70
g4634
sg63
(lp4641
S'subtitle'
p4642
asbag56
(g77
g58
NtRp4643
(dp4644
g61
(dp4645
g88
g89
ssg70
g4634
sg63
(lp4646
S':'
asbag56
(g77
g58
NtRp4647
(dp4648
g61
(dp4649
sg70
g4634
sg63
(lp4650
g56
(g57
g58
NtRp4651
(dp4652
g61
(dp4653
g69
I5
ssg70
g4647
sg63
(lp4654
S'a platform for easy submission of peer grades'
p4655
asbasbasbag56
(g72
g58
NtRp4656
(dp4657
g61
(dp4658
sg70
g3681
sg63
(lp4659
g56
(g77
g58
NtRp4660
(dp4661
g61
(dp4662
g81
g82
ssg70
g4656
sg63
(lp4663
S'title'
p4664
asbag56
(g77
g58
NtRp4665
(dp4666
g61
(dp4667
g88
g89
ssg70
g4656
sg63
(lp4668
S':'
asbag56
(g77
g58
NtRp4669
(dp4670
g61
(dp4671
sg70
g4656
sg63
(lp4672
g56
(g57
g58
NtRp4673
(dp4674
g61
(dp4675
g69
I5
ssg70
g4669
sg63
(lp4676
S'Grades'
p4677
asbasbasbag56
(g72
g58
NtRp4678
(dp4679
g61
(dp4680
sg70
g3681
sg63
(lp4681
g56
(g77
g58
NtRp4682
(dp4683
g61
(dp4684
g81
g82
ssg70
g4678
sg63
(lp4685
g2605
asbag56
(g77
g58
NtRp4686
(dp4687
g61
(dp4688
g88
g89
ssg70
g4678
sg63
(lp4689
S':'
asbag56
(g77
g58
NtRp4690
(dp4691
g61
(dp4692
sg70
g4678
sg63
(lp4693
g56
(g57
g58
NtRp4694
(dp4695
g61
(dp4696
g69
I5
ssg70
g4690
sg63
(lp4697
g2618
asbasbasbag56
(g72
g58
NtRp4698
(dp4699
g61
(dp4700
sg70
g3681
sg63
(lp4701
g56
(g77
g58
NtRp4702
(dp4703
g61
(dp4704
g81
g82
ssg70
g4698
sg63
(lp4705
S'view'
p4706
asbag56
(g77
g58
NtRp4707
(dp4708
g61
(dp4709
g88
g89
ssg70
g4698
sg63
(lp4710
S':'
asbag56
(g77
g58
NtRp4711
(dp4712
g61
(dp4713
sg70
g4698
sg63
(lp4714
g56
(g57
g58
NtRp4715
(dp4716
g61
(dp4717
g69
I5
ssg70
g4711
sg63
(lp4718
S'default/grades_report.load'
p4719
asbasbasbasbasbsS'locals'
p4720
(dp4721
S'Service'
p4722
S"<class 'gluon.tools.Service'>"
p4723
sS'OBJECT'
p4724
S"<class 'gluon.html.OBJECT'>"
p4725
sS'SQLDB'
p4726
S"<class 'gluon.dal.DAL'>"
p4727
sg3352
S"<Storage {'_formkey[profile]': '7f879efb-6e36-41...login]': '83757955-ff64-4869-9e88-eb951b3a95ce'}>"
p4728
sS'LINK'
p4729
S"<class 'gluon.html.LINK'>"
p4730
sS'BR'
p4731
S"<class 'gluon.html.BR'>"
p4732
sS'local_import'
p4733
S'<function <lambda>>'
p4734
sS'OPTGROUP'
p4735
S"<class 'gluon.html.OPTGROUP'>"
p4736
sS'PRE'
p4737
S"<class 'gluon.html.PRE'>"
p4738
sS'IS_INT_IN_RANGE'
p4739
S"<class 'gluon.validators.IS_INT_IN_RANGE'>"
p4740
sS'IS_LOWER'
p4741
S"<class 'gluon.validators.IS_LOWER'>"
p4742
sS'IS_STRONG'
p4743
S"<class 'gluon.validators.IS_STRONG'>"
p4744
sS'Recaptcha'
p4745
S"<class 'gluon.tools.Recaptcha'>"
p4746
sS'cache'
p4747
S'<gluon.cache.Cache object>'
p4748
sS'IS_IN_DB'
p4749
S"<class 'gluon.validators.IS_IN_DB'>"
p4750
sS'TAG'
p4751
S'<gluon.html.__TAG__ object>'
p4752
sS'SQLField'
p4753
S"<class 'gluon.dal.Field'>"
p4754
sS'mail'
p4755
S'<gluon.tools.Mail object>'
p4756
sS'BODY'
p4757
S"<class 'gluon.html.BODY'>"
p4758
sS'IS_DATE_IN_RANGE'
p4759
S"<class 'gluon.validators.IS_DATE_IN_RANGE'>"
p4760
sS'TH'
p4761
S"<class 'gluon.html.TH'>"
p4762
sS'URL'
p4763
S'<function URL>'
p4764
sS'__file__'
p4765
S"'/home/ian/web2py/applications/grades/views/default/grades_report.load'"
p4766
sS'db'
p4767
S"<DAL {'auth_event': <Table {'origin': <gluon.dal..., 'id': <gluon.dal.Field object at 0x393a6d0>}>}>"
p4768
sS'auth'
p4769
S'<gluon.tools.Auth object>'
p4770
sS'P'
S"<class 'gluon.html.P'>"
p4771
sS'TFOOT'
p4772
S"<class 'gluon.html.TFOOT'>"
p4773
sS'XHTML'
p4774
S"<class 'gluon.html.XHTML'>"
p4775
sS'ON'
p4776
g99
sS'OL'
p4777
S"<class 'gluon.html.OL'>"
p4778
sS'TEXTAREA'
p4779
S"<class 'gluon.html.TEXTAREA'>"
p4780
sS'settings'
p4781
S"<Storage {'layout_theme': 'Default', 'subtitle':...l_server': 'localhost', 'login_method': 'local'}>"
p4782
sS'MENU'
p4783
S"<class 'gluon.html.MENU'>"
p4784
sS'IS_IMAGE'
p4785
S"<class 'gluon.validators.IS_IMAGE'>"
p4786
sS'LOAD'
p4787
S'<gluon.compileapp.LoadFactory object>'
p4788
sS'CODE'
p4789
S"<class 'gluon.html.CODE'>"
p4790
sS'HTTP'
p4791
S"<class 'gluon.http.HTTP'>"
p4792
sS'HR'
p4793
S"<class 'gluon.html.HR'>"
p4794
sS'IS_DATETIME'
p4795
S"<class 'gluon.validators.IS_DATETIME'>"
p4796
sS'Storage'
p4797
S"<class 'gluon.storage.Storage'>"
p4798
sS'HEAD'
p4799
S"<class 'gluon.html.HEAD'>"
p4800
sS'LABEL'
p4801
S"<class 'gluon.html.LABEL'>"
p4802
sS'META'
p4803
S"<class 'gluon.html.META'>"
p4804
sS'plugins'
p4805
S'<gluon.tools.PluginManager object>'
p4806
sS'SELECT'
p4807
S"<class 'gluon.html.SELECT'>"
p4808
sS'use_janrain'
p4809
S'<function use_janrain>'
p4810
sS'CENTER'
p4811
S"<class 'gluon.html.CENTER'>"
p4812
sS'prettydate'
p4813
S'<function prettydate>'
p4814
sS'Crud'
p4815
S"<class 'gluon.tools.Crud'>"
p4816
sS'Auth'
p4817
S"<class 'gluon.tools.Auth'>"
p4818
sS'current'
p4819
S'<thread._local object>'
p4820
sS'IS_EQUAL_TO'
p4821
S"<class 'gluon.validators.IS_EQUAL_TO'>"
p4822
sS'HTML'
p4823
S"<class 'gluon.html.HTML'>"
p4824
sS'SQLFORM'
p4825
S"<class 'gluon.sqlhtml.SQLFORM'>"
p4826
sS'EM'
p4827
S"<class 'gluon.html.EM'>"
p4828
sS'redirect'
p4829
S'<function redirect>'
p4830
sS'FIELDSET'
p4831
S"<class 'gluon.html.FIELDSET'>"
p4832
sS'__builtins__'
p4833
S"{'ArithmeticError': <type 'exceptions.ArithmeticError'>, 'AssertionError': <type 'exceptions.AssertionError'>, 'AttributeError': <type 'exceptions.AttributeError'>, 'BaseException': <type 'exceptions.BaseException'>, 'BufferError': <type 'exceptions.BufferError'>, 'BytesWarning': <type 'exceptions.BytesWarning'>, 'DeprecationWarning': <type 'exceptions.DeprecationWarning'>, 'EOFError': <type 'exceptions.EOFError'>, 'Ellipsis': Ellipsis, 'EnvironmentError': <type 'exceptions.EnvironmentError'>, ...}"
p4834
sS'embed64'
p4835
S'<function embed64>'
p4836
sS'IS_LIST_OF'
p4837
S"<class 'gluon.validators.IS_LIST_OF'>"
p4838
sS'INPUT'
p4839
S"<class 'gluon.html.INPUT'>"
p4840
sS'EMBED'
p4841
S"<class 'gluon.html.EMBED'>"
p4842
sS'FORM'
p4843
S"<class 'gluon.html.FORM'>"
p4844
sS'H2'
p4845
S"<class 'gluon.html.H2'>"
p4846
sS'H3'
p4847
S"<class 'gluon.html.H3'>"
p4848
sS'BUTTON'
p4849
S"<class 'gluon.html.BUTTON'>"
p4850
sS'H1'
p4851
S"<class 'gluon.html.H1'>"
p4852
sS'H6'
p4853
S"<class 'gluon.html.H6'>"
p4854
sS'H4'
p4855
S"<class 'gluon.html.H4'>"
p4856
sS'H5'
p4857
S"<class 'gluon.html.H5'>"
p4858
sS'UL'
p4859
S"<class 'gluon.html.UL'>"
p4860
sS'IS_UPPER'
p4861
S"<class 'gluon.validators.IS_UPPER'>"
p4862
sS'xmlescape'
p4863
S'<function xmlescape>'
p4864
sS'IS_TIME'
p4865
S"<class 'gluon.validators.IS_TIME'>"
p4866
sS'OPTION'
p4867
S"<class 'gluon.html.OPTION'>"
p4868
sS'TITLE'
p4869
S"<class 'gluon.html.TITLE'>"
p4870
sS'CRYPT'
p4871
S"<class 'gluon.validators.CRYPT'>"
p4872
sS'IS_EMPTY_OR'
p4873
S"<class 'gluon.validators.IS_EMPTY_OR'>"
p4874
sS'MARKMIN'
p4875
S"<class 'gluon.html.MARKMIN'>"
p4876
sS'COL'
p4877
S"<class 'gluon.html.COL'>"
p4878
sS'service'
p4879
S'<gluon.tools.Service object>'
p4880
sS'SCRIPT'
p4881
S"<class 'gluon.html.SCRIPT'>"
p4882
sS'TABLE'
p4883
S"<class 'gluon.html.TABLE'>"
p4884
sS'IS_IPV4'
p4885
S"<class 'gluon.validators.IS_IPV4'>"
p4886
sS'IS_LENGTH'
p4887
S"<class 'gluon.validators.IS_LENGTH'>"
p4888
sS'XML'
p4889
S"<class 'gluon.html.XML'>"
p4890
sS'B'
S"<class 'gluon.html.B'>"
p4891
sS'IMG'
p4892
S"<class 'gluon.html.IMG'>"
p4893
sS'SQLTABLE'
p4894
S"<class 'gluon.sqlhtml.SQLTABLE'>"
p4895
sS'IS_MATCH'
p4896
S"<class 'gluon.validators.IS_MATCH'>"
p4897
sS'IS_ALPHANUMERIC'
p4898
S"<class 'gluon.validators.IS_ALPHANUMERIC'>"
p4899
sS'SPAN'
p4900
S"<class 'gluon.html.SPAN'>"
p4901
sS'IS_SLUG'
p4902
S"<class 'gluon.validators.IS_SLUG'>"
p4903
sS'CLEANUP'
p4904
S"<class 'gluon.validators.CLEANUP'>"
p4905
sS'IS_DATE'
p4906
S"<class 'gluon.validators.IS_DATE'>"
p4907
sS'IS_EMAIL'
p4908
S"<class 'gluon.validators.IS_EMAIL'>"
p4909
sS'IS_NOT_EMPTY'
p4910
S"<class 'gluon.validators.IS_NOT_EMPTY'>"
p4911
sg55
S"<Storage {'body': <cStringIO.StringO object at 0..._vars': <Storage {}>, 'post_vars': <Storage {}>}>"
p4912
sS'BEAUTIFY'
p4913
S"<class 'gluon.html.BEAUTIFY'>"
p4914
sS'TBODY'
p4915
S"<class 'gluon.html.TBODY'>"
p4916
sS'CAT'
p4917
S"<class 'gluon.html.CAT'>"
p4918
sS'Field'
p4919
S"<class 'gluon.dal.Field'>"
p4920
sS'DIV'
p4921
S"<class 'gluon.html.DIV'>"
p4922
sS'LEGEND'
p4923
S"<class 'gluon.html.LEGEND'>"
p4924
sS'COLGROUP'
p4925
S"<class 'gluon.html.COLGROUP'>"
p4926
sS'DAL'
p4927
S"<class 'gluon.dal.DAL'>"
p4928
sS'TT'
p4929
S"<class 'gluon.html.TT'>"
p4930
sS'TR'
p4931
S"<class 'gluon.html.TR'>"
p4932
sS'LI'
p4933
S"<class 'gluon.html.LI'>"
p4934
sS'IFRAME'
p4935
S"<class 'gluon.html.IFRAME'>"
p4936
sS'TD'
p4937
S"<class 'gluon.html.TD'>"
p4938
sS'PluginManager'
p4939
S"<class 'gluon.tools.PluginManager'>"
p4940
sS'IS_URL'
p4941
S"<class 'gluon.validators.IS_URL'>"
p4942
sS'A'
S"<class 'gluon.html.A'>"
p4943
sS'STYLE'
p4944
S"<class 'gluon.html.STYLE'>"
p4945
sS'IS_DATETIME_IN_RANGE'
p4946
S"<class 'gluon.validators.IS_DATETIME_IN_RANGE'>"
p4947
sS'populate'
p4948
S'<function populate>'
p4949
sS'I'
S"<class 'gluon.html.I'>"
p4950
sS'crud'
p4951
S'<gluon.tools.Crud object>'
p4952
sS'courselist'
p4953
S"[{'New Testament Theology and History, Fall 2011': 2.0}]"
p4954
sS'IS_NOT_IN_DB'
p4955
S"<class 'gluon.validators.IS_NOT_IN_DB'>"
p4956
sS'student'
p4957
S"'Scott, Ian'"
p4958
sg3676
S"<Storage {'body': <cStringIO.StringO object at 0...x3517ed8>, 'view': 'default/grades_report.load'}>"
p4959
sS'THEAD'
p4960
S"<class 'gluon.html.THEAD'>"
p4961
sS'IS_NULL_OR'
p4962
S"<class 'gluon.validators.IS_EMPTY_OR'>"
p4963
sS'IS_FLOAT_IN_RANGE'
p4964
S"<class 'gluon.validators.IS_FLOAT_IN_RANGE'>"
p4965
sS'IS_EXPR'
p4966
S"<class 'gluon.validators.IS_EXPR'>"
p4967
sS'T'
S'<gluon.languages.translator object>'
p4968
sS'IS_IN_SET'
p4969
S"<class 'gluon.validators.IS_IN_SET'>"
p4970
sS'students'
p4971
S"{11: 'Scott, Ian', 12: 'Man, Jacquelyn', 13: 'Sequeira, Adrianne', 14: 'Johnston, Dianne', 15: 'Kwok, Kam', 16: 'Chen, Gary', 17: 'Tam, Derek', 18: 'ADHIKARY, RICHARD', 19: 'asamoah, david', 20: 'Seto, Michael', ...}"
p4972
sS'IS_UPLOAD_FILENAME'
p4973
S"<class 'gluon.validators.IS_UPLOAD_FILENAME'>"
p4974
sS'IS_DECIMAL_IN_RANGE'
p4975
S"<class 'gluon.validators.IS_DECIMAL_IN_RANGE'>"
p4976
sssS'traceback'
p4977
S'Traceback (most recent call last):\n  File "/home/ian/web2py/gluon/restricted.py", line 194, in restricted\n    exec ccode in environment\n  File "/home/ian/web2py/applications/grades/views/default/grades_report.load", line 4, in <module>\nNameError: name \'c\' is not defined\n'
p4978
s.