(dp1
S'output'
p2
S''
sS'layer'
p3
S'/home/ian/web2py/applications/grades/controllers/default.py'
p4
sS'code'
p5
S"# -*- coding: utf-8 -*-\nfrom gluon import * \nimport datetime\n\n### required - do no delete\ndef user(): return dict(form=auth())\ndef download(): return response.download(request,db)\ndef call(): return service()\n### end requires\ndef index():\n    courses = db(db.courses.id > 0).select()\n    return dict(courses = courses)\n\ndef error():\n    return dict()\n\n@auth.requires_membership(role='administrators')\ndef grades_manage():\n    form = SQLFORM.smartgrid(db.grades,onupdate=auth.archive)\n    return locals()\n\n@auth.requires_membership(role='administrators')\ndef classes_manage():\n    form = SQLFORM.smartgrid(db.courses,onupdate=auth.archive)\n    return locals()\n\n@auth.requires_login()\ndef create_grade():\n    form = crud.create(db.grades)\n    return dict(form = form)\n\n@auth.requires_membership(role='administrators')\ndef grades_report():\n    student_list = db(db.auth_user.id > 0).select()\n    students = {}\n    for s in student_list:\n        sindex = s.id\n        slast = s.last_name\n        sfirst = s.first_name\n        students[sindex] = slast + ', ' + sfirst\n    u = request.args[0] or 15\n    n = db.auth_user[u]\n    student = n.last_name + ', ' + n.first_name\n    gradelist = db(db.grades.name == u).select()\n    session.debug = request.args[0]\n    g = {}\n    for r in gradelist:\n        the_date = r.class_date\n        c = db(db.courses.id == r.course).select().first()\n        the_course = c.course_name\n        if the_course in g:\n            dates = g[the_course]\n            if the_date in dates:\n                dates[the_date].append(r.grade)\n            else:\n                dates[the_date] = [r.grade]                \n        else:\n            l = [r.grade]\n            the_date = r.class_date\n            g[r.course] = dict(the_date = l)\n    return dict(grades = g, students = students, student = student)                \nresponse._vars=response._caller(grades_report)\n"
p6
sS'snapshot'
p7
(dp8
S'exception'
p9
(dp10
S'__hash__'
p11
S"<method-wrapper '__hash__' of exceptions.IndexError object>"
p12
sS'__setattr__'
p13
S"<method-wrapper '__setattr__' of exceptions.IndexError object>"
p14
sS'__reduce_ex__'
p15
S'<built-in method __reduce_ex__ of exceptions.IndexError object>'
p16
sS'__getslice__'
p17
S"<method-wrapper '__getslice__' of exceptions.IndexError object>"
p18
sS'__getitem__'
p19
S"<method-wrapper '__getitem__' of exceptions.IndexError object>"
p20
sS'__setstate__'
p21
S'<built-in method __setstate__ of exceptions.IndexError object>'
p22
sS'args'
p23
S"('list index out of range',)"
p24
sS'__reduce__'
p25
S'<built-in method __reduce__ of exceptions.IndexError object>'
p26
sS'__str__'
p27
S"<method-wrapper '__str__' of exceptions.IndexError object>"
p28
sS'__format__'
p29
S'<built-in method __format__ of exceptions.IndexError object>'
p30
sS'__getattribute__'
p31
S"<method-wrapper '__getattribute__' of exceptions.IndexError object>"
p32
sS'__class__'
p33
S"<type 'exceptions.IndexError'>"
p34
sS'__unicode__'
p35
S'<built-in method __unicode__ of exceptions.IndexError object>'
p36
sS'__delattr__'
p37
S"<method-wrapper '__delattr__' of exceptions.IndexError object>"
p38
sS'__subclasshook__'
p39
S'<built-in method __subclasshook__ of type object>'
p40
sS'__repr__'
p41
S"<method-wrapper '__repr__' of exceptions.IndexError object>"
p42
sS'__dict__'
p43
S'{}'
p44
sS'__sizeof__'
p45
S'<built-in method __sizeof__ of exceptions.IndexError object>'
p46
sS'__doc__'
p47
S"'Sequence index out of range.'"
p48
sS'__init__'
p49
S"<method-wrapper '__init__' of exceptions.IndexError object>"
p50
sS'__new__'
p51
S'<built-in method __new__ of type object>'
p52
ssS'evalue'
p53
S'list index out of range'
p54
sS'request'
p55
ccopy_reg
_reconstructor
p56
(cgluon.html
BEAUTIFY
p57
c__builtin__
object
p58
NtRp59
(dp60
S'attributes'
p61
(dp62
sS'components'
p63
(lp64
g56
(cgluon.html
TABLE
p65
g58
NtRp66
(dp67
g61
(dp68
S'level'
p69
I5
ssS'parent'
p70
Nsg63
(lp71
g56
(cgluon.html
TR
p72
g58
NtRp73
(dp74
g61
(dp75
sg70
g66
sg63
(lp76
g56
(cgluon.html
TD
p77
g58
NtRp78
(dp79
g61
(dp80
S'_style'
p81
S'font-weight:bold;'
p82
ssg70
g73
sg63
(lp83
S'ajax'
p84
asbag56
(g77
g58
NtRp85
(dp86
g61
(dp87
S'_valign'
p88
S'top'
p89
ssg70
g73
sg63
(lp90
S':'
asbag56
(g77
g58
NtRp91
(dp92
g61
(dp93
sg70
g73
sg63
(lp94
g56
(g57
g58
NtRp95
(dp96
g61
(dp97
g69
I5
ssg70
g91
sg63
(lp98
S'True'
p99
asbasbasbag56
(g72
g58
NtRp100
(dp101
g61
(dp102
sg70
g66
sg63
(lp103
g56
(g77
g58
NtRp104
(dp105
g61
(dp106
g81
g82
ssg70
g100
sg63
(lp107
S'application'
p108
asbag56
(g77
g58
NtRp109
(dp110
g61
(dp111
g88
g89
ssg70
g100
sg63
(lp112
S':'
asbag56
(g77
g58
NtRp113
(dp114
g61
(dp115
sg70
g100
sg63
(lp116
g56
(g57
g58
NtRp117
(dp118
g61
(dp119
g69
I5
ssg70
g113
sg63
(lp120
S'grades'
p121
asbasbasbag56
(g72
g58
NtRp122
(dp123
g61
(dp124
sg70
g66
sg63
(lp125
g56
(g77
g58
NtRp126
(dp127
g61
(dp128
g81
g82
ssg70
g122
sg63
(lp129
g23
asbag56
(g77
g58
NtRp130
(dp131
g61
(dp132
g88
g89
ssg70
g122
sg63
(lp133
S':'
asbag56
(g77
g58
NtRp134
(dp135
g61
(dp136
sg70
g122
sg63
(lp137
g56
(g57
g58
NtRp138
(dp139
g61
(dp140
g69
I5
ssg70
g134
sg63
(lp141
g56
(g65
g58
NtRp142
(dp143
g61
(dp144
g69
I4
ssg70
Nsg63
(lp145
sbasbasbasbag56
(g72
g58
NtRp146
(dp147
g61
(dp148
sg70
g66
sg63
(lp149
g56
(g77
g58
NtRp150
(dp151
g61
(dp152
g81
g82
ssg70
g146
sg63
(lp153
S'body'
p154
asbag56
(g77
g58
NtRp155
(dp156
g61
(dp157
g88
g89
ssg70
g146
sg63
(lp158
S':'
asbag56
(g77
g58
NtRp159
(dp160
g61
(dp161
sg70
g146
sg63
(lp162
g56
(g57
g58
NtRp163
(dp164
g61
(dp165
g69
I5
ssg70
g159
sg63
(lp166
S'<cStringIO.StringO object at 0x7094e30>'
p167
asbasbasbag56
(g72
g58
NtRp168
(dp169
g61
(dp170
sg70
g66
sg63
(lp171
g56
(g77
g58
NtRp172
(dp173
g61
(dp174
g81
g82
ssg70
g168
sg63
(lp175
S'cid'
p176
asbag56
(g77
g58
NtRp177
(dp178
g61
(dp179
g88
g89
ssg70
g168
sg63
(lp180
S':'
asbag56
(g77
g58
NtRp181
(dp182
g61
(dp183
sg70
g168
sg63
(lp184
g56
(g57
g58
NtRp185
(dp186
g61
(dp187
g69
I5
ssg70
g181
sg63
(lp188
S'c00434192723131'
p189
asbasbasbag56
(g72
g58
NtRp190
(dp191
g61
(dp192
sg70
g66
sg63
(lp193
g56
(g77
g58
NtRp194
(dp195
g61
(dp196
g81
g82
ssg70
g190
sg63
(lp197
S'client'
p198
asbag56
(g77
g58
NtRp199
(dp200
g61
(dp201
g88
g89
ssg70
g190
sg63
(lp202
S':'
asbag56
(g77
g58
NtRp203
(dp204
g61
(dp205
sg70
g190
sg63
(lp206
g56
(g57
g58
NtRp207
(dp208
g61
(dp209
g69
I5
ssg70
g203
sg63
(lp210
S'127.0.0.1'
p211
asbasbasbag56
(g72
g58
NtRp212
(dp213
g61
(dp214
sg70
g66
sg63
(lp215
g56
(g77
g58
NtRp216
(dp217
g61
(dp218
g81
g82
ssg70
g212
sg63
(lp219
S'controller'
p220
asbag56
(g77
g58
NtRp221
(dp222
g61
(dp223
g88
g89
ssg70
g212
sg63
(lp224
S':'
asbag56
(g77
g58
NtRp225
(dp226
g61
(dp227
sg70
g212
sg63
(lp228
g56
(g57
g58
NtRp229
(dp230
g61
(dp231
g69
I5
ssg70
g225
sg63
(lp232
S'default'
p233
asbasbasbag56
(g72
g58
NtRp234
(dp235
g61
(dp236
sg70
g66
sg63
(lp237
g56
(g77
g58
NtRp238
(dp239
g61
(dp240
g81
g82
ssg70
g234
sg63
(lp241
S'cookies'
p242
asbag56
(g77
g58
NtRp243
(dp244
g61
(dp245
g88
g89
ssg70
g234
sg63
(lp246
S':'
asbag56
(g77
g58
NtRp247
(dp248
g61
(dp249
sg70
g234
sg63
(lp250
g56
(g57
g58
NtRp251
(dp252
g61
(dp253
g69
I5
ssg70
g247
sg63
(lp254
g56
(g65
g58
NtRp255
(dp256
g61
(dp257
g69
I4
ssg70
Nsg63
(lp258
g56
(g72
g58
NtRp259
(dp260
g61
(dp261
sg70
g255
sg63
(lp262
g56
(g77
g58
NtRp263
(dp264
g61
(dp265
g81
g82
ssg70
g259
sg63
(lp266
S'session_id_admin'
p267
asbag56
(g77
g58
NtRp268
(dp269
g61
(dp270
g88
g89
ssg70
g259
sg63
(lp271
S':'
asbag56
(g77
g58
NtRp272
(dp273
g61
(dp274
sg70
g259
sg63
(lp275
g56
(g57
g58
NtRp276
(dp277
g61
(dp278
g69
I4
ssg70
g272
sg63
(lp279
g56
(g65
g58
NtRp280
(dp281
g61
(dp282
g69
I3
ssg70
Nsg63
(lp283
g56
(g72
g58
NtRp284
(dp285
g61
(dp286
sg70
g280
sg63
(lp287
g56
(g77
g58
NtRp288
(dp289
g61
(dp290
g81
g82
ssg70
g284
sg63
(lp291
S'comment'
p292
asbag56
(g77
g58
NtRp293
(dp294
g61
(dp295
g88
g89
ssg70
g284
sg63
(lp296
S':'
asbag56
(g77
g58
NtRp297
(dp298
g61
(dp299
sg70
g284
sg63
(lp300
g56
(g57
g58
NtRp301
(dp302
g61
(dp303
g69
I3
ssg70
g297
sg63
(lp304
S''
asbasbasbag56
(g72
g58
NtRp305
(dp306
g61
(dp307
sg70
g280
sg63
(lp308
g56
(g77
g58
NtRp309
(dp310
g61
(dp311
g81
g82
ssg70
g305
sg63
(lp312
S'domain'
p313
asbag56
(g77
g58
NtRp314
(dp315
g61
(dp316
g88
g89
ssg70
g305
sg63
(lp317
S':'
asbag56
(g77
g58
NtRp318
(dp319
g61
(dp320
sg70
g305
sg63
(lp321
g56
(g57
g58
NtRp322
(dp323
g61
(dp324
g69
I3
ssg70
g318
sg63
(lp325
S''
asbasbasbag56
(g72
g58
NtRp326
(dp327
g61
(dp328
sg70
g280
sg63
(lp329
g56
(g77
g58
NtRp330
(dp331
g61
(dp332
g81
g82
ssg70
g326
sg63
(lp333
S'expires'
p334
asbag56
(g77
g58
NtRp335
(dp336
g61
(dp337
g88
g89
ssg70
g326
sg63
(lp338
S':'
asbag56
(g77
g58
NtRp339
(dp340
g61
(dp341
sg70
g326
sg63
(lp342
g56
(g57
g58
NtRp343
(dp344
g61
(dp345
g69
I3
ssg70
g339
sg63
(lp346
S''
asbasbasbag56
(g72
g58
NtRp347
(dp348
g61
(dp349
sg70
g280
sg63
(lp350
g56
(g77
g58
NtRp351
(dp352
g61
(dp353
g81
g82
ssg70
g347
sg63
(lp354
S'httponly'
p355
asbag56
(g77
g58
NtRp356
(dp357
g61
(dp358
g88
g89
ssg70
g347
sg63
(lp359
S':'
asbag56
(g77
g58
NtRp360
(dp361
g61
(dp362
sg70
g347
sg63
(lp363
g56
(g57
g58
NtRp364
(dp365
g61
(dp366
g69
I3
ssg70
g360
sg63
(lp367
S''
asbasbasbag56
(g72
g58
NtRp368
(dp369
g61
(dp370
sg70
g280
sg63
(lp371
g56
(g77
g58
NtRp372
(dp373
g61
(dp374
g81
g82
ssg70
g368
sg63
(lp375
S'max-age'
p376
asbag56
(g77
g58
NtRp377
(dp378
g61
(dp379
g88
g89
ssg70
g368
sg63
(lp380
S':'
asbag56
(g77
g58
NtRp381
(dp382
g61
(dp383
sg70
g368
sg63
(lp384
g56
(g57
g58
NtRp385
(dp386
g61
(dp387
g69
I3
ssg70
g381
sg63
(lp388
S''
asbasbasbag56
(g72
g58
NtRp389
(dp390
g61
(dp391
sg70
g280
sg63
(lp392
g56
(g77
g58
NtRp393
(dp394
g61
(dp395
g81
g82
ssg70
g389
sg63
(lp396
S'path'
p397
asbag56
(g77
g58
NtRp398
(dp399
g61
(dp400
g88
g89
ssg70
g389
sg63
(lp401
S':'
asbag56
(g77
g58
NtRp402
(dp403
g61
(dp404
sg70
g389
sg63
(lp405
g56
(g57
g58
NtRp406
(dp407
g61
(dp408
g69
I3
ssg70
g402
sg63
(lp409
S''
asbasbasbag56
(g72
g58
NtRp410
(dp411
g61
(dp412
sg70
g280
sg63
(lp413
g56
(g77
g58
NtRp414
(dp415
g61
(dp416
g81
g82
ssg70
g410
sg63
(lp417
S'secure'
p418
asbag56
(g77
g58
NtRp419
(dp420
g61
(dp421
g88
g89
ssg70
g410
sg63
(lp422
S':'
asbag56
(g77
g58
NtRp423
(dp424
g61
(dp425
sg70
g410
sg63
(lp426
g56
(g57
g58
NtRp427
(dp428
g61
(dp429
g69
I3
ssg70
g423
sg63
(lp430
S''
asbasbasbag56
(g72
g58
NtRp431
(dp432
g61
(dp433
sg70
g280
sg63
(lp434
g56
(g77
g58
NtRp435
(dp436
g61
(dp437
g81
g82
ssg70
g431
sg63
(lp438
S'version'
p439
asbag56
(g77
g58
NtRp440
(dp441
g61
(dp442
g88
g89
ssg70
g431
sg63
(lp443
S':'
asbag56
(g77
g58
NtRp444
(dp445
g61
(dp446
sg70
g431
sg63
(lp447
g56
(g57
g58
NtRp448
(dp449
g61
(dp450
g69
I3
ssg70
g444
sg63
(lp451
S''
asbasbasbasbasbasbasbag56
(g72
g58
NtRp452
(dp453
g61
(dp454
sg70
g255
sg63
(lp455
g56
(g77
g58
NtRp456
(dp457
g61
(dp458
g81
g82
ssg70
g452
sg63
(lp459
S'session_id_grades'
p460
asbag56
(g77
g58
NtRp461
(dp462
g61
(dp463
g88
g89
ssg70
g452
sg63
(lp464
S':'
asbag56
(g77
g58
NtRp465
(dp466
g61
(dp467
sg70
g452
sg63
(lp468
g56
(g57
g58
NtRp469
(dp470
g61
(dp471
g69
I4
ssg70
g465
sg63
(lp472
g56
(g65
g58
NtRp473
(dp474
g61
(dp475
g69
I3
ssg70
Nsg63
(lp476
g56
(g72
g58
NtRp477
(dp478
g61
(dp479
sg70
g473
sg63
(lp480
g56
(g77
g58
NtRp481
(dp482
g61
(dp483
g81
g82
ssg70
g477
sg63
(lp484
g292
asbag56
(g77
g58
NtRp485
(dp486
g61
(dp487
g88
g89
ssg70
g477
sg63
(lp488
S':'
asbag56
(g77
g58
NtRp489
(dp490
g61
(dp491
sg70
g477
sg63
(lp492
g56
(g57
g58
NtRp493
(dp494
g61
(dp495
g69
I3
ssg70
g489
sg63
(lp496
S''
asbasbasbag56
(g72
g58
NtRp497
(dp498
g61
(dp499
sg70
g473
sg63
(lp500
g56
(g77
g58
NtRp501
(dp502
g61
(dp503
g81
g82
ssg70
g497
sg63
(lp504
g313
asbag56
(g77
g58
NtRp505
(dp506
g61
(dp507
g88
g89
ssg70
g497
sg63
(lp508
S':'
asbag56
(g77
g58
NtRp509
(dp510
g61
(dp511
sg70
g497
sg63
(lp512
g56
(g57
g58
NtRp513
(dp514
g61
(dp515
g69
I3
ssg70
g509
sg63
(lp516
S''
asbasbasbag56
(g72
g58
NtRp517
(dp518
g61
(dp519
sg70
g473
sg63
(lp520
g56
(g77
g58
NtRp521
(dp522
g61
(dp523
g81
g82
ssg70
g517
sg63
(lp524
g334
asbag56
(g77
g58
NtRp525
(dp526
g61
(dp527
g88
g89
ssg70
g517
sg63
(lp528
S':'
asbag56
(g77
g58
NtRp529
(dp530
g61
(dp531
sg70
g517
sg63
(lp532
g56
(g57
g58
NtRp533
(dp534
g61
(dp535
g69
I3
ssg70
g529
sg63
(lp536
S''
asbasbasbag56
(g72
g58
NtRp537
(dp538
g61
(dp539
sg70
g473
sg63
(lp540
g56
(g77
g58
NtRp541
(dp542
g61
(dp543
g81
g82
ssg70
g537
sg63
(lp544
g355
asbag56
(g77
g58
NtRp545
(dp546
g61
(dp547
g88
g89
ssg70
g537
sg63
(lp548
S':'
asbag56
(g77
g58
NtRp549
(dp550
g61
(dp551
sg70
g537
sg63
(lp552
g56
(g57
g58
NtRp553
(dp554
g61
(dp555
g69
I3
ssg70
g549
sg63
(lp556
S''
asbasbasbag56
(g72
g58
NtRp557
(dp558
g61
(dp559
sg70
g473
sg63
(lp560
g56
(g77
g58
NtRp561
(dp562
g61
(dp563
g81
g82
ssg70
g557
sg63
(lp564
g376
asbag56
(g77
g58
NtRp565
(dp566
g61
(dp567
g88
g89
ssg70
g557
sg63
(lp568
S':'
asbag56
(g77
g58
NtRp569
(dp570
g61
(dp571
sg70
g557
sg63
(lp572
g56
(g57
g58
NtRp573
(dp574
g61
(dp575
g69
I3
ssg70
g569
sg63
(lp576
S''
asbasbasbag56
(g72
g58
NtRp577
(dp578
g61
(dp579
sg70
g473
sg63
(lp580
g56
(g77
g58
NtRp581
(dp582
g61
(dp583
g81
g82
ssg70
g577
sg63
(lp584
g397
asbag56
(g77
g58
NtRp585
(dp586
g61
(dp587
g88
g89
ssg70
g577
sg63
(lp588
S':'
asbag56
(g77
g58
NtRp589
(dp590
g61
(dp591
sg70
g577
sg63
(lp592
g56
(g57
g58
NtRp593
(dp594
g61
(dp595
g69
I3
ssg70
g589
sg63
(lp596
S''
asbasbasbag56
(g72
g58
NtRp597
(dp598
g61
(dp599
sg70
g473
sg63
(lp600
g56
(g77
g58
NtRp601
(dp602
g61
(dp603
g81
g82
ssg70
g597
sg63
(lp604
g418
asbag56
(g77
g58
NtRp605
(dp606
g61
(dp607
g88
g89
ssg70
g597
sg63
(lp608
S':'
asbag56
(g77
g58
NtRp609
(dp610
g61
(dp611
sg70
g597
sg63
(lp612
g56
(g57
g58
NtRp613
(dp614
g61
(dp615
g69
I3
ssg70
g609
sg63
(lp616
S''
asbasbasbag56
(g72
g58
NtRp617
(dp618
g61
(dp619
sg70
g473
sg63
(lp620
g56
(g77
g58
NtRp621
(dp622
g61
(dp623
g81
g82
ssg70
g617
sg63
(lp624
g439
asbag56
(g77
g58
NtRp625
(dp626
g61
(dp627
g88
g89
ssg70
g617
sg63
(lp628
S':'
asbag56
(g77
g58
NtRp629
(dp630
g61
(dp631
sg70
g617
sg63
(lp632
g56
(g57
g58
NtRp633
(dp634
g61
(dp635
g69
I3
ssg70
g629
sg63
(lp636
S''
asbasbasbasbasbasbasbag56
(g72
g58
NtRp637
(dp638
g61
(dp639
sg70
g255
sg63
(lp640
g56
(g77
g58
NtRp641
(dp642
g61
(dp643
g81
g82
ssg70
g637
sg63
(lp644
S'session_id_paideia'
p645
asbag56
(g77
g58
NtRp646
(dp647
g61
(dp648
g88
g89
ssg70
g637
sg63
(lp649
S':'
asbag56
(g77
g58
NtRp650
(dp651
g61
(dp652
sg70
g637
sg63
(lp653
g56
(g57
g58
NtRp654
(dp655
g61
(dp656
g69
I4
ssg70
g650
sg63
(lp657
g56
(g65
g58
NtRp658
(dp659
g61
(dp660
g69
I3
ssg70
Nsg63
(lp661
g56
(g72
g58
NtRp662
(dp663
g61
(dp664
sg70
g658
sg63
(lp665
g56
(g77
g58
NtRp666
(dp667
g61
(dp668
g81
g82
ssg70
g662
sg63
(lp669
g292
asbag56
(g77
g58
NtRp670
(dp671
g61
(dp672
g88
g89
ssg70
g662
sg63
(lp673
S':'
asbag56
(g77
g58
NtRp674
(dp675
g61
(dp676
sg70
g662
sg63
(lp677
g56
(g57
g58
NtRp678
(dp679
g61
(dp680
g69
I3
ssg70
g674
sg63
(lp681
S''
asbasbasbag56
(g72
g58
NtRp682
(dp683
g61
(dp684
sg70
g658
sg63
(lp685
g56
(g77
g58
NtRp686
(dp687
g61
(dp688
g81
g82
ssg70
g682
sg63
(lp689
g313
asbag56
(g77
g58
NtRp690
(dp691
g61
(dp692
g88
g89
ssg70
g682
sg63
(lp693
S':'
asbag56
(g77
g58
NtRp694
(dp695
g61
(dp696
sg70
g682
sg63
(lp697
g56
(g57
g58
NtRp698
(dp699
g61
(dp700
g69
I3
ssg70
g694
sg63
(lp701
S''
asbasbasbag56
(g72
g58
NtRp702
(dp703
g61
(dp704
sg70
g658
sg63
(lp705
g56
(g77
g58
NtRp706
(dp707
g61
(dp708
g81
g82
ssg70
g702
sg63
(lp709
g334
asbag56
(g77
g58
NtRp710
(dp711
g61
(dp712
g88
g89
ssg70
g702
sg63
(lp713
S':'
asbag56
(g77
g58
NtRp714
(dp715
g61
(dp716
sg70
g702
sg63
(lp717
g56
(g57
g58
NtRp718
(dp719
g61
(dp720
g69
I3
ssg70
g714
sg63
(lp721
S''
asbasbasbag56
(g72
g58
NtRp722
(dp723
g61
(dp724
sg70
g658
sg63
(lp725
g56
(g77
g58
NtRp726
(dp727
g61
(dp728
g81
g82
ssg70
g722
sg63
(lp729
g355
asbag56
(g77
g58
NtRp730
(dp731
g61
(dp732
g88
g89
ssg70
g722
sg63
(lp733
S':'
asbag56
(g77
g58
NtRp734
(dp735
g61
(dp736
sg70
g722
sg63
(lp737
g56
(g57
g58
NtRp738
(dp739
g61
(dp740
g69
I3
ssg70
g734
sg63
(lp741
S''
asbasbasbag56
(g72
g58
NtRp742
(dp743
g61
(dp744
sg70
g658
sg63
(lp745
g56
(g77
g58
NtRp746
(dp747
g61
(dp748
g81
g82
ssg70
g742
sg63
(lp749
g376
asbag56
(g77
g58
NtRp750
(dp751
g61
(dp752
g88
g89
ssg70
g742
sg63
(lp753
S':'
asbag56
(g77
g58
NtRp754
(dp755
g61
(dp756
sg70
g742
sg63
(lp757
g56
(g57
g58
NtRp758
(dp759
g61
(dp760
g69
I3
ssg70
g754
sg63
(lp761
S''
asbasbasbag56
(g72
g58
NtRp762
(dp763
g61
(dp764
sg70
g658
sg63
(lp765
g56
(g77
g58
NtRp766
(dp767
g61
(dp768
g81
g82
ssg70
g762
sg63
(lp769
g397
asbag56
(g77
g58
NtRp770
(dp771
g61
(dp772
g88
g89
ssg70
g762
sg63
(lp773
S':'
asbag56
(g77
g58
NtRp774
(dp775
g61
(dp776
sg70
g762
sg63
(lp777
g56
(g57
g58
NtRp778
(dp779
g61
(dp780
g69
I3
ssg70
g774
sg63
(lp781
S''
asbasbasbag56
(g72
g58
NtRp782
(dp783
g61
(dp784
sg70
g658
sg63
(lp785
g56
(g77
g58
NtRp786
(dp787
g61
(dp788
g81
g82
ssg70
g782
sg63
(lp789
g418
asbag56
(g77
g58
NtRp790
(dp791
g61
(dp792
g88
g89
ssg70
g782
sg63
(lp793
S':'
asbag56
(g77
g58
NtRp794
(dp795
g61
(dp796
sg70
g782
sg63
(lp797
g56
(g57
g58
NtRp798
(dp799
g61
(dp800
g69
I3
ssg70
g794
sg63
(lp801
S''
asbasbasbag56
(g72
g58
NtRp802
(dp803
g61
(dp804
sg70
g658
sg63
(lp805
g56
(g77
g58
NtRp806
(dp807
g61
(dp808
g81
g82
ssg70
g802
sg63
(lp809
g439
asbag56
(g77
g58
NtRp810
(dp811
g61
(dp812
g88
g89
ssg70
g802
sg63
(lp813
S':'
asbag56
(g77
g58
NtRp814
(dp815
g61
(dp816
sg70
g802
sg63
(lp817
g56
(g57
g58
NtRp818
(dp819
g61
(dp820
g69
I3
ssg70
g814
sg63
(lp821
S''
asbasbasbasbasbasbasbag56
(g72
g58
NtRp822
(dp823
g61
(dp824
sg70
g255
sg63
(lp825
g56
(g77
g58
NtRp826
(dp827
g61
(dp828
g81
g82
ssg70
g822
sg63
(lp829
S'session_id_welcome'
p830
asbag56
(g77
g58
NtRp831
(dp832
g61
(dp833
g88
g89
ssg70
g822
sg63
(lp834
S':'
asbag56
(g77
g58
NtRp835
(dp836
g61
(dp837
sg70
g822
sg63
(lp838
g56
(g57
g58
NtRp839
(dp840
g61
(dp841
g69
I4
ssg70
g835
sg63
(lp842
g56
(g65
g58
NtRp843
(dp844
g61
(dp845
g69
I3
ssg70
Nsg63
(lp846
g56
(g72
g58
NtRp847
(dp848
g61
(dp849
sg70
g843
sg63
(lp850
g56
(g77
g58
NtRp851
(dp852
g61
(dp853
g81
g82
ssg70
g847
sg63
(lp854
g292
asbag56
(g77
g58
NtRp855
(dp856
g61
(dp857
g88
g89
ssg70
g847
sg63
(lp858
S':'
asbag56
(g77
g58
NtRp859
(dp860
g61
(dp861
sg70
g847
sg63
(lp862
g56
(g57
g58
NtRp863
(dp864
g61
(dp865
g69
I3
ssg70
g859
sg63
(lp866
S''
asbasbasbag56
(g72
g58
NtRp867
(dp868
g61
(dp869
sg70
g843
sg63
(lp870
g56
(g77
g58
NtRp871
(dp872
g61
(dp873
g81
g82
ssg70
g867
sg63
(lp874
g313
asbag56
(g77
g58
NtRp875
(dp876
g61
(dp877
g88
g89
ssg70
g867
sg63
(lp878
S':'
asbag56
(g77
g58
NtRp879
(dp880
g61
(dp881
sg70
g867
sg63
(lp882
g56
(g57
g58
NtRp883
(dp884
g61
(dp885
g69
I3
ssg70
g879
sg63
(lp886
S''
asbasbasbag56
(g72
g58
NtRp887
(dp888
g61
(dp889
sg70
g843
sg63
(lp890
g56
(g77
g58
NtRp891
(dp892
g61
(dp893
g81
g82
ssg70
g887
sg63
(lp894
g334
asbag56
(g77
g58
NtRp895
(dp896
g61
(dp897
g88
g89
ssg70
g887
sg63
(lp898
S':'
asbag56
(g77
g58
NtRp899
(dp900
g61
(dp901
sg70
g887
sg63
(lp902
g56
(g57
g58
NtRp903
(dp904
g61
(dp905
g69
I3
ssg70
g899
sg63
(lp906
S''
asbasbasbag56
(g72
g58
NtRp907
(dp908
g61
(dp909
sg70
g843
sg63
(lp910
g56
(g77
g58
NtRp911
(dp912
g61
(dp913
g81
g82
ssg70
g907
sg63
(lp914
g355
asbag56
(g77
g58
NtRp915
(dp916
g61
(dp917
g88
g89
ssg70
g907
sg63
(lp918
S':'
asbag56
(g77
g58
NtRp919
(dp920
g61
(dp921
sg70
g907
sg63
(lp922
g56
(g57
g58
NtRp923
(dp924
g61
(dp925
g69
I3
ssg70
g919
sg63
(lp926
S''
asbasbasbag56
(g72
g58
NtRp927
(dp928
g61
(dp929
sg70
g843
sg63
(lp930
g56
(g77
g58
NtRp931
(dp932
g61
(dp933
g81
g82
ssg70
g927
sg63
(lp934
g376
asbag56
(g77
g58
NtRp935
(dp936
g61
(dp937
g88
g89
ssg70
g927
sg63
(lp938
S':'
asbag56
(g77
g58
NtRp939
(dp940
g61
(dp941
sg70
g927
sg63
(lp942
g56
(g57
g58
NtRp943
(dp944
g61
(dp945
g69
I3
ssg70
g939
sg63
(lp946
S''
asbasbasbag56
(g72
g58
NtRp947
(dp948
g61
(dp949
sg70
g843
sg63
(lp950
g56
(g77
g58
NtRp951
(dp952
g61
(dp953
g81
g82
ssg70
g947
sg63
(lp954
g397
asbag56
(g77
g58
NtRp955
(dp956
g61
(dp957
g88
g89
ssg70
g947
sg63
(lp958
S':'
asbag56
(g77
g58
NtRp959
(dp960
g61
(dp961
sg70
g947
sg63
(lp962
g56
(g57
g58
NtRp963
(dp964
g61
(dp965
g69
I3
ssg70
g959
sg63
(lp966
S''
asbasbasbag56
(g72
g58
NtRp967
(dp968
g61
(dp969
sg70
g843
sg63
(lp970
g56
(g77
g58
NtRp971
(dp972
g61
(dp973
g81
g82
ssg70
g967
sg63
(lp974
g418
asbag56
(g77
g58
NtRp975
(dp976
g61
(dp977
g88
g89
ssg70
g967
sg63
(lp978
S':'
asbag56
(g77
g58
NtRp979
(dp980
g61
(dp981
sg70
g967
sg63
(lp982
g56
(g57
g58
NtRp983
(dp984
g61
(dp985
g69
I3
ssg70
g979
sg63
(lp986
S''
asbasbasbag56
(g72
g58
NtRp987
(dp988
g61
(dp989
sg70
g843
sg63
(lp990
g56
(g77
g58
NtRp991
(dp992
g61
(dp993
g81
g82
ssg70
g987
sg63
(lp994
g439
asbag56
(g77
g58
NtRp995
(dp996
g61
(dp997
g88
g89
ssg70
g987
sg63
(lp998
S':'
asbag56
(g77
g58
NtRp999
(dp1000
g61
(dp1001
sg70
g987
sg63
(lp1002
g56
(g57
g58
NtRp1003
(dp1004
g61
(dp1005
g69
I3
ssg70
g999
sg63
(lp1006
S''
asbasbasbasbasbasbasbasbasbasbasbag56
(g72
g58
NtRp1007
(dp1008
g61
(dp1009
sg70
g66
sg63
(lp1010
g56
(g77
g58
NtRp1011
(dp1012
g61
(dp1013
g81
g82
ssg70
g1007
sg63
(lp1014
S'env'
p1015
asbag56
(g77
g58
NtRp1016
(dp1017
g61
(dp1018
g88
g89
ssg70
g1007
sg63
(lp1019
S':'
asbag56
(g77
g58
NtRp1020
(dp1021
g61
(dp1022
sg70
g1007
sg63
(lp1023
g56
(g57
g58
NtRp1024
(dp1025
g61
(dp1026
g69
I5
ssg70
g1020
sg63
(lp1027
g56
(g65
g58
NtRp1028
(dp1029
g61
(dp1030
g69
I4
ssg70
Nsg63
(lp1031
g56
(g72
g58
NtRp1032
(dp1033
g61
(dp1034
sg70
g1028
sg63
(lp1035
g56
(g77
g58
NtRp1036
(dp1037
g61
(dp1038
g81
g82
ssg70
g1032
sg63
(lp1039
S'app_folders'
p1040
asbag56
(g77
g58
NtRp1041
(dp1042
g61
(dp1043
g88
g89
ssg70
g1032
sg63
(lp1044
S':'
asbag56
(g77
g58
NtRp1045
(dp1046
g61
(dp1047
sg70
g1032
sg63
(lp1048
g56
(g57
g58
NtRp1049
(dp1050
g61
(dp1051
g69
I4
ssg70
g1045
sg63
(lp1052
S"set(['/home/ian/web2py/applications/welcome/', '/home/ian/web2py/applications/grades/', '/home/ian/web2py/applications/admin/'])"
p1053
asbasbasbag56
(g72
g58
NtRp1054
(dp1055
g61
(dp1056
sg70
g1028
sg63
(lp1057
g56
(g77
g58
NtRp1058
(dp1059
g61
(dp1060
g81
g82
ssg70
g1054
sg63
(lp1061
S'applications_parent'
p1062
asbag56
(g77
g58
NtRp1063
(dp1064
g61
(dp1065
g88
g89
ssg70
g1054
sg63
(lp1066
S':'
asbag56
(g77
g58
NtRp1067
(dp1068
g61
(dp1069
sg70
g1054
sg63
(lp1070
g56
(g57
g58
NtRp1071
(dp1072
g61
(dp1073
g69
I4
ssg70
g1067
sg63
(lp1074
S'/home/ian/web2py'
p1075
asbasbasbag56
(g72
g58
NtRp1076
(dp1077
g61
(dp1078
sg70
g1028
sg63
(lp1079
g56
(g77
g58
NtRp1080
(dp1081
g61
(dp1082
g81
g82
ssg70
g1076
sg63
(lp1083
S'cmd_args'
p1084
asbag56
(g77
g58
NtRp1085
(dp1086
g61
(dp1087
g88
g89
ssg70
g1076
sg63
(lp1088
S':'
asbag56
(g77
g58
NtRp1089
(dp1090
g61
(dp1091
sg70
g1076
sg63
(lp1092
g56
(g57
g58
NtRp1093
(dp1094
g61
(dp1095
g69
I4
ssg70
g1089
sg63
(lp1096
g56
(g65
g58
NtRp1097
(dp1098
g61
(dp1099
g69
I3
ssg70
Nsg63
(lp1100
sbasbasbasbag56
(g72
g58
NtRp1101
(dp1102
g61
(dp1103
sg70
g1028
sg63
(lp1104
g56
(g77
g58
NtRp1105
(dp1106
g61
(dp1107
g81
g82
ssg70
g1101
sg63
(lp1108
S'cmd_options'
p1109
asbag56
(g77
g58
NtRp1110
(dp1111
g61
(dp1112
g88
g89
ssg70
g1101
sg63
(lp1113
S':'
asbag56
(g77
g58
NtRp1114
(dp1115
g61
(dp1116
sg70
g1101
sg63
(lp1117
g56
(g57
g58
NtRp1118
(dp1119
g61
(dp1120
g69
I4
ssg70
g1114
sg63
(lp1121
S"<Values at 0x2331758: {'verbose': False, 'ip': '127.0.0.1', 'shutdown_timeout': 5, 'taskbar': False, 'nocron': False, 'pid_filename': 'httpserver.pid', 'maxthreads': None, 'softcron': False, 'server_name': 'uriel', 'bpython': False, 'nogui': False, 'port': 8000, 'extcron': False, 'debuglevel': 30, 'test': None, 'folder': '/home/ian/web2py', 'config': '', 'import_models': False, 'winservice': '', 'shell': None, 'run': '', 'log_filename': 'httpserver.log', 'args': [''], 'ssl_ca_certificate': None, 'scheduler': None, 'profiler_filename': None, 'ssl_private_key': '', 'password': '<ask>', 'request_queue_size': 5, 'ssl_certificate': '', 'cronjob': False, 'plain': False, 'quiet': False, 'interfaces': None, 'minthreads': None, 'timeout': 10, 'numthreads': None, 'nobanner': False}>"
p1122
asbasbasbag56
(g72
g58
NtRp1123
(dp1124
g61
(dp1125
sg70
g1028
sg63
(lp1126
g56
(g77
g58
NtRp1127
(dp1128
g61
(dp1129
g81
g82
ssg70
g1123
sg63
(lp1130
S'db_sessions'
p1131
asbag56
(g77
g58
NtRp1132
(dp1133
g61
(dp1134
g88
g89
ssg70
g1123
sg63
(lp1135
S':'
asbag56
(g77
g58
NtRp1136
(dp1137
g61
(dp1138
sg70
g1123
sg63
(lp1139
g56
(g57
g58
NtRp1140
(dp1141
g61
(dp1142
g69
I4
ssg70
g1136
sg63
(lp1143
S'set([])'
p1144
asbasbasbag56
(g72
g58
NtRp1145
(dp1146
g61
(dp1147
sg70
g1028
sg63
(lp1148
g56
(g77
g58
NtRp1149
(dp1150
g61
(dp1151
g81
g82
ssg70
g1145
sg63
(lp1152
S'debugging'
p1153
asbag56
(g77
g58
NtRp1154
(dp1155
g61
(dp1156
g88
g89
ssg70
g1145
sg63
(lp1157
S':'
asbag56
(g77
g58
NtRp1158
(dp1159
g61
(dp1160
sg70
g1145
sg63
(lp1161
g56
(g57
g58
NtRp1162
(dp1163
g61
(dp1164
g69
I4
ssg70
g1158
sg63
(lp1165
S'False'
p1166
asbasbasbag56
(g72
g58
NtRp1167
(dp1168
g61
(dp1169
sg70
g1028
sg63
(lp1170
g56
(g77
g58
NtRp1171
(dp1172
g61
(dp1173
g81
g82
ssg70
g1167
sg63
(lp1174
S'gluon_parent'
p1175
asbag56
(g77
g58
NtRp1176
(dp1177
g61
(dp1178
g88
g89
ssg70
g1167
sg63
(lp1179
S':'
asbag56
(g77
g58
NtRp1180
(dp1181
g61
(dp1182
sg70
g1167
sg63
(lp1183
g56
(g57
g58
NtRp1184
(dp1185
g61
(dp1186
g69
I4
ssg70
g1180
sg63
(lp1187
S'/home/ian/web2py'
p1188
asbasbasbag56
(g72
g58
NtRp1189
(dp1190
g61
(dp1191
sg70
g1028
sg63
(lp1192
g56
(g77
g58
NtRp1193
(dp1194
g61
(dp1195
g81
g82
ssg70
g1189
sg63
(lp1196
S'http_accept'
p1197
asbag56
(g77
g58
NtRp1198
(dp1199
g61
(dp1200
g88
g89
ssg70
g1189
sg63
(lp1201
S':'
asbag56
(g77
g58
NtRp1202
(dp1203
g61
(dp1204
sg70
g1189
sg63
(lp1205
g56
(g57
g58
NtRp1206
(dp1207
g61
(dp1208
g69
I4
ssg70
g1202
sg63
(lp1209
S'*/*'
p1210
asbasbasbag56
(g72
g58
NtRp1211
(dp1212
g61
(dp1213
sg70
g1028
sg63
(lp1214
g56
(g77
g58
NtRp1215
(dp1216
g61
(dp1217
g81
g82
ssg70
g1211
sg63
(lp1218
S'http_accept_encoding'
p1219
asbag56
(g77
g58
NtRp1220
(dp1221
g61
(dp1222
g88
g89
ssg70
g1211
sg63
(lp1223
S':'
asbag56
(g77
g58
NtRp1224
(dp1225
g61
(dp1226
sg70
g1211
sg63
(lp1227
g56
(g57
g58
NtRp1228
(dp1229
g61
(dp1230
g69
I4
ssg70
g1224
sg63
(lp1231
S'gzip, deflate'
p1232
asbasbasbag56
(g72
g58
NtRp1233
(dp1234
g61
(dp1235
sg70
g1028
sg63
(lp1236
g56
(g77
g58
NtRp1237
(dp1238
g61
(dp1239
g81
g82
ssg70
g1233
sg63
(lp1240
S'http_accept_language'
p1241
asbag56
(g77
g58
NtRp1242
(dp1243
g61
(dp1244
g88
g89
ssg70
g1233
sg63
(lp1245
S':'
asbag56
(g77
g58
NtRp1246
(dp1247
g61
(dp1248
sg70
g1233
sg63
(lp1249
g56
(g57
g58
NtRp1250
(dp1251
g61
(dp1252
g69
I4
ssg70
g1246
sg63
(lp1253
S'en-us,en;q=0.5'
p1254
asbasbasbag56
(g72
g58
NtRp1255
(dp1256
g61
(dp1257
sg70
g1028
sg63
(lp1258
g56
(g77
g58
NtRp1259
(dp1260
g61
(dp1261
g81
g82
ssg70
g1255
sg63
(lp1262
S'http_cache_control'
p1263
asbag56
(g77
g58
NtRp1264
(dp1265
g61
(dp1266
g88
g89
ssg70
g1255
sg63
(lp1267
S':'
asbag56
(g77
g58
NtRp1268
(dp1269
g61
(dp1270
sg70
g1255
sg63
(lp1271
g56
(g57
g58
NtRp1272
(dp1273
g61
(dp1274
g69
I4
ssg70
g1268
sg63
(lp1275
S'max-age=0'
p1276
asbasbasbag56
(g72
g58
NtRp1277
(dp1278
g61
(dp1279
sg70
g1028
sg63
(lp1280
g56
(g77
g58
NtRp1281
(dp1282
g61
(dp1283
g81
g82
ssg70
g1277
sg63
(lp1284
S'http_connection'
p1285
asbag56
(g77
g58
NtRp1286
(dp1287
g61
(dp1288
g88
g89
ssg70
g1277
sg63
(lp1289
S':'
asbag56
(g77
g58
NtRp1290
(dp1291
g61
(dp1292
sg70
g1277
sg63
(lp1293
g56
(g57
g58
NtRp1294
(dp1295
g61
(dp1296
g69
I4
ssg70
g1290
sg63
(lp1297
S'keep-alive'
p1298
asbasbasbag56
(g72
g58
NtRp1299
(dp1300
g61
(dp1301
sg70
g1028
sg63
(lp1302
g56
(g77
g58
NtRp1303
(dp1304
g61
(dp1305
g81
g82
ssg70
g1299
sg63
(lp1306
S'http_cookie'
p1307
asbag56
(g77
g58
NtRp1308
(dp1309
g61
(dp1310
g88
g89
ssg70
g1299
sg63
(lp1311
S':'
asbag56
(g77
g58
NtRp1312
(dp1313
g61
(dp1314
sg70
g1299
sg63
(lp1315
g56
(g57
g58
NtRp1316
(dp1317
g61
(dp1318
g69
I4
ssg70
g1312
sg63
(lp1319
S'session_id_paideia=127.0.0.1-5296f1e9-849e-4717-b7d4-f5f298041148; session_id_welcome=127.0.0.1-0f1bf67d-abd7-4f3b-9dfa-61414dbdd968; session_id_grades=127.0.0.1-61c0ea3f-8797-4aff-bb5b-97a734e7ddbc; session_id_admin=127.0.0.1-415f1725-a8a3-4383-836a-a1b235a5d231'
p1320
asbasbasbag56
(g72
g58
NtRp1321
(dp1322
g61
(dp1323
sg70
g1028
sg63
(lp1324
g56
(g77
g58
NtRp1325
(dp1326
g61
(dp1327
g81
g82
ssg70
g1321
sg63
(lp1328
S'http_host'
p1329
asbag56
(g77
g58
NtRp1330
(dp1331
g61
(dp1332
g88
g89
ssg70
g1321
sg63
(lp1333
S':'
asbag56
(g77
g58
NtRp1334
(dp1335
g61
(dp1336
sg70
g1321
sg63
(lp1337
g56
(g57
g58
NtRp1338
(dp1339
g61
(dp1340
g69
I4
ssg70
g1334
sg63
(lp1341
S'127.0.0.1:8000'
p1342
asbasbasbag56
(g72
g58
NtRp1343
(dp1344
g61
(dp1345
sg70
g1028
sg63
(lp1346
g56
(g77
g58
NtRp1347
(dp1348
g61
(dp1349
g81
g82
ssg70
g1343
sg63
(lp1350
S'http_referer'
p1351
asbag56
(g77
g58
NtRp1352
(dp1353
g61
(dp1354
g88
g89
ssg70
g1343
sg63
(lp1355
S':'
asbag56
(g77
g58
NtRp1356
(dp1357
g61
(dp1358
sg70
g1343
sg63
(lp1359
g56
(g57
g58
NtRp1360
(dp1361
g61
(dp1362
g69
I4
ssg70
g1356
sg63
(lp1363
S'http://127.0.0.1:8000/grades/default/grades_report/15'
p1364
asbasbasbag56
(g72
g58
NtRp1365
(dp1366
g61
(dp1367
sg70
g1028
sg63
(lp1368
g56
(g77
g58
NtRp1369
(dp1370
g61
(dp1371
g81
g82
ssg70
g1365
sg63
(lp1372
S'http_user_agent'
p1373
asbag56
(g77
g58
NtRp1374
(dp1375
g61
(dp1376
g88
g89
ssg70
g1365
sg63
(lp1377
S':'
asbag56
(g77
g58
NtRp1378
(dp1379
g61
(dp1380
sg70
g1365
sg63
(lp1381
g56
(g57
g58
NtRp1382
(dp1383
g61
(dp1384
g69
I4
ssg70
g1378
sg63
(lp1385
S'Mozilla/5.0 (X11; Linux x86_64; rv:8.0) Gecko/20100101 Firefox/8.0'
p1386
asbasbasbag56
(g72
g58
NtRp1387
(dp1388
g61
(dp1389
sg70
g1028
sg63
(lp1390
g56
(g77
g58
NtRp1391
(dp1392
g61
(dp1393
g81
g82
ssg70
g1387
sg63
(lp1394
S'http_web2py_component_element'
p1395
asbag56
(g77
g58
NtRp1396
(dp1397
g61
(dp1398
g88
g89
ssg70
g1387
sg63
(lp1399
S':'
asbag56
(g77
g58
NtRp1400
(dp1401
g61
(dp1402
sg70
g1387
sg63
(lp1403
g56
(g57
g58
NtRp1404
(dp1405
g61
(dp1406
g69
I4
ssg70
g1400
sg63
(lp1407
g189
asbasbasbag56
(g72
g58
NtRp1408
(dp1409
g61
(dp1410
sg70
g1028
sg63
(lp1411
g56
(g77
g58
NtRp1412
(dp1413
g61
(dp1414
g81
g82
ssg70
g1408
sg63
(lp1415
S'http_web2py_component_location'
p1416
asbag56
(g77
g58
NtRp1417
(dp1418
g61
(dp1419
g88
g89
ssg70
g1408
sg63
(lp1420
S':'
asbag56
(g77
g58
NtRp1421
(dp1422
g61
(dp1423
sg70
g1408
sg63
(lp1424
g56
(g57
g58
NtRp1425
(dp1426
g61
(dp1427
g69
I4
ssg70
g1421
sg63
(lp1428
S'http://127.0.0.1:8000/grades/default/grades_report/15'
p1429
asbasbasbag56
(g72
g58
NtRp1430
(dp1431
g61
(dp1432
sg70
g1028
sg63
(lp1433
g56
(g77
g58
NtRp1434
(dp1435
g61
(dp1436
g81
g82
ssg70
g1430
sg63
(lp1437
S'http_x_requested_with'
p1438
asbag56
(g77
g58
NtRp1439
(dp1440
g61
(dp1441
g88
g89
ssg70
g1430
sg63
(lp1442
S':'
asbag56
(g77
g58
NtRp1443
(dp1444
g61
(dp1445
sg70
g1430
sg63
(lp1446
g56
(g57
g58
NtRp1447
(dp1448
g61
(dp1449
g69
I4
ssg70
g1443
sg63
(lp1450
S'XMLHttpRequest'
p1451
asbasbasbag56
(g72
g58
NtRp1452
(dp1453
g61
(dp1454
sg70
g1028
sg63
(lp1455
g56
(g77
g58
NtRp1456
(dp1457
g61
(dp1458
g81
g82
ssg70
g1452
sg63
(lp1459
S'is_jython'
p1460
asbag56
(g77
g58
NtRp1461
(dp1462
g61
(dp1463
g88
g89
ssg70
g1452
sg63
(lp1464
S':'
asbag56
(g77
g58
NtRp1465
(dp1466
g61
(dp1467
sg70
g1452
sg63
(lp1468
g56
(g57
g58
NtRp1469
(dp1470
g61
(dp1471
g69
I4
ssg70
g1465
sg63
(lp1472
g1166
asbasbasbag56
(g72
g58
NtRp1473
(dp1474
g61
(dp1475
sg70
g1028
sg63
(lp1476
g56
(g77
g58
NtRp1477
(dp1478
g61
(dp1479
g81
g82
ssg70
g1473
sg63
(lp1480
S'path_info'
p1481
asbag56
(g77
g58
NtRp1482
(dp1483
g61
(dp1484
g88
g89
ssg70
g1473
sg63
(lp1485
S':'
asbag56
(g77
g58
NtRp1486
(dp1487
g61
(dp1488
sg70
g1473
sg63
(lp1489
g56
(g57
g58
NtRp1490
(dp1491
g61
(dp1492
g69
I4
ssg70
g1486
sg63
(lp1493
S'/grades/default/grades_report.load'
p1494
asbasbasbag56
(g72
g58
NtRp1495
(dp1496
g61
(dp1497
sg70
g1028
sg63
(lp1498
g56
(g77
g58
NtRp1499
(dp1500
g61
(dp1501
g81
g82
ssg70
g1495
sg63
(lp1502
S'query_string'
p1503
asbag56
(g77
g58
NtRp1504
(dp1505
g61
(dp1506
g88
g89
ssg70
g1495
sg63
(lp1507
S':'
asbag56
(g77
g58
NtRp1508
(dp1509
g61
(dp1510
sg70
g1495
sg63
(lp1511
g56
(g57
g58
NtRp1512
(dp1513
g61
(dp1514
g69
I4
ssg70
g1508
sg63
(lp1515
S''
asbasbasbag56
(g72
g58
NtRp1516
(dp1517
g61
(dp1518
sg70
g1028
sg63
(lp1519
g56
(g77
g58
NtRp1520
(dp1521
g61
(dp1522
g81
g82
ssg70
g1516
sg63
(lp1523
S'remote_addr'
p1524
asbag56
(g77
g58
NtRp1525
(dp1526
g61
(dp1527
g88
g89
ssg70
g1516
sg63
(lp1528
S':'
asbag56
(g77
g58
NtRp1529
(dp1530
g61
(dp1531
sg70
g1516
sg63
(lp1532
g56
(g57
g58
NtRp1533
(dp1534
g61
(dp1535
g69
I4
ssg70
g1529
sg63
(lp1536
g211
asbasbasbag56
(g72
g58
NtRp1537
(dp1538
g61
(dp1539
sg70
g1028
sg63
(lp1540
g56
(g77
g58
NtRp1541
(dp1542
g61
(dp1543
g81
g82
ssg70
g1537
sg63
(lp1544
S'remote_port'
p1545
asbag56
(g77
g58
NtRp1546
(dp1547
g61
(dp1548
g88
g89
ssg70
g1537
sg63
(lp1549
S':'
asbag56
(g77
g58
NtRp1550
(dp1551
g61
(dp1552
sg70
g1537
sg63
(lp1553
g56
(g57
g58
NtRp1554
(dp1555
g61
(dp1556
g69
I4
ssg70
g1550
sg63
(lp1557
S'33349'
p1558
asbasbasbag56
(g72
g58
NtRp1559
(dp1560
g61
(dp1561
sg70
g1028
sg63
(lp1562
g56
(g77
g58
NtRp1563
(dp1564
g61
(dp1565
g81
g82
ssg70
g1559
sg63
(lp1566
S'request_method'
p1567
asbag56
(g77
g58
NtRp1568
(dp1569
g61
(dp1570
g88
g89
ssg70
g1559
sg63
(lp1571
S':'
asbag56
(g77
g58
NtRp1572
(dp1573
g61
(dp1574
sg70
g1559
sg63
(lp1575
g56
(g57
g58
NtRp1576
(dp1577
g61
(dp1578
g69
I4
ssg70
g1572
sg63
(lp1579
S'GET'
p1580
asbasbasbag56
(g72
g58
NtRp1581
(dp1582
g61
(dp1583
sg70
g1028
sg63
(lp1584
g56
(g77
g58
NtRp1585
(dp1586
g61
(dp1587
g81
g82
ssg70
g1581
sg63
(lp1588
S'script_name'
p1589
asbag56
(g77
g58
NtRp1590
(dp1591
g61
(dp1592
g88
g89
ssg70
g1581
sg63
(lp1593
S':'
asbag56
(g77
g58
NtRp1594
(dp1595
g61
(dp1596
sg70
g1581
sg63
(lp1597
g56
(g57
g58
NtRp1598
(dp1599
g61
(dp1600
g69
I4
ssg70
g1594
sg63
(lp1601
S''
asbasbasbag56
(g72
g58
NtRp1602
(dp1603
g61
(dp1604
sg70
g1028
sg63
(lp1605
g56
(g77
g58
NtRp1606
(dp1607
g61
(dp1608
g81
g82
ssg70
g1602
sg63
(lp1609
S'server_name'
p1610
asbag56
(g77
g58
NtRp1611
(dp1612
g61
(dp1613
g88
g89
ssg70
g1602
sg63
(lp1614
S':'
asbag56
(g77
g58
NtRp1615
(dp1616
g61
(dp1617
sg70
g1602
sg63
(lp1618
g56
(g57
g58
NtRp1619
(dp1620
g61
(dp1621
g69
I4
ssg70
g1615
sg63
(lp1622
S'uriel'
p1623
asbasbasbag56
(g72
g58
NtRp1624
(dp1625
g61
(dp1626
sg70
g1028
sg63
(lp1627
g56
(g77
g58
NtRp1628
(dp1629
g61
(dp1630
g81
g82
ssg70
g1624
sg63
(lp1631
S'server_port'
p1632
asbag56
(g77
g58
NtRp1633
(dp1634
g61
(dp1635
g88
g89
ssg70
g1624
sg63
(lp1636
S':'
asbag56
(g77
g58
NtRp1637
(dp1638
g61
(dp1639
sg70
g1624
sg63
(lp1640
g56
(g57
g58
NtRp1641
(dp1642
g61
(dp1643
g69
I4
ssg70
g1637
sg63
(lp1644
S'8000'
p1645
asbasbasbag56
(g72
g58
NtRp1646
(dp1647
g61
(dp1648
sg70
g1028
sg63
(lp1649
g56
(g77
g58
NtRp1650
(dp1651
g61
(dp1652
g81
g82
ssg70
g1646
sg63
(lp1653
S'server_protocol'
p1654
asbag56
(g77
g58
NtRp1655
(dp1656
g61
(dp1657
g88
g89
ssg70
g1646
sg63
(lp1658
S':'
asbag56
(g77
g58
NtRp1659
(dp1660
g61
(dp1661
sg70
g1646
sg63
(lp1662
g56
(g57
g58
NtRp1663
(dp1664
g61
(dp1665
g69
I4
ssg70
g1659
sg63
(lp1666
S'HTTP/1.1'
p1667
asbasbasbag56
(g72
g58
NtRp1668
(dp1669
g61
(dp1670
sg70
g1028
sg63
(lp1671
g56
(g77
g58
NtRp1672
(dp1673
g61
(dp1674
g81
g82
ssg70
g1668
sg63
(lp1675
S'server_software'
p1676
asbag56
(g77
g58
NtRp1677
(dp1678
g61
(dp1679
g88
g89
ssg70
g1668
sg63
(lp1680
S':'
asbag56
(g77
g58
NtRp1681
(dp1682
g61
(dp1683
sg70
g1668
sg63
(lp1684
g56
(g57
g58
NtRp1685
(dp1686
g61
(dp1687
g69
I4
ssg70
g1681
sg63
(lp1688
S'Rocket 1.2.4'
p1689
asbasbasbag56
(g72
g58
NtRp1690
(dp1691
g61
(dp1692
sg70
g1028
sg63
(lp1693
g56
(g77
g58
NtRp1694
(dp1695
g61
(dp1696
g81
g82
ssg70
g1690
sg63
(lp1697
S'web2py_crontype'
p1698
asbag56
(g77
g58
NtRp1699
(dp1700
g61
(dp1701
g88
g89
ssg70
g1690
sg63
(lp1702
S':'
asbag56
(g77
g58
NtRp1703
(dp1704
g61
(dp1705
sg70
g1690
sg63
(lp1706
g56
(g57
g58
NtRp1707
(dp1708
g61
(dp1709
g69
I4
ssg70
g1703
sg63
(lp1710
S'hard'
p1711
asbasbasbag56
(g72
g58
NtRp1712
(dp1713
g61
(dp1714
sg70
g1028
sg63
(lp1715
g56
(g77
g58
NtRp1716
(dp1717
g61
(dp1718
g81
g82
ssg70
g1712
sg63
(lp1719
S'web2py_path'
p1720
asbag56
(g77
g58
NtRp1721
(dp1722
g61
(dp1723
g88
g89
ssg70
g1712
sg63
(lp1724
S':'
asbag56
(g77
g58
NtRp1725
(dp1726
g61
(dp1727
sg70
g1712
sg63
(lp1728
g56
(g57
g58
NtRp1729
(dp1730
g61
(dp1731
g69
I4
ssg70
g1725
sg63
(lp1732
g1075
asbasbasbag56
(g72
g58
NtRp1733
(dp1734
g61
(dp1735
sg70
g1028
sg63
(lp1736
g56
(g77
g58
NtRp1737
(dp1738
g61
(dp1739
g81
g82
ssg70
g1733
sg63
(lp1740
S'web2py_version'
p1741
asbag56
(g77
g58
NtRp1742
(dp1743
g61
(dp1744
g88
g89
ssg70
g1733
sg63
(lp1745
S':'
asbag56
(g77
g58
NtRp1746
(dp1747
g61
(dp1748
sg70
g1733
sg63
(lp1749
g56
(g57
g58
NtRp1750
(dp1751
g61
(dp1752
g69
I4
ssg70
g1746
sg63
(lp1753
g56
(g65
g58
NtRp1754
(dp1755
g61
(dp1756
g69
I3
ssg70
Nsg63
(lp1757
g56
(g72
g58
NtRp1758
(dp1759
g61
(dp1760
sg70
g1754
sg63
(lp1761
g56
(g77
g58
NtRp1762
(dp1763
g61
(dp1764
sg70
g1758
sg63
(lp1765
g56
(g57
g58
NtRp1766
(dp1767
g61
(dp1768
g69
I3
ssg70
g1762
sg63
(lp1769
S'1'
asbasbasbag56
(g72
g58
NtRp1770
(dp1771
g61
(dp1772
sg70
g1754
sg63
(lp1773
g56
(g77
g58
NtRp1774
(dp1775
g61
(dp1776
sg70
g1770
sg63
(lp1777
g56
(g57
g58
NtRp1778
(dp1779
g61
(dp1780
g69
I3
ssg70
g1774
sg63
(lp1781
S'99'
p1782
asbasbasbag56
(g72
g58
NtRp1783
(dp1784
g61
(dp1785
sg70
g1754
sg63
(lp1786
g56
(g77
g58
NtRp1787
(dp1788
g61
(dp1789
sg70
g1783
sg63
(lp1790
g56
(g57
g58
NtRp1791
(dp1792
g61
(dp1793
g69
I3
ssg70
g1787
sg63
(lp1794
S'2'
asbasbasbag56
(g72
g58
NtRp1795
(dp1796
g61
(dp1797
sg70
g1754
sg63
(lp1798
g56
(g77
g58
NtRp1799
(dp1800
g61
(dp1801
sg70
g1795
sg63
(lp1802
g56
(g57
g58
NtRp1803
(dp1804
g61
(dp1805
g69
I3
ssg70
g1799
sg63
(lp1806
S'datetime.datetime(2011, 9, 26, 6, 55, 33)'
p1807
asbasbasbag56
(g72
g58
NtRp1808
(dp1809
g61
(dp1810
sg70
g1754
sg63
(lp1811
g56
(g77
g58
NtRp1812
(dp1813
g61
(dp1814
sg70
g1808
sg63
(lp1815
g56
(g57
g58
NtRp1816
(dp1817
g61
(dp1818
g69
I3
ssg70
g1812
sg63
(lp1819
S'stable'
p1820
asbasbasbasbasbasbasbag56
(g72
g58
NtRp1821
(dp1822
g61
(dp1823
sg70
g1028
sg63
(lp1824
g56
(g77
g58
NtRp1825
(dp1826
g61
(dp1827
g81
g82
ssg70
g1821
sg63
(lp1828
S'wsgi_errors'
p1829
asbag56
(g77
g58
NtRp1830
(dp1831
g61
(dp1832
g88
g89
ssg70
g1821
sg63
(lp1833
S':'
asbag56
(g77
g58
NtRp1834
(dp1835
g61
(dp1836
sg70
g1821
sg63
(lp1837
g56
(g57
g58
NtRp1838
(dp1839
g61
(dp1840
g69
I4
ssg70
g1834
sg63
(lp1841
S"<open file '<stderr>', mode 'w' at 0x7f1a4db92270>"
p1842
asbasbasbag56
(g72
g58
NtRp1843
(dp1844
g61
(dp1845
sg70
g1028
sg63
(lp1846
g56
(g77
g58
NtRp1847
(dp1848
g61
(dp1849
g81
g82
ssg70
g1843
sg63
(lp1850
S'wsgi_file_wrapper'
p1851
asbag56
(g77
g58
NtRp1852
(dp1853
g61
(dp1854
g88
g89
ssg70
g1843
sg63
(lp1855
S':'
asbag56
(g77
g58
NtRp1856
(dp1857
g61
(dp1858
sg70
g1843
sg63
(lp1859
g56
(g57
g58
NtRp1860
(dp1861
g61
(dp1862
g69
I4
ssg70
g1856
sg63
(lp1863
S'<class wsgiref.util.FileWrapper at 0x21fc870>'
p1864
asbasbasbag56
(g72
g58
NtRp1865
(dp1866
g61
(dp1867
sg70
g1028
sg63
(lp1868
g56
(g77
g58
NtRp1869
(dp1870
g61
(dp1871
g81
g82
ssg70
g1865
sg63
(lp1872
S'wsgi_input'
p1873
asbag56
(g77
g58
NtRp1874
(dp1875
g61
(dp1876
g88
g89
ssg70
g1865
sg63
(lp1877
S':'
asbag56
(g77
g58
NtRp1878
(dp1879
g61
(dp1880
sg70
g1865
sg63
(lp1881
g56
(g57
g58
NtRp1882
(dp1883
g61
(dp1884
g69
I4
ssg70
g1878
sg63
(lp1885
S'<socket._fileobject object at 0x6d7cd50>'
p1886
asbasbasbag56
(g72
g58
NtRp1887
(dp1888
g61
(dp1889
sg70
g1028
sg63
(lp1890
g56
(g77
g58
NtRp1891
(dp1892
g61
(dp1893
g81
g82
ssg70
g1887
sg63
(lp1894
S'wsgi_multiprocess'
p1895
asbag56
(g77
g58
NtRp1896
(dp1897
g61
(dp1898
g88
g89
ssg70
g1887
sg63
(lp1899
S':'
asbag56
(g77
g58
NtRp1900
(dp1901
g61
(dp1902
sg70
g1887
sg63
(lp1903
g56
(g57
g58
NtRp1904
(dp1905
g61
(dp1906
g69
I4
ssg70
g1900
sg63
(lp1907
g1166
asbasbasbag56
(g72
g58
NtRp1908
(dp1909
g61
(dp1910
sg70
g1028
sg63
(lp1911
g56
(g77
g58
NtRp1912
(dp1913
g61
(dp1914
g81
g82
ssg70
g1908
sg63
(lp1915
S'wsgi_multithread'
p1916
asbag56
(g77
g58
NtRp1917
(dp1918
g61
(dp1919
g88
g89
ssg70
g1908
sg63
(lp1920
S':'
asbag56
(g77
g58
NtRp1921
(dp1922
g61
(dp1923
sg70
g1908
sg63
(lp1924
g56
(g57
g58
NtRp1925
(dp1926
g61
(dp1927
g69
I4
ssg70
g1921
sg63
(lp1928
g99
asbasbasbag56
(g72
g58
NtRp1929
(dp1930
g61
(dp1931
sg70
g1028
sg63
(lp1932
g56
(g77
g58
NtRp1933
(dp1934
g61
(dp1935
g81
g82
ssg70
g1929
sg63
(lp1936
S'wsgi_run_once'
p1937
asbag56
(g77
g58
NtRp1938
(dp1939
g61
(dp1940
g88
g89
ssg70
g1929
sg63
(lp1941
S':'
asbag56
(g77
g58
NtRp1942
(dp1943
g61
(dp1944
sg70
g1929
sg63
(lp1945
g56
(g57
g58
NtRp1946
(dp1947
g61
(dp1948
g69
I4
ssg70
g1942
sg63
(lp1949
g1166
asbasbasbag56
(g72
g58
NtRp1950
(dp1951
g61
(dp1952
sg70
g1028
sg63
(lp1953
g56
(g77
g58
NtRp1954
(dp1955
g61
(dp1956
g81
g82
ssg70
g1950
sg63
(lp1957
S'wsgi_url_scheme'
p1958
asbag56
(g77
g58
NtRp1959
(dp1960
g61
(dp1961
g88
g89
ssg70
g1950
sg63
(lp1962
S':'
asbag56
(g77
g58
NtRp1963
(dp1964
g61
(dp1965
sg70
g1950
sg63
(lp1966
g56
(g57
g58
NtRp1967
(dp1968
g61
(dp1969
g69
I4
ssg70
g1963
sg63
(lp1970
S'http'
p1971
asbasbasbag56
(g72
g58
NtRp1972
(dp1973
g61
(dp1974
sg70
g1028
sg63
(lp1975
g56
(g77
g58
NtRp1976
(dp1977
g61
(dp1978
g81
g82
ssg70
g1972
sg63
(lp1979
S'wsgi_version'
p1980
asbag56
(g77
g58
NtRp1981
(dp1982
g61
(dp1983
g88
g89
ssg70
g1972
sg63
(lp1984
S':'
asbag56
(g77
g58
NtRp1985
(dp1986
g61
(dp1987
sg70
g1972
sg63
(lp1988
g56
(g57
g58
NtRp1989
(dp1990
g61
(dp1991
g69
I4
ssg70
g1985
sg63
(lp1992
g56
(g65
g58
NtRp1993
(dp1994
g61
(dp1995
g69
I3
ssg70
Nsg63
(lp1996
g56
(g72
g58
NtRp1997
(dp1998
g61
(dp1999
sg70
g1993
sg63
(lp2000
g56
(g77
g58
NtRp2001
(dp2002
g61
(dp2003
sg70
g1997
sg63
(lp2004
g56
(g57
g58
NtRp2005
(dp2006
g61
(dp2007
g69
I3
ssg70
g2001
sg63
(lp2008
S'1'
asbasbasbag56
(g72
g58
NtRp2009
(dp2010
g61
(dp2011
sg70
g1993
sg63
(lp2012
g56
(g77
g58
NtRp2013
(dp2014
g61
(dp2015
sg70
g2009
sg63
(lp2016
g56
(g57
g58
NtRp2017
(dp2018
g61
(dp2019
g69
I3
ssg70
g2013
sg63
(lp2020
S'0'
asbasbasbasbasbasbasbasbasbasbasbag56
(g72
g58
NtRp2021
(dp2022
g61
(dp2023
sg70
g66
sg63
(lp2024
g56
(g77
g58
NtRp2025
(dp2026
g61
(dp2027
g81
g82
ssg70
g2021
sg63
(lp2028
S'extension'
p2029
asbag56
(g77
g58
NtRp2030
(dp2031
g61
(dp2032
g88
g89
ssg70
g2021
sg63
(lp2033
S':'
asbag56
(g77
g58
NtRp2034
(dp2035
g61
(dp2036
sg70
g2021
sg63
(lp2037
g56
(g57
g58
NtRp2038
(dp2039
g61
(dp2040
g69
I5
ssg70
g2034
sg63
(lp2041
S'load'
p2042
asbasbasbag56
(g72
g58
NtRp2043
(dp2044
g61
(dp2045
sg70
g66
sg63
(lp2046
g56
(g77
g58
NtRp2047
(dp2048
g61
(dp2049
g81
g82
ssg70
g2043
sg63
(lp2050
S'folder'
p2051
asbag56
(g77
g58
NtRp2052
(dp2053
g61
(dp2054
g88
g89
ssg70
g2043
sg63
(lp2055
S':'
asbag56
(g77
g58
NtRp2056
(dp2057
g61
(dp2058
sg70
g2043
sg63
(lp2059
g56
(g57
g58
NtRp2060
(dp2061
g61
(dp2062
g69
I5
ssg70
g2056
sg63
(lp2063
S'/home/ian/web2py/applications/grades/'
p2064
asbasbasbag56
(g72
g58
NtRp2065
(dp2066
g61
(dp2067
sg70
g66
sg63
(lp2068
g56
(g77
g58
NtRp2069
(dp2070
g61
(dp2071
g81
g82
ssg70
g2065
sg63
(lp2072
S'function'
p2073
asbag56
(g77
g58
NtRp2074
(dp2075
g61
(dp2076
g88
g89
ssg70
g2065
sg63
(lp2077
S':'
asbag56
(g77
g58
NtRp2078
(dp2079
g61
(dp2080
sg70
g2065
sg63
(lp2081
g56
(g57
g58
NtRp2082
(dp2083
g61
(dp2084
g69
I5
ssg70
g2078
sg63
(lp2085
S'grades_report'
p2086
asbasbasbag56
(g72
g58
NtRp2087
(dp2088
g61
(dp2089
sg70
g66
sg63
(lp2090
g56
(g77
g58
NtRp2091
(dp2092
g61
(dp2093
g81
g82
ssg70
g2087
sg63
(lp2094
S'get_vars'
p2095
asbag56
(g77
g58
NtRp2096
(dp2097
g61
(dp2098
g88
g89
ssg70
g2087
sg63
(lp2099
S':'
asbag56
(g77
g58
NtRp2100
(dp2101
g61
(dp2102
sg70
g2087
sg63
(lp2103
g56
(g57
g58
NtRp2104
(dp2105
g61
(dp2106
g69
I5
ssg70
g2100
sg63
(lp2107
g56
(g65
g58
NtRp2108
(dp2109
g61
(dp2110
g69
I4
ssg70
Nsg63
(lp2111
sbasbasbasbag56
(g72
g58
NtRp2112
(dp2113
g61
(dp2114
sg70
g66
sg63
(lp2115
g56
(g77
g58
NtRp2116
(dp2117
g61
(dp2118
g81
g82
ssg70
g2112
sg63
(lp2119
S'global_settings'
p2120
asbag56
(g77
g58
NtRp2121
(dp2122
g61
(dp2123
g88
g89
ssg70
g2112
sg63
(lp2124
S':'
asbag56
(g77
g58
NtRp2125
(dp2126
g61
(dp2127
sg70
g2112
sg63
(lp2128
g56
(g57
g58
NtRp2129
(dp2130
g61
(dp2131
g69
I5
ssg70
g2125
sg63
(lp2132
g56
(g65
g58
NtRp2133
(dp2134
g61
(dp2135
g69
I4
ssg70
Nsg63
(lp2136
g56
(g72
g58
NtRp2137
(dp2138
g61
(dp2139
sg70
g2133
sg63
(lp2140
g56
(g77
g58
NtRp2141
(dp2142
g61
(dp2143
g81
g82
ssg70
g2137
sg63
(lp2144
g1040
asbag56
(g77
g58
NtRp2145
(dp2146
g61
(dp2147
g88
g89
ssg70
g2137
sg63
(lp2148
S':'
asbag56
(g77
g58
NtRp2149
(dp2150
g61
(dp2151
sg70
g2137
sg63
(lp2152
g56
(g57
g58
NtRp2153
(dp2154
g61
(dp2155
g69
I4
ssg70
g2149
sg63
(lp2156
S"set(['/home/ian/web2py/applications/welcome/', '/home/ian/web2py/applications/grades/', '/home/ian/web2py/applications/admin/'])"
p2157
asbasbasbag56
(g72
g58
NtRp2158
(dp2159
g61
(dp2160
sg70
g2133
sg63
(lp2161
g56
(g77
g58
NtRp2162
(dp2163
g61
(dp2164
g81
g82
ssg70
g2158
sg63
(lp2165
g1062
asbag56
(g77
g58
NtRp2166
(dp2167
g61
(dp2168
g88
g89
ssg70
g2158
sg63
(lp2169
S':'
asbag56
(g77
g58
NtRp2170
(dp2171
g61
(dp2172
sg70
g2158
sg63
(lp2173
g56
(g57
g58
NtRp2174
(dp2175
g61
(dp2176
g69
I4
ssg70
g2170
sg63
(lp2177
g1075
asbasbasbag56
(g72
g58
NtRp2178
(dp2179
g61
(dp2180
sg70
g2133
sg63
(lp2181
g56
(g77
g58
NtRp2182
(dp2183
g61
(dp2184
g81
g82
ssg70
g2178
sg63
(lp2185
g1084
asbag56
(g77
g58
NtRp2186
(dp2187
g61
(dp2188
g88
g89
ssg70
g2178
sg63
(lp2189
S':'
asbag56
(g77
g58
NtRp2190
(dp2191
g61
(dp2192
sg70
g2178
sg63
(lp2193
g56
(g57
g58
NtRp2194
(dp2195
g61
(dp2196
g69
I4
ssg70
g2190
sg63
(lp2197
g56
(g65
g58
NtRp2198
(dp2199
g61
(dp2200
g69
I3
ssg70
Nsg63
(lp2201
sbasbasbasbag56
(g72
g58
NtRp2202
(dp2203
g61
(dp2204
sg70
g2133
sg63
(lp2205
g56
(g77
g58
NtRp2206
(dp2207
g61
(dp2208
g81
g82
ssg70
g2202
sg63
(lp2209
g1109
asbag56
(g77
g58
NtRp2210
(dp2211
g61
(dp2212
g88
g89
ssg70
g2202
sg63
(lp2213
S':'
asbag56
(g77
g58
NtRp2214
(dp2215
g61
(dp2216
sg70
g2202
sg63
(lp2217
g56
(g57
g58
NtRp2218
(dp2219
g61
(dp2220
g69
I4
ssg70
g2214
sg63
(lp2221
S"<Values at 0x2331758: {'verbose': False, 'ip': '127.0.0.1', 'shutdown_timeout': 5, 'taskbar': False, 'nocron': False, 'pid_filename': 'httpserver.pid', 'maxthreads': None, 'softcron': False, 'server_name': 'uriel', 'bpython': False, 'nogui': False, 'port': 8000, 'extcron': False, 'debuglevel': 30, 'test': None, 'folder': '/home/ian/web2py', 'config': '', 'import_models': False, 'winservice': '', 'shell': None, 'run': '', 'log_filename': 'httpserver.log', 'args': [''], 'ssl_ca_certificate': None, 'scheduler': None, 'profiler_filename': None, 'ssl_private_key': '', 'password': '<ask>', 'request_queue_size': 5, 'ssl_certificate': '', 'cronjob': False, 'plain': False, 'quiet': False, 'interfaces': None, 'minthreads': None, 'timeout': 10, 'numthreads': None, 'nobanner': False}>"
p2222
asbasbasbag56
(g72
g58
NtRp2223
(dp2224
g61
(dp2225
sg70
g2133
sg63
(lp2226
g56
(g77
g58
NtRp2227
(dp2228
g61
(dp2229
g81
g82
ssg70
g2223
sg63
(lp2230
g1131
asbag56
(g77
g58
NtRp2231
(dp2232
g61
(dp2233
g88
g89
ssg70
g2223
sg63
(lp2234
S':'
asbag56
(g77
g58
NtRp2235
(dp2236
g61
(dp2237
sg70
g2223
sg63
(lp2238
g56
(g57
g58
NtRp2239
(dp2240
g61
(dp2241
g69
I4
ssg70
g2235
sg63
(lp2242
S'set([])'
p2243
asbasbasbag56
(g72
g58
NtRp2244
(dp2245
g61
(dp2246
sg70
g2133
sg63
(lp2247
g56
(g77
g58
NtRp2248
(dp2249
g61
(dp2250
g81
g82
ssg70
g2244
sg63
(lp2251
g1153
asbag56
(g77
g58
NtRp2252
(dp2253
g61
(dp2254
g88
g89
ssg70
g2244
sg63
(lp2255
S':'
asbag56
(g77
g58
NtRp2256
(dp2257
g61
(dp2258
sg70
g2244
sg63
(lp2259
g56
(g57
g58
NtRp2260
(dp2261
g61
(dp2262
g69
I4
ssg70
g2256
sg63
(lp2263
g1166
asbasbasbag56
(g72
g58
NtRp2264
(dp2265
g61
(dp2266
sg70
g2133
sg63
(lp2267
g56
(g77
g58
NtRp2268
(dp2269
g61
(dp2270
g81
g82
ssg70
g2264
sg63
(lp2271
g1175
asbag56
(g77
g58
NtRp2272
(dp2273
g61
(dp2274
g88
g89
ssg70
g2264
sg63
(lp2275
S':'
asbag56
(g77
g58
NtRp2276
(dp2277
g61
(dp2278
sg70
g2264
sg63
(lp2279
g56
(g57
g58
NtRp2280
(dp2281
g61
(dp2282
g69
I4
ssg70
g2276
sg63
(lp2283
g1188
asbasbasbag56
(g72
g58
NtRp2284
(dp2285
g61
(dp2286
sg70
g2133
sg63
(lp2287
g56
(g77
g58
NtRp2288
(dp2289
g61
(dp2290
g81
g82
ssg70
g2284
sg63
(lp2291
g1460
asbag56
(g77
g58
NtRp2292
(dp2293
g61
(dp2294
g88
g89
ssg70
g2284
sg63
(lp2295
S':'
asbag56
(g77
g58
NtRp2296
(dp2297
g61
(dp2298
sg70
g2284
sg63
(lp2299
g56
(g57
g58
NtRp2300
(dp2301
g61
(dp2302
g69
I4
ssg70
g2296
sg63
(lp2303
g1166
asbasbasbag56
(g72
g58
NtRp2304
(dp2305
g61
(dp2306
sg70
g2133
sg63
(lp2307
g56
(g77
g58
NtRp2308
(dp2309
g61
(dp2310
g81
g82
ssg70
g2304
sg63
(lp2311
g1698
asbag56
(g77
g58
NtRp2312
(dp2313
g61
(dp2314
g88
g89
ssg70
g2304
sg63
(lp2315
S':'
asbag56
(g77
g58
NtRp2316
(dp2317
g61
(dp2318
sg70
g2304
sg63
(lp2319
g56
(g57
g58
NtRp2320
(dp2321
g61
(dp2322
g69
I4
ssg70
g2316
sg63
(lp2323
g1711
asbasbasbag56
(g72
g58
NtRp2324
(dp2325
g61
(dp2326
sg70
g2133
sg63
(lp2327
g56
(g77
g58
NtRp2328
(dp2329
g61
(dp2330
g81
g82
ssg70
g2324
sg63
(lp2331
g1741
asbag56
(g77
g58
NtRp2332
(dp2333
g61
(dp2334
g88
g89
ssg70
g2324
sg63
(lp2335
S':'
asbag56
(g77
g58
NtRp2336
(dp2337
g61
(dp2338
sg70
g2324
sg63
(lp2339
g56
(g57
g58
NtRp2340
(dp2341
g61
(dp2342
g69
I4
ssg70
g2336
sg63
(lp2343
g56
(g65
g58
NtRp2344
(dp2345
g61
(dp2346
g69
I3
ssg70
Nsg63
(lp2347
g56
(g72
g58
NtRp2348
(dp2349
g61
(dp2350
sg70
g2344
sg63
(lp2351
g56
(g77
g58
NtRp2352
(dp2353
g61
(dp2354
sg70
g2348
sg63
(lp2355
g56
(g57
g58
NtRp2356
(dp2357
g61
(dp2358
g69
I3
ssg70
g2352
sg63
(lp2359
S'1'
asbasbasbag56
(g72
g58
NtRp2360
(dp2361
g61
(dp2362
sg70
g2344
sg63
(lp2363
g56
(g77
g58
NtRp2364
(dp2365
g61
(dp2366
sg70
g2360
sg63
(lp2367
g56
(g57
g58
NtRp2368
(dp2369
g61
(dp2370
g69
I3
ssg70
g2364
sg63
(lp2371
S'99'
p2372
asbasbasbag56
(g72
g58
NtRp2373
(dp2374
g61
(dp2375
sg70
g2344
sg63
(lp2376
g56
(g77
g58
NtRp2377
(dp2378
g61
(dp2379
sg70
g2373
sg63
(lp2380
g56
(g57
g58
NtRp2381
(dp2382
g61
(dp2383
g69
I3
ssg70
g2377
sg63
(lp2384
S'2'
asbasbasbag56
(g72
g58
NtRp2385
(dp2386
g61
(dp2387
sg70
g2344
sg63
(lp2388
g56
(g77
g58
NtRp2389
(dp2390
g61
(dp2391
sg70
g2385
sg63
(lp2392
g56
(g57
g58
NtRp2393
(dp2394
g61
(dp2395
g69
I3
ssg70
g2389
sg63
(lp2396
S'datetime.datetime(2011, 9, 26, 6, 55, 33)'
p2397
asbasbasbag56
(g72
g58
NtRp2398
(dp2399
g61
(dp2400
sg70
g2344
sg63
(lp2401
g56
(g77
g58
NtRp2402
(dp2403
g61
(dp2404
sg70
g2398
sg63
(lp2405
g56
(g57
g58
NtRp2406
(dp2407
g61
(dp2408
g69
I3
ssg70
g2402
sg63
(lp2409
g1820
asbasbasbasbasbasbasbasbasbasbasbag56
(g72
g58
NtRp2410
(dp2411
g61
(dp2412
sg70
g66
sg63
(lp2413
g56
(g77
g58
NtRp2414
(dp2415
g61
(dp2416
g81
g82
ssg70
g2410
sg63
(lp2417
S'is_https'
p2418
asbag56
(g77
g58
NtRp2419
(dp2420
g61
(dp2421
g88
g89
ssg70
g2410
sg63
(lp2422
S':'
asbag56
(g77
g58
NtRp2423
(dp2424
g61
(dp2425
sg70
g2410
sg63
(lp2426
g56
(g57
g58
NtRp2427
(dp2428
g61
(dp2429
g69
I5
ssg70
g2423
sg63
(lp2430
g1166
asbasbasbag56
(g72
g58
NtRp2431
(dp2432
g61
(dp2433
sg70
g66
sg63
(lp2434
g56
(g77
g58
NtRp2435
(dp2436
g61
(dp2437
g81
g82
ssg70
g2431
sg63
(lp2438
S'is_local'
p2439
asbag56
(g77
g58
NtRp2440
(dp2441
g61
(dp2442
g88
g89
ssg70
g2431
sg63
(lp2443
S':'
asbag56
(g77
g58
NtRp2444
(dp2445
g61
(dp2446
sg70
g2431
sg63
(lp2447
g56
(g57
g58
NtRp2448
(dp2449
g61
(dp2450
g69
I5
ssg70
g2444
sg63
(lp2451
g99
asbasbasbag56
(g72
g58
NtRp2452
(dp2453
g61
(dp2454
sg70
g66
sg63
(lp2455
g56
(g77
g58
NtRp2456
(dp2457
g61
(dp2458
g81
g82
ssg70
g2452
sg63
(lp2459
S'is_restful'
p2460
asbag56
(g77
g58
NtRp2461
(dp2462
g61
(dp2463
g88
g89
ssg70
g2452
sg63
(lp2464
S':'
asbag56
(g77
g58
NtRp2465
(dp2466
g61
(dp2467
sg70
g2452
sg63
(lp2468
g56
(g57
g58
NtRp2469
(dp2470
g61
(dp2471
g69
I5
ssg70
g2465
sg63
(lp2472
g1166
asbasbasbag56
(g72
g58
NtRp2473
(dp2474
g61
(dp2475
sg70
g66
sg63
(lp2476
g56
(g77
g58
NtRp2477
(dp2478
g61
(dp2479
g81
g82
ssg70
g2473
sg63
(lp2480
S'now'
p2481
asbag56
(g77
g58
NtRp2482
(dp2483
g61
(dp2484
g88
g89
ssg70
g2473
sg63
(lp2485
S':'
asbag56
(g77
g58
NtRp2486
(dp2487
g61
(dp2488
sg70
g2473
sg63
(lp2489
g56
(g57
g58
NtRp2490
(dp2491
g61
(dp2492
g69
I5
ssg70
g2486
sg63
(lp2493
S'datetime.datetime(2011, 11, 3, 17, 49, 0, 4480)'
p2494
asbasbasbag56
(g72
g58
NtRp2495
(dp2496
g61
(dp2497
sg70
g66
sg63
(lp2498
g56
(g77
g58
NtRp2499
(dp2500
g61
(dp2501
g81
g82
ssg70
g2495
sg63
(lp2502
S'post_vars'
p2503
asbag56
(g77
g58
NtRp2504
(dp2505
g61
(dp2506
g88
g89
ssg70
g2495
sg63
(lp2507
S':'
asbag56
(g77
g58
NtRp2508
(dp2509
g61
(dp2510
sg70
g2495
sg63
(lp2511
g56
(g57
g58
NtRp2512
(dp2513
g61
(dp2514
g69
I5
ssg70
g2508
sg63
(lp2515
g56
(g65
g58
NtRp2516
(dp2517
g61
(dp2518
g69
I4
ssg70
Nsg63
(lp2519
sbasbasbasbag56
(g72
g58
NtRp2520
(dp2521
g61
(dp2522
sg70
g66
sg63
(lp2523
g56
(g77
g58
NtRp2524
(dp2525
g61
(dp2526
g81
g82
ssg70
g2520
sg63
(lp2527
S'raw_extension'
p2528
asbag56
(g77
g58
NtRp2529
(dp2530
g61
(dp2531
g88
g89
ssg70
g2520
sg63
(lp2532
S':'
asbag56
(g77
g58
NtRp2533
(dp2534
g61
(dp2535
sg70
g2520
sg63
(lp2536
g56
(g57
g58
NtRp2537
(dp2538
g61
(dp2539
g69
I5
ssg70
g2533
sg63
(lp2540
g2042
asbasbasbag56
(g72
g58
NtRp2541
(dp2542
g61
(dp2543
sg70
g66
sg63
(lp2544
g56
(g77
g58
NtRp2545
(dp2546
g61
(dp2547
g81
g82
ssg70
g2541
sg63
(lp2548
S'url'
p2549
asbag56
(g77
g58
NtRp2550
(dp2551
g61
(dp2552
g88
g89
ssg70
g2541
sg63
(lp2553
S':'
asbag56
(g77
g58
NtRp2554
(dp2555
g61
(dp2556
sg70
g2541
sg63
(lp2557
g56
(g57
g58
NtRp2558
(dp2559
g61
(dp2560
g69
I5
ssg70
g2554
sg63
(lp2561
S'/grades/default/grades_report.load'
p2562
asbasbasbag56
(g72
g58
NtRp2563
(dp2564
g61
(dp2565
sg70
g66
sg63
(lp2566
g56
(g77
g58
NtRp2567
(dp2568
g61
(dp2569
g81
g82
ssg70
g2563
sg63
(lp2570
S'utcnow'
p2571
asbag56
(g77
g58
NtRp2572
(dp2573
g61
(dp2574
g88
g89
ssg70
g2563
sg63
(lp2575
S':'
asbag56
(g77
g58
NtRp2576
(dp2577
g61
(dp2578
sg70
g2563
sg63
(lp2579
g56
(g57
g58
NtRp2580
(dp2581
g61
(dp2582
g69
I5
ssg70
g2576
sg63
(lp2583
S'datetime.datetime(2011, 11, 3, 21, 49, 0, 4537)'
p2584
asbasbasbag56
(g72
g58
NtRp2585
(dp2586
g61
(dp2587
sg70
g66
sg63
(lp2588
g56
(g77
g58
NtRp2589
(dp2590
g61
(dp2591
g81
g82
ssg70
g2585
sg63
(lp2592
S'uuid'
p2593
asbag56
(g77
g58
NtRp2594
(dp2595
g61
(dp2596
g88
g89
ssg70
g2585
sg63
(lp2597
S':'
asbag56
(g77
g58
NtRp2598
(dp2599
g61
(dp2600
sg70
g2585
sg63
(lp2601
g56
(g57
g58
NtRp2602
(dp2603
g61
(dp2604
g69
I5
ssg70
g2598
sg63
(lp2605
S'grades/127.0.0.1.2011-11-03.17-49-00.1b6b601f-4d75-4da1-9f6b-d52c72789646'
p2606
asbasbasbag56
(g72
g58
NtRp2607
(dp2608
g61
(dp2609
sg70
g66
sg63
(lp2610
g56
(g77
g58
NtRp2611
(dp2612
g61
(dp2613
g81
g82
ssg70
g2607
sg63
(lp2614
S'vars'
p2615
asbag56
(g77
g58
NtRp2616
(dp2617
g61
(dp2618
g88
g89
ssg70
g2607
sg63
(lp2619
S':'
asbag56
(g77
g58
NtRp2620
(dp2621
g61
(dp2622
sg70
g2607
sg63
(lp2623
g56
(g57
g58
NtRp2624
(dp2625
g61
(dp2626
g69
I5
ssg70
g2620
sg63
(lp2627
g56
(g65
g58
NtRp2628
(dp2629
g61
(dp2630
g69
I4
ssg70
Nsg63
(lp2631
sbasbasbasbag56
(g72
g58
NtRp2632
(dp2633
g61
(dp2634
sg70
g66
sg63
(lp2635
g56
(g77
g58
NtRp2636
(dp2637
g61
(dp2638
g81
g82
ssg70
g2632
sg63
(lp2639
S'wsgi'
p2640
asbag56
(g77
g58
NtRp2641
(dp2642
g61
(dp2643
g88
g89
ssg70
g2632
sg63
(lp2644
S':'
asbag56
(g77
g58
NtRp2645
(dp2646
g61
(dp2647
sg70
g2632
sg63
(lp2648
g56
(g57
g58
NtRp2649
(dp2650
g61
(dp2651
g69
I5
ssg70
g2645
sg63
(lp2652
g56
(g65
g58
NtRp2653
(dp2654
g61
(dp2655
g69
I4
ssg70
Nsg63
(lp2656
g56
(g72
g58
NtRp2657
(dp2658
g61
(dp2659
sg70
g2653
sg63
(lp2660
g56
(g77
g58
NtRp2661
(dp2662
g61
(dp2663
g81
g82
ssg70
g2657
sg63
(lp2664
S'environ'
p2665
asbag56
(g77
g58
NtRp2666
(dp2667
g61
(dp2668
g88
g89
ssg70
g2657
sg63
(lp2669
S':'
asbag56
(g77
g58
NtRp2670
(dp2671
g61
(dp2672
sg70
g2657
sg63
(lp2673
g56
(g57
g58
NtRp2674
(dp2675
g61
(dp2676
g69
I4
ssg70
g2670
sg63
(lp2677
g56
(g65
g58
NtRp2678
(dp2679
g61
(dp2680
g69
I3
ssg70
Nsg63
(lp2681
g56
(g72
g58
NtRp2682
(dp2683
g61
(dp2684
sg70
g2678
sg63
(lp2685
g56
(g77
g58
NtRp2686
(dp2687
g61
(dp2688
g81
g82
ssg70
g2682
sg63
(lp2689
S'HTTP_ACCEPT'
p2690
asbag56
(g77
g58
NtRp2691
(dp2692
g61
(dp2693
g88
g89
ssg70
g2682
sg63
(lp2694
S':'
asbag56
(g77
g58
NtRp2695
(dp2696
g61
(dp2697
sg70
g2682
sg63
(lp2698
g56
(g57
g58
NtRp2699
(dp2700
g61
(dp2701
g69
I3
ssg70
g2695
sg63
(lp2702
g1210
asbasbasbag56
(g72
g58
NtRp2703
(dp2704
g61
(dp2705
sg70
g2678
sg63
(lp2706
g56
(g77
g58
NtRp2707
(dp2708
g61
(dp2709
g81
g82
ssg70
g2703
sg63
(lp2710
S'HTTP_ACCEPT_ENCODING'
p2711
asbag56
(g77
g58
NtRp2712
(dp2713
g61
(dp2714
g88
g89
ssg70
g2703
sg63
(lp2715
S':'
asbag56
(g77
g58
NtRp2716
(dp2717
g61
(dp2718
sg70
g2703
sg63
(lp2719
g56
(g57
g58
NtRp2720
(dp2721
g61
(dp2722
g69
I3
ssg70
g2716
sg63
(lp2723
g1232
asbasbasbag56
(g72
g58
NtRp2724
(dp2725
g61
(dp2726
sg70
g2678
sg63
(lp2727
g56
(g77
g58
NtRp2728
(dp2729
g61
(dp2730
g81
g82
ssg70
g2724
sg63
(lp2731
S'HTTP_ACCEPT_LANGUAGE'
p2732
asbag56
(g77
g58
NtRp2733
(dp2734
g61
(dp2735
g88
g89
ssg70
g2724
sg63
(lp2736
S':'
asbag56
(g77
g58
NtRp2737
(dp2738
g61
(dp2739
sg70
g2724
sg63
(lp2740
g56
(g57
g58
NtRp2741
(dp2742
g61
(dp2743
g69
I3
ssg70
g2737
sg63
(lp2744
g1254
asbasbasbag56
(g72
g58
NtRp2745
(dp2746
g61
(dp2747
sg70
g2678
sg63
(lp2748
g56
(g77
g58
NtRp2749
(dp2750
g61
(dp2751
g81
g82
ssg70
g2745
sg63
(lp2752
S'HTTP_CACHE_CONTROL'
p2753
asbag56
(g77
g58
NtRp2754
(dp2755
g61
(dp2756
g88
g89
ssg70
g2745
sg63
(lp2757
S':'
asbag56
(g77
g58
NtRp2758
(dp2759
g61
(dp2760
sg70
g2745
sg63
(lp2761
g56
(g57
g58
NtRp2762
(dp2763
g61
(dp2764
g69
I3
ssg70
g2758
sg63
(lp2765
g1276
asbasbasbag56
(g72
g58
NtRp2766
(dp2767
g61
(dp2768
sg70
g2678
sg63
(lp2769
g56
(g77
g58
NtRp2770
(dp2771
g61
(dp2772
g81
g82
ssg70
g2766
sg63
(lp2773
S'HTTP_CONNECTION'
p2774
asbag56
(g77
g58
NtRp2775
(dp2776
g61
(dp2777
g88
g89
ssg70
g2766
sg63
(lp2778
S':'
asbag56
(g77
g58
NtRp2779
(dp2780
g61
(dp2781
sg70
g2766
sg63
(lp2782
g56
(g57
g58
NtRp2783
(dp2784
g61
(dp2785
g69
I3
ssg70
g2779
sg63
(lp2786
g1298
asbasbasbag56
(g72
g58
NtRp2787
(dp2788
g61
(dp2789
sg70
g2678
sg63
(lp2790
g56
(g77
g58
NtRp2791
(dp2792
g61
(dp2793
g81
g82
ssg70
g2787
sg63
(lp2794
S'HTTP_COOKIE'
p2795
asbag56
(g77
g58
NtRp2796
(dp2797
g61
(dp2798
g88
g89
ssg70
g2787
sg63
(lp2799
S':'
asbag56
(g77
g58
NtRp2800
(dp2801
g61
(dp2802
sg70
g2787
sg63
(lp2803
g56
(g57
g58
NtRp2804
(dp2805
g61
(dp2806
g69
I3
ssg70
g2800
sg63
(lp2807
g1320
asbasbasbag56
(g72
g58
NtRp2808
(dp2809
g61
(dp2810
sg70
g2678
sg63
(lp2811
g56
(g77
g58
NtRp2812
(dp2813
g61
(dp2814
g81
g82
ssg70
g2808
sg63
(lp2815
S'HTTP_HOST'
p2816
asbag56
(g77
g58
NtRp2817
(dp2818
g61
(dp2819
g88
g89
ssg70
g2808
sg63
(lp2820
S':'
asbag56
(g77
g58
NtRp2821
(dp2822
g61
(dp2823
sg70
g2808
sg63
(lp2824
g56
(g57
g58
NtRp2825
(dp2826
g61
(dp2827
g69
I3
ssg70
g2821
sg63
(lp2828
g1342
asbasbasbag56
(g72
g58
NtRp2829
(dp2830
g61
(dp2831
sg70
g2678
sg63
(lp2832
g56
(g77
g58
NtRp2833
(dp2834
g61
(dp2835
g81
g82
ssg70
g2829
sg63
(lp2836
S'HTTP_REFERER'
p2837
asbag56
(g77
g58
NtRp2838
(dp2839
g61
(dp2840
g88
g89
ssg70
g2829
sg63
(lp2841
S':'
asbag56
(g77
g58
NtRp2842
(dp2843
g61
(dp2844
sg70
g2829
sg63
(lp2845
g56
(g57
g58
NtRp2846
(dp2847
g61
(dp2848
g69
I3
ssg70
g2842
sg63
(lp2849
g1364
asbasbasbag56
(g72
g58
NtRp2850
(dp2851
g61
(dp2852
sg70
g2678
sg63
(lp2853
g56
(g77
g58
NtRp2854
(dp2855
g61
(dp2856
g81
g82
ssg70
g2850
sg63
(lp2857
S'HTTP_USER_AGENT'
p2858
asbag56
(g77
g58
NtRp2859
(dp2860
g61
(dp2861
g88
g89
ssg70
g2850
sg63
(lp2862
S':'
asbag56
(g77
g58
NtRp2863
(dp2864
g61
(dp2865
sg70
g2850
sg63
(lp2866
g56
(g57
g58
NtRp2867
(dp2868
g61
(dp2869
g69
I3
ssg70
g2863
sg63
(lp2870
g1386
asbasbasbag56
(g72
g58
NtRp2871
(dp2872
g61
(dp2873
sg70
g2678
sg63
(lp2874
g56
(g77
g58
NtRp2875
(dp2876
g61
(dp2877
g81
g82
ssg70
g2871
sg63
(lp2878
S'HTTP_WEB2PY_COMPONENT_ELEMENT'
p2879
asbag56
(g77
g58
NtRp2880
(dp2881
g61
(dp2882
g88
g89
ssg70
g2871
sg63
(lp2883
S':'
asbag56
(g77
g58
NtRp2884
(dp2885
g61
(dp2886
sg70
g2871
sg63
(lp2887
g56
(g57
g58
NtRp2888
(dp2889
g61
(dp2890
g69
I3
ssg70
g2884
sg63
(lp2891
g189
asbasbasbag56
(g72
g58
NtRp2892
(dp2893
g61
(dp2894
sg70
g2678
sg63
(lp2895
g56
(g77
g58
NtRp2896
(dp2897
g61
(dp2898
g81
g82
ssg70
g2892
sg63
(lp2899
S'HTTP_WEB2PY_COMPONENT_LOCATION'
p2900
asbag56
(g77
g58
NtRp2901
(dp2902
g61
(dp2903
g88
g89
ssg70
g2892
sg63
(lp2904
S':'
asbag56
(g77
g58
NtRp2905
(dp2906
g61
(dp2907
sg70
g2892
sg63
(lp2908
g56
(g57
g58
NtRp2909
(dp2910
g61
(dp2911
g69
I3
ssg70
g2905
sg63
(lp2912
g1429
asbasbasbag56
(g72
g58
NtRp2913
(dp2914
g61
(dp2915
sg70
g2678
sg63
(lp2916
g56
(g77
g58
NtRp2917
(dp2918
g61
(dp2919
g81
g82
ssg70
g2913
sg63
(lp2920
S'HTTP_X_REQUESTED_WITH'
p2921
asbag56
(g77
g58
NtRp2922
(dp2923
g61
(dp2924
g88
g89
ssg70
g2913
sg63
(lp2925
S':'
asbag56
(g77
g58
NtRp2926
(dp2927
g61
(dp2928
sg70
g2913
sg63
(lp2929
g56
(g57
g58
NtRp2930
(dp2931
g61
(dp2932
g69
I3
ssg70
g2926
sg63
(lp2933
g1451
asbasbasbag56
(g72
g58
NtRp2934
(dp2935
g61
(dp2936
sg70
g2678
sg63
(lp2937
g56
(g77
g58
NtRp2938
(dp2939
g61
(dp2940
g81
g82
ssg70
g2934
sg63
(lp2941
S'PATH_INFO'
p2942
asbag56
(g77
g58
NtRp2943
(dp2944
g61
(dp2945
g88
g89
ssg70
g2934
sg63
(lp2946
S':'
asbag56
(g77
g58
NtRp2947
(dp2948
g61
(dp2949
sg70
g2934
sg63
(lp2950
g56
(g57
g58
NtRp2951
(dp2952
g61
(dp2953
g69
I3
ssg70
g2947
sg63
(lp2954
g1494
asbasbasbag56
(g72
g58
NtRp2955
(dp2956
g61
(dp2957
sg70
g2678
sg63
(lp2958
g56
(g77
g58
NtRp2959
(dp2960
g61
(dp2961
g81
g82
ssg70
g2955
sg63
(lp2962
S'QUERY_STRING'
p2963
asbag56
(g77
g58
NtRp2964
(dp2965
g61
(dp2966
g88
g89
ssg70
g2955
sg63
(lp2967
S':'
asbag56
(g77
g58
NtRp2968
(dp2969
g61
(dp2970
sg70
g2955
sg63
(lp2971
g56
(g57
g58
NtRp2972
(dp2973
g61
(dp2974
g69
I3
ssg70
g2968
sg63
(lp2975
S''
asbasbasbag56
(g72
g58
NtRp2976
(dp2977
g61
(dp2978
sg70
g2678
sg63
(lp2979
g56
(g77
g58
NtRp2980
(dp2981
g61
(dp2982
g81
g82
ssg70
g2976
sg63
(lp2983
S'REMOTE_ADDR'
p2984
asbag56
(g77
g58
NtRp2985
(dp2986
g61
(dp2987
g88
g89
ssg70
g2976
sg63
(lp2988
S':'
asbag56
(g77
g58
NtRp2989
(dp2990
g61
(dp2991
sg70
g2976
sg63
(lp2992
g56
(g57
g58
NtRp2993
(dp2994
g61
(dp2995
g69
I3
ssg70
g2989
sg63
(lp2996
g211
asbasbasbag56
(g72
g58
NtRp2997
(dp2998
g61
(dp2999
sg70
g2678
sg63
(lp3000
g56
(g77
g58
NtRp3001
(dp3002
g61
(dp3003
g81
g82
ssg70
g2997
sg63
(lp3004
S'REMOTE_PORT'
p3005
asbag56
(g77
g58
NtRp3006
(dp3007
g61
(dp3008
g88
g89
ssg70
g2997
sg63
(lp3009
S':'
asbag56
(g77
g58
NtRp3010
(dp3011
g61
(dp3012
sg70
g2997
sg63
(lp3013
g56
(g57
g58
NtRp3014
(dp3015
g61
(dp3016
g69
I3
ssg70
g3010
sg63
(lp3017
g1558
asbasbasbag56
(g72
g58
NtRp3018
(dp3019
g61
(dp3020
sg70
g2678
sg63
(lp3021
g56
(g77
g58
NtRp3022
(dp3023
g61
(dp3024
g81
g82
ssg70
g3018
sg63
(lp3025
S'REQUEST_METHOD'
p3026
asbag56
(g77
g58
NtRp3027
(dp3028
g61
(dp3029
g88
g89
ssg70
g3018
sg63
(lp3030
S':'
asbag56
(g77
g58
NtRp3031
(dp3032
g61
(dp3033
sg70
g3018
sg63
(lp3034
g56
(g57
g58
NtRp3035
(dp3036
g61
(dp3037
g69
I3
ssg70
g3031
sg63
(lp3038
g1580
asbasbasbag56
(g72
g58
NtRp3039
(dp3040
g61
(dp3041
sg70
g2678
sg63
(lp3042
g56
(g77
g58
NtRp3043
(dp3044
g61
(dp3045
g81
g82
ssg70
g3039
sg63
(lp3046
S'SCRIPT_NAME'
p3047
asbag56
(g77
g58
NtRp3048
(dp3049
g61
(dp3050
g88
g89
ssg70
g3039
sg63
(lp3051
S':'
asbag56
(g77
g58
NtRp3052
(dp3053
g61
(dp3054
sg70
g3039
sg63
(lp3055
g56
(g57
g58
NtRp3056
(dp3057
g61
(dp3058
g69
I3
ssg70
g3052
sg63
(lp3059
S''
asbasbasbag56
(g72
g58
NtRp3060
(dp3061
g61
(dp3062
sg70
g2678
sg63
(lp3063
g56
(g77
g58
NtRp3064
(dp3065
g61
(dp3066
g81
g82
ssg70
g3060
sg63
(lp3067
S'SERVER_NAME'
p3068
asbag56
(g77
g58
NtRp3069
(dp3070
g61
(dp3071
g88
g89
ssg70
g3060
sg63
(lp3072
S':'
asbag56
(g77
g58
NtRp3073
(dp3074
g61
(dp3075
sg70
g3060
sg63
(lp3076
g56
(g57
g58
NtRp3077
(dp3078
g61
(dp3079
g69
I3
ssg70
g3073
sg63
(lp3080
g1623
asbasbasbag56
(g72
g58
NtRp3081
(dp3082
g61
(dp3083
sg70
g2678
sg63
(lp3084
g56
(g77
g58
NtRp3085
(dp3086
g61
(dp3087
g81
g82
ssg70
g3081
sg63
(lp3088
S'SERVER_PORT'
p3089
asbag56
(g77
g58
NtRp3090
(dp3091
g61
(dp3092
g88
g89
ssg70
g3081
sg63
(lp3093
S':'
asbag56
(g77
g58
NtRp3094
(dp3095
g61
(dp3096
sg70
g3081
sg63
(lp3097
g56
(g57
g58
NtRp3098
(dp3099
g61
(dp3100
g69
I3
ssg70
g3094
sg63
(lp3101
g1645
asbasbasbag56
(g72
g58
NtRp3102
(dp3103
g61
(dp3104
sg70
g2678
sg63
(lp3105
g56
(g77
g58
NtRp3106
(dp3107
g61
(dp3108
g81
g82
ssg70
g3102
sg63
(lp3109
S'SERVER_PROTOCOL'
p3110
asbag56
(g77
g58
NtRp3111
(dp3112
g61
(dp3113
g88
g89
ssg70
g3102
sg63
(lp3114
S':'
asbag56
(g77
g58
NtRp3115
(dp3116
g61
(dp3117
sg70
g3102
sg63
(lp3118
g56
(g57
g58
NtRp3119
(dp3120
g61
(dp3121
g69
I3
ssg70
g3115
sg63
(lp3122
g1667
asbasbasbag56
(g72
g58
NtRp3123
(dp3124
g61
(dp3125
sg70
g2678
sg63
(lp3126
g56
(g77
g58
NtRp3127
(dp3128
g61
(dp3129
g81
g82
ssg70
g3123
sg63
(lp3130
S'SERVER_SOFTWARE'
p3131
asbag56
(g77
g58
NtRp3132
(dp3133
g61
(dp3134
g88
g89
ssg70
g3123
sg63
(lp3135
S':'
asbag56
(g77
g58
NtRp3136
(dp3137
g61
(dp3138
sg70
g3123
sg63
(lp3139
g56
(g57
g58
NtRp3140
(dp3141
g61
(dp3142
g69
I3
ssg70
g3136
sg63
(lp3143
g1689
asbasbasbag56
(g72
g58
NtRp3144
(dp3145
g61
(dp3146
sg70
g2678
sg63
(lp3147
g56
(g77
g58
NtRp3148
(dp3149
g61
(dp3150
g81
g82
ssg70
g3144
sg63
(lp3151
S'wsgi.errors'
p3152
asbag56
(g77
g58
NtRp3153
(dp3154
g61
(dp3155
g88
g89
ssg70
g3144
sg63
(lp3156
S':'
asbag56
(g77
g58
NtRp3157
(dp3158
g61
(dp3159
sg70
g3144
sg63
(lp3160
g56
(g57
g58
NtRp3161
(dp3162
g61
(dp3163
g69
I3
ssg70
g3157
sg63
(lp3164
S"<open file '<stderr>', mode 'w' at 0x7f1a4db92270>"
p3165
asbasbasbag56
(g72
g58
NtRp3166
(dp3167
g61
(dp3168
sg70
g2678
sg63
(lp3169
g56
(g77
g58
NtRp3170
(dp3171
g61
(dp3172
g81
g82
ssg70
g3166
sg63
(lp3173
S'wsgi.file_wrapper'
p3174
asbag56
(g77
g58
NtRp3175
(dp3176
g61
(dp3177
g88
g89
ssg70
g3166
sg63
(lp3178
S':'
asbag56
(g77
g58
NtRp3179
(dp3180
g61
(dp3181
sg70
g3166
sg63
(lp3182
g56
(g57
g58
NtRp3183
(dp3184
g61
(dp3185
g69
I3
ssg70
g3179
sg63
(lp3186
S'<class wsgiref.util.FileWrapper at 0x21fc870>'
p3187
asbasbasbag56
(g72
g58
NtRp3188
(dp3189
g61
(dp3190
sg70
g2678
sg63
(lp3191
g56
(g77
g58
NtRp3192
(dp3193
g61
(dp3194
g81
g82
ssg70
g3188
sg63
(lp3195
S'wsgi.input'
p3196
asbag56
(g77
g58
NtRp3197
(dp3198
g61
(dp3199
g88
g89
ssg70
g3188
sg63
(lp3200
S':'
asbag56
(g77
g58
NtRp3201
(dp3202
g61
(dp3203
sg70
g3188
sg63
(lp3204
g56
(g57
g58
NtRp3205
(dp3206
g61
(dp3207
g69
I3
ssg70
g3201
sg63
(lp3208
S'<cStringIO.StringO object at 0x7094e30>'
p3209
asbasbasbag56
(g72
g58
NtRp3210
(dp3211
g61
(dp3212
sg70
g2678
sg63
(lp3213
g56
(g77
g58
NtRp3214
(dp3215
g61
(dp3216
g81
g82
ssg70
g3210
sg63
(lp3217
S'wsgi.multiprocess'
p3218
asbag56
(g77
g58
NtRp3219
(dp3220
g61
(dp3221
g88
g89
ssg70
g3210
sg63
(lp3222
S':'
asbag56
(g77
g58
NtRp3223
(dp3224
g61
(dp3225
sg70
g3210
sg63
(lp3226
g56
(g57
g58
NtRp3227
(dp3228
g61
(dp3229
g69
I3
ssg70
g3223
sg63
(lp3230
g1166
asbasbasbag56
(g72
g58
NtRp3231
(dp3232
g61
(dp3233
sg70
g2678
sg63
(lp3234
g56
(g77
g58
NtRp3235
(dp3236
g61
(dp3237
g81
g82
ssg70
g3231
sg63
(lp3238
S'wsgi.multithread'
p3239
asbag56
(g77
g58
NtRp3240
(dp3241
g61
(dp3242
g88
g89
ssg70
g3231
sg63
(lp3243
S':'
asbag56
(g77
g58
NtRp3244
(dp3245
g61
(dp3246
sg70
g3231
sg63
(lp3247
g56
(g57
g58
NtRp3248
(dp3249
g61
(dp3250
g69
I3
ssg70
g3244
sg63
(lp3251
g99
asbasbasbag56
(g72
g58
NtRp3252
(dp3253
g61
(dp3254
sg70
g2678
sg63
(lp3255
g56
(g77
g58
NtRp3256
(dp3257
g61
(dp3258
g81
g82
ssg70
g3252
sg63
(lp3259
S'wsgi.run_once'
p3260
asbag56
(g77
g58
NtRp3261
(dp3262
g61
(dp3263
g88
g89
ssg70
g3252
sg63
(lp3264
S':'
asbag56
(g77
g58
NtRp3265
(dp3266
g61
(dp3267
sg70
g3252
sg63
(lp3268
g56
(g57
g58
NtRp3269
(dp3270
g61
(dp3271
g69
I3
ssg70
g3265
sg63
(lp3272
g1166
asbasbasbag56
(g72
g58
NtRp3273
(dp3274
g61
(dp3275
sg70
g2678
sg63
(lp3276
g56
(g77
g58
NtRp3277
(dp3278
g61
(dp3279
g81
g82
ssg70
g3273
sg63
(lp3280
S'wsgi.url_scheme'
p3281
asbag56
(g77
g58
NtRp3282
(dp3283
g61
(dp3284
g88
g89
ssg70
g3273
sg63
(lp3285
S':'
asbag56
(g77
g58
NtRp3286
(dp3287
g61
(dp3288
sg70
g3273
sg63
(lp3289
g56
(g57
g58
NtRp3290
(dp3291
g61
(dp3292
g69
I3
ssg70
g3286
sg63
(lp3293
g1971
asbasbasbag56
(g72
g58
NtRp3294
(dp3295
g61
(dp3296
sg70
g2678
sg63
(lp3297
g56
(g77
g58
NtRp3298
(dp3299
g61
(dp3300
g81
g82
ssg70
g3294
sg63
(lp3301
S'wsgi.version'
p3302
asbag56
(g77
g58
NtRp3303
(dp3304
g61
(dp3305
g88
g89
ssg70
g3294
sg63
(lp3306
S':'
asbag56
(g77
g58
NtRp3307
(dp3308
g61
(dp3309
sg70
g3294
sg63
(lp3310
g56
(g57
g58
NtRp3311
(dp3312
g61
(dp3313
g69
I3
ssg70
g3307
sg63
(lp3314
S'1'
asbasbasbasbasbasbasbasbasbasbasbasbasbsS'frames'
p3315
(lp3316
(dp3317
S'file'
p3318
S'/home/ian/web2py/gluon/restricted.py'
p3319
sS'dump'
p3320
(dp3321
S'environment'
p3322
S"{'A': <class 'gluon.html.A'>, 'Auth': <class 'gluon.tools.Auth'>, 'B': <class 'gluon.html.B'>, 'BEAUTIFY': <class 'gluon.html.BEAUTIFY'>, 'BODY': <class 'gluon.html.BODY'>, 'BR': <class 'gluon.html.BR'>, 'BUTTON': <class 'gluon.html.BUTTON'>, 'CAT': <class 'gluon.html.CAT'>, 'CENTER': <class 'gluon.html.CENTER'>, 'CLEANUP': <class 'gluon.validators.CLEANUP'>, ...}"
p3323
sS'ccode'
p3324
S'<code object <module> at 0x6de1c30, file "/home/...lications/grades/controllers/default.py", line 2>'
p3325
ssS'lnum'
p3326
I194
sS'lines'
p3327
(dp3328
I192
S'        else:'
p3329
sI193
S'            ccode = compile2(code,layer)'
p3330
sI194
S'        exec ccode in environment'
p3331
sI195
S'    except HTTP:'
p3332
sI196
S'        raise'
p3333
sI197
S'    except Exception, error:'
p3334
sI198
S'        # XXX Show exception in Wing IDE if running in debugger'
p3335
sI189
S'    try:'
p3336
sI190
S'        if type(code) == types.CodeType:'
p3337
sI191
S'            ccode = code'
p3338
ssS'call'
p3339
S"(code='# -*- coding: utf-8 -*-\\nfrom gluon import * \\nimp... \\nresponse._vars=response._caller(grades_report)\\n', environment={'A': <class 'gluon.html.A'>, 'Auth': <class 'gluon.tools.Auth'>, 'B': <class 'gluon.html.B'>, 'BEAUTIFY': <class 'gluon.html.BEAUTIFY'>, 'BODY': <class 'gluon.html.BODY'>, 'BR': <class 'gluon.html.BR'>, 'BUTTON': <class 'gluon.html.BUTTON'>, 'CAT': <class 'gluon.html.CAT'>, 'CENTER': <class 'gluon.html.CENTER'>, 'CLEANUP': <class 'gluon.validators.CLEANUP'>, ...}, layer='/home/ian/web2py/applications/grades/controllers/default.py')"
p3340
sS'func'
p3341
S'restricted'
p3342
sa(dp3343
g3318
S'/home/ian/web2py/applications/grades/controllers/default.py'
p3344
sg3320
(dp3345
sg3326
I62
sg3327
(dp3346
I52
S'            dates = g[the_course]'
p3347
sI53
S'            if the_date in dates:'
p3348
sI54
S'                dates[the_date].append(r.grade)'
p3349
sI55
S'            else:'
p3350
sI56
S'                dates[the_date] = [r.grade]'
p3351
sI57
S'        else:'
p3352
sI58
S'            l = [r.grade]'
p3353
sI59
S'            the_date = r.class_date'
p3354
sI60
S'            g[r.course] = dict(the_date = l)'
p3355
sI61
S'    return dict(grades = g, students = students, student = student)'
p3356
ssg3339
S'()'
p3357
sg3341
S'<module>'
p3358
sa(dp3359
g3318
S'/home/ian/web2py/gluon/globals.py'
p3360
sg3320
(dp3361
S'self'
p3362
S'undefined'
p3363
sS'f'
S'<function grades_report>'
p3364
ssg3326
I149
sg3327
(dp3365
I144
S'        self.meta = Storage()      # used by web2py_ajax.html'
p3366
sI145
S'        self.menu = []             # used by the default view layout'
p3367
sI146
S'        self.files = []            # used by web2py_ajax.html'
p3368
sI147
S'        self.generic_patterns = [] # patterns to allow generic views'
p3369
sI148
S'        self._vars = None'
p3370
sI149
S'        self._caller = lambda f: f()'
p3371
sI150
S'        self._view_environment = None'
p3372
sI151
S'        self._custom_commit = None'
p3373
sI152
S'        self._custom_rollback = None'
p3374
sI153
S''
ssg3339
S'(f=<function grades_report>)'
p3375
sg3341
S'<lambda>'
p3376
sa(dp3377
g3318
S'/home/ian/web2py/gluon/tools.py'
p3378
sg3320
(dp3379
S'action'
p3380
S'<function grades_report>'
p3381
sS'a'
S'()'
p3382
sS'b'
g44
ssg3326
I2456
sg3327
(dp3383
I2451
S"                            '?_next='+urllib.quote(next))"
p3384
sI2452
S'                if not condition:'
p3385
sI2453
S'                    current.session.flash = self.messages.access_denied'
p3386
sI2454
S'                    return call_or_redirect('
p3387
sI2455
S'                        self.settings.on_failed_authorization)'
p3388
sI2456
S'                return action(*a, **b)'
p3389
sI2457
S'            f.__doc__ = action.__doc__'
p3390
sI2458
S'            f.__name__ = action.__name__'
p3391
sI2459
S'            f.__dict__.update(action.__dict__)'
p3392
sI2460
S'            return f'
p3393
ssg3339
S'(*a=(), **b={})'
p3394
sg3341
S'f'
sa(dp3395
g3318
S'/home/ian/web2py/applications/grades/controllers/default.py'
p3396
sg3320
(dp3397
S'global request'
p3398
S"<Storage {'body': <cStringIO.StringO object at 0..._vars': <Storage {}>, 'post_vars': <Storage {}>}>"
p3399
sS'request.args'
p3400
S'[]'
p3401
sS'u'
g3363
ssg3326
I41
sg3327
(dp3402
I36
S'    for s in student_list:'
p3403
sI37
S'        sindex = s.id'
p3404
sI38
S'        slast = s.last_name'
p3405
sI39
S'        sfirst = s.first_name'
p3406
sI40
S"        students[sindex] = slast + ', ' + sfirst"
p3407
sI41
S'    u = request.args[0] or 15'
p3408
sI42
S'    n = db.auth_user[u]'
p3409
sI43
S"    student = n.last_name + ', ' + n.first_name"
p3410
sI44
S'    gradelist = db(db.grades.name == u).select()'
p3411
sI45
S'    session.debug = request.args[0]'
p3412
ssg3339
S'()'
p3413
sg3341
S'grades_report'
p3414
sasS'pyver'
p3415
S'Python 2.7.2+: /usr/bin/python2.7'
p3416
sS'session'
p3417
g56
(g57
g58
NtRp3418
(dp3419
g61
(dp3420
sg63
(lp3421
g56
(g65
g58
NtRp3422
(dp3423
g61
(dp3424
g69
I5
ssg70
Nsg63
(lp3425
g56
(g72
g58
NtRp3426
(dp3427
g61
(dp3428
sg70
g3422
sg63
(lp3429
g56
(g77
g58
NtRp3430
(dp3431
g61
(dp3432
g81
g82
ssg70
g3426
sg63
(lp3433
S'auth'
p3434
asbag56
(g77
g58
NtRp3435
(dp3436
g61
(dp3437
g88
g89
ssg70
g3426
sg63
(lp3438
S':'
asbag56
(g77
g58
NtRp3439
(dp3440
g61
(dp3441
sg70
g3426
sg63
(lp3442
g56
(g57
g58
NtRp3443
(dp3444
g61
(dp3445
g69
I5
ssg70
g3439
sg63
(lp3446
g56
(g65
g58
NtRp3447
(dp3448
g61
(dp3449
g69
I4
ssg70
Nsg63
(lp3450
g56
(g72
g58
NtRp3451
(dp3452
g61
(dp3453
sg70
g3447
sg63
(lp3454
g56
(g77
g58
NtRp3455
(dp3456
g61
(dp3457
g81
g82
ssg70
g3451
sg63
(lp3458
S'expiration'
p3459
asbag56
(g77
g58
NtRp3460
(dp3461
g61
(dp3462
g88
g89
ssg70
g3451
sg63
(lp3463
S':'
asbag56
(g77
g58
NtRp3464
(dp3465
g61
(dp3466
sg70
g3451
sg63
(lp3467
g56
(g57
g58
NtRp3468
(dp3469
g61
(dp3470
g69
I4
ssg70
g3464
sg63
(lp3471
S'2592000'
p3472
asbasbasbag56
(g72
g58
NtRp3473
(dp3474
g61
(dp3475
sg70
g3447
sg63
(lp3476
g56
(g77
g58
NtRp3477
(dp3478
g61
(dp3479
g81
g82
ssg70
g3473
sg63
(lp3480
S'hmac_key'
p3481
asbag56
(g77
g58
NtRp3482
(dp3483
g61
(dp3484
g88
g89
ssg70
g3473
sg63
(lp3485
S':'
asbag56
(g77
g58
NtRp3486
(dp3487
g61
(dp3488
sg70
g3473
sg63
(lp3489
g56
(g57
g58
NtRp3490
(dp3491
g61
(dp3492
g69
I4
ssg70
g3486
sg63
(lp3493
S'7662103e-e580-4791-b95a-39c18813d8df'
p3494
asbasbasbag56
(g72
g58
NtRp3495
(dp3496
g61
(dp3497
sg70
g3447
sg63
(lp3498
g56
(g77
g58
NtRp3499
(dp3500
g61
(dp3501
g81
g82
ssg70
g3495
sg63
(lp3502
S'last_visit'
p3503
asbag56
(g77
g58
NtRp3504
(dp3505
g61
(dp3506
g88
g89
ssg70
g3495
sg63
(lp3507
S':'
asbag56
(g77
g58
NtRp3508
(dp3509
g61
(dp3510
sg70
g3495
sg63
(lp3511
g56
(g57
g58
NtRp3512
(dp3513
g61
(dp3514
g69
I4
ssg70
g3508
sg63
(lp3515
S'datetime.datetime(2011, 11, 3, 16, 16, 8, 558332)'
p3516
asbasbasbag56
(g72
g58
NtRp3517
(dp3518
g61
(dp3519
sg70
g3447
sg63
(lp3520
g56
(g77
g58
NtRp3521
(dp3522
g61
(dp3523
g81
g82
ssg70
g3517
sg63
(lp3524
S'remember'
p3525
asbag56
(g77
g58
NtRp3526
(dp3527
g61
(dp3528
g88
g89
ssg70
g3517
sg63
(lp3529
S':'
asbag56
(g77
g58
NtRp3530
(dp3531
g61
(dp3532
sg70
g3517
sg63
(lp3533
g56
(g57
g58
NtRp3534
(dp3535
g61
(dp3536
g69
I4
ssg70
g3530
sg63
(lp3537
g1166
asbasbasbag56
(g72
g58
NtRp3538
(dp3539
g61
(dp3540
sg70
g3447
sg63
(lp3541
g56
(g77
g58
NtRp3542
(dp3543
g61
(dp3544
g81
g82
ssg70
g3538
sg63
(lp3545
S'user'
p3546
asbag56
(g77
g58
NtRp3547
(dp3548
g61
(dp3549
g88
g89
ssg70
g3538
sg63
(lp3550
S':'
asbag56
(g77
g58
NtRp3551
(dp3552
g61
(dp3553
sg70
g3538
sg63
(lp3554
g56
(g57
g58
NtRp3555
(dp3556
g61
(dp3557
g69
I4
ssg70
g3551
sg63
(lp3558
g56
(g65
g58
NtRp3559
(dp3560
g61
(dp3561
g69
I3
ssg70
Nsg63
(lp3562
g56
(g72
g58
NtRp3563
(dp3564
g61
(dp3565
sg70
g3559
sg63
(lp3566
g56
(g77
g58
NtRp3567
(dp3568
g61
(dp3569
g81
g82
ssg70
g3563
sg63
(lp3570
S'email'
p3571
asbag56
(g77
g58
NtRp3572
(dp3573
g61
(dp3574
g88
g89
ssg70
g3563
sg63
(lp3575
S':'
asbag56
(g77
g58
NtRp3576
(dp3577
g61
(dp3578
sg70
g3563
sg63
(lp3579
g56
(g57
g58
NtRp3580
(dp3581
g61
(dp3582
g69
I3
ssg70
g3576
sg63
(lp3583
S'scottianw@gmail.com'
p3584
asbasbasbag56
(g72
g58
NtRp3585
(dp3586
g61
(dp3587
sg70
g3559
sg63
(lp3588
g56
(g77
g58
NtRp3589
(dp3590
g61
(dp3591
g81
g82
ssg70
g3585
sg63
(lp3592
S'first_name'
p3593
asbag56
(g77
g58
NtRp3594
(dp3595
g61
(dp3596
g88
g89
ssg70
g3585
sg63
(lp3597
S':'
asbag56
(g77
g58
NtRp3598
(dp3599
g61
(dp3600
sg70
g3585
sg63
(lp3601
g56
(g57
g58
NtRp3602
(dp3603
g61
(dp3604
g69
I3
ssg70
g3598
sg63
(lp3605
S'Ian'
p3606
asbasbasbag56
(g72
g58
NtRp3607
(dp3608
g61
(dp3609
sg70
g3559
sg63
(lp3610
g56
(g77
g58
NtRp3611
(dp3612
g61
(dp3613
g81
g82
ssg70
g3607
sg63
(lp3614
S'id'
p3615
asbag56
(g77
g58
NtRp3616
(dp3617
g61
(dp3618
g88
g89
ssg70
g3607
sg63
(lp3619
S':'
asbag56
(g77
g58
NtRp3620
(dp3621
g61
(dp3622
sg70
g3607
sg63
(lp3623
g56
(g57
g58
NtRp3624
(dp3625
g61
(dp3626
g69
I3
ssg70
g3620
sg63
(lp3627
S'11'
p3628
asbasbasbag56
(g72
g58
NtRp3629
(dp3630
g61
(dp3631
sg70
g3559
sg63
(lp3632
g56
(g77
g58
NtRp3633
(dp3634
g61
(dp3635
g81
g82
ssg70
g3629
sg63
(lp3636
S'last_name'
p3637
asbag56
(g77
g58
NtRp3638
(dp3639
g61
(dp3640
g88
g89
ssg70
g3629
sg63
(lp3641
S':'
asbag56
(g77
g58
NtRp3642
(dp3643
g61
(dp3644
sg70
g3629
sg63
(lp3645
g56
(g57
g58
NtRp3646
(dp3647
g61
(dp3648
g69
I3
ssg70
g3642
sg63
(lp3649
S'Scott'
p3650
asbasbasbag56
(g72
g58
NtRp3651
(dp3652
g61
(dp3653
sg70
g3559
sg63
(lp3654
g56
(g77
g58
NtRp3655
(dp3656
g61
(dp3657
g81
g82
ssg70
g3651
sg63
(lp3658
S'password'
p3659
asbag56
(g77
g58
NtRp3660
(dp3661
g61
(dp3662
g88
g89
ssg70
g3651
sg63
(lp3663
S':'
asbag56
(g77
g58
NtRp3664
(dp3665
g61
(dp3666
sg70
g3651
sg63
(lp3667
g56
(g57
g58
NtRp3668
(dp3669
g61
(dp3670
g69
I3
ssg70
g3664
sg63
(lp3671
S'351bc855a8ae4839e89ee60d2f279ed9'
p3672
asbasbasbag56
(g72
g58
NtRp3673
(dp3674
g61
(dp3675
sg70
g3559
sg63
(lp3676
g56
(g77
g58
NtRp3677
(dp3678
g61
(dp3679
g81
g82
ssg70
g3673
sg63
(lp3680
S'registration_key'
p3681
asbag56
(g77
g58
NtRp3682
(dp3683
g61
(dp3684
g88
g89
ssg70
g3673
sg63
(lp3685
S':'
asbag56
(g77
g58
NtRp3686
(dp3687
g61
(dp3688
sg70
g3673
sg63
(lp3689
g56
(g57
g58
NtRp3690
(dp3691
g61
(dp3692
g69
I3
ssg70
g3686
sg63
(lp3693
S''
asbasbasbag56
(g72
g58
NtRp3694
(dp3695
g61
(dp3696
sg70
g3559
sg63
(lp3697
g56
(g77
g58
NtRp3698
(dp3699
g61
(dp3700
g81
g82
ssg70
g3694
sg63
(lp3701
S'reset_password_key'
p3702
asbag56
(g77
g58
NtRp3703
(dp3704
g61
(dp3705
g88
g89
ssg70
g3694
sg63
(lp3706
S':'
asbag56
(g77
g58
NtRp3707
(dp3708
g61
(dp3709
sg70
g3694
sg63
(lp3710
g56
(g57
g58
NtRp3711
(dp3712
g61
(dp3713
g69
I3
ssg70
g3707
sg63
(lp3714
S''
asbasbasbasbasbasbasbasbasbasbasbag56
(g72
g58
NtRp3715
(dp3716
g61
(dp3717
sg70
g3422
sg63
(lp3718
g56
(g77
g58
NtRp3719
(dp3720
g61
(dp3721
g81
g82
ssg70
g3715
sg63
(lp3722
S'debug'
p3723
asbag56
(g77
g58
NtRp3724
(dp3725
g61
(dp3726
g88
g89
ssg70
g3715
sg63
(lp3727
S':'
asbag56
(g77
g58
NtRp3728
(dp3729
g61
(dp3730
sg70
g3715
sg63
(lp3731
g56
(g57
g58
NtRp3732
(dp3733
g61
(dp3734
g69
I5
ssg70
g3728
sg63
(lp3735
S'15'
p3736
asbasbasbasbasbsS'etype'
p3737
S"<type 'exceptions.IndexError'>"
p3738
sS'date'
p3739
S'Thu Nov  3 17:49:00 2011'
p3740
sS'response'
p3741
g56
(g57
g58
NtRp3742
(dp3743
g61
(dp3744
sg63
(lp3745
g56
(g65
g58
NtRp3746
(dp3747
g61
(dp3748
g69
I5
ssg70
Nsg63
(lp3749
g56
(g72
g58
NtRp3750
(dp3751
g61
(dp3752
sg70
g3746
sg63
(lp3753
g56
(g77
g58
NtRp3754
(dp3755
g61
(dp3756
g81
g82
ssg70
g3750
sg63
(lp3757
g154
asbag56
(g77
g58
NtRp3758
(dp3759
g61
(dp3760
g88
g89
ssg70
g3750
sg63
(lp3761
S':'
asbag56
(g77
g58
NtRp3762
(dp3763
g61
(dp3764
sg70
g3750
sg63
(lp3765
g56
(g57
g58
NtRp3766
(dp3767
g61
(dp3768
g69
I5
ssg70
g3762
sg63
(lp3769
S'<cStringIO.StringO object at 0x8766960>'
p3770
asbasbasbag56
(g72
g58
NtRp3771
(dp3772
g61
(dp3773
sg70
g3746
sg63
(lp3774
g56
(g77
g58
NtRp3775
(dp3776
g61
(dp3777
g81
g82
ssg70
g3771
sg63
(lp3778
g242
asbag56
(g77
g58
NtRp3779
(dp3780
g61
(dp3781
g88
g89
ssg70
g3771
sg63
(lp3782
S':'
asbag56
(g77
g58
NtRp3783
(dp3784
g61
(dp3785
sg70
g3771
sg63
(lp3786
g56
(g57
g58
NtRp3787
(dp3788
g61
(dp3789
g69
I5
ssg70
g3783
sg63
(lp3790
g56
(g65
g58
NtRp3791
(dp3792
g61
(dp3793
g69
I4
ssg70
Nsg63
(lp3794
g56
(g72
g58
NtRp3795
(dp3796
g61
(dp3797
sg70
g3791
sg63
(lp3798
g56
(g77
g58
NtRp3799
(dp3800
g61
(dp3801
g81
g82
ssg70
g3795
sg63
(lp3802
S'session_id_grades'
p3803
asbag56
(g77
g58
NtRp3804
(dp3805
g61
(dp3806
g88
g89
ssg70
g3795
sg63
(lp3807
S':'
asbag56
(g77
g58
NtRp3808
(dp3809
g61
(dp3810
sg70
g3795
sg63
(lp3811
g56
(g57
g58
NtRp3812
(dp3813
g61
(dp3814
g69
I4
ssg70
g3808
sg63
(lp3815
g56
(g65
g58
NtRp3816
(dp3817
g61
(dp3818
g69
I3
ssg70
Nsg63
(lp3819
g56
(g72
g58
NtRp3820
(dp3821
g61
(dp3822
sg70
g3816
sg63
(lp3823
g56
(g77
g58
NtRp3824
(dp3825
g61
(dp3826
g81
g82
ssg70
g3820
sg63
(lp3827
g292
asbag56
(g77
g58
NtRp3828
(dp3829
g61
(dp3830
g88
g89
ssg70
g3820
sg63
(lp3831
S':'
asbag56
(g77
g58
NtRp3832
(dp3833
g61
(dp3834
sg70
g3820
sg63
(lp3835
g56
(g57
g58
NtRp3836
(dp3837
g61
(dp3838
g69
I3
ssg70
g3832
sg63
(lp3839
S''
asbasbasbag56
(g72
g58
NtRp3840
(dp3841
g61
(dp3842
sg70
g3816
sg63
(lp3843
g56
(g77
g58
NtRp3844
(dp3845
g61
(dp3846
g81
g82
ssg70
g3840
sg63
(lp3847
g313
asbag56
(g77
g58
NtRp3848
(dp3849
g61
(dp3850
g88
g89
ssg70
g3840
sg63
(lp3851
S':'
asbag56
(g77
g58
NtRp3852
(dp3853
g61
(dp3854
sg70
g3840
sg63
(lp3855
g56
(g57
g58
NtRp3856
(dp3857
g61
(dp3858
g69
I3
ssg70
g3852
sg63
(lp3859
S''
asbasbasbag56
(g72
g58
NtRp3860
(dp3861
g61
(dp3862
sg70
g3816
sg63
(lp3863
g56
(g77
g58
NtRp3864
(dp3865
g61
(dp3866
g81
g82
ssg70
g3860
sg63
(lp3867
g334
asbag56
(g77
g58
NtRp3868
(dp3869
g61
(dp3870
g88
g89
ssg70
g3860
sg63
(lp3871
S':'
asbag56
(g77
g58
NtRp3872
(dp3873
g61
(dp3874
sg70
g3860
sg63
(lp3875
g56
(g57
g58
NtRp3876
(dp3877
g61
(dp3878
g69
I3
ssg70
g3872
sg63
(lp3879
S''
asbasbasbag56
(g72
g58
NtRp3880
(dp3881
g61
(dp3882
sg70
g3816
sg63
(lp3883
g56
(g77
g58
NtRp3884
(dp3885
g61
(dp3886
g81
g82
ssg70
g3880
sg63
(lp3887
g355
asbag56
(g77
g58
NtRp3888
(dp3889
g61
(dp3890
g88
g89
ssg70
g3880
sg63
(lp3891
S':'
asbag56
(g77
g58
NtRp3892
(dp3893
g61
(dp3894
sg70
g3880
sg63
(lp3895
g56
(g57
g58
NtRp3896
(dp3897
g61
(dp3898
g69
I3
ssg70
g3892
sg63
(lp3899
S''
asbasbasbag56
(g72
g58
NtRp3900
(dp3901
g61
(dp3902
sg70
g3816
sg63
(lp3903
g56
(g77
g58
NtRp3904
(dp3905
g61
(dp3906
g81
g82
ssg70
g3900
sg63
(lp3907
g376
asbag56
(g77
g58
NtRp3908
(dp3909
g61
(dp3910
g88
g89
ssg70
g3900
sg63
(lp3911
S':'
asbag56
(g77
g58
NtRp3912
(dp3913
g61
(dp3914
sg70
g3900
sg63
(lp3915
g56
(g57
g58
NtRp3916
(dp3917
g61
(dp3918
g69
I3
ssg70
g3912
sg63
(lp3919
S''
asbasbasbag56
(g72
g58
NtRp3920
(dp3921
g61
(dp3922
sg70
g3816
sg63
(lp3923
g56
(g77
g58
NtRp3924
(dp3925
g61
(dp3926
g81
g82
ssg70
g3920
sg63
(lp3927
g397
asbag56
(g77
g58
NtRp3928
(dp3929
g61
(dp3930
g88
g89
ssg70
g3920
sg63
(lp3931
S':'
asbag56
(g77
g58
NtRp3932
(dp3933
g61
(dp3934
sg70
g3920
sg63
(lp3935
g56
(g57
g58
NtRp3936
(dp3937
g61
(dp3938
g69
I3
ssg70
g3932
sg63
(lp3939
S'/'
asbasbasbag56
(g72
g58
NtRp3940
(dp3941
g61
(dp3942
sg70
g3816
sg63
(lp3943
g56
(g77
g58
NtRp3944
(dp3945
g61
(dp3946
g81
g82
ssg70
g3940
sg63
(lp3947
g418
asbag56
(g77
g58
NtRp3948
(dp3949
g61
(dp3950
g88
g89
ssg70
g3940
sg63
(lp3951
S':'
asbag56
(g77
g58
NtRp3952
(dp3953
g61
(dp3954
sg70
g3940
sg63
(lp3955
g56
(g57
g58
NtRp3956
(dp3957
g61
(dp3958
g69
I3
ssg70
g3952
sg63
(lp3959
S''
asbasbasbag56
(g72
g58
NtRp3960
(dp3961
g61
(dp3962
sg70
g3816
sg63
(lp3963
g56
(g77
g58
NtRp3964
(dp3965
g61
(dp3966
g81
g82
ssg70
g3960
sg63
(lp3967
g439
asbag56
(g77
g58
NtRp3968
(dp3969
g61
(dp3970
g88
g89
ssg70
g3960
sg63
(lp3971
S':'
asbag56
(g77
g58
NtRp3972
(dp3973
g61
(dp3974
sg70
g3960
sg63
(lp3975
g56
(g57
g58
NtRp3976
(dp3977
g61
(dp3978
g69
I3
ssg70
g3972
sg63
(lp3979
S''
asbasbasbasbasbasbasbasbasbasbasbag56
(g72
g58
NtRp3980
(dp3981
g61
(dp3982
sg70
g3746
sg63
(lp3983
g56
(g77
g58
NtRp3984
(dp3985
g61
(dp3986
g81
g82
ssg70
g3980
sg63
(lp3987
S'files'
p3988
asbag56
(g77
g58
NtRp3989
(dp3990
g61
(dp3991
g88
g89
ssg70
g3980
sg63
(lp3992
S':'
asbag56
(g77
g58
NtRp3993
(dp3994
g61
(dp3995
sg70
g3980
sg63
(lp3996
g56
(g57
g58
NtRp3997
(dp3998
g61
(dp3999
g69
I5
ssg70
g3993
sg63
(lp4000
g56
(g65
g58
NtRp4001
(dp4002
g61
(dp4003
g69
I4
ssg70
Nsg63
(lp4004
sbasbasbasbag56
(g72
g58
NtRp4005
(dp4006
g61
(dp4007
sg70
g3746
sg63
(lp4008
g56
(g77
g58
NtRp4009
(dp4010
g61
(dp4011
g81
g82
ssg70
g4005
sg63
(lp4012
S'flash'
p4013
asbag56
(g77
g58
NtRp4014
(dp4015
g61
(dp4016
g88
g89
ssg70
g4005
sg63
(lp4017
S':'
asbag56
(g77
g58
NtRp4018
(dp4019
g61
(dp4020
sg70
g4005
sg63
(lp4021
g56
(g57
g58
NtRp4022
(dp4023
g61
(dp4024
g69
I5
ssg70
g4018
sg63
(lp4025
S''
asbasbasbag56
(g72
g58
NtRp4026
(dp4027
g61
(dp4028
sg70
g3746
sg63
(lp4029
g56
(g77
g58
NtRp4030
(dp4031
g61
(dp4032
g81
g82
ssg70
g4026
sg63
(lp4033
S'generic_patterns'
p4034
asbag56
(g77
g58
NtRp4035
(dp4036
g61
(dp4037
g88
g89
ssg70
g4026
sg63
(lp4038
S':'
asbag56
(g77
g58
NtRp4039
(dp4040
g61
(dp4041
sg70
g4026
sg63
(lp4042
g56
(g57
g58
NtRp4043
(dp4044
g61
(dp4045
g69
I5
ssg70
g4039
sg63
(lp4046
g56
(g65
g58
NtRp4047
(dp4048
g61
(dp4049
g69
I4
ssg70
Nsg63
(lp4050
g56
(g72
g58
NtRp4051
(dp4052
g61
(dp4053
sg70
g4047
sg63
(lp4054
g56
(g77
g58
NtRp4055
(dp4056
g61
(dp4057
sg70
g4051
sg63
(lp4058
g56
(g57
g58
NtRp4059
(dp4060
g61
(dp4061
g69
I4
ssg70
g4055
sg63
(lp4062
S'*'
asbasbasbasbasbasbasbag56
(g72
g58
NtRp4063
(dp4064
g61
(dp4065
sg70
g3746
sg63
(lp4066
g56
(g77
g58
NtRp4067
(dp4068
g61
(dp4069
g81
g82
ssg70
g4063
sg63
(lp4070
S'headers'
p4071
asbag56
(g77
g58
NtRp4072
(dp4073
g61
(dp4074
g88
g89
ssg70
g4063
sg63
(lp4075
S':'
asbag56
(g77
g58
NtRp4076
(dp4077
g61
(dp4078
sg70
g4063
sg63
(lp4079
g56
(g57
g58
NtRp4080
(dp4081
g61
(dp4082
g69
I5
ssg70
g4076
sg63
(lp4083
g56
(g65
g58
NtRp4084
(dp4085
g61
(dp4086
g69
I4
ssg70
Nsg63
(lp4087
g56
(g72
g58
NtRp4088
(dp4089
g61
(dp4090
sg70
g4084
sg63
(lp4091
g56
(g77
g58
NtRp4092
(dp4093
g61
(dp4094
g81
g82
ssg70
g4088
sg63
(lp4095
S'Cache-Control'
p4096
asbag56
(g77
g58
NtRp4097
(dp4098
g61
(dp4099
g88
g89
ssg70
g4088
sg63
(lp4100
S':'
asbag56
(g77
g58
NtRp4101
(dp4102
g61
(dp4103
sg70
g4088
sg63
(lp4104
g56
(g57
g58
NtRp4105
(dp4106
g61
(dp4107
g69
I4
ssg70
g4101
sg63
(lp4108
S'no-store, no-cache, must-revalidate, post-check=0, pre-check=0'
p4109
asbasbasbag56
(g72
g58
NtRp4110
(dp4111
g61
(dp4112
sg70
g4084
sg63
(lp4113
g56
(g77
g58
NtRp4114
(dp4115
g61
(dp4116
g81
g82
ssg70
g4110
sg63
(lp4117
S'Content-Type'
p4118
asbag56
(g77
g58
NtRp4119
(dp4120
g61
(dp4121
g88
g89
ssg70
g4110
sg63
(lp4122
S':'
asbag56
(g77
g58
NtRp4123
(dp4124
g61
(dp4125
sg70
g4110
sg63
(lp4126
g56
(g57
g58
NtRp4127
(dp4128
g61
(dp4129
g69
I4
ssg70
g4123
sg63
(lp4130
S'text/html; charset=utf-8'
p4131
asbasbasbag56
(g72
g58
NtRp4132
(dp4133
g61
(dp4134
sg70
g4084
sg63
(lp4135
g56
(g77
g58
NtRp4136
(dp4137
g61
(dp4138
g81
g82
ssg70
g4132
sg63
(lp4139
S'Expires'
p4140
asbag56
(g77
g58
NtRp4141
(dp4142
g61
(dp4143
g88
g89
ssg70
g4132
sg63
(lp4144
S':'
asbag56
(g77
g58
NtRp4145
(dp4146
g61
(dp4147
sg70
g4132
sg63
(lp4148
g56
(g57
g58
NtRp4149
(dp4150
g61
(dp4151
g69
I4
ssg70
g4145
sg63
(lp4152
S'Thu, 03 Nov 2011 21:49:00 GMT'
p4153
asbasbasbag56
(g72
g58
NtRp4154
(dp4155
g61
(dp4156
sg70
g4084
sg63
(lp4157
g56
(g77
g58
NtRp4158
(dp4159
g61
(dp4160
g81
g82
ssg70
g4154
sg63
(lp4161
S'Pragma'
p4162
asbag56
(g77
g58
NtRp4163
(dp4164
g61
(dp4165
g88
g89
ssg70
g4154
sg63
(lp4166
S':'
asbag56
(g77
g58
NtRp4167
(dp4168
g61
(dp4169
sg70
g4154
sg63
(lp4170
g56
(g57
g58
NtRp4171
(dp4172
g61
(dp4173
g69
I4
ssg70
g4167
sg63
(lp4174
S'no-cache'
p4175
asbasbasbag56
(g72
g58
NtRp4176
(dp4177
g61
(dp4178
sg70
g4084
sg63
(lp4179
g56
(g77
g58
NtRp4180
(dp4181
g61
(dp4182
g81
g82
ssg70
g4176
sg63
(lp4183
S'X-Powered-By'
p4184
asbag56
(g77
g58
NtRp4185
(dp4186
g61
(dp4187
g88
g89
ssg70
g4176
sg63
(lp4188
S':'
asbag56
(g77
g58
NtRp4189
(dp4190
g61
(dp4191
sg70
g4176
sg63
(lp4192
g56
(g57
g58
NtRp4193
(dp4194
g61
(dp4195
g69
I4
ssg70
g4189
sg63
(lp4196
S'web2py'
p4197
asbasbasbasbasbasbasbag56
(g72
g58
NtRp4198
(dp4199
g61
(dp4200
sg70
g3746
sg63
(lp4201
g56
(g77
g58
NtRp4202
(dp4203
g61
(dp4204
g81
g82
ssg70
g4198
sg63
(lp4205
S'menu'
p4206
asbag56
(g77
g58
NtRp4207
(dp4208
g61
(dp4209
g88
g89
ssg70
g4198
sg63
(lp4210
S':'
asbag56
(g77
g58
NtRp4211
(dp4212
g61
(dp4213
sg70
g4198
sg63
(lp4214
g56
(g57
g58
NtRp4215
(dp4216
g61
(dp4217
g69
I5
ssg70
g4211
sg63
(lp4218
g56
(g65
g58
NtRp4219
(dp4220
g61
(dp4221
g69
I4
ssg70
Nsg63
(lp4222
g56
(g72
g58
NtRp4223
(dp4224
g61
(dp4225
sg70
g4219
sg63
(lp4226
g56
(g77
g58
NtRp4227
(dp4228
g61
(dp4229
sg70
g4223
sg63
(lp4230
g56
(g57
g58
NtRp4231
(dp4232
g61
(dp4233
g69
I4
ssg70
g4227
sg63
(lp4234
g56
(g65
g58
NtRp4235
(dp4236
g61
(dp4237
g69
I3
ssg70
Nsg63
(lp4238
g56
(g72
g58
NtRp4239
(dp4240
g61
(dp4241
sg70
g4235
sg63
(lp4242
g56
(g77
g58
NtRp4243
(dp4244
g61
(dp4245
sg70
g4239
sg63
(lp4246
g56
(g57
g58
NtRp4247
(dp4248
g61
(dp4249
g69
I3
ssg70
g4243
sg63
(lp4250
cgluon.languages
lazyT_unpickle
p4251
(S't\x05\x00\x00\x00Index'
tRp4252
asbasbasbag56
(g72
g58
NtRp4253
(dp4254
g61
(dp4255
sg70
g4235
sg63
(lp4256
g56
(g77
g58
NtRp4257
(dp4258
g61
(dp4259
sg70
g4253
sg63
(lp4260
g56
(g57
g58
NtRp4261
(dp4262
g61
(dp4263
g69
I3
ssg70
g4257
sg63
(lp4264
g1166
asbasbasbag56
(g72
g58
NtRp4265
(dp4266
g61
(dp4267
sg70
g4235
sg63
(lp4268
g56
(g77
g58
NtRp4269
(dp4270
g61
(dp4271
sg70
g4265
sg63
(lp4272
g56
(g57
g58
NtRp4273
(dp4274
g61
(dp4275
g69
I3
ssg70
g4269
sg63
(lp4276
S'/grades/default/index.load'
p4277
asbasbasbag56
(g72
g58
NtRp4278
(dp4279
g61
(dp4280
sg70
g4235
sg63
(lp4281
g56
(g77
g58
NtRp4282
(dp4283
g61
(dp4284
sg70
g4278
sg63
(lp4285
g56
(g57
g58
NtRp4286
(dp4287
g61
(dp4288
g69
I3
ssg70
g4282
sg63
(lp4289
g56
(g65
g58
NtRp4290
(dp4291
g61
(dp4292
g69
I2
ssg70
Nsg63
(lp4293
sbasbasbasbasbasbasbasbag56
(g72
g58
NtRp4294
(dp4295
g61
(dp4296
sg70
g4219
sg63
(lp4297
g56
(g77
g58
NtRp4298
(dp4299
g61
(dp4300
sg70
g4294
sg63
(lp4301
g56
(g57
g58
NtRp4302
(dp4303
g61
(dp4304
g69
I4
ssg70
g4298
sg63
(lp4305
g56
(g65
g58
NtRp4306
(dp4307
g61
(dp4308
g69
I3
ssg70
Nsg63
(lp4309
g56
(g72
g58
NtRp4310
(dp4311
g61
(dp4312
sg70
g4306
sg63
(lp4313
g56
(g77
g58
NtRp4314
(dp4315
g61
(dp4316
sg70
g4310
sg63
(lp4317
g56
(g57
g58
NtRp4318
(dp4319
g61
(dp4320
g69
I3
ssg70
g4314
sg63
(lp4321
g4251
(S't\x06\x00\x00\x00Grades'
tRp4322
asbasbasbag56
(g72
g58
NtRp4323
(dp4324
g61
(dp4325
sg70
g4306
sg63
(lp4326
g56
(g77
g58
NtRp4327
(dp4328
g61
(dp4329
sg70
g4323
sg63
(lp4330
g56
(g57
g58
NtRp4331
(dp4332
g61
(dp4333
g69
I3
ssg70
g4327
sg63
(lp4334
g1166
asbasbasbag56
(g72
g58
NtRp4335
(dp4336
g61
(dp4337
sg70
g4306
sg63
(lp4338
g56
(g77
g58
NtRp4339
(dp4340
g61
(dp4341
sg70
g4335
sg63
(lp4342
g56
(g57
g58
NtRp4343
(dp4344
g61
(dp4345
g69
I3
ssg70
g4339
sg63
(lp4346
S'/grades/default/grades_manage.load'
p4347
asbasbasbag56
(g72
g58
NtRp4348
(dp4349
g61
(dp4350
sg70
g4306
sg63
(lp4351
g56
(g77
g58
NtRp4352
(dp4353
g61
(dp4354
sg70
g4348
sg63
(lp4355
g56
(g57
g58
NtRp4356
(dp4357
g61
(dp4358
g69
I3
ssg70
g4352
sg63
(lp4359
g56
(g65
g58
NtRp4360
(dp4361
g61
(dp4362
g69
I2
ssg70
Nsg63
(lp4363
sbasbasbasbasbasbasbasbag56
(g72
g58
NtRp4364
(dp4365
g61
(dp4366
sg70
g4219
sg63
(lp4367
g56
(g77
g58
NtRp4368
(dp4369
g61
(dp4370
sg70
g4364
sg63
(lp4371
g56
(g57
g58
NtRp4372
(dp4373
g61
(dp4374
g69
I4
ssg70
g4368
sg63
(lp4375
g56
(g65
g58
NtRp4376
(dp4377
g61
(dp4378
g69
I3
ssg70
Nsg63
(lp4379
g56
(g72
g58
NtRp4380
(dp4381
g61
(dp4382
sg70
g4376
sg63
(lp4383
g56
(g77
g58
NtRp4384
(dp4385
g61
(dp4386
sg70
g4380
sg63
(lp4387
g56
(g57
g58
NtRp4388
(dp4389
g61
(dp4390
g69
I3
ssg70
g4384
sg63
(lp4391
g4251
(S't\x07\x00\x00\x00Classes'
tRp4392
asbasbasbag56
(g72
g58
NtRp4393
(dp4394
g61
(dp4395
sg70
g4376
sg63
(lp4396
g56
(g77
g58
NtRp4397
(dp4398
g61
(dp4399
sg70
g4393
sg63
(lp4400
g56
(g57
g58
NtRp4401
(dp4402
g61
(dp4403
g69
I3
ssg70
g4397
sg63
(lp4404
g1166
asbasbasbag56
(g72
g58
NtRp4405
(dp4406
g61
(dp4407
sg70
g4376
sg63
(lp4408
g56
(g77
g58
NtRp4409
(dp4410
g61
(dp4411
sg70
g4405
sg63
(lp4412
g56
(g57
g58
NtRp4413
(dp4414
g61
(dp4415
g69
I3
ssg70
g4409
sg63
(lp4416
S'/grades/default/classes_manage.load'
p4417
asbasbasbag56
(g72
g58
NtRp4418
(dp4419
g61
(dp4420
sg70
g4376
sg63
(lp4421
g56
(g77
g58
NtRp4422
(dp4423
g61
(dp4424
sg70
g4418
sg63
(lp4425
g56
(g57
g58
NtRp4426
(dp4427
g61
(dp4428
g69
I3
ssg70
g4422
sg63
(lp4429
g56
(g65
g58
NtRp4430
(dp4431
g61
(dp4432
g69
I2
ssg70
Nsg63
(lp4433
sbasbasbasbasbasbasbasbasbasbasbasbag56
(g72
g58
NtRp4434
(dp4435
g61
(dp4436
sg70
g3746
sg63
(lp4437
g56
(g77
g58
NtRp4438
(dp4439
g61
(dp4440
g81
g82
ssg70
g4434
sg63
(lp4441
S'meta'
p4442
asbag56
(g77
g58
NtRp4443
(dp4444
g61
(dp4445
g88
g89
ssg70
g4434
sg63
(lp4446
S':'
asbag56
(g77
g58
NtRp4447
(dp4448
g61
(dp4449
sg70
g4434
sg63
(lp4450
g56
(g57
g58
NtRp4451
(dp4452
g61
(dp4453
g69
I5
ssg70
g4447
sg63
(lp4454
g56
(g65
g58
NtRp4455
(dp4456
g61
(dp4457
g69
I4
ssg70
Nsg63
(lp4458
g56
(g72
g58
NtRp4459
(dp4460
g61
(dp4461
sg70
g4455
sg63
(lp4462
g56
(g77
g58
NtRp4463
(dp4464
g61
(dp4465
g81
g82
ssg70
g4459
sg63
(lp4466
S'author'
p4467
asbag56
(g77
g58
NtRp4468
(dp4469
g61
(dp4470
g88
g89
ssg70
g4459
sg63
(lp4471
S':'
asbag56
(g77
g58
NtRp4472
(dp4473
g61
(dp4474
sg70
g4459
sg63
(lp4475
g56
(g57
g58
NtRp4476
(dp4477
g61
(dp4478
g69
I4
ssg70
g4472
sg63
(lp4479
S'Ian W. Scott <scottianw@gmail.com>'
p4480
asbasbasbag56
(g72
g58
NtRp4481
(dp4482
g61
(dp4483
sg70
g4455
sg63
(lp4484
g56
(g77
g58
NtRp4485
(dp4486
g61
(dp4487
g81
g82
ssg70
g4481
sg63
(lp4488
S'description'
p4489
asbag56
(g77
g58
NtRp4490
(dp4491
g61
(dp4492
g88
g89
ssg70
g4481
sg63
(lp4493
S':'
asbag56
(g77
g58
NtRp4494
(dp4495
g61
(dp4496
sg70
g4481
sg63
(lp4497
g56
(g57
g58
NtRp4498
(dp4499
g61
(dp4500
g69
I4
ssg70
g4494
sg63
(lp4501
S''
asbasbasbag56
(g72
g58
NtRp4502
(dp4503
g61
(dp4504
sg70
g4455
sg63
(lp4505
g56
(g77
g58
NtRp4506
(dp4507
g61
(dp4508
g81
g82
ssg70
g4502
sg63
(lp4509
S'keywords'
p4510
asbag56
(g77
g58
NtRp4511
(dp4512
g61
(dp4513
g88
g89
ssg70
g4502
sg63
(lp4514
S':'
asbag56
(g77
g58
NtRp4515
(dp4516
g61
(dp4517
sg70
g4502
sg63
(lp4518
g56
(g57
g58
NtRp4519
(dp4520
g61
(dp4521
g69
I4
ssg70
g4515
sg63
(lp4522
S''
asbasbasbasbasbasbasbag56
(g72
g58
NtRp4523
(dp4524
g61
(dp4525
sg70
g3746
sg63
(lp4526
g56
(g77
g58
NtRp4527
(dp4528
g61
(dp4529
g81
g82
ssg70
g4523
sg63
(lp4530
S'postprocessing'
p4531
asbag56
(g77
g58
NtRp4532
(dp4533
g61
(dp4534
g88
g89
ssg70
g4523
sg63
(lp4535
S':'
asbag56
(g77
g58
NtRp4536
(dp4537
g61
(dp4538
sg70
g4523
sg63
(lp4539
g56
(g57
g58
NtRp4540
(dp4541
g61
(dp4542
g69
I5
ssg70
g4536
sg63
(lp4543
g56
(g65
g58
NtRp4544
(dp4545
g61
(dp4546
g69
I4
ssg70
Nsg63
(lp4547
sbasbasbasbag56
(g72
g58
NtRp4548
(dp4549
g61
(dp4550
sg70
g3746
sg63
(lp4551
g56
(g77
g58
NtRp4552
(dp4553
g61
(dp4554
g81
g82
ssg70
g4548
sg63
(lp4555
S'session_file'
p4556
asbag56
(g77
g58
NtRp4557
(dp4558
g61
(dp4559
g88
g89
ssg70
g4548
sg63
(lp4560
S':'
asbag56
(g77
g58
NtRp4561
(dp4562
g61
(dp4563
sg70
g4548
sg63
(lp4564
g56
(g57
g58
NtRp4565
(dp4566
g61
(dp4567
g69
I5
ssg70
g4561
sg63
(lp4568
S"<open file '/home/ian/web2py/applications/grades/sessions/127.0.0.1-61c0ea3f-8797-4aff-bb5b-97a734e7ddbc', mode 'rb+' at 0x2828ed0>"
p4569
asbasbasbag56
(g72
g58
NtRp4570
(dp4571
g61
(dp4572
sg70
g3746
sg63
(lp4573
g56
(g77
g58
NtRp4574
(dp4575
g61
(dp4576
g81
g82
ssg70
g4570
sg63
(lp4577
S'session_filename'
p4578
asbag56
(g77
g58
NtRp4579
(dp4580
g61
(dp4581
g88
g89
ssg70
g4570
sg63
(lp4582
S':'
asbag56
(g77
g58
NtRp4583
(dp4584
g61
(dp4585
sg70
g4570
sg63
(lp4586
g56
(g57
g58
NtRp4587
(dp4588
g61
(dp4589
g69
I5
ssg70
g4583
sg63
(lp4590
S'/home/ian/web2py/applications/grades/sessions/127.0.0.1-61c0ea3f-8797-4aff-bb5b-97a734e7ddbc'
p4591
asbasbasbag56
(g72
g58
NtRp4592
(dp4593
g61
(dp4594
sg70
g3746
sg63
(lp4595
g56
(g77
g58
NtRp4596
(dp4597
g61
(dp4598
g81
g82
ssg70
g4592
sg63
(lp4599
S'session_id'
p4600
asbag56
(g77
g58
NtRp4601
(dp4602
g61
(dp4603
g88
g89
ssg70
g4592
sg63
(lp4604
S':'
asbag56
(g77
g58
NtRp4605
(dp4606
g61
(dp4607
sg70
g4592
sg63
(lp4608
g56
(g57
g58
NtRp4609
(dp4610
g61
(dp4611
g69
I5
ssg70
g4605
sg63
(lp4612
S'127.0.0.1-61c0ea3f-8797-4aff-bb5b-97a734e7ddbc'
p4613
asbasbasbag56
(g72
g58
NtRp4614
(dp4615
g61
(dp4616
sg70
g3746
sg63
(lp4617
g56
(g77
g58
NtRp4618
(dp4619
g61
(dp4620
g81
g82
ssg70
g4614
sg63
(lp4621
S'session_id_name'
p4622
asbag56
(g77
g58
NtRp4623
(dp4624
g61
(dp4625
g88
g89
ssg70
g4614
sg63
(lp4626
S':'
asbag56
(g77
g58
NtRp4627
(dp4628
g61
(dp4629
sg70
g4614
sg63
(lp4630
g56
(g57
g58
NtRp4631
(dp4632
g61
(dp4633
g69
I5
ssg70
g4627
sg63
(lp4634
g3803
asbasbasbag56
(g72
g58
NtRp4635
(dp4636
g61
(dp4637
sg70
g3746
sg63
(lp4638
g56
(g77
g58
NtRp4639
(dp4640
g61
(dp4641
g81
g82
ssg70
g4635
sg63
(lp4642
S'session_locked'
p4643
asbag56
(g77
g58
NtRp4644
(dp4645
g61
(dp4646
g88
g89
ssg70
g4635
sg63
(lp4647
S':'
asbag56
(g77
g58
NtRp4648
(dp4649
g61
(dp4650
sg70
g4635
sg63
(lp4651
g56
(g57
g58
NtRp4652
(dp4653
g61
(dp4654
g69
I5
ssg70
g4648
sg63
(lp4655
g99
asbasbasbag56
(g72
g58
NtRp4656
(dp4657
g61
(dp4658
sg70
g3746
sg63
(lp4659
g56
(g77
g58
NtRp4660
(dp4661
g61
(dp4662
g81
g82
ssg70
g4656
sg63
(lp4663
S'session_new'
p4664
asbag56
(g77
g58
NtRp4665
(dp4666
g61
(dp4667
g88
g89
ssg70
g4656
sg63
(lp4668
S':'
asbag56
(g77
g58
NtRp4669
(dp4670
g61
(dp4671
sg70
g4656
sg63
(lp4672
g56
(g57
g58
NtRp4673
(dp4674
g61
(dp4675
g69
I5
ssg70
g4669
sg63
(lp4676
g1166
asbasbasbag56
(g72
g58
NtRp4677
(dp4678
g61
(dp4679
sg70
g3746
sg63
(lp4680
g56
(g77
g58
NtRp4681
(dp4682
g61
(dp4683
g81
g82
ssg70
g4677
sg63
(lp4684
S'status'
p4685
asbag56
(g77
g58
NtRp4686
(dp4687
g61
(dp4688
g88
g89
ssg70
g4677
sg63
(lp4689
S':'
asbag56
(g77
g58
NtRp4690
(dp4691
g61
(dp4692
sg70
g4677
sg63
(lp4693
g56
(g57
g58
NtRp4694
(dp4695
g61
(dp4696
g69
I5
ssg70
g4690
sg63
(lp4697
S'200'
p4698
asbasbasbag56
(g72
g58
NtRp4699
(dp4700
g61
(dp4701
sg70
g3746
sg63
(lp4702
g56
(g77
g58
NtRp4703
(dp4704
g61
(dp4705
g81
g82
ssg70
g4699
sg63
(lp4706
S'subtitle'
p4707
asbag56
(g77
g58
NtRp4708
(dp4709
g61
(dp4710
g88
g89
ssg70
g4699
sg63
(lp4711
S':'
asbag56
(g77
g58
NtRp4712
(dp4713
g61
(dp4714
sg70
g4699
sg63
(lp4715
g56
(g57
g58
NtRp4716
(dp4717
g61
(dp4718
g69
I5
ssg70
g4712
sg63
(lp4719
S'a platform for easy submission of peer grades'
p4720
asbasbasbag56
(g72
g58
NtRp4721
(dp4722
g61
(dp4723
sg70
g3746
sg63
(lp4724
g56
(g77
g58
NtRp4725
(dp4726
g61
(dp4727
g81
g82
ssg70
g4721
sg63
(lp4728
S'title'
p4729
asbag56
(g77
g58
NtRp4730
(dp4731
g61
(dp4732
g88
g89
ssg70
g4721
sg63
(lp4733
S':'
asbag56
(g77
g58
NtRp4734
(dp4735
g61
(dp4736
sg70
g4721
sg63
(lp4737
g56
(g57
g58
NtRp4738
(dp4739
g61
(dp4740
g69
I5
ssg70
g4734
sg63
(lp4741
S'Grades'
p4742
asbasbasbag56
(g72
g58
NtRp4743
(dp4744
g61
(dp4745
sg70
g3746
sg63
(lp4746
g56
(g77
g58
NtRp4747
(dp4748
g61
(dp4749
g81
g82
ssg70
g4743
sg63
(lp4750
g2593
asbag56
(g77
g58
NtRp4751
(dp4752
g61
(dp4753
g88
g89
ssg70
g4743
sg63
(lp4754
S':'
asbag56
(g77
g58
NtRp4755
(dp4756
g61
(dp4757
sg70
g4743
sg63
(lp4758
g56
(g57
g58
NtRp4759
(dp4760
g61
(dp4761
g69
I5
ssg70
g4755
sg63
(lp4762
g2606
asbasbasbag56
(g72
g58
NtRp4763
(dp4764
g61
(dp4765
sg70
g3746
sg63
(lp4766
g56
(g77
g58
NtRp4767
(dp4768
g61
(dp4769
g81
g82
ssg70
g4763
sg63
(lp4770
S'view'
p4771
asbag56
(g77
g58
NtRp4772
(dp4773
g61
(dp4774
g88
g89
ssg70
g4763
sg63
(lp4775
S':'
asbag56
(g77
g58
NtRp4776
(dp4777
g61
(dp4778
sg70
g4763
sg63
(lp4779
g56
(g57
g58
NtRp4780
(dp4781
g61
(dp4782
g69
I5
ssg70
g4776
sg63
(lp4783
S'default/grades_report.load'
p4784
asbasbasbasbasbsS'locals'
p4785
(dp4786
S'sindex'
p4787
S'54'
p4788
sS'students'
p4789
S"{11: 'Scott, Ian', 12: 'Man, Jacquelyn', 13: 'Sequeira, Adrianne', 14: 'Johnston, Dianne', 15: 'Kwok, Kam', 16: 'Chen, Gary', 17: 'Tam, Derek', 18: 'ADHIKARY, RICHARD', 19: 'asamoah, david', 20: 'Seto, Michael', ...}"
p4790
sS'slast'
p4791
S"'Gordon'"
p4792
sS's'
S"<Row {'auth_event': <gluon.dal.Set object at 0x7...elete_record': <function <lambda> at 0x75971b8>}>"
p4793
sS'student_list'
p4794
S'<gluon.dal.Rows object>'
p4795
sS'sfirst'
p4796
S"'Christal'"
p4797
sssS'traceback'
p4798
S'Traceback (most recent call last):\n  File "/home/ian/web2py/gluon/restricted.py", line 194, in restricted\n    exec ccode in environment\n  File "/home/ian/web2py/applications/grades/controllers/default.py", line 62, in <module>\n  File "/home/ian/web2py/gluon/globals.py", line 149, in <lambda>\n    self._caller = lambda f: f()\n  File "/home/ian/web2py/gluon/tools.py", line 2456, in f\n    return action(*a, **b)\n  File "/home/ian/web2py/applications/grades/controllers/default.py", line 41, in grades_report\n    u = request.args[0] or 15\nIndexError: list index out of range\n'
p4799
s.